 3a5b69a:	e8 21 73 2c 04       	call   7d229c0 <pthread_mutex_unlock@plt>
 3a6c21c:	e8 9f 67 2b 04       	call   7d229c0 <pthread_mutex_unlock@plt>
 3a6c30a:	e8 b1 66 2b 04       	call   7d229c0 <pthread_mutex_unlock@plt>
 3a6c3b5:	e8 06 66 2b 04       	call   7d229c0 <pthread_mutex_unlock@plt>
 3a6dc1c:	e8 9f 4d 2b 04       	call   7d229c0 <pthread_mutex_unlock@plt>
 3a6dd02:	e8 b9 4c 2b 04       	call   7d229c0 <pthread_mutex_unlock@plt>
 3a6dd0a:	e8 b1 4c 2b 04       	call   7d229c0 <pthread_mutex_unlock@plt>
 3a6dda2:	e8 19 4c 2b 04       	call   7d229c0 <pthread_mutex_unlock@plt>
 3a6dffc:	e8 7f 6c 71 03       	call   7184c80 <mongo::Lock::GlobalLock::_unlock()>
 3a6e084:	e8 37 71 71 03       	call   71851c0 <mongo::Lock::ResourceLock::_unlock()>
 3a6e093:	e8 28 71 71 03       	call   71851c0 <mongo::Lock::ResourceLock::_unlock()>
 3a6ed9d:	e8 1e 3c 2b 04       	call   7d229c0 <pthread_mutex_unlock@plt>
0000000003a6f390 <std::unique_lock<std::mutex>::unlock()>:
 3a6f39d:	74 1a                	je     3a6f3b9 <std::unique_lock<std::mutex>::unlock()+0x29>
 3a6f3a8:	74 09                	je     3a6f3b3 <std::unique_lock<std::mutex>::unlock()+0x23>
 3a6f3aa:	e8 11 36 2b 04       	call   7d229c0 <pthread_mutex_unlock@plt>
 3a6f4be:	e8 fd 34 2b 04       	call   7d229c0 <pthread_mutex_unlock@plt>
 3a71c70:	e8 4b 0d 2b 04       	call   7d229c0 <pthread_mutex_unlock@plt>
 3a71d1d:	e8 9e 0c 2b 04       	call   7d229c0 <pthread_mutex_unlock@plt>
 3a71d91:	e8 fa d5 ff ff       	call   3a6f390 <std::unique_lock<std::mutex>::unlock()>
 3a71d9f:	e8 ec d5 ff ff       	call   3a6f390 <std::unique_lock<std::mutex>::unlock()>
 3a738b8:	e8 03 f1 2a 04       	call   7d229c0 <pthread_mutex_unlock@plt>
 3a739b0:	e8 db b9 ff ff       	call   3a6f390 <std::unique_lock<std::mutex>::unlock()>
 3a82d9a:	e8 21 fc 29 04       	call   7d229c0 <pthread_mutex_unlock@plt>
 3a89e64:	e8 57 8b 29 04       	call   7d229c0 <pthread_mutex_unlock@plt>
 3a89f6c:	e8 1f 54 fe ff       	call   3a6f390 <std::unique_lock<std::mutex>::unlock()>
 3a89fa3:	e8 e8 53 fe ff       	call   3a6f390 <std::unique_lock<std::mutex>::unlock()>
 3a8adef:	e8 cc 7b 29 04       	call   7d229c0 <pthread_mutex_unlock@plt>
 3a8b0f5:	e8 c6 78 29 04       	call   7d229c0 <pthread_mutex_unlock@plt>
 3a8b1eb:	e8 d0 77 29 04       	call   7d229c0 <pthread_mutex_unlock@plt>
 3a8b22d:	e8 8e 77 29 04       	call   7d229c0 <pthread_mutex_unlock@plt>
 3a8b4b8:	e8 03 75 29 04       	call   7d229c0 <pthread_mutex_unlock@plt>
 3a8b629:	e9 92 73 29 04       	jmp    7d229c0 <pthread_mutex_unlock@plt>
 3a8b7a1:	e9 1a 72 29 04       	jmp    7d229c0 <pthread_mutex_unlock@plt>
 3a8ba10:	e8 ab 6f 29 04       	call   7d229c0 <pthread_mutex_unlock@plt>
 3a8bba8:	e8 13 6e 29 04       	call   7d229c0 <pthread_mutex_unlock@plt>
 3a8c09a:	e8 f1 32 fe ff       	call   3a6f390 <std::unique_lock<std::mutex>::unlock()>
 3a8c252:	e8 39 31 fe ff       	call   3a6f390 <std::unique_lock<std::mutex>::unlock()>
 3a8c270:	e8 1b 31 fe ff       	call   3a6f390 <std::unique_lock<std::mutex>::unlock()>
 3a8c2ae:	e8 dd 30 fe ff       	call   3a6f390 <std::unique_lock<std::mutex>::unlock()>
 3a8cefc:	e8 bf 5a 29 04       	call   7d229c0 <pthread_mutex_unlock@plt>
 3a8d0d0:	e8 bb 22 fe ff       	call   3a6f390 <std::unique_lock<std::mutex>::unlock()>
 3a8d112:	e8 79 22 fe ff       	call   3a6f390 <std::unique_lock<std::mutex>::unlock()>
 3a8d44a:	e8 71 55 29 04       	call   7d229c0 <pthread_mutex_unlock@plt>
 3a8d4c2:	e9 f9 54 29 04       	jmp    7d229c0 <pthread_mutex_unlock@plt>
 3a8d548:	e8 73 54 29 04       	call   7d229c0 <pthread_mutex_unlock@plt>
 3a8d55b:	e8 60 54 29 04       	call   7d229c0 <pthread_mutex_unlock@plt>
 3a8d57c:	e8 3f 54 29 04       	call   7d229c0 <pthread_mutex_unlock@plt>
 3a8d6c5:	e9 f6 52 29 04       	jmp    7d229c0 <pthread_mutex_unlock@plt>
 3a8d8ae:	e8 0d 51 29 04       	call   7d229c0 <pthread_mutex_unlock@plt>
 3a8d8e7:	e8 d4 50 29 04       	call   7d229c0 <pthread_mutex_unlock@plt>
 3a8d9b9:	e8 02 50 29 04       	call   7d229c0 <pthread_mutex_unlock@plt>
 3a8d9cb:	e8 f0 4f 29 04       	call   7d229c0 <pthread_mutex_unlock@plt>
 3a8da00:	e9 bb 4f 29 04       	jmp    7d229c0 <pthread_mutex_unlock@plt>
 3a8dad9:	e8 e2 4e 29 04       	call   7d229c0 <pthread_mutex_unlock@plt>
 3a8dcad:	e8 0e 4d 29 04       	call   7d229c0 <pthread_mutex_unlock@plt>
 3a8dee7:	e8 a4 14 fe ff       	call   3a6f390 <std::unique_lock<std::mutex>::unlock()>
 3a8df1c:	e8 6f 14 fe ff       	call   3a6f390 <std::unique_lock<std::mutex>::unlock()>
 3a9190f:	e8 6c 33 6f 03       	call   7184c80 <mongo::Lock::GlobalLock::_unlock()>
 3a91b32:	e8 89 36 6f 03       	call   71851c0 <mongo::Lock::ResourceLock::_unlock()>
 3a91b4b:	e8 70 36 6f 03       	call   71851c0 <mongo::Lock::ResourceLock::_unlock()>
 3a93183:	e9 38 f8 28 04       	jmp    7d229c0 <pthread_mutex_unlock@plt>
 3a931de:	e9 dd f7 28 04       	jmp    7d229c0 <pthread_mutex_unlock@plt>
 3a943c0:	e8 fb e5 28 04       	call   7d229c0 <pthread_mutex_unlock@plt>
 3a9734f:	e8 2c d9 6e 03       	call   7184c80 <mongo::Lock::GlobalLock::_unlock()>
 3a9739b:	e8 20 b6 28 04       	call   7d229c0 <pthread_mutex_unlock@plt>
 3a9742f:	e8 8c dd 6e 03       	call   71851c0 <mongo::Lock::ResourceLock::_unlock()>
 3a97444:	e8 77 dd 6e 03       	call   71851c0 <mongo::Lock::ResourceLock::_unlock()>
 3a98913:	e8 a8 a0 28 04       	call   7d229c0 <pthread_mutex_unlock@plt>
 3aa2c08:	e8 b3 fd 27 04       	call   7d229c0 <pthread_mutex_unlock@plt>
 3aa2c5c:	e8 5f fd 27 04       	call   7d229c0 <pthread_mutex_unlock@plt>
 3aa2de3:	e8 d8 fb 27 04       	call   7d229c0 <pthread_mutex_unlock@plt>
 3aa31da:	e8 e1 f7 27 04       	call   7d229c0 <pthread_mutex_unlock@plt>
 3aa3238:	e8 83 f7 27 04       	call   7d229c0 <pthread_mutex_unlock@plt>
 3aa3377:	e8 44 f6 27 04       	call   7d229c0 <pthread_mutex_unlock@plt>
 3aa343a:	e8 81 f5 27 04       	call   7d229c0 <pthread_mutex_unlock@plt>
 3aa3575:	e8 46 f4 27 04       	call   7d229c0 <pthread_mutex_unlock@plt>
 3aa386c:	e8 1f bb fc ff       	call   3a6f390 <std::unique_lock<std::mutex>::unlock()>
 3aa387d:	e8 0e bb fc ff       	call   3a6f390 <std::unique_lock<std::mutex>::unlock()>
 3aa4df2:	e8 89 fe 6d 03       	call   7184c80 <mongo::Lock::GlobalLock::_unlock()>
 3aa4e3b:	e8 80 03 6e 03       	call   71851c0 <mongo::Lock::ResourceLock::_unlock()>
 3aa4e66:	e8 15 fe 6d 03       	call   7184c80 <mongo::Lock::GlobalLock::_unlock()>
 3aa4eb4:	e8 07 03 6e 03       	call   71851c0 <mongo::Lock::ResourceLock::_unlock()>
 3aa4ec4:	e8 f7 02 6e 03       	call   71851c0 <mongo::Lock::ResourceLock::_unlock()>
 3aa4ed4:	e8 e7 02 6e 03       	call   71851c0 <mongo::Lock::ResourceLock::_unlock()>
 3aa50dc:	e8 9f fb 6d 03       	call   7184c80 <mongo::Lock::GlobalLock::_unlock()>
 3aa5121:	e8 9a 00 6e 03       	call   71851c0 <mongo::Lock::ResourceLock::_unlock()>
 3aa5174:	e8 47 00 6e 03       	call   71851c0 <mongo::Lock::ResourceLock::_unlock()>
 3aa51cf:	e8 ac fa 6d 03       	call   7184c80 <mongo::Lock::GlobalLock::_unlock()>
 3aa5224:	e8 97 ff 6d 03       	call   71851c0 <mongo::Lock::ResourceLock::_unlock()>
 3aa5234:	e8 87 ff 6d 03       	call   71851c0 <mongo::Lock::ResourceLock::_unlock()>
 3aa5425:	e8 56 f8 6d 03       	call   7184c80 <mongo::Lock::GlobalLock::_unlock()>
 3aa546a:	e8 51 fd 6d 03       	call   71851c0 <mongo::Lock::ResourceLock::_unlock()>
 3aa547c:	e8 3f fd 6d 03       	call   71851c0 <mongo::Lock::ResourceLock::_unlock()>
 3aa54d7:	e8 a4 f7 6d 03       	call   7184c80 <mongo::Lock::GlobalLock::_unlock()>
 3aa5534:	e8 87 fc 6d 03       	call   71851c0 <mongo::Lock::ResourceLock::_unlock()>
 3aa5544:	e8 77 fc 6d 03       	call   71851c0 <mongo::Lock::ResourceLock::_unlock()>
 3aa960a:	e8 b1 93 27 04       	call   7d229c0 <pthread_mutex_unlock@plt>
 3aab30f:	e8 7c 40 fc ff       	call   3a6f390 <std::unique_lock<std::mutex>::unlock()>
 3aac4fb:	e8 90 2e fc ff       	call   3a6f390 <std::unique_lock<std::mutex>::unlock()>
 3ac505a:	e8 61 d9 25 04       	call   7d229c0 <pthread_mutex_unlock@plt>
 3ada094:	e8 27 89 24 04       	call   7d229c0 <pthread_mutex_unlock@plt>
 3ae239b:	e8 20 06 24 04       	call   7d229c0 <pthread_mutex_unlock@plt>
 3ae3516:	e8 a5 f4 23 04       	call   7d229c0 <pthread_mutex_unlock@plt>
 3ae365e:	e8 5d f3 23 04       	call   7d229c0 <pthread_mutex_unlock@plt>
 3ae3785:	e8 36 f2 23 04       	call   7d229c0 <pthread_mutex_unlock@plt>
 3ae5507:	e8 84 9e f8 ff       	call   3a6f390 <std::unique_lock<std::mutex>::unlock()>
 3ae560a:	e8 81 9d f8 ff       	call   3a6f390 <std::unique_lock<std::mutex>::unlock()>
 3af8eb2:	e8 09 9b 22 04       	call   7d229c0 <pthread_mutex_unlock@plt>
 3af9106:	e8 b5 98 22 04       	call   7d229c0 <pthread_mutex_unlock@plt>
 3af9806:	e8 b5 91 22 04       	call   7d229c0 <pthread_mutex_unlock@plt>
 3af9888:	e8 33 91 22 04       	call   7d229c0 <pthread_mutex_unlock@plt>
 3af99d8:	e8 e3 8f 22 04       	call   7d229c0 <pthread_mutex_unlock@plt>
 3af9ba2:	e8 19 8e 22 04       	call   7d229c0 <pthread_mutex_unlock@plt>
 3af9c40:	e8 7b 8d 22 04       	call   7d229c0 <pthread_mutex_unlock@plt>
 3afac9e:	e8 1d 7d 22 04       	call   7d229c0 <pthread_mutex_unlock@plt>
 3afad25:	e8 96 7c 22 04       	call   7d229c0 <pthread_mutex_unlock@plt>
 3b0019a:	e8 21 28 22 04       	call   7d229c0 <pthread_mutex_unlock@plt>
 3b00ae4:	e9 d7 1e 22 04       	jmp    7d229c0 <pthread_mutex_unlock@plt>
 3b00b95:	e8 26 1e 22 04       	call   7d229c0 <pthread_mutex_unlock@plt>
 3b00c5d:	e8 5e 1d 22 04       	call   7d229c0 <pthread_mutex_unlock@plt>
 3b00c6b:	e8 50 1d 22 04       	call   7d229c0 <pthread_mutex_unlock@plt>
 3b00c8f:	e8 2c 1d 22 04       	call   7d229c0 <pthread_mutex_unlock@plt>
 3b00c97:	e8 24 1d 22 04       	call   7d229c0 <pthread_mutex_unlock@plt>
 3b00d14:	e9 a7 1c 22 04       	jmp    7d229c0 <pthread_mutex_unlock@plt>
 3b00d2a:	e8 91 1c 22 04       	call   7d229c0 <pthread_mutex_unlock@plt>
 3b015d4:	e8 e7 13 22 04       	call   7d229c0 <pthread_mutex_unlock@plt>
 3b015e3:	e8 d8 13 22 04       	call   7d229c0 <pthread_mutex_unlock@plt>
 3b01607:	e8 b4 13 22 04       	call   7d229c0 <pthread_mutex_unlock@plt>
 3b0161d:	e9 9e 13 22 04       	jmp    7d229c0 <pthread_mutex_unlock@plt>
 3b01a30:	e9 8b 0f 22 04       	jmp    7d229c0 <pthread_mutex_unlock@plt>
 3b01b70:	e9 4b 0e 22 04       	jmp    7d229c0 <pthread_mutex_unlock@plt>
 3b01d65:	e9 56 0c 22 04       	jmp    7d229c0 <pthread_mutex_unlock@plt>
 3b01e4b:	e8 70 0b 22 04       	call   7d229c0 <pthread_mutex_unlock@plt>
 3b02330:	e8 8b 06 22 04       	call   7d229c0 <pthread_mutex_unlock@plt>
 3b02350:	e8 6b 06 22 04       	call   7d229c0 <pthread_mutex_unlock@plt>
 3b0248e:	e8 2d 05 22 04       	call   7d229c0 <pthread_mutex_unlock@plt>
 3b03b91:	e9 2a ee 21 04       	jmp    7d229c0 <pthread_mutex_unlock@plt>
 3b03fd2:	e8 e9 e9 21 04       	call   7d229c0 <pthread_mutex_unlock@plt>
 3b0405e:	e8 5d e9 21 04       	call   7d229c0 <pthread_mutex_unlock@plt>
 3b0407e:	e8 3d e9 21 04       	call   7d229c0 <pthread_mutex_unlock@plt>
 3b04170:	e8 1b b2 f6 ff       	call   3a6f390 <std::unique_lock<std::mutex>::unlock()>
 3b041a4:	e8 17 e8 21 04       	call   7d229c0 <pthread_mutex_unlock@plt>
 3b049a2:	e8 19 e0 21 04       	call   7d229c0 <pthread_mutex_unlock@plt>
 3b0e501:	e8 ba 44 21 04       	call   7d229c0 <pthread_mutex_unlock@plt>
 3b0e532:	e8 89 44 21 04       	call   7d229c0 <pthread_mutex_unlock@plt>
 3b0e6d4:	e8 e7 42 21 04       	call   7d229c0 <pthread_mutex_unlock@plt>
 3b0e913:	e8 a8 40 21 04       	call   7d229c0 <pthread_mutex_unlock@plt>
 3b0edd2:	e8 e9 3b 21 04       	call   7d229c0 <pthread_mutex_unlock@plt>
 3b0ee02:	e8 b9 3b 21 04       	call   7d229c0 <pthread_mutex_unlock@plt>
 3b0f011:	e8 aa 39 21 04       	call   7d229c0 <pthread_mutex_unlock@plt>
 3b0f262:	e8 59 37 21 04       	call   7d229c0 <pthread_mutex_unlock@plt>
 3b0ff44:	e8 77 2a 21 04       	call   7d229c0 <pthread_mutex_unlock@plt>
 3b109f5:	e8 c6 1f 21 04       	call   7d229c0 <pthread_mutex_unlock@plt>
 3b10d7e:	e8 3d 1c 21 04       	call   7d229c0 <pthread_mutex_unlock@plt>
 3b12ee2:	e8 d9 fa 20 04       	call   7d229c0 <pthread_mutex_unlock@plt>
 3b14f4f:	e8 6c da 20 04       	call   7d229c0 <pthread_mutex_unlock@plt>
 3b1509b:	e8 20 d9 20 04       	call   7d229c0 <pthread_mutex_unlock@plt>
 3b15255:	e8 66 d7 20 04       	call   7d229c0 <pthread_mutex_unlock@plt>
 3b15550:	e8 6b d4 20 04       	call   7d229c0 <pthread_mutex_unlock@plt>
 3b1c68b:	e8 f0 85 66 03       	call   7184c80 <mongo::Lock::GlobalLock::_unlock()>
 3b1ce97:	e8 24 83 66 03       	call   71851c0 <mongo::Lock::ResourceLock::_unlock()>
 3b1ceaf:	e8 0c 83 66 03       	call   71851c0 <mongo::Lock::ResourceLock::_unlock()>
 3b31509:	e8 b2 14 1f 04       	call   7d229c0 <pthread_mutex_unlock@plt>
 3b31ecb:	e8 f0 0a 1f 04       	call   7d229c0 <pthread_mutex_unlock@plt>
 3b3249b:	e8 20 05 1f 04       	call   7d229c0 <pthread_mutex_unlock@plt>
 3b32abb:	e9 00 ff 1e 04       	jmp    7d229c0 <pthread_mutex_unlock@plt>
 3b33561:	e8 5a f4 1e 04       	call   7d229c0 <pthread_mutex_unlock@plt>
 3b3362c:	e9 8f f3 1e 04       	jmp    7d229c0 <pthread_mutex_unlock@plt>
 3b33d8b:	e9 30 ec 1e 04       	jmp    7d229c0 <pthread_mutex_unlock@plt>
 3b34243:	e8 78 e7 1e 04       	call   7d229c0 <pthread_mutex_unlock@plt>
 3b354ea:	e8 d1 d4 1e 04       	call   7d229c0 <pthread_mutex_unlock@plt>
 3b355c0:	e8 fb d3 1e 04       	call   7d229c0 <pthread_mutex_unlock@plt>
 3b35610:	e8 ab d3 1e 04       	call   7d229c0 <pthread_mutex_unlock@plt>
 3b35685:	e8 36 d3 1e 04       	call   7d229c0 <pthread_mutex_unlock@plt>
 3b3599e:	e8 1d d0 1e 04       	call   7d229c0 <pthread_mutex_unlock@plt>
 3b35a50:	e8 6b cf 1e 04       	call   7d229c0 <pthread_mutex_unlock@plt>
 3b35cf0:	e9 cb cc 1e 04       	jmp    7d229c0 <pthread_mutex_unlock@plt>
 3b38816:	e9 a5 a1 1e 04       	jmp    7d229c0 <pthread_mutex_unlock@plt>
 3b38b25:	e8 96 9e 1e 04       	call   7d229c0 <pthread_mutex_unlock@plt>
 3b38caa:	e9 11 9d 1e 04       	jmp    7d229c0 <pthread_mutex_unlock@plt>
 3b38ec8:	e8 f3 9a 1e 04       	call   7d229c0 <pthread_mutex_unlock@plt>
 3b38fff:	e9 bc 99 1e 04       	jmp    7d229c0 <pthread_mutex_unlock@plt>
 3b3e4b0:	e8 0b 45 1e 04       	call   7d229c0 <pthread_mutex_unlock@plt>
 3b40489:	e8 32 25 1e 04       	call   7d229c0 <pthread_mutex_unlock@plt>
 3b4aeba:	e8 01 7b 1d 04       	call   7d229c0 <pthread_mutex_unlock@plt>
 3b5081a:	e8 a1 21 1d 04       	call   7d229c0 <pthread_mutex_unlock@plt>
 3b65060:	e8 1b fc 61 03       	call   7184c80 <mongo::Lock::GlobalLock::_unlock()>
 3b650a0:	e8 1b 01 62 03       	call   71851c0 <mongo::Lock::ResourceLock::_unlock()>
 3b650bc:	e8 ff 00 62 03       	call   71851c0 <mongo::Lock::ResourceLock::_unlock()>
 3b6c89a:	e8 21 61 1b 04       	call   7d229c0 <pthread_mutex_unlock@plt>
 3b6d13f:	e8 3c 7b 61 03       	call   7184c80 <mongo::Lock::GlobalLock::_unlock()>
 3b6d178:	e8 43 80 61 03       	call   71851c0 <mongo::Lock::ResourceLock::_unlock()>
 3b6d23f:	e8 3c 7a 61 03       	call   7184c80 <mongo::Lock::GlobalLock::_unlock()>
 3b6d278:	e8 43 7f 61 03       	call   71851c0 <mongo::Lock::ResourceLock::_unlock()>
 3b6d347:	e8 74 7e 61 03       	call   71851c0 <mongo::Lock::ResourceLock::_unlock()>
 3b6d35f:	e8 5c 7e 61 03       	call   71851c0 <mongo::Lock::ResourceLock::_unlock()>
 3b6dc30:	e8 8b 4d 1b 04       	call   7d229c0 <pthread_mutex_unlock@plt>
 3b6e59c:	e8 ef 0d f0 ff       	call   3a6f390 <std::unique_lock<std::mutex>::unlock()>
 3b7a5b7:	e8 04 84 1a 04       	call   7d229c0 <pthread_mutex_unlock@plt>
 3b7a5bf:	e8 fc 83 1a 04       	call   7d229c0 <pthread_mutex_unlock@plt>
 3b7a679:	e8 42 83 1a 04       	call   7d229c0 <pthread_mutex_unlock@plt>
 3b7a6dd:	e8 de 82 1a 04       	call   7d229c0 <pthread_mutex_unlock@plt>
 3b7a6e5:	e8 d6 82 1a 04       	call   7d229c0 <pthread_mutex_unlock@plt>
 3b7a84f:	e8 6c 81 1a 04       	call   7d229c0 <pthread_mutex_unlock@plt>
 3b7a8e2:	e8 d9 80 1a 04       	call   7d229c0 <pthread_mutex_unlock@plt>
 3b7adcd:	e8 ee 7b 1a 04       	call   7d229c0 <pthread_mutex_unlock@plt>
 3b7add5:	e8 e6 7b 1a 04       	call   7d229c0 <pthread_mutex_unlock@plt>
 3b7aea4:	e8 17 7b 1a 04       	call   7d229c0 <pthread_mutex_unlock@plt>
 3b7afc4:	e8 f7 79 1a 04       	call   7d229c0 <pthread_mutex_unlock@plt>
 3b7b0df:	e8 dc 78 1a 04       	call   7d229c0 <pthread_mutex_unlock@plt>
 3b7b0e7:	e8 d4 78 1a 04       	call   7d229c0 <pthread_mutex_unlock@plt>
 3b7b1b6:	e9 05 78 1a 04       	jmp    7d229c0 <pthread_mutex_unlock@plt>
 3b7b24b:	e8 70 77 1a 04       	call   7d229c0 <pthread_mutex_unlock@plt>
 3b7b5f3:	e8 88 96 60 03       	call   7184c80 <mongo::Lock::GlobalLock::_unlock()>
 3b7b84f:	e8 2c 94 60 03       	call   7184c80 <mongo::Lock::GlobalLock::_unlock()>
 3b7b8a1:	e8 1a 99 60 03       	call   71851c0 <mongo::Lock::ResourceLock::_unlock()>
 3b7b8b7:	e8 04 99 60 03       	call   71851c0 <mongo::Lock::ResourceLock::_unlock()>
 3b7b8cf:	e8 ec 98 60 03       	call   71851c0 <mongo::Lock::ResourceLock::_unlock()>
 3b7bc67:	e8 54 95 60 03       	call   71851c0 <mongo::Lock::ResourceLock::_unlock()>
 3b7c071:	e8 4a 69 1a 04       	call   7d229c0 <pthread_mutex_unlock@plt>
 3b7c1d5:	e8 e6 67 1a 04       	call   7d229c0 <pthread_mutex_unlock@plt>
 3b7c1dd:	e8 de 67 1a 04       	call   7d229c0 <pthread_mutex_unlock@plt>
 3b7c26d:	e8 4e 67 1a 04       	call   7d229c0 <pthread_mutex_unlock@plt>
 3b7d25a:	e8 61 57 1a 04       	call   7d229c0 <pthread_mutex_unlock@plt>
 3b7d2aa:	e8 11 57 1a 04       	call   7d229c0 <pthread_mutex_unlock@plt>
 3b7d3cf:	e8 ec 55 1a 04       	call   7d229c0 <pthread_mutex_unlock@plt>
 3b7d520:	e8 9b 54 1a 04       	call   7d229c0 <pthread_mutex_unlock@plt>
 3b7d589:	e8 32 54 1a 04       	call   7d229c0 <pthread_mutex_unlock@plt>
 3b7d71b:	e8 70 1c ef ff       	call   3a6f390 <std::unique_lock<std::mutex>::unlock()>
 3b7d76c:	e8 1f 1c ef ff       	call   3a6f390 <std::unique_lock<std::mutex>::unlock()>
 3b7e33e:	e9 7d 46 1a 04       	jmp    7d229c0 <pthread_mutex_unlock@plt>
 3b7e39e:	e9 1d 46 1a 04       	jmp    7d229c0 <pthread_mutex_unlock@plt>
 3b7e427:	e8 94 45 1a 04       	call   7d229c0 <pthread_mutex_unlock@plt>
 3b7e4f3:	e9 c8 44 1a 04       	jmp    7d229c0 <pthread_mutex_unlock@plt>
 3b7e565:	e9 56 44 1a 04       	jmp    7d229c0 <pthread_mutex_unlock@plt>
 3b7e74a:	e8 71 42 1a 04       	call   7d229c0 <pthread_mutex_unlock@plt>
 3b82826:	e9 95 01 1a 04       	jmp    7d229c0 <pthread_mutex_unlock@plt>
 3b83003:	e8 88 c3 ee ff       	call   3a6f390 <std::unique_lock<std::mutex>::unlock()>
 3b84848:	e9 73 e1 19 04       	jmp    7d229c0 <pthread_mutex_unlock@plt>
 3b8498c:	e8 2f e0 19 04       	call   7d229c0 <pthread_mutex_unlock@plt>
 3b84a1c:	e8 9f df 19 04       	call   7d229c0 <pthread_mutex_unlock@plt>
 3b84ac7:	e8 c4 a8 ee ff       	call   3a6f390 <std::unique_lock<std::mutex>::unlock()>
 3b84f5d:	e8 5e da 19 04       	call   7d229c0 <pthread_mutex_unlock@plt>
 3b8521e:	e8 9d d7 19 04       	call   7d229c0 <pthread_mutex_unlock@plt>
 3b8538c:	e8 2f d6 19 04       	call   7d229c0 <pthread_mutex_unlock@plt>
 3b854e3:	e8 a8 9e ee ff       	call   3a6f390 <std::unique_lock<std::mutex>::unlock()>
 3b85530:	e9 8b d4 19 04       	jmp    7d229c0 <pthread_mutex_unlock@plt>
 3b87caa:	e8 11 ad 19 04       	call   7d229c0 <pthread_mutex_unlock@plt>
 3b87cbe:	e8 fd ac 19 04       	call   7d229c0 <pthread_mutex_unlock@plt>
 3b87cd2:	e8 e9 ac 19 04       	call   7d229c0 <pthread_mutex_unlock@plt>
 3b87ce6:	e8 d5 ac 19 04       	call   7d229c0 <pthread_mutex_unlock@plt>
 3b87cfa:	e8 c1 ac 19 04       	call   7d229c0 <pthread_mutex_unlock@plt>
 3b89015:	e8 a6 99 19 04       	call   7d229c0 <pthread_mutex_unlock@plt>
 3b890e6:	e8 a5 62 ee ff       	call   3a6f390 <std::unique_lock<std::mutex>::unlock()>
 3b89752:	e8 69 92 19 04       	call   7d229c0 <pthread_mutex_unlock@plt>
 3b8988b:	e8 00 5b ee ff       	call   3a6f390 <std::unique_lock<std::mutex>::unlock()>
 3b898c5:	e8 c6 5a ee ff       	call   3a6f390 <std::unique_lock<std::mutex>::unlock()>
 3b8c891:	e8 2a 61 19 04       	call   7d229c0 <pthread_mutex_unlock@plt>
 3b8c8c0:	e9 fb 60 19 04       	jmp    7d229c0 <pthread_mutex_unlock@plt>
 3b8c973:	e8 48 60 19 04       	call   7d229c0 <pthread_mutex_unlock@plt>
 3b8cda9:	e8 12 5c 19 04       	call   7d229c0 <pthread_mutex_unlock@plt>
 3b8cf28:	e9 93 5a 19 04       	jmp    7d229c0 <pthread_mutex_unlock@plt>
 3b8d079:	e8 42 59 19 04       	call   7d229c0 <pthread_mutex_unlock@plt>
 3b8d65f:	e8 5c 53 19 04       	call   7d229c0 <pthread_mutex_unlock@plt>
 3b8d6d9:	e8 e2 52 19 04       	call   7d229c0 <pthread_mutex_unlock@plt>
 3b8d7b0:	e8 0b 52 19 04       	call   7d229c0 <pthread_mutex_unlock@plt>
 3b8d896:	e8 25 51 19 04       	call   7d229c0 <pthread_mutex_unlock@plt>
 3b8d988:	e8 33 50 19 04       	call   7d229c0 <pthread_mutex_unlock@plt>
 3b8da20:	e8 9b 4f 19 04       	call   7d229c0 <pthread_mutex_unlock@plt>
 3b8dd51:	e8 6a 4c 19 04       	call   7d229c0 <pthread_mutex_unlock@plt>
 3b8de0b:	e8 b0 4b 19 04       	call   7d229c0 <pthread_mutex_unlock@plt>
 3b8e0b0:	e8 0b 49 19 04       	call   7d229c0 <pthread_mutex_unlock@plt>
 3b8e0bd:	e8 fe 48 19 04       	call   7d229c0 <pthread_mutex_unlock@plt>
 3b8e32d:	e8 5e 10 ee ff       	call   3a6f390 <std::unique_lock<std::mutex>::unlock()>
 3b8e5eb:	e8 a0 0d ee ff       	call   3a6f390 <std::unique_lock<std::mutex>::unlock()>
 3b8e6a2:	e8 19 43 19 04       	call   7d229c0 <pthread_mutex_unlock@plt>
 3b8e6e9:	e8 d2 42 19 04       	call   7d229c0 <pthread_mutex_unlock@plt>
 3b8e72a:	e8 61 0c ee ff       	call   3a6f390 <std::unique_lock<std::mutex>::unlock()>
 3b8e7a5:	e8 e6 0b ee ff       	call   3a6f390 <std::unique_lock<std::mutex>::unlock()>
 3b8f5da:	e8 e1 33 19 04       	call   7d229c0 <pthread_mutex_unlock@plt>
 3b95087:	e8 f4 fb 5e 03       	call   7184c80 <mongo::Lock::GlobalLock::_unlock()>
 3b950d9:	e8 e2 00 5f 03       	call   71851c0 <mongo::Lock::ResourceLock::_unlock()>
 3b951b3:	e8 08 00 5f 03       	call   71851c0 <mongo::Lock::ResourceLock::_unlock()>
 3b96327:	e8 64 90 ed ff       	call   3a6f390 <std::unique_lock<std::mutex>::unlock()>
 3b97a73:	e8 18 79 ed ff       	call   3a6f390 <std::unique_lock<std::mutex>::unlock()>
 3b9ac3a:	e8 81 7d 18 04       	call   7d229c0 <pthread_mutex_unlock@plt>
 3ba3287:	e9 34 f7 17 04       	jmp    7d229c0 <pthread_mutex_unlock@plt>
 3ba32fb:	e8 c0 f6 17 04       	call   7d229c0 <pthread_mutex_unlock@plt>
 3ba336a:	e9 51 f6 17 04       	jmp    7d229c0 <pthread_mutex_unlock@plt>
 3ba338a:	e9 31 f6 17 04       	jmp    7d229c0 <pthread_mutex_unlock@plt>
 3ba33fa:	e8 c1 f5 17 04       	call   7d229c0 <pthread_mutex_unlock@plt>
 3ba345a:	e9 61 f5 17 04       	jmp    7d229c0 <pthread_mutex_unlock@plt>
 3ba347a:	e9 41 f5 17 04       	jmp    7d229c0 <pthread_mutex_unlock@plt>
 3ba3687:	e8 34 f3 17 04       	call   7d229c0 <pthread_mutex_unlock@plt>
 3ba3dfc:	e9 bf eb 17 04       	jmp    7d229c0 <pthread_mutex_unlock@plt>
 3ba3e61:	e8 5a eb 17 04       	call   7d229c0 <pthread_mutex_unlock@plt>
 3ba449a:	e8 f1 ae ec ff       	call   3a6f390 <std::unique_lock<std::mutex>::unlock()>
 3ba4502:	e8 89 ae ec ff       	call   3a6f390 <std::unique_lock<std::mutex>::unlock()>
 3ba4597:	e8 f4 ad ec ff       	call   3a6f390 <std::unique_lock<std::mutex>::unlock()>
 3ba4efd:	e8 be da 17 04       	call   7d229c0 <pthread_mutex_unlock@plt>
 3ba5040:	e8 4b a3 ec ff       	call   3a6f390 <std::unique_lock<std::mutex>::unlock()>
 3ba5332:	e8 89 d6 17 04       	call   7d229c0 <pthread_mutex_unlock@plt>
 3ba5613:	e8 a8 d3 17 04       	call   7d229c0 <pthread_mutex_unlock@plt>
 3ba586a:	e9 51 d1 17 04       	jmp    7d229c0 <pthread_mutex_unlock@plt>
 3ba5b25:	e8 96 ce 17 04       	call   7d229c0 <pthread_mutex_unlock@plt>
 3ba5c5b:	e8 60 cd 17 04       	call   7d229c0 <pthread_mutex_unlock@plt>
 3ba613f:	e8 7c c8 17 04       	call   7d229c0 <pthread_mutex_unlock@plt>
 3ba65cf:	e8 ec c3 17 04       	call   7d229c0 <pthread_mutex_unlock@plt>
 3ba66c2:	e8 f9 c2 17 04       	call   7d229c0 <pthread_mutex_unlock@plt>
 3ba6b6c:	e8 4f be 17 04       	call   7d229c0 <pthread_mutex_unlock@plt>
 3ba6ed8:	e8 b3 84 ec ff       	call   3a6f390 <std::unique_lock<std::mutex>::unlock()>
 3ba6f4c:	e8 3f 84 ec ff       	call   3a6f390 <std::unique_lock<std::mutex>::unlock()>
 3ba7020:	e8 9b b9 17 04       	call   7d229c0 <pthread_mutex_unlock@plt>
 3ba70a4:	e8 e7 82 ec ff       	call   3a6f390 <std::unique_lock<std::mutex>::unlock()>
 3ba70e3:	e8 a8 82 ec ff       	call   3a6f390 <std::unique_lock<std::mutex>::unlock()>
 3ba7200:	e8 bb b7 17 04       	call   7d229c0 <pthread_mutex_unlock@plt>
 3ba7245:	e9 76 b7 17 04       	jmp    7d229c0 <pthread_mutex_unlock@plt>
 3ba752c:	e8 8f b4 17 04       	call   7d229c0 <pthread_mutex_unlock@plt>
 3ba7565:	e8 26 7e ec ff       	call   3a6f390 <std::unique_lock<std::mutex>::unlock()>
 3ba76c6:	e8 f5 b2 17 04       	call   7d229c0 <pthread_mutex_unlock@plt>
 3ba773c:	e8 4f 7c ec ff       	call   3a6f390 <std::unique_lock<std::mutex>::unlock()>
 3ba7767:	e8 24 7c ec ff       	call   3a6f390 <std::unique_lock<std::mutex>::unlock()>
 3ba7b84:	e8 07 78 ec ff       	call   3a6f390 <std::unique_lock<std::mutex>::unlock()>
 3ba7bf0:	e8 cb ad 17 04       	call   7d229c0 <pthread_mutex_unlock@plt>
 3ba7c2e:	e8 5d 77 ec ff       	call   3a6f390 <std::unique_lock<std::mutex>::unlock()>
 3ba7ee0:	e8 db aa 17 04       	call   7d229c0 <pthread_mutex_unlock@plt>
 3ba8166:	e8 55 a8 17 04       	call   7d229c0 <pthread_mutex_unlock@plt>
 3ba837c:	e8 0f 70 ec ff       	call   3a6f390 <std::unique_lock<std::mutex>::unlock()>
 3ba8397:	e8 f4 6f ec ff       	call   3a6f390 <std::unique_lock<std::mutex>::unlock()>
 3ba83df:	e8 ac 6f ec ff       	call   3a6f390 <std::unique_lock<std::mutex>::unlock()>
 3ba8402:	e8 b9 a5 17 04       	call   7d229c0 <pthread_mutex_unlock@plt>
 3ba85a4:	e8 17 a4 17 04       	call   7d229c0 <pthread_mutex_unlock@plt>
 3ba865d:	e8 5e a3 17 04       	call   7d229c0 <pthread_mutex_unlock@plt>
 3ba8721:	e8 9a a2 17 04       	call   7d229c0 <pthread_mutex_unlock@plt>
 3ba8b1f:	e8 9c 9e 17 04       	call   7d229c0 <pthread_mutex_unlock@plt>
 3ba90b7:	e8 04 99 17 04       	call   7d229c0 <pthread_mutex_unlock@plt>
 3ba939a:	e8 21 96 17 04       	call   7d229c0 <pthread_mutex_unlock@plt>
 3ba93cb:	e8 c0 5f ec ff       	call   3a6f390 <std::unique_lock<std::mutex>::unlock()>
 3ba9ace:	e8 ed 8e 17 04       	call   7d229c0 <pthread_mutex_unlock@plt>
 3ba9bd6:	e8 e5 8d 17 04       	call   7d229c0 <pthread_mutex_unlock@plt>
 3ba9ed3:	e8 e8 8a 17 04       	call   7d229c0 <pthread_mutex_unlock@plt>
 3baa481:	e8 3a 85 17 04       	call   7d229c0 <pthread_mutex_unlock@plt>
 3baa81e:	e8 9d 81 17 04       	call   7d229c0 <pthread_mutex_unlock@plt>
 3baad01:	e8 8a 46 ec ff       	call   3a6f390 <std::unique_lock<std::mutex>::unlock()>
 3baad1d:	e8 6e 46 ec ff       	call   3a6f390 <std::unique_lock<std::mutex>::unlock()>
 3baad72:	e8 49 7c 17 04       	call   7d229c0 <pthread_mutex_unlock@plt>
 3bab145:	e9 76 78 17 04       	jmp    7d229c0 <pthread_mutex_unlock@plt>
 3bab153:	e8 68 78 17 04       	call   7d229c0 <pthread_mutex_unlock@plt>
 3bab17c:	e9 3f 78 17 04       	jmp    7d229c0 <pthread_mutex_unlock@plt>
 3bb0fd3:	e8 e8 19 17 04       	call   7d229c0 <pthread_mutex_unlock@plt>
 3bb1081:	e9 3a 19 17 04       	jmp    7d229c0 <pthread_mutex_unlock@plt>
 3bb10de:	e8 dd 18 17 04       	call   7d229c0 <pthread_mutex_unlock@plt>
 3bb14ab:	e8 10 15 17 04       	call   7d229c0 <pthread_mutex_unlock@plt>
 3bb1529:	e8 92 14 17 04       	call   7d229c0 <pthread_mutex_unlock@plt>
 3bb1595:	e9 26 14 17 04       	jmp    7d229c0 <pthread_mutex_unlock@plt>
 3bb16ef:	e8 cc 12 17 04       	call   7d229c0 <pthread_mutex_unlock@plt>
 3bb2369:	e8 52 06 17 04       	call   7d229c0 <pthread_mutex_unlock@plt>
 3bb3a0c:	e8 af ef 16 04       	call   7d229c0 <pthread_mutex_unlock@plt>
 3bb411c:	e8 9f e8 16 04       	call   7d229c0 <pthread_mutex_unlock@plt>
 3bb4135:	e8 86 e8 16 04       	call   7d229c0 <pthread_mutex_unlock@plt>
 3bb4207:	e8 b4 e7 16 04       	call   7d229c0 <pthread_mutex_unlock@plt>
 3bb4406:	e8 b5 e5 16 04       	call   7d229c0 <pthread_mutex_unlock@plt>
 3bb47b0:	e8 0b e2 16 04       	call   7d229c0 <pthread_mutex_unlock@plt>
 3bb505b:	e8 60 d9 16 04       	call   7d229c0 <pthread_mutex_unlock@plt>
 3bb59c6:	e8 f5 cf 16 04       	call   7d229c0 <pthread_mutex_unlock@plt>
 3bb5b95:	e8 f6 97 eb ff       	call   3a6f390 <std::unique_lock<std::mutex>::unlock()>
 3bb5bb1:	e8 da 97 eb ff       	call   3a6f390 <std::unique_lock<std::mutex>::unlock()>
 3bb6124:	e8 97 c8 16 04       	call   7d229c0 <pthread_mutex_unlock@plt>
 3bb672b:	e8 90 c2 16 04       	call   7d229c0 <pthread_mutex_unlock@plt>
 3bb6e06:	e8 b5 bb 16 04       	call   7d229c0 <pthread_mutex_unlock@plt>
 3bb6e5c:	e8 5f bb 16 04       	call   7d229c0 <pthread_mutex_unlock@plt>
 3bb8b6a:	e8 51 9e 16 04       	call   7d229c0 <pthread_mutex_unlock@plt>
 3bdd7da:	e8 e1 51 14 04       	call   7d229c0 <pthread_mutex_unlock@plt>
 3bdec85:	e9 36 3d 14 04       	jmp    7d229c0 <pthread_mutex_unlock@plt>
 3bdecc8:	e8 f3 3c 14 04       	call   7d229c0 <pthread_mutex_unlock@plt>
 3bdef29:	e8 92 3a 14 04       	call   7d229c0 <pthread_mutex_unlock@plt>
 3bdef89:	e8 32 3a 14 04       	call   7d229c0 <pthread_mutex_unlock@plt>
 3bdf969:	e8 52 30 14 04       	call   7d229c0 <pthread_mutex_unlock@plt>
 3bdfaf5:	e8 c6 2e 14 04       	call   7d229c0 <pthread_mutex_unlock@plt>
 3be09f8:	e8 c3 1f 14 04       	call   7d229c0 <pthread_mutex_unlock@plt>
 3be6388:	e8 33 c6 13 04       	call   7d229c0 <pthread_mutex_unlock@plt>
 3be6793:	e8 28 c2 13 04       	call   7d229c0 <pthread_mutex_unlock@plt>
 3bf0af0:	e8 cb 1e 13 04       	call   7d229c0 <pthread_mutex_unlock@plt>
 3bf116e:	e8 1d e2 e7 ff       	call   3a6f390 <std::unique_lock<std::mutex>::unlock()>
 3c01042:	e9 79 19 12 04       	jmp    7d229c0 <pthread_mutex_unlock@plt>
 3c0111c:	e9 9f 18 12 04       	jmp    7d229c0 <pthread_mutex_unlock@plt>
 3c01172:	e9 49 18 12 04       	jmp    7d229c0 <pthread_mutex_unlock@plt>
 3c01694:	e9 27 13 12 04       	jmp    7d229c0 <pthread_mutex_unlock@plt>
 3c01eca:	e8 f1 0a 12 04       	call   7d229c0 <pthread_mutex_unlock@plt>
 3c01f46:	e8 75 0a 12 04       	call   7d229c0 <pthread_mutex_unlock@plt>
 3c022d4:	e8 e7 06 12 04       	call   7d229c0 <pthread_mutex_unlock@plt>
 3c031ad:	e9 0e f8 11 04       	jmp    7d229c0 <pthread_mutex_unlock@plt>
 3c0343e:	e8 7d f5 11 04       	call   7d229c0 <pthread_mutex_unlock@plt>
 3c034bd:	e8 fe f4 11 04       	call   7d229c0 <pthread_mutex_unlock@plt>
 3c03690:	e8 2b f3 11 04       	call   7d229c0 <pthread_mutex_unlock@plt>
 3c03a09:	e8 b2 ef 11 04       	call   7d229c0 <pthread_mutex_unlock@plt>
 3c1f1ba:	e8 01 38 10 04       	call   7d229c0 <pthread_mutex_unlock@plt>
 3c1f20a:	e8 b1 37 10 04       	call   7d229c0 <pthread_mutex_unlock@plt>
 3c1f25b:	e8 60 37 10 04       	call   7d229c0 <pthread_mutex_unlock@plt>
 3c1f2aa:	e8 11 37 10 04       	call   7d229c0 <pthread_mutex_unlock@plt>
 3c1f34a:	e8 71 36 10 04       	call   7d229c0 <pthread_mutex_unlock@plt>
 3c1f39a:	e8 21 36 10 04       	call   7d229c0 <pthread_mutex_unlock@plt>
 3c1f78f:	e8 2c 32 10 04       	call   7d229c0 <pthread_mutex_unlock@plt>
 3c1f7e1:	e8 da 31 10 04       	call   7d229c0 <pthread_mutex_unlock@plt>
 3c1f890:	e9 2b 31 10 04       	jmp    7d229c0 <pthread_mutex_unlock@plt>
 3c1f8c7:	e8 f4 30 10 04       	call   7d229c0 <pthread_mutex_unlock@plt>
 3c1f90b:	e9 b0 30 10 04       	jmp    7d229c0 <pthread_mutex_unlock@plt>
 3c1f959:	e9 62 30 10 04       	jmp    7d229c0 <pthread_mutex_unlock@plt>
 3c1f9b4:	e8 07 30 10 04       	call   7d229c0 <pthread_mutex_unlock@plt>
 3c1fa22:	e8 99 2f 10 04       	call   7d229c0 <pthread_mutex_unlock@plt>
 3c1fa82:	e8 39 2f 10 04       	call   7d229c0 <pthread_mutex_unlock@plt>
 3c1fae2:	e8 d9 2e 10 04       	call   7d229c0 <pthread_mutex_unlock@plt>
 3c1fb2a:	e8 91 2e 10 04       	call   7d229c0 <pthread_mutex_unlock@plt>
 3c1fb9c:	e8 1f 2e 10 04       	call   7d229c0 <pthread_mutex_unlock@plt>
 3c1fc1f:	e9 9c 2d 10 04       	jmp    7d229c0 <pthread_mutex_unlock@plt>
 3c1fc78:	e8 43 2d 10 04       	call   7d229c0 <pthread_mutex_unlock@plt>
 3c1fd34:	e8 87 2c 10 04       	call   7d229c0 <pthread_mutex_unlock@plt>
 3c1fdb4:	e8 07 2c 10 04       	call   7d229c0 <pthread_mutex_unlock@plt>
 3c1fe2d:	e8 8e 2b 10 04       	call   7d229c0 <pthread_mutex_unlock@plt>
 3c1fea1:	e8 1a 2b 10 04       	call   7d229c0 <pthread_mutex_unlock@plt>
 3c1ff43:	e8 78 2a 10 04       	call   7d229c0 <pthread_mutex_unlock@plt>
 3c1ffa3:	e8 18 2a 10 04       	call   7d229c0 <pthread_mutex_unlock@plt>
 3c20024:	e8 97 29 10 04       	call   7d229c0 <pthread_mutex_unlock@plt>
 3c200ae:	e9 0d 29 10 04       	jmp    7d229c0 <pthread_mutex_unlock@plt>
 3c20100:	e8 bb 28 10 04       	call   7d229c0 <pthread_mutex_unlock@plt>
 3c2015b:	e8 60 28 10 04       	call   7d229c0 <pthread_mutex_unlock@plt>
 3c201c4:	e8 f7 27 10 04       	call   7d229c0 <pthread_mutex_unlock@plt>
 3c20236:	e9 85 27 10 04       	jmp    7d229c0 <pthread_mutex_unlock@plt>
 3c20337:	e8 84 26 10 04       	call   7d229c0 <pthread_mutex_unlock@plt>
 3c203ef:	e8 cc 25 10 04       	call   7d229c0 <pthread_mutex_unlock@plt>
 3c2048f:	e8 2c 25 10 04       	call   7d229c0 <pthread_mutex_unlock@plt>
 3c20693:	e8 28 23 10 04       	call   7d229c0 <pthread_mutex_unlock@plt>
 3c20846:	e8 75 21 10 04       	call   7d229c0 <pthread_mutex_unlock@plt>
 3c208f8:	e8 c3 20 10 04       	call   7d229c0 <pthread_mutex_unlock@plt>
 3c20c95:	e8 26 1d 10 04       	call   7d229c0 <pthread_mutex_unlock@plt>
 3c20c9d:	e8 1e 1d 10 04       	call   7d229c0 <pthread_mutex_unlock@plt>
 3c20d71:	e8 4a 1c 10 04       	call   7d229c0 <pthread_mutex_unlock@plt>
 3c20edb:	e9 e0 1a 10 04       	jmp    7d229c0 <pthread_mutex_unlock@plt>
 3c21023:	e8 98 19 10 04       	call   7d229c0 <pthread_mutex_unlock@plt>
 3c21c32:	e8 89 0d 10 04       	call   7d229c0 <pthread_mutex_unlock@plt>
 3c21c89:	e8 32 0d 10 04       	call   7d229c0 <pthread_mutex_unlock@plt>
 3c21cf1:	e8 ca 0c 10 04       	call   7d229c0 <pthread_mutex_unlock@plt>
 3c21d61:	e8 5a 0c 10 04       	call   7d229c0 <pthread_mutex_unlock@plt>
 3c21eaf:	e8 0c 0b 10 04       	call   7d229c0 <pthread_mutex_unlock@plt>
 3c22325:	e8 96 06 10 04       	call   7d229c0 <pthread_mutex_unlock@plt>
 3c22973:	e8 48 00 10 04       	call   7d229c0 <pthread_mutex_unlock@plt>
 3c22a5d:	e9 5e ff 0f 04       	jmp    7d229c0 <pthread_mutex_unlock@plt>
 3c2315e:	e8 5d f8 0f 04       	call   7d229c0 <pthread_mutex_unlock@plt>
 3c231ec:	e8 cf f7 0f 04       	call   7d229c0 <pthread_mutex_unlock@plt>
 3c232ac:	e9 0f f7 0f 04       	jmp    7d229c0 <pthread_mutex_unlock@plt>
 3c23443:	e8 48 bf e4 ff       	call   3a6f390 <std::unique_lock<std::mutex>::unlock()>
 3c2498a:	e8 31 e0 0f 04       	call   7d229c0 <pthread_mutex_unlock@plt>
 3c24e03:	e8 b8 db 0f 04       	call   7d229c0 <pthread_mutex_unlock@plt>
 3c254e9:	e8 d2 d4 0f 04       	call   7d229c0 <pthread_mutex_unlock@plt>
 3c2562d:	e8 8e d3 0f 04       	call   7d229c0 <pthread_mutex_unlock@plt>
 3c25a0b:	e8 80 99 e4 ff       	call   3a6f390 <std::unique_lock<std::mutex>::unlock()>
 3c25b1d:	e8 9e ce 0f 04       	call   7d229c0 <pthread_mutex_unlock@plt>
 3c26393:	e8 f8 8f e4 ff       	call   3a6f390 <std::unique_lock<std::mutex>::unlock()>
 3c26b0e:	e8 ad be 0f 04       	call   7d229c0 <pthread_mutex_unlock@plt>
 3c26da7:	e8 14 bc 0f 04       	call   7d229c0 <pthread_mutex_unlock@plt>
 3c26f4c:	e8 6f ba 0f 04       	call   7d229c0 <pthread_mutex_unlock@plt>
 3c270c1:	e8 fa b8 0f 04       	call   7d229c0 <pthread_mutex_unlock@plt>
 3c27139:	e8 82 b8 0f 04       	call   7d229c0 <pthread_mutex_unlock@plt>
 3c27264:	e8 27 81 e4 ff       	call   3a6f390 <std::unique_lock<std::mutex>::unlock()>
 3c27bda:	e9 e1 ad 0f 04       	jmp    7d229c0 <pthread_mutex_unlock@plt>
 3c27f63:	e8 58 aa 0f 04       	call   7d229c0 <pthread_mutex_unlock@plt>
 3c27fc4:	e8 f7 a9 0f 04       	call   7d229c0 <pthread_mutex_unlock@plt>
 3c28541:	e8 7a a4 0f 04       	call   7d229c0 <pthread_mutex_unlock@plt>
 3c28e7f:	e8 3c 9b 0f 04       	call   7d229c0 <pthread_mutex_unlock@plt>
 3c28f17:	e8 a4 9a 0f 04       	call   7d229c0 <pthread_mutex_unlock@plt>
 3c29236:	e8 85 97 0f 04       	call   7d229c0 <pthread_mutex_unlock@plt>
 3c293bf:	e8 fc 95 0f 04       	call   7d229c0 <pthread_mutex_unlock@plt>
 3c2adee:	e8 cd 7b 0f 04       	call   7d229c0 <pthread_mutex_unlock@plt>
 3c2aee2:	e8 d9 7a 0f 04       	call   7d229c0 <pthread_mutex_unlock@plt>
 3c2b025:	e8 96 79 0f 04       	call   7d229c0 <pthread_mutex_unlock@plt>
 3c2be78:	e9 43 6b 0f 04       	jmp    7d229c0 <pthread_mutex_unlock@plt>
 3c2bee7:	e8 d4 6a 0f 04       	call   7d229c0 <pthread_mutex_unlock@plt>
 3c2c6a8:	e8 13 63 0f 04       	call   7d229c0 <pthread_mutex_unlock@plt>
 3c2c733:	e8 88 62 0f 04       	call   7d229c0 <pthread_mutex_unlock@plt>
 3c2cc42:	e8 79 5d 0f 04       	call   7d229c0 <pthread_mutex_unlock@plt>
 3c2cd2b:	e8 90 5c 0f 04       	call   7d229c0 <pthread_mutex_unlock@plt>
 3c2ce95:	e8 26 5b 0f 04       	call   7d229c0 <pthread_mutex_unlock@plt>
 3c2d2b1:	e8 da 20 e4 ff       	call   3a6f390 <std::unique_lock<std::mutex>::unlock()>
 3c2d48d:	e8 2e 55 0f 04       	call   7d229c0 <pthread_mutex_unlock@plt>
 3c2d5b6:	e8 d5 1d e4 ff       	call   3a6f390 <std::unique_lock<std::mutex>::unlock()>
 3c2d8e6:	e8 a5 1a e4 ff       	call   3a6f390 <std::unique_lock<std::mutex>::unlock()>
 3c300c7:	e8 c4 f2 e3 ff       	call   3a6f390 <std::unique_lock<std::mutex>::unlock()>
 3c316b2:	e8 d9 dc e3 ff       	call   3a6f390 <std::unique_lock<std::mutex>::unlock()>
 3c31b67:	e8 54 0e 0f 04       	call   7d229c0 <pthread_mutex_unlock@plt>
 3c31df1:	e8 9a d5 e3 ff       	call   3a6f390 <std::unique_lock<std::mutex>::unlock()>
 3c31e07:	e8 b4 0b 0f 04       	call   7d229c0 <pthread_mutex_unlock@plt>
 3c32735:	e8 86 02 0f 04       	call   7d229c0 <pthread_mutex_unlock@plt>
 3c32ce9:	e8 d2 fc 0e 04       	call   7d229c0 <pthread_mutex_unlock@plt>
 3c32dc3:	e8 f8 fb 0e 04       	call   7d229c0 <pthread_mutex_unlock@plt>
 3c32fbf:	e8 fc f9 0e 04       	call   7d229c0 <pthread_mutex_unlock@plt>
 3c3322b:	e9 90 f7 0e 04       	jmp    7d229c0 <pthread_mutex_unlock@plt>
 3c33fc2:	e9 f9 e9 0e 04       	jmp    7d229c0 <pthread_mutex_unlock@plt>
 3c348c1:	e9 fa e0 0e 04       	jmp    7d229c0 <pthread_mutex_unlock@plt>
 3c34bbf:	e8 fc dd 0e 04       	call   7d229c0 <pthread_mutex_unlock@plt>
 3c34d8c:	e8 2f dc 0e 04       	call   7d229c0 <pthread_mutex_unlock@plt>
 3c35189:	e8 32 d8 0e 04       	call   7d229c0 <pthread_mutex_unlock@plt>
 3c35df1:	e8 ca cb 0e 04       	call   7d229c0 <pthread_mutex_unlock@plt>
 3c35ea7:	e8 14 cb 0e 04       	call   7d229c0 <pthread_mutex_unlock@plt>
 3c35f69:	e8 52 ca 0e 04       	call   7d229c0 <pthread_mutex_unlock@plt>
 3c36093:	e8 28 c9 0e 04       	call   7d229c0 <pthread_mutex_unlock@plt>
 3c36f40:	e8 7b ba 0e 04       	call   7d229c0 <pthread_mutex_unlock@plt>
 3c37054:	e9 67 b9 0e 04       	jmp    7d229c0 <pthread_mutex_unlock@plt>
 3c37aed:	e9 ce ae 0e 04       	jmp    7d229c0 <pthread_mutex_unlock@plt>
 3c37cde:	e8 dd ac 0e 04       	call   7d229c0 <pthread_mutex_unlock@plt>
 3c37e9e:	e8 1d ab 0e 04       	call   7d229c0 <pthread_mutex_unlock@plt>
 3c3809c:	e8 ef 72 e3 ff       	call   3a6f390 <std::unique_lock<std::mutex>::unlock()>
 3c380e8:	e8 d3 a8 0e 04       	call   7d229c0 <pthread_mutex_unlock@plt>
 3c383b2:	e8 d9 6f e3 ff       	call   3a6f390 <std::unique_lock<std::mutex>::unlock()>
 3c38437:	e8 54 6f e3 ff       	call   3a6f390 <std::unique_lock<std::mutex>::unlock()>
 3c384e6:	e8 a5 6e e3 ff       	call   3a6f390 <std::unique_lock<std::mutex>::unlock()>
 3c385dc:	e9 df a3 0e 04       	jmp    7d229c0 <pthread_mutex_unlock@plt>
 3c38c06:	e9 b5 9d 0e 04       	jmp    7d229c0 <pthread_mutex_unlock@plt>
 3c38dcf:	e8 bc 65 e3 ff       	call   3a6f390 <std::unique_lock<std::mutex>::unlock()>
 3c38e33:	e8 58 65 e3 ff       	call   3a6f390 <std::unique_lock<std::mutex>::unlock()>
 3c39021:	e9 9a 99 0e 04       	jmp    7d229c0 <pthread_mutex_unlock@plt>
 3c39282:	e9 39 97 0e 04       	jmp    7d229c0 <pthread_mutex_unlock@plt>
 3c39473:	e8 18 5f e3 ff       	call   3a6f390 <std::unique_lock<std::mutex>::unlock()>
 3c3a090:	e8 2b 89 0e 04       	call   7d229c0 <pthread_mutex_unlock@plt>
 3c3a983:	e8 38 80 0e 04       	call   7d229c0 <pthread_mutex_unlock@plt>
 3c3ac85:	e8 36 7d 0e 04       	call   7d229c0 <pthread_mutex_unlock@plt>
 3c3adfc:	e8 8f 45 e3 ff       	call   3a6f390 <std::unique_lock<std::mutex>::unlock()>
 3c3b255:	e8 66 77 0e 04       	call   7d229c0 <pthread_mutex_unlock@plt>
 3c3b3f3:	e8 98 3f e3 ff       	call   3a6f390 <std::unique_lock<std::mutex>::unlock()>
 3c3c1a2:	e8 19 68 0e 04       	call   7d229c0 <pthread_mutex_unlock@plt>
 3c3c36e:	e8 1d 30 e3 ff       	call   3a6f390 <std::unique_lock<std::mutex>::unlock()>
 3c3c39b:	e8 f0 2f e3 ff       	call   3a6f390 <std::unique_lock<std::mutex>::unlock()>
 3c3d06b:	e8 50 59 0e 04       	call   7d229c0 <pthread_mutex_unlock@plt>
 3c3d2fa:	e8 c1 56 0e 04       	call   7d229c0 <pthread_mutex_unlock@plt>
 3c3d64c:	e8 6f 53 0e 04       	call   7d229c0 <pthread_mutex_unlock@plt>
 3c3e58b:	e8 30 44 0e 04       	call   7d229c0 <pthread_mutex_unlock@plt>
 3c3efd4:	e8 e7 39 0e 04       	call   7d229c0 <pthread_mutex_unlock@plt>
 3c3f0f5:	e9 c6 38 0e 04       	jmp    7d229c0 <pthread_mutex_unlock@plt>
 3c436fc:	e8 bf f2 0d 04       	call   7d229c0 <pthread_mutex_unlock@plt>
 3c43865:	e8 56 f1 0d 04       	call   7d229c0 <pthread_mutex_unlock@plt>
 3c44810:	e8 ab e1 0d 04       	call   7d229c0 <pthread_mutex_unlock@plt>
 3c44878:	e8 43 e1 0d 04       	call   7d229c0 <pthread_mutex_unlock@plt>
 3c452a7:	e8 e4 a0 e2 ff       	call   3a6f390 <std::unique_lock<std::mutex>::unlock()>
 3c454d0:	e8 bb 9e e2 ff       	call   3a6f390 <std::unique_lock<std::mutex>::unlock()>
 3c45853:	e8 68 d1 0d 04       	call   7d229c0 <pthread_mutex_unlock@plt>
 3c459a8:	e9 13 d0 0d 04       	jmp    7d229c0 <pthread_mutex_unlock@plt>
 3c45e6e:	e8 1d 95 e2 ff       	call   3a6f390 <std::unique_lock<std::mutex>::unlock()>
 3c45f24:	e8 67 94 e2 ff       	call   3a6f390 <std::unique_lock<std::mutex>::unlock()>
 3c45fe8:	e8 a3 93 e2 ff       	call   3a6f390 <std::unique_lock<std::mutex>::unlock()>
 3c460a8:	e8 e3 92 e2 ff       	call   3a6f390 <std::unique_lock<std::mutex>::unlock()>
 3c460e2:	e8 a9 92 e2 ff       	call   3a6f390 <std::unique_lock<std::mutex>::unlock()>
 3c461d9:	e8 b2 91 e2 ff       	call   3a6f390 <std::unique_lock<std::mutex>::unlock()>
 3c4664c:	e8 3f 8d e2 ff       	call   3a6f390 <std::unique_lock<std::mutex>::unlock()>
 3c46736:	e8 55 8c e2 ff       	call   3a6f390 <std::unique_lock<std::mutex>::unlock()>
 3c46c56:	e8 35 87 e2 ff       	call   3a6f390 <std::unique_lock<std::mutex>::unlock()>
 3c46d65:	e8 56 bc 0d 04       	call   7d229c0 <pthread_mutex_unlock@plt>
 3c4715f:	e8 5c b8 0d 04       	call   7d229c0 <pthread_mutex_unlock@plt>
 3c47930:	e8 8b b0 0d 04       	call   7d229c0 <pthread_mutex_unlock@plt>
 3c47bbf:	e8 cc 77 e2 ff       	call   3a6f390 <std::unique_lock<std::mutex>::unlock()>
 3c47d6f:	e8 1c 76 e2 ff       	call   3a6f390 <std::unique_lock<std::mutex>::unlock()>
 3c47e33:	e8 58 75 e2 ff       	call   3a6f390 <std::unique_lock<std::mutex>::unlock()>
 3c48328:	e8 63 70 e2 ff       	call   3a6f390 <std::unique_lock<std::mutex>::unlock()>
 3c483a4:	e8 e7 6f e2 ff       	call   3a6f390 <std::unique_lock<std::mutex>::unlock()>
 3c4842c:	e8 8f a5 0d 04       	call   7d229c0 <pthread_mutex_unlock@plt>
 3c4867e:	e8 0d 6d e2 ff       	call   3a6f390 <std::unique_lock<std::mutex>::unlock()>
 3c486bb:	e8 00 a3 0d 04       	call   7d229c0 <pthread_mutex_unlock@plt>
 3c48925:	e8 96 a0 0d 04       	call   7d229c0 <pthread_mutex_unlock@plt>
 3c49176:	e8 45 98 0d 04       	call   7d229c0 <pthread_mutex_unlock@plt>
 3c49349:	e8 72 96 0d 04       	call   7d229c0 <pthread_mutex_unlock@plt>
 3c49350:	e8 6b 96 0d 04       	call   7d229c0 <pthread_mutex_unlock@plt>
 3c49445:	e8 76 95 0d 04       	call   7d229c0 <pthread_mutex_unlock@plt>
 3c49492:	e8 29 95 0d 04       	call   7d229c0 <pthread_mutex_unlock@plt>
 3c49789:	e8 32 92 0d 04       	call   7d229c0 <pthread_mutex_unlock@plt>
 3c49875:	e8 46 91 0d 04       	call   7d229c0 <pthread_mutex_unlock@plt>
 3c49b3a:	e8 51 58 e2 ff       	call   3a6f390 <std::unique_lock<std::mutex>::unlock()>
 3c49d4f:	e8 3c 56 e2 ff       	call   3a6f390 <std::unique_lock<std::mutex>::unlock()>
 3c4a14f:	e8 3c 52 e2 ff       	call   3a6f390 <std::unique_lock<std::mutex>::unlock()>
 3c4a519:	e8 a2 84 0d 04       	call   7d229c0 <pthread_mutex_unlock@plt>
 3c4a585:	e8 06 4e e2 ff       	call   3a6f390 <std::unique_lock<std::mutex>::unlock()>
 3c4a7d3:	e8 e8 81 0d 04       	call   7d229c0 <pthread_mutex_unlock@plt>
 3c4ac7d:	e8 0e 47 e2 ff       	call   3a6f390 <std::unique_lock<std::mutex>::unlock()>
 3c4ad17:	e8 74 46 e2 ff       	call   3a6f390 <std::unique_lock<std::mutex>::unlock()>
 3c4ad97:	e8 f4 45 e2 ff       	call   3a6f390 <std::unique_lock<std::mutex>::unlock()>
 3c4ae93:	e8 f8 44 e2 ff       	call   3a6f390 <std::unique_lock<std::mutex>::unlock()>
 3c4b1f6:	e8 95 41 e2 ff       	call   3a6f390 <std::unique_lock<std::mutex>::unlock()>
 3c4b3e7:	e8 a4 3f e2 ff       	call   3a6f390 <std::unique_lock<std::mutex>::unlock()>
 3c4b5b2:	e8 09 74 0d 04       	call   7d229c0 <pthread_mutex_unlock@plt>
 3c4bb40:	e8 7b 6e 0d 04       	call   7d229c0 <pthread_mutex_unlock@plt>
 3c4cf70:	e8 4b 5a 0d 04       	call   7d229c0 <pthread_mutex_unlock@plt>
 3c4d169:	e8 22 22 e2 ff       	call   3a6f390 <std::unique_lock<std::mutex>::unlock()>
 3c4d7fa:	e8 91 1b e2 ff       	call   3a6f390 <std::unique_lock<std::mutex>::unlock()>
 3c4db21:	e8 6a 18 e2 ff       	call   3a6f390 <std::unique_lock<std::mutex>::unlock()>
 3c4dbf8:	e8 93 17 e2 ff       	call   3a6f390 <std::unique_lock<std::mutex>::unlock()>
 3c4df8e:	e8 2d 4a 0d 04       	call   7d229c0 <pthread_mutex_unlock@plt>
 3c4dfa2:	e8 19 4a 0d 04       	call   7d229c0 <pthread_mutex_unlock@plt>
 3c4dfb6:	e8 05 4a 0d 04       	call   7d229c0 <pthread_mutex_unlock@plt>
 3c4dfca:	e8 f1 49 0d 04       	call   7d229c0 <pthread_mutex_unlock@plt>
 3c4dfde:	e8 dd 49 0d 04       	call   7d229c0 <pthread_mutex_unlock@plt>
 3c4dff2:	e8 c9 49 0d 04       	call   7d229c0 <pthread_mutex_unlock@plt>
 3c4e006:	e8 b5 49 0d 04       	call   7d229c0 <pthread_mutex_unlock@plt>
 3c4e01a:	e8 a1 49 0d 04       	call   7d229c0 <pthread_mutex_unlock@plt>
 3c4e02e:	e8 8d 49 0d 04       	call   7d229c0 <pthread_mutex_unlock@plt>
 3c4e042:	e8 79 49 0d 04       	call   7d229c0 <pthread_mutex_unlock@plt>
 3c4e056:	e8 65 49 0d 04       	call   7d229c0 <pthread_mutex_unlock@plt>
 3c4e06a:	e8 51 49 0d 04       	call   7d229c0 <pthread_mutex_unlock@plt>
 3c4e07e:	e8 3d 49 0d 04       	call   7d229c0 <pthread_mutex_unlock@plt>
 3c4e092:	e8 29 49 0d 04       	call   7d229c0 <pthread_mutex_unlock@plt>
 3c4e0a6:	e8 15 49 0d 04       	call   7d229c0 <pthread_mutex_unlock@plt>
 3c4e0ba:	e8 01 49 0d 04       	call   7d229c0 <pthread_mutex_unlock@plt>
 3c4e0d3:	e8 e8 48 0d 04       	call   7d229c0 <pthread_mutex_unlock@plt>
 3c4e0e6:	e8 d5 48 0d 04       	call   7d229c0 <pthread_mutex_unlock@plt>
 3c4e0fa:	e8 c1 48 0d 04       	call   7d229c0 <pthread_mutex_unlock@plt>
 3c4e10e:	e8 ad 48 0d 04       	call   7d229c0 <pthread_mutex_unlock@plt>
 3c4e13a:	e8 81 48 0d 04       	call   7d229c0 <pthread_mutex_unlock@plt>
 3c4e171:	e8 4a 48 0d 04       	call   7d229c0 <pthread_mutex_unlock@plt>
 3c4e19c:	e8 1f 48 0d 04       	call   7d229c0 <pthread_mutex_unlock@plt>
 3c4e219:	e8 a2 47 0d 04       	call   7d229c0 <pthread_mutex_unlock@plt>
 3c4e43a:	e8 81 45 0d 04       	call   7d229c0 <pthread_mutex_unlock@plt>
 3c4e44e:	e8 6d 45 0d 04       	call   7d229c0 <pthread_mutex_unlock@plt>
 3c4e500:	e8 bb 44 0d 04       	call   7d229c0 <pthread_mutex_unlock@plt>
 3c4e5cc:	e8 ef 43 0d 04       	call   7d229c0 <pthread_mutex_unlock@plt>
 3c4e5e0:	e8 db 43 0d 04       	call   7d229c0 <pthread_mutex_unlock@plt>
 3c4e763:	e8 28 0c e2 ff       	call   3a6f390 <std::unique_lock<std::mutex>::unlock()>
 3c4e777:	e8 14 0c e2 ff       	call   3a6f390 <std::unique_lock<std::mutex>::unlock()>
 3c4e78b:	e8 00 0c e2 ff       	call   3a6f390 <std::unique_lock<std::mutex>::unlock()>
 3c4e7c1:	e8 ca 0b e2 ff       	call   3a6f390 <std::unique_lock<std::mutex>::unlock()>
 3c4ea06:	e8 b5 3f 0d 04       	call   7d229c0 <pthread_mutex_unlock@plt>
 3c4ea71:	e8 4a 3f 0d 04       	call   7d229c0 <pthread_mutex_unlock@plt>
 3c4eb56:	e8 65 3e 0d 04       	call   7d229c0 <pthread_mutex_unlock@plt>
 3c4eb9c:	e8 1f 3e 0d 04       	call   7d229c0 <pthread_mutex_unlock@plt>
 3c4ebea:	e8 a1 07 e2 ff       	call   3a6f390 <std::unique_lock<std::mutex>::unlock()>
 3c4eeb5:	e8 d6 04 e2 ff       	call   3a6f390 <std::unique_lock<std::mutex>::unlock()>
 3c4f042:	e8 79 39 0d 04       	call   7d229c0 <pthread_mutex_unlock@plt>
 3c4f08b:	e8 30 39 0d 04       	call   7d229c0 <pthread_mutex_unlock@plt>
 3c4f1ba:	e8 01 38 0d 04       	call   7d229c0 <pthread_mutex_unlock@plt>
 3c4f1de:	e8 dd 37 0d 04       	call   7d229c0 <pthread_mutex_unlock@plt>
 3c4f218:	e8 73 01 e2 ff       	call   3a6f390 <std::unique_lock<std::mutex>::unlock()>
 3c4f26c:	e8 1f 01 e2 ff       	call   3a6f390 <std::unique_lock<std::mutex>::unlock()>
 3c4f878:	e8 43 31 0d 04       	call   7d229c0 <pthread_mutex_unlock@plt>
 3c4f9a6:	e8 15 30 0d 04       	call   7d229c0 <pthread_mutex_unlock@plt>
 3c4f9d6:	e8 e5 2f 0d 04       	call   7d229c0 <pthread_mutex_unlock@plt>
 3c4f9f8:	e8 c3 2f 0d 04       	call   7d229c0 <pthread_mutex_unlock@plt>
 3c4fa3d:	e8 7e 2f 0d 04       	call   7d229c0 <pthread_mutex_unlock@plt>
 3c4fbac:	e8 0f 2e 0d 04       	call   7d229c0 <pthread_mutex_unlock@plt>
 3c4fcac:	e8 0f 2d 0d 04       	call   7d229c0 <pthread_mutex_unlock@plt>
 3c4fcc1:	e8 ca f6 e1 ff       	call   3a6f390 <std::unique_lock<std::mutex>::unlock()>
 3c4fd9a:	e8 21 2c 0d 04       	call   7d229c0 <pthread_mutex_unlock@plt>
 3c50647:	e8 74 23 0d 04       	call   7d229c0 <pthread_mutex_unlock@plt>
 3c5065a:	e8 61 23 0d 04       	call   7d229c0 <pthread_mutex_unlock@plt>
 3c506ae:	e8 0d 23 0d 04       	call   7d229c0 <pthread_mutex_unlock@plt>
 3c506f7:	e8 c4 22 0d 04       	call   7d229c0 <pthread_mutex_unlock@plt>
 3c507e6:	e8 d5 21 0d 04       	call   7d229c0 <pthread_mutex_unlock@plt>
 3c50816:	e8 a5 21 0d 04       	call   7d229c0 <pthread_mutex_unlock@plt>
 3c50c0a:	e8 b1 1d 0d 04       	call   7d229c0 <pthread_mutex_unlock@plt>
 3c50d04:	e8 b7 1c 0d 04       	call   7d229c0 <pthread_mutex_unlock@plt>
 3c50d4a:	e8 71 1c 0d 04       	call   7d229c0 <pthread_mutex_unlock@plt>
 3c50d7b:	e8 40 1c 0d 04       	call   7d229c0 <pthread_mutex_unlock@plt>
 3c50dd5:	e8 e6 1b 0d 04       	call   7d229c0 <pthread_mutex_unlock@plt>
 3c50e64:	e8 27 e5 e1 ff       	call   3a6f390 <std::unique_lock<std::mutex>::unlock()>
 3c50fa4:	e8 e7 e3 e1 ff       	call   3a6f390 <std::unique_lock<std::mutex>::unlock()>
 3c514e3:	e8 a8 de e1 ff       	call   3a6f390 <std::unique_lock<std::mutex>::unlock()>
 3c5166a:	e8 51 13 0d 04       	call   7d229c0 <pthread_mutex_unlock@plt>
 3c51827:	e8 94 11 0d 04       	call   7d229c0 <pthread_mutex_unlock@plt>
 3c51854:	e8 67 11 0d 04       	call   7d229c0 <pthread_mutex_unlock@plt>
 3c5193d:	e8 7e 10 0d 04       	call   7d229c0 <pthread_mutex_unlock@plt>
 3c51d36:	e8 85 0c 0d 04       	call   7d229c0 <pthread_mutex_unlock@plt>
 3c51efc:	e8 bf 0a 0d 04       	call   7d229c0 <pthread_mutex_unlock@plt>
 3c51f44:	e8 77 0a 0d 04       	call   7d229c0 <pthread_mutex_unlock@plt>
 3c51f60:	e8 5b 0a 0d 04       	call   7d229c0 <pthread_mutex_unlock@plt>
 3c51f82:	e8 39 0a 0d 04       	call   7d229c0 <pthread_mutex_unlock@plt>
 3c522b3:	e8 08 07 0d 04       	call   7d229c0 <pthread_mutex_unlock@plt>
 3c522c6:	e8 f5 06 0d 04       	call   7d229c0 <pthread_mutex_unlock@plt>
 3c522db:	e8 b0 d0 e1 ff       	call   3a6f390 <std::unique_lock<std::mutex>::unlock()>
 3c5231e:	e8 9d 06 0d 04       	call   7d229c0 <pthread_mutex_unlock@plt>
 3c5273c:	e8 7f 02 0d 04       	call   7d229c0 <pthread_mutex_unlock@plt>
 3c528cd:	e8 be ca e1 ff       	call   3a6f390 <std::unique_lock<std::mutex>::unlock()>
 3c52906:	e8 b5 00 0d 04       	call   7d229c0 <pthread_mutex_unlock@plt>
 3c52944:	e8 77 00 0d 04       	call   7d229c0 <pthread_mutex_unlock@plt>
 3c52977:	e8 14 ca e1 ff       	call   3a6f390 <std::unique_lock<std::mutex>::unlock()>
 3c529d3:	e8 b8 c9 e1 ff       	call   3a6f390 <std::unique_lock<std::mutex>::unlock()>
 3c529ec:	e8 9f c9 e1 ff       	call   3a6f390 <std::unique_lock<std::mutex>::unlock()>
 3c52a1c:	e8 6f c9 e1 ff       	call   3a6f390 <std::unique_lock<std::mutex>::unlock()>
 3c52a2b:	e8 60 c9 e1 ff       	call   3a6f390 <std::unique_lock<std::mutex>::unlock()>
 3c52a92:	e8 f9 c8 e1 ff       	call   3a6f390 <std::unique_lock<std::mutex>::unlock()>
 3c52aa1:	e8 ea c8 e1 ff       	call   3a6f390 <std::unique_lock<std::mutex>::unlock()>
 3c52af0:	e8 9b c8 e1 ff       	call   3a6f390 <std::unique_lock<std::mutex>::unlock()>
 3c52aff:	e8 8c c8 e1 ff       	call   3a6f390 <std::unique_lock<std::mutex>::unlock()>
 3c52b19:	e8 72 c8 e1 ff       	call   3a6f390 <std::unique_lock<std::mutex>::unlock()>
 3c52b4a:	e8 41 c8 e1 ff       	call   3a6f390 <std::unique_lock<std::mutex>::unlock()>
 3c52b59:	e8 32 c8 e1 ff       	call   3a6f390 <std::unique_lock<std::mutex>::unlock()>
 3c52b78:	e8 13 c8 e1 ff       	call   3a6f390 <std::unique_lock<std::mutex>::unlock()>
 3c52b8d:	e8 fe c7 e1 ff       	call   3a6f390 <std::unique_lock<std::mutex>::unlock()>
 3c52cf3:	e8 c8 fc 0c 04       	call   7d229c0 <pthread_mutex_unlock@plt>
 3c5311f:	e8 9c f8 0c 04       	call   7d229c0 <pthread_mutex_unlock@plt>
 3c53206:	e8 b5 f7 0c 04       	call   7d229c0 <pthread_mutex_unlock@plt>
 3c5339c:	e8 ef bf e1 ff       	call   3a6f390 <std::unique_lock<std::mutex>::unlock()>
 3c534dc:	e8 af be e1 ff       	call   3a6f390 <std::unique_lock<std::mutex>::unlock()>
 3c539bd:	e8 fe ef 0c 04       	call   7d229c0 <pthread_mutex_unlock@plt>
 3c53ae0:	e8 db ee 0c 04       	call   7d229c0 <pthread_mutex_unlock@plt>
 3c53b66:	e8 55 ee 0c 04       	call   7d229c0 <pthread_mutex_unlock@plt>
 3c53dbd:	e8 fe eb 0c 04       	call   7d229c0 <pthread_mutex_unlock@plt>
 3c53fb7:	e8 04 ea 0c 04       	call   7d229c0 <pthread_mutex_unlock@plt>
 3c53fe2:	e8 d9 e9 0c 04       	call   7d229c0 <pthread_mutex_unlock@plt>
 3c54a35:	e8 86 df 0c 04       	call   7d229c0 <pthread_mutex_unlock@plt>
 3c54afe:	e8 bd de 0c 04       	call   7d229c0 <pthread_mutex_unlock@plt>
 3c54b19:	e8 a2 de 0c 04       	call   7d229c0 <pthread_mutex_unlock@plt>
 3c54d19:	e8 72 a6 e1 ff       	call   3a6f390 <std::unique_lock<std::mutex>::unlock()>
 3c54d61:	e8 2a a6 e1 ff       	call   3a6f390 <std::unique_lock<std::mutex>::unlock()>
 3c55122:	e8 99 d8 0c 04       	call   7d229c0 <pthread_mutex_unlock@plt>
 3c551bb:	e8 00 d8 0c 04       	call   7d229c0 <pthread_mutex_unlock@plt>
 3c551d1:	e8 ea d7 0c 04       	call   7d229c0 <pthread_mutex_unlock@plt>
 3c5520a:	e8 81 a1 e1 ff       	call   3a6f390 <std::unique_lock<std::mutex>::unlock()>
 3c55334:	e8 57 a0 e1 ff       	call   3a6f390 <std::unique_lock<std::mutex>::unlock()>
 3c55383:	e8 08 a0 e1 ff       	call   3a6f390 <std::unique_lock<std::mutex>::unlock()>
 3c55815:	e8 76 9b e1 ff       	call   3a6f390 <std::unique_lock<std::mutex>::unlock()>
 3c55ac4:	e8 c7 98 e1 ff       	call   3a6f390 <std::unique_lock<std::mutex>::unlock()>
 3c55c77:	e8 14 97 e1 ff       	call   3a6f390 <std::unique_lock<std::mutex>::unlock()>
 3c55cb5:	e8 06 cd 0c 04       	call   7d229c0 <pthread_mutex_unlock@plt>
 3c55ccb:	e8 c0 96 e1 ff       	call   3a6f390 <std::unique_lock<std::mutex>::unlock()>
 3c55d49:	e8 42 96 e1 ff       	call   3a6f390 <std::unique_lock<std::mutex>::unlock()>
 3c55d88:	e8 33 cc 0c 04       	call   7d229c0 <pthread_mutex_unlock@plt>
 3c56051:	e8 3a 93 e1 ff       	call   3a6f390 <std::unique_lock<std::mutex>::unlock()>
 3c560b1:	e8 0a c9 0c 04       	call   7d229c0 <pthread_mutex_unlock@plt>
 3c56108:	e8 83 92 e1 ff       	call   3a6f390 <std::unique_lock<std::mutex>::unlock()>
 3c56121:	e8 9a c8 0c 04       	call   7d229c0 <pthread_mutex_unlock@plt>
 3c56230:	e8 8b c7 0c 04       	call   7d229c0 <pthread_mutex_unlock@plt>
 3c564ff:	e8 bc c4 0c 04       	call   7d229c0 <pthread_mutex_unlock@plt>
 3c5672e:	e8 5d 8c e1 ff       	call   3a6f390 <std::unique_lock<std::mutex>::unlock()>
 3c567f9:	e8 92 8b e1 ff       	call   3a6f390 <std::unique_lock<std::mutex>::unlock()>
 3c56911:	e8 aa c0 0c 04       	call   7d229c0 <pthread_mutex_unlock@plt>
 3c56bb2:	e8 d9 87 e1 ff       	call   3a6f390 <std::unique_lock<std::mutex>::unlock()>
 3c573af:	e8 dc 7f e1 ff       	call   3a6f390 <std::unique_lock<std::mutex>::unlock()>
 3c57503:	e8 88 7e e1 ff       	call   3a6f390 <std::unique_lock<std::mutex>::unlock()>
 3c575c1:	e8 ca 7d e1 ff       	call   3a6f390 <std::unique_lock<std::mutex>::unlock()>
 3c575fc:	e8 8f 7d e1 ff       	call   3a6f390 <std::unique_lock<std::mutex>::unlock()>
 3c57f58:	e8 63 aa 0c 04       	call   7d229c0 <pthread_mutex_unlock@plt>
 3c57fb2:	e9 09 aa 0c 04       	jmp    7d229c0 <pthread_mutex_unlock@plt>
 3c58018:	e8 a3 a9 0c 04       	call   7d229c0 <pthread_mutex_unlock@plt>
 3c580d2:	e9 e9 a8 0c 04       	jmp    7d229c0 <pthread_mutex_unlock@plt>
 3c5862a:	e9 91 a3 0c 04       	jmp    7d229c0 <pthread_mutex_unlock@plt>
 3c586a7:	e8 14 a3 0c 04       	call   7d229c0 <pthread_mutex_unlock@plt>
 3c58b5a:	e9 61 9e 0c 04       	jmp    7d229c0 <pthread_mutex_unlock@plt>
 3c58bb3:	e8 d8 67 e1 ff       	call   3a6f390 <std::unique_lock<std::mutex>::unlock()>
 3c5905f:	e8 5c 99 0c 04       	call   7d229c0 <pthread_mutex_unlock@plt>
 3c590e3:	e8 a8 62 e1 ff       	call   3a6f390 <std::unique_lock<std::mutex>::unlock()>
 3c59134:	e8 57 62 e1 ff       	call   3a6f390 <std::unique_lock<std::mutex>::unlock()>
 3c59f26:	e8 95 8a 0c 04       	call   7d229c0 <pthread_mutex_unlock@plt>
 3c5a072:	e8 49 89 0c 04       	call   7d229c0 <pthread_mutex_unlock@plt>
 3c5a115:	e8 a6 88 0c 04       	call   7d229c0 <pthread_mutex_unlock@plt>
 3c6030a:	e8 b1 26 0c 04       	call   7d229c0 <pthread_mutex_unlock@plt>
 3c6076f:	e9 4c 22 0c 04       	jmp    7d229c0 <pthread_mutex_unlock@plt>
 3c60cd8:	e9 e3 1c 0c 04       	jmp    7d229c0 <pthread_mutex_unlock@plt>
 3c618f1:	e8 9a da e0 ff       	call   3a6f390 <std::unique_lock<std::mutex>::unlock()>
 3c6255f:	e9 5c 04 0c 04       	jmp    7d229c0 <pthread_mutex_unlock@plt>
 3c62b3d:	e8 7e fe 0b 04       	call   7d229c0 <pthread_mutex_unlock@plt>
 3c6314e:	e8 6d f8 0b 04       	call   7d229c0 <pthread_mutex_unlock@plt>
 3c631c6:	e8 f5 f7 0b 04       	call   7d229c0 <pthread_mutex_unlock@plt>
 3c63329:	e8 62 c0 e0 ff       	call   3a6f390 <std::unique_lock<std::mutex>::unlock()>
 3c6366a:	e8 51 f3 0b 04       	call   7d229c0 <pthread_mutex_unlock@plt>
 3c636e5:	e8 d6 f2 0b 04       	call   7d229c0 <pthread_mutex_unlock@plt>
 3c64c6a:	e8 51 dd 0b 04       	call   7d229c0 <pthread_mutex_unlock@plt>
 3c66a9e:	e9 1d bf 0b 04       	jmp    7d229c0 <pthread_mutex_unlock@plt>
 3c67323:	e8 98 b6 0b 04       	call   7d229c0 <pthread_mutex_unlock@plt>
 3c673e3:	e8 d8 b5 0b 04       	call   7d229c0 <pthread_mutex_unlock@plt>
 3c6747f:	e8 0c 7f e0 ff       	call   3a6f390 <std::unique_lock<std::mutex>::unlock()>
 3c675a3:	e8 e8 7d e0 ff       	call   3a6f390 <std::unique_lock<std::mutex>::unlock()>
 3c677e5:	e8 d6 b1 0b 04       	call   7d229c0 <pthread_mutex_unlock@plt>
 3c694ef:	e9 cc 94 0b 04       	jmp    7d229c0 <pthread_mutex_unlock@plt>
 3c6956b:	e9 50 94 0b 04       	jmp    7d229c0 <pthread_mutex_unlock@plt>
 3c695eb:	e9 d0 93 0b 04       	jmp    7d229c0 <pthread_mutex_unlock@plt>
 3c69a7c:	e9 3f 8f 0b 04       	jmp    7d229c0 <pthread_mutex_unlock@plt>
 3c6a329:	e8 62 50 e0 ff       	call   3a6f390 <std::unique_lock<std::mutex>::unlock()>
 3c6a58b:	e8 00 4e e0 ff       	call   3a6f390 <std::unique_lock<std::mutex>::unlock()>
 3c6bc3f:	e8 4c 37 e0 ff       	call   3a6f390 <std::unique_lock<std::mutex>::unlock()>
 3c6bc53:	e8 38 37 e0 ff       	call   3a6f390 <std::unique_lock<std::mutex>::unlock()>
 3c6c2e9:	e8 a2 30 e0 ff       	call   3a6f390 <std::unique_lock<std::mutex>::unlock()>
 3c6d38b:	e8 30 56 0b 04       	call   7d229c0 <pthread_mutex_unlock@plt>
 3c6dbdf:	e8 ac 17 e0 ff       	call   3a6f390 <std::unique_lock<std::mutex>::unlock()>
 3c6e3f7:	e9 c4 45 0b 04       	jmp    7d229c0 <pthread_mutex_unlock@plt>
 3c6e42f:	e8 5c 0f e0 ff       	call   3a6f390 <std::unique_lock<std::mutex>::unlock()>
 3c6e443:	e8 48 0f e0 ff       	call   3a6f390 <std::unique_lock<std::mutex>::unlock()>
 3c6e636:	e8 55 0d e0 ff       	call   3a6f390 <std::unique_lock<std::mutex>::unlock()>
 3c6e6d3:	e8 b8 0c e0 ff       	call   3a6f390 <std::unique_lock<std::mutex>::unlock()>
 3c6f06c:	e9 4f 39 0b 04       	jmp    7d229c0 <pthread_mutex_unlock@plt>
 3c6f310:	e9 ab 36 0b 04       	jmp    7d229c0 <pthread_mutex_unlock@plt>
 3c6f330:	e8 8b 36 0b 04       	call   7d229c0 <pthread_mutex_unlock@plt>
 3c6f3e6:	e8 a5 ff df ff       	call   3a6f390 <std::unique_lock<std::mutex>::unlock()>
 3c6f4ee:	e8 9d fe df ff       	call   3a6f390 <std::unique_lock<std::mutex>::unlock()>
 3c6f7bf:	e8 cc fb df ff       	call   3a6f390 <std::unique_lock<std::mutex>::unlock()>
 3c6f9d7:	e8 b4 f9 df ff       	call   3a6f390 <std::unique_lock<std::mutex>::unlock()>
 3c700ca:	e8 f1 28 0b 04       	call   7d229c0 <pthread_mutex_unlock@plt>
 3c70303:	e8 b8 26 0b 04       	call   7d229c0 <pthread_mutex_unlock@plt>
 3c7055d:	e8 5e 24 0b 04       	call   7d229c0 <pthread_mutex_unlock@plt>
 3c7083e:	e8 7d 21 0b 04       	call   7d229c0 <pthread_mutex_unlock@plt>
 3c7086b:	e8 50 21 0b 04       	call   7d229c0 <pthread_mutex_unlock@plt>
 3c70b3d:	e8 7e 1e 0b 04       	call   7d229c0 <pthread_mutex_unlock@plt>
 3c70ff4:	e8 c7 19 0b 04       	call   7d229c0 <pthread_mutex_unlock@plt>
 3c716ed:	e8 ce 12 0b 04       	call   7d229c0 <pthread_mutex_unlock@plt>
 3c7182f:	e8 5c db df ff       	call   3a6f390 <std::unique_lock<std::mutex>::unlock()>
 3c71b3e:	e8 7d 0e 0b 04       	call   7d229c0 <pthread_mutex_unlock@plt>
 3c71b52:	e8 69 0e 0b 04       	call   7d229c0 <pthread_mutex_unlock@plt>
 3c71b66:	e8 55 0e 0b 04       	call   7d229c0 <pthread_mutex_unlock@plt>
 3c71d2a:	e8 91 0c 0b 04       	call   7d229c0 <pthread_mutex_unlock@plt>
 3c720a5:	e8 e6 d2 df ff       	call   3a6f390 <std::unique_lock<std::mutex>::unlock()>
 3c723ff:	e8 8c cf df ff       	call   3a6f390 <std::unique_lock<std::mutex>::unlock()>
 3c72495:	e8 f6 ce df ff       	call   3a6f390 <std::unique_lock<std::mutex>::unlock()>
 3c7253e:	e8 4d ce df ff       	call   3a6f390 <std::unique_lock<std::mutex>::unlock()>
 3c72721:	e8 6a cc df ff       	call   3a6f390 <std::unique_lock<std::mutex>::unlock()>
 3c72736:	e8 55 cc df ff       	call   3a6f390 <std::unique_lock<std::mutex>::unlock()>
 3c727d5:	e8 b6 cb df ff       	call   3a6f390 <std::unique_lock<std::mutex>::unlock()>
 3c7299d:	e8 ee c9 df ff       	call   3a6f390 <std::unique_lock<std::mutex>::unlock()>
 3c72a6d:	e8 1e c9 df ff       	call   3a6f390 <std::unique_lock<std::mutex>::unlock()>
 3c72b52:	e8 69 fe 0a 04       	call   7d229c0 <pthread_mutex_unlock@plt>
 3c72caa:	e8 11 fd 0a 04       	call   7d229c0 <pthread_mutex_unlock@plt>
 3c72e96:	e8 25 fb 0a 04       	call   7d229c0 <pthread_mutex_unlock@plt>
 3c72ec0:	e8 fb fa 0a 04       	call   7d229c0 <pthread_mutex_unlock@plt>
 3c7319b:	e8 20 f8 0a 04       	call   7d229c0 <pthread_mutex_unlock@plt>
 3c7e667:	e9 54 43 0a 04       	jmp    7d229c0 <pthread_mutex_unlock@plt>
 3c7e848:	e9 73 41 0a 04       	jmp    7d229c0 <pthread_mutex_unlock@plt>
 3c7edc6:	e8 f5 3b 0a 04       	call   7d229c0 <pthread_mutex_unlock@plt>
 3c7fb3c:	e8 7f 2e 0a 04       	call   7d229c0 <pthread_mutex_unlock@plt>
 3c7fb80:	e8 3b 2e 0a 04       	call   7d229c0 <pthread_mutex_unlock@plt>
 3c7fda9:	e8 12 2c 0a 04       	call   7d229c0 <pthread_mutex_unlock@plt>
 3c80de3:	e8 d8 1b 0a 04       	call   7d229c0 <pthread_mutex_unlock@plt>
 3c80e97:	e8 24 1b 0a 04       	call   7d229c0 <pthread_mutex_unlock@plt>
 3c81065:	e9 56 19 0a 04       	jmp    7d229c0 <pthread_mutex_unlock@plt>
 3c810f3:	e8 c8 18 0a 04       	call   7d229c0 <pthread_mutex_unlock@plt>
 3c812f3:	e8 c8 16 0a 04       	call   7d229c0 <pthread_mutex_unlock@plt>
 3c8137b:	e8 40 16 0a 04       	call   7d229c0 <pthread_mutex_unlock@plt>
 3c813ca:	e8 f1 15 0a 04       	call   7d229c0 <pthread_mutex_unlock@plt>
 3c814a5:	e8 16 15 0a 04       	call   7d229c0 <pthread_mutex_unlock@plt>
 3c8163b:	e8 80 13 0a 04       	call   7d229c0 <pthread_mutex_unlock@plt>
 3c817bd:	e8 fe 11 0a 04       	call   7d229c0 <pthread_mutex_unlock@plt>
 3c8181d:	e8 9e 11 0a 04       	call   7d229c0 <pthread_mutex_unlock@plt>
 3c828af:	e8 0c 01 0a 04       	call   7d229c0 <pthread_mutex_unlock@plt>
 3c82a5d:	e9 5e ff 09 04       	jmp    7d229c0 <pthread_mutex_unlock@plt>
 3c82df7:	e8 c4 fb 09 04       	call   7d229c0 <pthread_mutex_unlock@plt>
 3c82e2d:	e8 8e fb 09 04       	call   7d229c0 <pthread_mutex_unlock@plt>
 3c82eef:	e8 cc fa 09 04       	call   7d229c0 <pthread_mutex_unlock@plt>
 3c83164:	e9 57 f8 09 04       	jmp    7d229c0 <pthread_mutex_unlock@plt>
 3c8320f:	e8 ac f7 09 04       	call   7d229c0 <pthread_mutex_unlock@plt>
 3c83245:	e8 76 f7 09 04       	call   7d229c0 <pthread_mutex_unlock@plt>
 3c833c7:	e8 f4 f5 09 04       	call   7d229c0 <pthread_mutex_unlock@plt>
 3c83565:	e8 56 f4 09 04       	call   7d229c0 <pthread_mutex_unlock@plt>
 3c83992:	e8 29 f0 09 04       	call   7d229c0 <pthread_mutex_unlock@plt>
 3c839a6:	e8 15 f0 09 04       	call   7d229c0 <pthread_mutex_unlock@plt>
 3c839e5:	e8 a6 b9 de ff       	call   3a6f390 <std::unique_lock<std::mutex>::unlock()>
 3c83a01:	e8 8a b9 de ff       	call   3a6f390 <std::unique_lock<std::mutex>::unlock()>
 3c83b77:	e9 44 ee 09 04       	jmp    7d229c0 <pthread_mutex_unlock@plt>
 3c83b85:	e8 36 ee 09 04       	call   7d229c0 <pthread_mutex_unlock@plt>
 3c84304:	e8 b7 e6 09 04       	call   7d229c0 <pthread_mutex_unlock@plt>
 3c84346:	e8 75 e6 09 04       	call   7d229c0 <pthread_mutex_unlock@plt>
 3c84369:	e8 52 e6 09 04       	call   7d229c0 <pthread_mutex_unlock@plt>
 3c843e4:	e8 d7 e5 09 04       	call   7d229c0 <pthread_mutex_unlock@plt>
 3c84405:	e8 b6 e5 09 04       	call   7d229c0 <pthread_mutex_unlock@plt>
 3c84456:	e8 65 e5 09 04       	call   7d229c0 <pthread_mutex_unlock@plt>
 3c8574e:	e9 6d d2 09 04       	jmp    7d229c0 <pthread_mutex_unlock@plt>
 3c857a8:	e8 13 d2 09 04       	call   7d229c0 <pthread_mutex_unlock@plt>
 3c858ac:	e8 0f d1 09 04       	call   7d229c0 <pthread_mutex_unlock@plt>
 3c858eb:	e8 d0 d0 09 04       	call   7d229c0 <pthread_mutex_unlock@plt>
 3c86637:	e8 84 c3 09 04       	call   7d229c0 <pthread_mutex_unlock@plt>
 3c866cf:	e8 ec c2 09 04       	call   7d229c0 <pthread_mutex_unlock@plt>
 3c86757:	e8 64 c2 09 04       	call   7d229c0 <pthread_mutex_unlock@plt>
 3c867ef:	e8 cc c1 09 04       	call   7d229c0 <pthread_mutex_unlock@plt>
 3c86905:	e8 b6 c0 09 04       	call   7d229c0 <pthread_mutex_unlock@plt>
 3c86a4a:	e9 71 bf 09 04       	jmp    7d229c0 <pthread_mutex_unlock@plt>
 3c86b17:	e8 a4 be 09 04       	call   7d229c0 <pthread_mutex_unlock@plt>
 3c8717c:	e8 3f b8 09 04       	call   7d229c0 <pthread_mutex_unlock@plt>
 3c87190:	e8 2b b8 09 04       	call   7d229c0 <pthread_mutex_unlock@plt>
 3c8723c:	e8 7f b7 09 04       	call   7d229c0 <pthread_mutex_unlock@plt>
 3c87250:	e8 6b b7 09 04       	call   7d229c0 <pthread_mutex_unlock@plt>
 3c87264:	e8 57 b7 09 04       	call   7d229c0 <pthread_mutex_unlock@plt>
 3c87278:	e8 43 b7 09 04       	call   7d229c0 <pthread_mutex_unlock@plt>
 3c872a7:	e8 14 b7 09 04       	call   7d229c0 <pthread_mutex_unlock@plt>
 3c87322:	e8 99 b6 09 04       	call   7d229c0 <pthread_mutex_unlock@plt>
 3c8ad1e:	e9 9d 7c 09 04       	jmp    7d229c0 <pthread_mutex_unlock@plt>
 3c8ada1:	e8 1a 7c 09 04       	call   7d229c0 <pthread_mutex_unlock@plt>
 3c8ae27:	e8 94 7b 09 04       	call   7d229c0 <pthread_mutex_unlock@plt>
 3c8ae50:	e8 6b 7b 09 04       	call   7d229c0 <pthread_mutex_unlock@plt>
 3c8aea7:	e8 14 7b 09 04       	call   7d229c0 <pthread_mutex_unlock@plt>
 3c8aed0:	e8 eb 7a 09 04       	call   7d229c0 <pthread_mutex_unlock@plt>
 3c8af5d:	e8 5e 7a 09 04       	call   7d229c0 <pthread_mutex_unlock@plt>
 3c8af65:	e8 56 7a 09 04       	call   7d229c0 <pthread_mutex_unlock@plt>
 3c8b02a:	e8 91 79 09 04       	call   7d229c0 <pthread_mutex_unlock@plt>
 3c8b03a:	e9 81 79 09 04       	jmp    7d229c0 <pthread_mutex_unlock@plt>
 3c8b0d2:	e8 e9 78 09 04       	call   7d229c0 <pthread_mutex_unlock@plt>
 3c8b2ac:	e8 0f 77 09 04       	call   7d229c0 <pthread_mutex_unlock@plt>
 3c8b2b4:	e8 07 77 09 04       	call   7d229c0 <pthread_mutex_unlock@plt>
 3c8b801:	e8 ba 71 09 04       	call   7d229c0 <pthread_mutex_unlock@plt>
 3c8b96e:	e8 4d 70 09 04       	call   7d229c0 <pthread_mutex_unlock@plt>
 3c8b982:	e8 39 70 09 04       	call   7d229c0 <pthread_mutex_unlock@plt>
 3c8b996:	e8 25 70 09 04       	call   7d229c0 <pthread_mutex_unlock@plt>
 3c8b99e:	e8 1d 70 09 04       	call   7d229c0 <pthread_mutex_unlock@plt>
 3c8b9b2:	e8 09 70 09 04       	call   7d229c0 <pthread_mutex_unlock@plt>
 3c8b9c6:	e8 f5 6f 09 04       	call   7d229c0 <pthread_mutex_unlock@plt>
 3c8b9ce:	e8 ed 6f 09 04       	call   7d229c0 <pthread_mutex_unlock@plt>
 3c8beea:	e8 d1 6a 09 04       	call   7d229c0 <pthread_mutex_unlock@plt>
 3c8cc9e:	e8 1d 5d 09 04       	call   7d229c0 <pthread_mutex_unlock@plt>
 3c8cccf:	e8 ec 5c 09 04       	call   7d229c0 <pthread_mutex_unlock@plt>
 3c8cd71:	e8 4a 5c 09 04       	call   7d229c0 <pthread_mutex_unlock@plt>
 3c8cdcc:	e8 ef 5b 09 04       	call   7d229c0 <pthread_mutex_unlock@plt>
 3c8ce0b:	e9 b0 5b 09 04       	jmp    7d229c0 <pthread_mutex_unlock@plt>
 3c8ce93:	e8 28 5b 09 04       	call   7d229c0 <pthread_mutex_unlock@plt>
 3c8d80a:	e8 b1 51 09 04       	call   7d229c0 <pthread_mutex_unlock@plt>
 3c8d812:	e8 a9 51 09 04       	call   7d229c0 <pthread_mutex_unlock@plt>
 3c8d991:	e8 2a 50 09 04       	call   7d229c0 <pthread_mutex_unlock@plt>
 3c94338:	e8 83 e6 08 04       	call   7d229c0 <pthread_mutex_unlock@plt>
 3c944b7:	e8 d4 ae dd ff       	call   3a6f390 <std::unique_lock<std::mutex>::unlock()>
 3c96825:	e8 66 8b dd ff       	call   3a6f390 <std::unique_lock<std::mutex>::unlock()>
 3c9743f:	e8 7c b5 08 04       	call   7d229c0 <pthread_mutex_unlock@plt>
 3c974a7:	e8 14 b5 08 04       	call   7d229c0 <pthread_mutex_unlock@plt>
 3c975a3:	e8 e8 7d dd ff       	call   3a6f390 <std::unique_lock<std::mutex>::unlock()>
 3ca307f:	e8 3c f9 07 04       	call   7d229c0 <pthread_mutex_unlock@plt>
 3ca36a2:	e8 19 f3 07 04       	call   7d229c0 <pthread_mutex_unlock@plt>
 3ca39e8:	e8 d3 ef 07 04       	call   7d229c0 <pthread_mutex_unlock@plt>
 3ca3a7c:	e8 3f ef 07 04       	call   7d229c0 <pthread_mutex_unlock@plt>
 3ca3c70:	e8 4b ed 07 04       	call   7d229c0 <pthread_mutex_unlock@plt>
 3ca54fa:	e8 c1 d4 07 04       	call   7d229c0 <pthread_mutex_unlock@plt>
 3ca5e90:	e9 2b cb 07 04       	jmp    7d229c0 <pthread_mutex_unlock@plt>
 3ca6bf8:	e8 c3 bd 07 04       	call   7d229c0 <pthread_mutex_unlock@plt>
 3ca7225:	e8 96 b7 07 04       	call   7d229c0 <pthread_mutex_unlock@plt>
 3ca7955:	e8 66 b0 07 04       	call   7d229c0 <pthread_mutex_unlock@plt>
 3ca7961:	e8 5a b0 07 04       	call   7d229c0 <pthread_mutex_unlock@plt>
 3ca7b80:	e8 3b ae 07 04       	call   7d229c0 <pthread_mutex_unlock@plt>
 3ca7c30:	e8 8b ad 07 04       	call   7d229c0 <pthread_mutex_unlock@plt>
 3ca9fff:	e8 bc 89 07 04       	call   7d229c0 <pthread_mutex_unlock@plt>
 3caa015:	e9 a6 89 07 04       	jmp    7d229c0 <pthread_mutex_unlock@plt>
 3caa0a2:	e8 19 89 07 04       	call   7d229c0 <pthread_mutex_unlock@plt>
 3caa5bd:	e8 fe 83 07 04       	call   7d229c0 <pthread_mutex_unlock@plt>
 3caa600:	e8 bb 83 07 04       	call   7d229c0 <pthread_mutex_unlock@plt>
 3caebdc:	e8 df 3d 07 04       	call   7d229c0 <pthread_mutex_unlock@plt>
 3caec1c:	e8 9f 3d 07 04       	call   7d229c0 <pthread_mutex_unlock@plt>
 3caeca5:	e9 16 3d 07 04       	jmp    7d229c0 <pthread_mutex_unlock@plt>
 3caf014:	e8 a7 39 07 04       	call   7d229c0 <pthread_mutex_unlock@plt>
 3caf434:	e8 87 35 07 04       	call   7d229c0 <pthread_mutex_unlock@plt>
 3caf47e:	e8 3d 35 07 04       	call   7d229c0 <pthread_mutex_unlock@plt>
 3cc1ede:	e8 dd 0a 06 04       	call   7d229c0 <pthread_mutex_unlock@plt>
 3cc1f0c:	e8 af 0a 06 04       	call   7d229c0 <pthread_mutex_unlock@plt>
 3cc9cc1:	e8 ba af 4b 03       	call   7184c80 <mongo::Lock::GlobalLock::_unlock()>
 3cca05e:	e8 1d ac 4b 03       	call   7184c80 <mongo::Lock::GlobalLock::_unlock()>
 3cca0ef:	e8 cc b0 4b 03       	call   71851c0 <mongo::Lock::ResourceLock::_unlock()>
 3cca107:	e8 b4 b0 4b 03       	call   71851c0 <mongo::Lock::ResourceLock::_unlock()>
 3cca2e0:	e8 db ae 4b 03       	call   71851c0 <mongo::Lock::ResourceLock::_unlock()>
 3cca2f1:	e8 ca ae 4b 03       	call   71851c0 <mongo::Lock::ResourceLock::_unlock()>
 3cd2c5c:	e8 5f fd 04 04       	call   7d229c0 <pthread_mutex_unlock@plt>
 3cd2cfb:	e8 c0 fc 04 04       	call   7d229c0 <pthread_mutex_unlock@plt>
 3cd2d98:	e8 23 fc 04 04       	call   7d229c0 <pthread_mutex_unlock@plt>
 3cd2dd9:	e8 e2 fb 04 04       	call   7d229c0 <pthread_mutex_unlock@plt>
 3cd2eba:	e8 01 fb 04 04       	call   7d229c0 <pthread_mutex_unlock@plt>
 3cd2f33:	e8 88 fa 04 04       	call   7d229c0 <pthread_mutex_unlock@plt>
 3cd2f6b:	e8 50 fa 04 04       	call   7d229c0 <pthread_mutex_unlock@plt>
 3cd307e:	e8 3d f9 04 04       	call   7d229c0 <pthread_mutex_unlock@plt>
 3cd3f6e:	e8 4d ea 04 04       	call   7d229c0 <pthread_mutex_unlock@plt>
 3cd3fdc:	e8 df e9 04 04       	call   7d229c0 <pthread_mutex_unlock@plt>
 3cd42e8:	e8 d3 e6 04 04       	call   7d229c0 <pthread_mutex_unlock@plt>
 3cd43e0:	e8 db e5 04 04       	call   7d229c0 <pthread_mutex_unlock@plt>
 3ce1959:	e8 22 33 4a 03       	call   7184c80 <mongo::Lock::GlobalLock::_unlock()>
 3ce1a82:	e8 f9 31 4a 03       	call   7184c80 <mongo::Lock::GlobalLock::_unlock()>
 3ce1af5:	e8 c6 36 4a 03       	call   71851c0 <mongo::Lock::ResourceLock::_unlock()>
 3ce1b05:	e8 b6 36 4a 03       	call   71851c0 <mongo::Lock::ResourceLock::_unlock()>
 3ce1b1b:	e8 a0 36 4a 03       	call   71851c0 <mongo::Lock::ResourceLock::_unlock()>
 3ce1b2d:	e8 8e 36 4a 03       	call   71851c0 <mongo::Lock::ResourceLock::_unlock()>
 3ce1eb0:	e8 cb 2d 4a 03       	call   7184c80 <mongo::Lock::GlobalLock::_unlock()>
 3ce2035:	e8 86 31 4a 03       	call   71851c0 <mongo::Lock::ResourceLock::_unlock()>
 3ce2045:	e8 76 31 4a 03       	call   71851c0 <mongo::Lock::ResourceLock::_unlock()>
 3cea468:	e8 13 a8 49 03       	call   7184c80 <mongo::Lock::GlobalLock::_unlock()>
 3cea49f:	e8 1c ad 49 03       	call   71851c0 <mongo::Lock::ResourceLock::_unlock()>
 3cea4af:	e8 0c ad 49 03       	call   71851c0 <mongo::Lock::ResourceLock::_unlock()>
 3cf25b5:	e8 06 04 03 04       	call   7d229c0 <pthread_mutex_unlock@plt>
 3cf265a:	e8 61 03 03 04       	call   7d229c0 <pthread_mutex_unlock@plt>
 3cf2fb2:	e9 09 fa 02 04       	jmp    7d229c0 <pthread_mutex_unlock@plt>
 3cf5f7b:	e8 40 ca 02 04       	call   7d229c0 <pthread_mutex_unlock@plt>
 3cf7985:	e8 36 b0 02 04       	call   7d229c0 <pthread_mutex_unlock@plt>
 3cf7a29:	e8 62 79 d7 ff       	call   3a6f390 <std::unique_lock<std::mutex>::unlock()>
 3cf8133:	e8 88 a8 02 04       	call   7d229c0 <pthread_mutex_unlock@plt>
 3cf8915:	e8 a6 a0 02 04       	call   7d229c0 <pthread_mutex_unlock@plt>
 3cf8bc6:	e8 f5 9d 02 04       	call   7d229c0 <pthread_mutex_unlock@plt>
 3cf8faa:	e8 11 9a 02 04       	call   7d229c0 <pthread_mutex_unlock@plt>
 3cf9335:	e8 56 60 d7 ff       	call   3a6f390 <std::unique_lock<std::mutex>::unlock()>
 3cf9708:	e8 b3 92 02 04       	call   7d229c0 <pthread_mutex_unlock@plt>
 3cf98d1:	e8 ba 5a d7 ff       	call   3a6f390 <std::unique_lock<std::mutex>::unlock()>
 3cf9a58:	e8 63 8f 02 04       	call   7d229c0 <pthread_mutex_unlock@plt>
 3cf9bb0:	e8 0b 8e 02 04       	call   7d229c0 <pthread_mutex_unlock@plt>
 3cf9d38:	e8 83 8c 02 04       	call   7d229c0 <pthread_mutex_unlock@plt>
 3cfa795:	e8 f6 4b d7 ff       	call   3a6f390 <std::unique_lock<std::mutex>::unlock()>
 3cfa7f7:	e8 94 4b d7 ff       	call   3a6f390 <std::unique_lock<std::mutex>::unlock()>
 3cfa877:	e8 14 4b d7 ff       	call   3a6f390 <std::unique_lock<std::mutex>::unlock()>
 3cfadb7:	e8 04 7c 02 04       	call   7d229c0 <pthread_mutex_unlock@plt>
 3cfadc3:	e8 f8 7b 02 04       	call   7d229c0 <pthread_mutex_unlock@plt>
 3cfb420:	e8 9b 75 02 04       	call   7d229c0 <pthread_mutex_unlock@plt>
 3cfb5dc:	e8 df 73 02 04       	call   7d229c0 <pthread_mutex_unlock@plt>
 3cfb9f4:	e8 97 39 d7 ff       	call   3a6f390 <std::unique_lock<std::mutex>::unlock()>
 3cfbaa2:	e8 19 6f 02 04       	call   7d229c0 <pthread_mutex_unlock@plt>
 3cfbbbb:	e8 d0 37 d7 ff       	call   3a6f390 <std::unique_lock<std::mutex>::unlock()>
 3cfbbe5:	e8 d6 6d 02 04       	call   7d229c0 <pthread_mutex_unlock@plt>
 3cfbc8f:	e8 2c 6d 02 04       	call   7d229c0 <pthread_mutex_unlock@plt>
 3cfcd8e:	e8 2d 5c 02 04       	call   7d229c0 <pthread_mutex_unlock@plt>
 3cfdb02:	e8 b9 4e 02 04       	call   7d229c0 <pthread_mutex_unlock@plt>
 3cfdb56:	e8 65 4e 02 04       	call   7d229c0 <pthread_mutex_unlock@plt>
 3cfdb9e:	e8 1d 4e 02 04       	call   7d229c0 <pthread_mutex_unlock@plt>
 3cfdbde:	e8 dd 4d 02 04       	call   7d229c0 <pthread_mutex_unlock@plt>
 3cfdcff:	e8 8c 16 d7 ff       	call   3a6f390 <std::unique_lock<std::mutex>::unlock()>
 3cfddc8:	e8 f3 4b 02 04       	call   7d229c0 <pthread_mutex_unlock@plt>
 3cfdeef:	e8 cc 4a 02 04       	call   7d229c0 <pthread_mutex_unlock@plt>
 3cfe338:	e8 83 46 02 04       	call   7d229c0 <pthread_mutex_unlock@plt>
 3cfe7ba:	e8 d1 0b d7 ff       	call   3a6f390 <std::unique_lock<std::mutex>::unlock()>
 3cfe9f2:	e8 c9 3f 02 04       	call   7d229c0 <pthread_mutex_unlock@plt>
 3cfe9fe:	e8 bd 3f 02 04       	call   7d229c0 <pthread_mutex_unlock@plt>
 3cfea7d:	e8 3e 3f 02 04       	call   7d229c0 <pthread_mutex_unlock@plt>
 3cfeafe:	e8 bd 3e 02 04       	call   7d229c0 <pthread_mutex_unlock@plt>
 3cfeb91:	e8 fa 07 d7 ff       	call   3a6f390 <std::unique_lock<std::mutex>::unlock()>
 3d00071:	e8 4a 29 02 04       	call   7d229c0 <pthread_mutex_unlock@plt>
 3d000d3:	e8 e8 28 02 04       	call   7d229c0 <pthread_mutex_unlock@plt>
 3d00135:	e8 86 28 02 04       	call   7d229c0 <pthread_mutex_unlock@plt>
 3d00169:	e8 52 28 02 04       	call   7d229c0 <pthread_mutex_unlock@plt>
 3d001b0:	e8 0b 28 02 04       	call   7d229c0 <pthread_mutex_unlock@plt>
 3d02d0c:	e8 7f c6 d6 ff       	call   3a6f390 <std::unique_lock<std::mutex>::unlock()>
 3d0398c:	e8 ff b9 d6 ff       	call   3a6f390 <std::unique_lock<std::mutex>::unlock()>
 3d05681:	e8 3a d3 01 04       	call   7d229c0 <pthread_mutex_unlock@plt>
 3d05738:	e8 83 d2 01 04       	call   7d229c0 <pthread_mutex_unlock@plt>
 3d061bf:	e8 fc c7 01 04       	call   7d229c0 <pthread_mutex_unlock@plt>
 3d0644d:	e8 6e c5 01 04       	call   7d229c0 <pthread_mutex_unlock@plt>
 3d07229:	e8 92 b7 01 04       	call   7d229c0 <pthread_mutex_unlock@plt>
 3d0734c:	e8 6f b6 01 04       	call   7d229c0 <pthread_mutex_unlock@plt>
 3d081f4:	e9 c7 a7 01 04       	jmp    7d229c0 <pthread_mutex_unlock@plt>
 3d0820d:	e8 7e 71 d6 ff       	call   3a6f390 <std::unique_lock<std::mutex>::unlock()>
 3d0825f:	e8 5c a7 01 04       	call   7d229c0 <pthread_mutex_unlock@plt>
 3d099ac:	e9 0f 90 01 04       	jmp    7d229c0 <pthread_mutex_unlock@plt>
 3d099c5:	e8 c6 59 d6 ff       	call   3a6f390 <std::unique_lock<std::mutex>::unlock()>
 3d09a0d:	e8 ae 8f 01 04       	call   7d229c0 <pthread_mutex_unlock@plt>
 3d09b34:	e8 57 58 d6 ff       	call   3a6f390 <std::unique_lock<std::mutex>::unlock()>
 3d0c297:	e8 f4 30 d6 ff       	call   3a6f390 <std::unique_lock<std::mutex>::unlock()>
 3d0c7e6:	e8 d5 61 01 04       	call   7d229c0 <pthread_mutex_unlock@plt>
 3d0c9b7:	e8 d4 29 d6 ff       	call   3a6f390 <std::unique_lock<std::mutex>::unlock()>
 3d0ce2b:	e8 90 5b 01 04       	call   7d229c0 <pthread_mutex_unlock@plt>
 3d0cfaf:	e8 dc 23 d6 ff       	call   3a6f390 <std::unique_lock<std::mutex>::unlock()>
 3d0d5bf:	e8 cc 1d d6 ff       	call   3a6f390 <std::unique_lock<std::mutex>::unlock()>
 3d0ef1f:	e8 6c 04 d6 ff       	call   3a6f390 <std::unique_lock<std::mutex>::unlock()>
 3d0f834:	e8 57 fb d5 ff       	call   3a6f390 <std::unique_lock<std::mutex>::unlock()>
 3d0fb46:	e8 75 2e 01 04       	call   7d229c0 <pthread_mutex_unlock@plt>
 3d0fc84:	e8 07 f7 d5 ff       	call   3a6f390 <std::unique_lock<std::mutex>::unlock()>
 3d104e9:	e8 a2 ee d5 ff       	call   3a6f390 <std::unique_lock<std::mutex>::unlock()>
 3d10aaf:	e8 dc e8 d5 ff       	call   3a6f390 <std::unique_lock<std::mutex>::unlock()>
 3d11ac9:	e8 c2 d8 d5 ff       	call   3a6f390 <std::unique_lock<std::mutex>::unlock()>
 3d11baa:	e8 e1 d7 d5 ff       	call   3a6f390 <std::unique_lock<std::mutex>::unlock()>
 3d11bbb:	e8 d0 d7 d5 ff       	call   3a6f390 <std::unique_lock<std::mutex>::unlock()>
 3d11dbc:	e8 cf d5 d5 ff       	call   3a6f390 <std::unique_lock<std::mutex>::unlock()>
 3d11ecc:	e8 bf d4 d5 ff       	call   3a6f390 <std::unique_lock<std::mutex>::unlock()>
 3d11f33:	e8 58 d4 d5 ff       	call   3a6f390 <std::unique_lock<std::mutex>::unlock()>
 3d22010:	e8 ab 09 00 04       	call   7d229c0 <pthread_mutex_unlock@plt>
 3d22040:	e8 7b 09 00 04       	call   7d229c0 <pthread_mutex_unlock@plt>
 3d221e3:	e8 d8 07 00 04       	call   7d229c0 <pthread_mutex_unlock@plt>
 3d2250c:	e8 af 04 00 04       	call   7d229c0 <pthread_mutex_unlock@plt>
 3d22539:	e8 82 04 00 04       	call   7d229c0 <pthread_mutex_unlock@plt>
 3d22767:	e8 54 02 00 04       	call   7d229c0 <pthread_mutex_unlock@plt>
 3d23383:	e8 38 f6 ff 03       	call   7d229c0 <pthread_mutex_unlock@plt>
 3d25fa3:	e8 18 ca ff 03       	call   7d229c0 <pthread_mutex_unlock@plt>
 3d260c9:	e8 f2 c8 ff 03       	call   7d229c0 <pthread_mutex_unlock@plt>
 3d26f21:	e8 9a ba ff 03       	call   7d229c0 <pthread_mutex_unlock@plt>
 3d26f89:	e8 32 ba ff 03       	call   7d229c0 <pthread_mutex_unlock@plt>
 3d2760e:	e8 ad b3 ff 03       	call   7d229c0 <pthread_mutex_unlock@plt>
 3d27b5e:	e8 5d ae ff 03       	call   7d229c0 <pthread_mutex_unlock@plt>
 3d27d67:	e9 54 ac ff 03       	jmp    7d229c0 <pthread_mutex_unlock@plt>
 3d2841d:	e8 9e a5 ff 03       	call   7d229c0 <pthread_mutex_unlock@plt>
 3d29855:	e8 66 91 ff 03       	call   7d229c0 <pthread_mutex_unlock@plt>
 3d2a5cf:	e9 ec 83 ff 03       	jmp    7d229c0 <pthread_mutex_unlock@plt>
 3d2ac11:	e8 aa 7d ff 03       	call   7d229c0 <pthread_mutex_unlock@plt>
 3d2b72e:	e8 8d 72 ff 03       	call   7d229c0 <pthread_mutex_unlock@plt>
 3d3035a:	e8 61 26 ff 03       	call   7d229c0 <pthread_mutex_unlock@plt>
 3d305d3:	e8 e8 23 ff 03       	call   7d229c0 <pthread_mutex_unlock@plt>
 3d30863:	e8 58 21 ff 03       	call   7d229c0 <pthread_mutex_unlock@plt>
 3d3086b:	e8 50 21 ff 03       	call   7d229c0 <pthread_mutex_unlock@plt>
 3d309da:	e8 e1 1f ff 03       	call   7d229c0 <pthread_mutex_unlock@plt>
 3d30c8c:	e8 2f 1d ff 03       	call   7d229c0 <pthread_mutex_unlock@plt>
 3d30d30:	e9 8b 1c ff 03       	jmp    7d229c0 <pthread_mutex_unlock@plt>
 3d31020:	e9 9b 19 ff 03       	jmp    7d229c0 <pthread_mutex_unlock@plt>
 3d313fb:	e8 c0 15 ff 03       	call   7d229c0 <pthread_mutex_unlock@plt>
 3d314e8:	e8 d3 14 ff 03       	call   7d229c0 <pthread_mutex_unlock@plt>
 3d31994:	e8 27 10 ff 03       	call   7d229c0 <pthread_mutex_unlock@plt>
 3d3199c:	e8 1f 10 ff 03       	call   7d229c0 <pthread_mutex_unlock@plt>
 3d319fe:	e8 bd 0f ff 03       	call   7d229c0 <pthread_mutex_unlock@plt>
 3d31a80:	e8 3b 0f ff 03       	call   7d229c0 <pthread_mutex_unlock@plt>
 3d31b43:	e8 78 0e ff 03       	call   7d229c0 <pthread_mutex_unlock@plt>
 3d31c4a:	e8 71 0d ff 03       	call   7d229c0 <pthread_mutex_unlock@plt>
 3d31ca7:	e8 14 0d ff 03       	call   7d229c0 <pthread_mutex_unlock@plt>
 3d31caf:	e8 0c 0d ff 03       	call   7d229c0 <pthread_mutex_unlock@plt>
 3d31dc3:	e8 f8 0b ff 03       	call   7d229c0 <pthread_mutex_unlock@plt>
 3d32064:	e8 27 d3 d3 ff       	call   3a6f390 <std::unique_lock<std::mutex>::unlock()>
 3d323f5:	e8 c6 05 ff 03       	call   7d229c0 <pthread_mutex_unlock@plt>
 3d3297a:	e8 41 00 ff 03       	call   7d229c0 <pthread_mutex_unlock@plt>
 3d3355a:	e8 61 f4 fe 03       	call   7d229c0 <pthread_mutex_unlock@plt>
 3d33b1d:	e8 9e ee fe 03       	call   7d229c0 <pthread_mutex_unlock@plt>
 3d33b33:	e8 88 ee fe 03       	call   7d229c0 <pthread_mutex_unlock@plt>
 3d33b66:	e9 55 ee fe 03       	jmp    7d229c0 <pthread_mutex_unlock@plt>
 3d33b6e:	e8 4d ee fe 03       	call   7d229c0 <pthread_mutex_unlock@plt>
 3d33b9a:	e8 21 ee fe 03       	call   7d229c0 <pthread_mutex_unlock@plt>
 3d33c43:	e8 78 ed fe 03       	call   7d229c0 <pthread_mutex_unlock@plt>
 3d33e37:	e8 84 eb fe 03       	call   7d229c0 <pthread_mutex_unlock@plt>
 3d33e57:	e8 64 eb fe 03       	call   7d229c0 <pthread_mutex_unlock@plt>
 3d33f58:	e8 63 ea fe 03       	call   7d229c0 <pthread_mutex_unlock@plt>
 3d34010:	e8 ab e9 fe 03       	call   7d229c0 <pthread_mutex_unlock@plt>
 3d340d1:	e8 ea e8 fe 03       	call   7d229c0 <pthread_mutex_unlock@plt>
 3d340e3:	e8 d8 e8 fe 03       	call   7d229c0 <pthread_mutex_unlock@plt>
 3d34108:	e8 b3 e8 fe 03       	call   7d229c0 <pthread_mutex_unlock@plt>
 3d34141:	e8 7a e8 fe 03       	call   7d229c0 <pthread_mutex_unlock@plt>
 3d34163:	e8 58 e8 fe 03       	call   7d229c0 <pthread_mutex_unlock@plt>
 3d34190:	e8 2b e8 fe 03       	call   7d229c0 <pthread_mutex_unlock@plt>
 3d34234:	e8 87 e7 fe 03       	call   7d229c0 <pthread_mutex_unlock@plt>
 3d34427:	e8 94 e5 fe 03       	call   7d229c0 <pthread_mutex_unlock@plt>
 3d3505a:	e8 61 d9 fe 03       	call   7d229c0 <pthread_mutex_unlock@plt>
 3d355fb:	e8 c0 d3 fe 03       	call   7d229c0 <pthread_mutex_unlock@plt>
 3d3572d:	e8 5e 9c d3 ff       	call   3a6f390 <std::unique_lock<std::mutex>::unlock()>
 3d363bc:	e8 ff c5 fe 03       	call   7d229c0 <pthread_mutex_unlock@plt>
 3d36957:	e8 64 c0 fe 03       	call   7d229c0 <pthread_mutex_unlock@plt>
 3d3696f:	e8 1c 8a d3 ff       	call   3a6f390 <std::unique_lock<std::mutex>::unlock()>
 3d36a1e:	e8 9d bf fe 03       	call   7d229c0 <pthread_mutex_unlock@plt>
 3d36a64:	e8 57 bf fe 03       	call   7d229c0 <pthread_mutex_unlock@plt>
 3d36a7a:	e8 41 bf fe 03       	call   7d229c0 <pthread_mutex_unlock@plt>
 3d36b02:	e8 b9 be fe 03       	call   7d229c0 <pthread_mutex_unlock@plt>
 3d36b6e:	e8 4d be fe 03       	call   7d229c0 <pthread_mutex_unlock@plt>
 3d36c02:	e8 b9 bd fe 03       	call   7d229c0 <pthread_mutex_unlock@plt>
 3d36c75:	e8 46 bd fe 03       	call   7d229c0 <pthread_mutex_unlock@plt>
 3d36c9c:	e8 1f bd fe 03       	call   7d229c0 <pthread_mutex_unlock@plt>
 3d37a1a:	e8 a1 af fe 03       	call   7d229c0 <pthread_mutex_unlock@plt>
 3d39703:	e8 b8 92 fe 03       	call   7d229c0 <pthread_mutex_unlock@plt>
 3d3a143:	e8 48 52 d3 ff       	call   3a6f390 <std::unique_lock<std::mutex>::unlock()>
 3d3f37b:	e8 40 36 fe 03       	call   7d229c0 <pthread_mutex_unlock@plt>
 3d3f5ed:	e8 ce 33 fe 03       	call   7d229c0 <pthread_mutex_unlock@plt>
 3d3fcd2:	e8 e9 2c fe 03       	call   7d229c0 <pthread_mutex_unlock@plt>
 3d4026c:	e8 4f 27 fe 03       	call   7d229c0 <pthread_mutex_unlock@plt>
 3d406a9:	e8 12 23 fe 03       	call   7d229c0 <pthread_mutex_unlock@plt>
 3d42830:	e8 8b 01 fe 03       	call   7d229c0 <pthread_mutex_unlock@plt>
 3d43dbe:	e8 fd eb fd 03       	call   7d229c0 <pthread_mutex_unlock@plt>
 3d45620:	e8 9b d3 fd 03       	call   7d229c0 <pthread_mutex_unlock@plt>
 3d47898:	e8 23 b1 fd 03       	call   7d229c0 <pthread_mutex_unlock@plt>
 3d47941:	e8 4a 7a d2 ff       	call   3a6f390 <std::unique_lock<std::mutex>::unlock()>
 3d479ed:	e8 ce af fd 03       	call   7d229c0 <pthread_mutex_unlock@plt>
 3d47a41:	e8 7a af fd 03       	call   7d229c0 <pthread_mutex_unlock@plt>
 3d47b41:	e8 4a 78 d2 ff       	call   3a6f390 <std::unique_lock<std::mutex>::unlock()>
 3d47b68:	e8 23 78 d2 ff       	call   3a6f390 <std::unique_lock<std::mutex>::unlock()>
 3d47c7b:	e8 40 ad fd 03       	call   7d229c0 <pthread_mutex_unlock@plt>
 3d47d00:	e8 8b 76 d2 ff       	call   3a6f390 <std::unique_lock<std::mutex>::unlock()>
 3d48004:	e8 b7 a9 fd 03       	call   7d229c0 <pthread_mutex_unlock@plt>
 3d48104:	e8 87 72 d2 ff       	call   3a6f390 <std::unique_lock<std::mutex>::unlock()>
 3d490cb:	e9 f0 98 fd 03       	jmp    7d229c0 <pthread_mutex_unlock@plt>
 3d492b6:	e8 05 97 fd 03       	call   7d229c0 <pthread_mutex_unlock@plt>
 3d496fd:	e8 be 92 fd 03       	call   7d229c0 <pthread_mutex_unlock@plt>
 3d49ab6:	e8 05 8f fd 03       	call   7d229c0 <pthread_mutex_unlock@plt>
 3d4b36a:	e8 51 76 fd 03       	call   7d229c0 <pthread_mutex_unlock@plt>
 3d4b3aa:	e8 11 76 fd 03       	call   7d229c0 <pthread_mutex_unlock@plt>
 3d4b52e:	e8 8d 74 fd 03       	call   7d229c0 <pthread_mutex_unlock@plt>
 3d613f8:	e8 c3 15 fc 03       	call   7d229c0 <pthread_mutex_unlock@plt>
 3d61403:	e8 b8 15 fc 03       	call   7d229c0 <pthread_mutex_unlock@plt>
 3d61427:	e8 94 15 fc 03       	call   7d229c0 <pthread_mutex_unlock@plt>
 3d6143d:	e9 7e 15 fc 03       	jmp    7d229c0 <pthread_mutex_unlock@plt>
 3d61508:	e8 b3 14 fc 03       	call   7d229c0 <pthread_mutex_unlock@plt>
 3d61513:	e8 a8 14 fc 03       	call   7d229c0 <pthread_mutex_unlock@plt>
 3d61537:	e8 84 14 fc 03       	call   7d229c0 <pthread_mutex_unlock@plt>
 3d6154d:	e9 6e 14 fc 03       	jmp    7d229c0 <pthread_mutex_unlock@plt>
 3d61618:	e8 a3 13 fc 03       	call   7d229c0 <pthread_mutex_unlock@plt>
 3d61623:	e8 98 13 fc 03       	call   7d229c0 <pthread_mutex_unlock@plt>
 3d61647:	e8 74 13 fc 03       	call   7d229c0 <pthread_mutex_unlock@plt>
 3d6165d:	e9 5e 13 fc 03       	jmp    7d229c0 <pthread_mutex_unlock@plt>
 3d61728:	e8 93 12 fc 03       	call   7d229c0 <pthread_mutex_unlock@plt>
 3d61733:	e8 88 12 fc 03       	call   7d229c0 <pthread_mutex_unlock@plt>
 3d61757:	e8 64 12 fc 03       	call   7d229c0 <pthread_mutex_unlock@plt>
 3d6176d:	e9 4e 12 fc 03       	jmp    7d229c0 <pthread_mutex_unlock@plt>
 3d61838:	e8 83 11 fc 03       	call   7d229c0 <pthread_mutex_unlock@plt>
 3d61843:	e8 78 11 fc 03       	call   7d229c0 <pthread_mutex_unlock@plt>
 3d61867:	e8 54 11 fc 03       	call   7d229c0 <pthread_mutex_unlock@plt>
 3d6187d:	e9 3e 11 fc 03       	jmp    7d229c0 <pthread_mutex_unlock@plt>
 3d618e4:	e8 d7 10 fc 03       	call   7d229c0 <pthread_mutex_unlock@plt>
 3d619ae:	e9 0d 10 fc 03       	jmp    7d229c0 <pthread_mutex_unlock@plt>
 3d61a5e:	e9 5d 0f fc 03       	jmp    7d229c0 <pthread_mutex_unlock@plt>
 3d61b11:	e8 aa 0e fc 03       	call   7d229c0 <pthread_mutex_unlock@plt>
 3d61e74:	e8 47 0b fc 03       	call   7d229c0 <pthread_mutex_unlock@plt>
 3d61f23:	e8 98 0a fc 03       	call   7d229c0 <pthread_mutex_unlock@plt>
 3d61f47:	e8 74 0a fc 03       	call   7d229c0 <pthread_mutex_unlock@plt>
 3d61f57:	e8 64 0a fc 03       	call   7d229c0 <pthread_mutex_unlock@plt>
 3d620ad:	e8 0e 09 fc 03       	call   7d229c0 <pthread_mutex_unlock@plt>
 3d6223b:	e8 80 07 fc 03       	call   7d229c0 <pthread_mutex_unlock@plt>
 3d622b8:	e8 03 07 fc 03       	call   7d229c0 <pthread_mutex_unlock@plt>
 3d62458:	e8 63 05 fc 03       	call   7d229c0 <pthread_mutex_unlock@plt>
 3d627f0:	e9 cb 01 fc 03       	jmp    7d229c0 <pthread_mutex_unlock@plt>
 3d62b2d:	e9 8e fe fb 03       	jmp    7d229c0 <pthread_mutex_unlock@plt>
 3d62beb:	e8 d0 fd fb 03       	call   7d229c0 <pthread_mutex_unlock@plt>
 3d62c2f:	e8 8c fd fb 03       	call   7d229c0 <pthread_mutex_unlock@plt>
 3d62c37:	e8 84 fd fb 03       	call   7d229c0 <pthread_mutex_unlock@plt>
 3d6310c:	e8 af f8 fb 03       	call   7d229c0 <pthread_mutex_unlock@plt>
 3d63140:	e8 7b f8 fb 03       	call   7d229c0 <pthread_mutex_unlock@plt>
 3d63174:	e8 47 f8 fb 03       	call   7d229c0 <pthread_mutex_unlock@plt>
 3d631ba:	e8 01 f8 fb 03       	call   7d229c0 <pthread_mutex_unlock@plt>
 3d63208:	e8 b3 f7 fb 03       	call   7d229c0 <pthread_mutex_unlock@plt>
 3d7b60a:	e8 b1 73 fa 03       	call   7d229c0 <pthread_mutex_unlock@plt>
 3d7f44a:	e8 71 35 fa 03       	call   7d229c0 <pthread_mutex_unlock@plt>
 3d81295:	e8 e6 39 40 03       	call   7184c80 <mongo::Lock::GlobalLock::_unlock()>
 3d812e3:	e8 d8 3e 40 03       	call   71851c0 <mongo::Lock::ResourceLock::_unlock()>
 3d812f7:	e8 c4 3e 40 03       	call   71851c0 <mongo::Lock::ResourceLock::_unlock()>
 3d981aa:	e8 11 a8 f8 03       	call   7d229c0 <pthread_mutex_unlock@plt>
 3d99a99:	e8 22 8f f8 03       	call   7d229c0 <pthread_mutex_unlock@plt>
 3d9a6a8:	e8 13 ab 3e 03       	call   71851c0 <mongo::Lock::ResourceLock::_unlock()>
 3d9b1db:	e8 b0 41 cd ff       	call   3a6f390 <std::unique_lock<std::mutex>::unlock()>
 3d9b77c:	e8 3f 9a 3e 03       	call   71851c0 <mongo::Lock::ResourceLock::_unlock()>
 3d9edb5:	e8 06 3c f8 03       	call   7d229c0 <pthread_mutex_unlock@plt>
 3d9ee7a:	e8 41 3b f8 03       	call   7d229c0 <pthread_mutex_unlock@plt>
 3da04f3:	e8 c8 24 f8 03       	call   7d229c0 <pthread_mutex_unlock@plt>
 3da1f0a:	e8 b1 0a f8 03       	call   7d229c0 <pthread_mutex_unlock@plt>
 3da45fb:	e8 c0 e3 f7 03       	call   7d229c0 <pthread_mutex_unlock@plt>
 3da4835:	e8 86 09 3e 03       	call   71851c0 <mongo::Lock::ResourceLock::_unlock()>
 3da5fef:	e8 cc f1 3d 03       	call   71851c0 <mongo::Lock::ResourceLock::_unlock()>
 3da6e2b:	e8 90 bb f7 03       	call   7d229c0 <pthread_mutex_unlock@plt>
 3da700b:	e8 b0 b9 f7 03       	call   7d229c0 <pthread_mutex_unlock@plt>
 3dace4a:	e8 71 5b f7 03       	call   7d229c0 <pthread_mutex_unlock@plt>
 3dadbc4:	e8 b7 70 3d 03       	call   7184c80 <mongo::Lock::GlobalLock::_unlock()>
 3dadc9a:	e8 21 75 3d 03       	call   71851c0 <mongo::Lock::ResourceLock::_unlock()>
 3dadcab:	e8 10 75 3d 03       	call   71851c0 <mongo::Lock::ResourceLock::_unlock()>
 3dae99c:	e8 1f 40 f7 03       	call   7d229c0 <pthread_mutex_unlock@plt>
 3daeb29:	e8 62 08 cc ff       	call   3a6f390 <std::unique_lock<std::mutex>::unlock()>
 3db74aa:	e8 11 b5 f6 03       	call   7d229c0 <pthread_mutex_unlock@plt>
 3dbdcda:	e8 e1 4c f6 03       	call   7d229c0 <pthread_mutex_unlock@plt>
 3dc03ba:	e8 01 26 f6 03       	call   7d229c0 <pthread_mutex_unlock@plt>
 3dc1515:	e8 a6 14 f6 03       	call   7d229c0 <pthread_mutex_unlock@plt>
 3dc6a34:	e8 87 e7 3b 03       	call   71851c0 <mongo::Lock::ResourceLock::_unlock()>
 3dc7ddc:	e8 df d3 3b 03       	call   71851c0 <mongo::Lock::ResourceLock::_unlock()>
 3dc7fca:	e8 f1 d1 3b 03       	call   71851c0 <mongo::Lock::ResourceLock::_unlock()>
 3dc84ef:	e8 cc cc 3b 03       	call   71851c0 <mongo::Lock::ResourceLock::_unlock()>
 3dc86a5:	e8 16 cb 3b 03       	call   71851c0 <mongo::Lock::ResourceLock::_unlock()>
 3dc8a58:	e8 63 c7 3b 03       	call   71851c0 <mongo::Lock::ResourceLock::_unlock()>
 3dc9df2:	e8 c9 8b f5 03       	call   7d229c0 <pthread_mutex_unlock@plt>
 3dcacc4:	e8 f7 7c f5 03       	call   7d229c0 <pthread_mutex_unlock@plt>
 3dcc18d:	e8 2e 90 3b 03       	call   71851c0 <mongo::Lock::ResourceLock::_unlock()>
 3dcc2dd:	e8 ae 30 ca ff       	call   3a6f390 <std::unique_lock<std::mutex>::unlock()>
 3dcc2f9:	e8 c2 8e 3b 03       	call   71851c0 <mongo::Lock::ResourceLock::_unlock()>
 3dcc30e:	e8 ad 8e 3b 03       	call   71851c0 <mongo::Lock::ResourceLock::_unlock()>
 3dcc3bf:	e8 fc 8d 3b 03       	call   71851c0 <mongo::Lock::ResourceLock::_unlock()>
 3dd3742:	e8 79 f2 f4 03       	call   7d229c0 <pthread_mutex_unlock@plt>
 3dd42d4:	e8 e7 e6 f4 03       	call   7d229c0 <pthread_mutex_unlock@plt>
 3dd515a:	e8 61 d8 f4 03       	call   7d229c0 <pthread_mutex_unlock@plt>
 3dd8978:	e8 03 c3 3a 03       	call   7184c80 <mongo::Lock::GlobalLock::_unlock()>
 3dd8a2c:	e8 8f c7 3a 03       	call   71851c0 <mongo::Lock::ResourceLock::_unlock()>
 3dd8a3f:	e8 7c c7 3a 03       	call   71851c0 <mongo::Lock::ResourceLock::_unlock()>
 3dd8bd8:	e8 a3 c0 3a 03       	call   7184c80 <mongo::Lock::GlobalLock::_unlock()>
 3dd8c9c:	e8 1f c5 3a 03       	call   71851c0 <mongo::Lock::ResourceLock::_unlock()>
 3dd8cb5:	e8 06 c5 3a 03       	call   71851c0 <mongo::Lock::ResourceLock::_unlock()>
 3dd997a:	e8 41 90 f4 03       	call   7d229c0 <pthread_mutex_unlock@plt>
 3ddf86a:	e8 51 31 f4 03       	call   7d229c0 <pthread_mutex_unlock@plt>
 3dece5a:	e8 61 5b f3 03       	call   7d229c0 <pthread_mutex_unlock@plt>
 3df7745:	e9 76 b2 f2 03       	jmp    7d229c0 <pthread_mutex_unlock@plt>
 3df77e9:	e9 d2 b1 f2 03       	jmp    7d229c0 <pthread_mutex_unlock@plt>
 3e0ab39:	e8 52 48 c6 ff       	call   3a6f390 <std::unique_lock<std::mutex>::unlock()>
 3e0ac5d:	e8 2e 47 c6 ff       	call   3a6f390 <std::unique_lock<std::mutex>::unlock()>
 3e2a21a:	e8 a1 87 ef 03       	call   7d229c0 <pthread_mutex_unlock@plt>
 3e2a640:	e8 7b 83 ef 03       	call   7d229c0 <pthread_mutex_unlock@plt>
 3e2aa17:	e8 a4 7f ef 03       	call   7d229c0 <pthread_mutex_unlock@plt>
 3e2baf8:	e8 c3 6e ef 03       	call   7d229c0 <pthread_mutex_unlock@plt>
 3e2bb14:	e8 a7 6e ef 03       	call   7d229c0 <pthread_mutex_unlock@plt>
 3e2bd63:	e8 58 6c ef 03       	call   7d229c0 <pthread_mutex_unlock@plt>
 3e32518:	e8 a3 04 ef 03       	call   7d229c0 <pthread_mutex_unlock@plt>
 3e3541c:	e8 9f d5 ee 03       	call   7d229c0 <pthread_mutex_unlock@plt>
 3e3d333:	e8 88 56 ee 03       	call   7d229c0 <pthread_mutex_unlock@plt>
 3e3dd70:	e9 4b 4c ee 03       	jmp    7d229c0 <pthread_mutex_unlock@plt>
 3e3de9e:	e8 1d 4b ee 03       	call   7d229c0 <pthread_mutex_unlock@plt>
 3e3e3d2:	e9 e9 45 ee 03       	jmp    7d229c0 <pthread_mutex_unlock@plt>
 3e3e46d:	e8 4e 45 ee 03       	call   7d229c0 <pthread_mutex_unlock@plt>
 3e3e4a3:	e8 18 45 ee 03       	call   7d229c0 <pthread_mutex_unlock@plt>
 3e3fc9d:	e8 1e 2d ee 03       	call   7d229c0 <pthread_mutex_unlock@plt>
 3e4026f:	e8 4c 27 ee 03       	call   7d229c0 <pthread_mutex_unlock@plt>
 3e40763:	e8 58 22 ee 03       	call   7d229c0 <pthread_mutex_unlock@plt>
 3e4093c:	e8 7f 20 ee 03       	call   7d229c0 <pthread_mutex_unlock@plt>
 3e40ec8:	e8 f3 1a ee 03       	call   7d229c0 <pthread_mutex_unlock@plt>
 3e40fbd:	e8 fe 19 ee 03       	call   7d229c0 <pthread_mutex_unlock@plt>
 3e413d9:	e8 e2 15 ee 03       	call   7d229c0 <pthread_mutex_unlock@plt>
 3e416fe:	e8 bd 12 ee 03       	call   7d229c0 <pthread_mutex_unlock@plt>
 3e43ed5:	e8 e6 ea ed 03       	call   7d229c0 <pthread_mutex_unlock@plt>
 3e455a1:	e8 1a d4 ed 03       	call   7d229c0 <pthread_mutex_unlock@plt>
 3e45698:	e8 23 d3 ed 03       	call   7d229c0 <pthread_mutex_unlock@plt>
 3e46a46:	e8 75 bf ed 03       	call   7d229c0 <pthread_mutex_unlock@plt>
 3e47677:	e8 44 b3 ed 03       	call   7d229c0 <pthread_mutex_unlock@plt>
 3e477c1:	e8 fa b1 ed 03       	call   7d229c0 <pthread_mutex_unlock@plt>
 3e486a6:	e8 15 a3 ed 03       	call   7d229c0 <pthread_mutex_unlock@plt>
 3e486f8:	e8 c3 a2 ed 03       	call   7d229c0 <pthread_mutex_unlock@plt>
 3e48833:	e8 88 a1 ed 03       	call   7d229c0 <pthread_mutex_unlock@plt>
 3e49177:	e8 44 98 ed 03       	call   7d229c0 <pthread_mutex_unlock@plt>
 3e49757:	e8 64 92 ed 03       	call   7d229c0 <pthread_mutex_unlock@plt>
 3e49ae8:	e8 d3 8e ed 03       	call   7d229c0 <pthread_mutex_unlock@plt>
 3e4a04d:	e8 6e 89 ed 03       	call   7d229c0 <pthread_mutex_unlock@plt>
 3e4a14a:	e8 71 88 ed 03       	call   7d229c0 <pthread_mutex_unlock@plt>
 3e4a346:	e8 75 86 ed 03       	call   7d229c0 <pthread_mutex_unlock@plt>
 3e4b212:	e8 a9 77 ed 03       	call   7d229c0 <pthread_mutex_unlock@plt>
 3e4e6e0:	e8 db 42 ed 03       	call   7d229c0 <pthread_mutex_unlock@plt>
 3e4eacc:	e8 ef 3e ed 03       	call   7d229c0 <pthread_mutex_unlock@plt>
 3e507d3:	e8 e8 21 ed 03       	call   7d229c0 <pthread_mutex_unlock@plt>
 3e50cd2:	e8 e9 1c ed 03       	call   7d229c0 <pthread_mutex_unlock@plt>
 3e50e17:	e8 a4 1b ed 03       	call   7d229c0 <pthread_mutex_unlock@plt>
 3e50edf:	e8 dc 1a ed 03       	call   7d229c0 <pthread_mutex_unlock@plt>
 3e50f7b:	e8 40 1a ed 03       	call   7d229c0 <pthread_mutex_unlock@plt>
 3e51034:	e8 87 19 ed 03       	call   7d229c0 <pthread_mutex_unlock@plt>
 3e5163e:	e8 7d 13 ed 03       	call   7d229c0 <pthread_mutex_unlock@plt>
 3e51ead:	e8 0e 0b ed 03       	call   7d229c0 <pthread_mutex_unlock@plt>
 3e51ef1:	e8 ca 0a ed 03       	call   7d229c0 <pthread_mutex_unlock@plt>
 3e5203c:	e8 7f 09 ed 03       	call   7d229c0 <pthread_mutex_unlock@plt>
 3e521aa:	e8 11 08 ed 03       	call   7d229c0 <pthread_mutex_unlock@plt>
 3e521dd:	e8 de 07 ed 03       	call   7d229c0 <pthread_mutex_unlock@plt>
 3e523cf:	e8 ec 05 ed 03       	call   7d229c0 <pthread_mutex_unlock@plt>
 3e52432:	e8 89 05 ed 03       	call   7d229c0 <pthread_mutex_unlock@plt>
 3e52663:	e8 58 03 ed 03       	call   7d229c0 <pthread_mutex_unlock@plt>
 3e52694:	e8 27 03 ed 03       	call   7d229c0 <pthread_mutex_unlock@plt>
 3e5278e:	e8 2d 02 ed 03       	call   7d229c0 <pthread_mutex_unlock@plt>
 3e527e9:	e8 d2 01 ed 03       	call   7d229c0 <pthread_mutex_unlock@plt>
 3e529df:	e8 dc ff ec 03       	call   7d229c0 <pthread_mutex_unlock@plt>
 3e5ae84:	e8 07 45 c1 ff       	call   3a6f390 <std::unique_lock<std::mutex>::unlock()>
 3e5aecc:	e8 bf 44 c1 ff       	call   3a6f390 <std::unique_lock<std::mutex>::unlock()>
 3e5af65:	e8 26 44 c1 ff       	call   3a6f390 <std::unique_lock<std::mutex>::unlock()>
 3e64404:	e8 87 af c0 ff       	call   3a6f390 <std::unique_lock<std::mutex>::unlock()>
 3e64459:	e8 32 af c0 ff       	call   3a6f390 <std::unique_lock<std::mutex>::unlock()>
 3e64641:	e8 4a ad c0 ff       	call   3a6f390 <std::unique_lock<std::mutex>::unlock()>
 3e64744:	e8 47 ac c0 ff       	call   3a6f390 <std::unique_lock<std::mutex>::unlock()>
 3e64799:	e8 f2 ab c0 ff       	call   3a6f390 <std::unique_lock<std::mutex>::unlock()>
 3e648c8:	e8 c3 aa c0 ff       	call   3a6f390 <std::unique_lock<std::mutex>::unlock()>
 3e6f2ff:	e9 bc 36 eb 03       	jmp    7d229c0 <pthread_mutex_unlock@plt>
 3e73294:	e8 27 f7 ea 03       	call   7d229c0 <pthread_mutex_unlock@plt>
 3e804ba:	e8 01 25 ea 03       	call   7d229c0 <pthread_mutex_unlock@plt>
 3e9d91a:	e8 a1 50 e8 03       	call   7d229c0 <pthread_mutex_unlock@plt>
 3ec0d8a:	e8 31 1c e6 03       	call   7d229c0 <pthread_mutex_unlock@plt>
 3ec6372:	e8 49 c6 e5 03       	call   7d229c0 <pthread_mutex_unlock@plt>
 3ec959d:	e8 1e 94 e5 03       	call   7d229c0 <pthread_mutex_unlock@plt>
 3ecaa68:	e8 53 7f e5 03       	call   7d229c0 <pthread_mutex_unlock@plt>
 3ecaaa1:	e8 1a 7f e5 03       	call   7d229c0 <pthread_mutex_unlock@plt>
 3ecaeab:	e8 10 7b e5 03       	call   7d229c0 <pthread_mutex_unlock@plt>
 3eced24:	e9 97 3c e5 03       	jmp    7d229c0 <pthread_mutex_unlock@plt>
 3ecf7ca:	e8 f1 31 e5 03       	call   7d229c0 <pthread_mutex_unlock@plt>
 3ed0818:	e8 a3 21 e5 03       	call   7d229c0 <pthread_mutex_unlock@plt>
 3ed0b2c:	e8 8f 1e e5 03       	call   7d229c0 <pthread_mutex_unlock@plt>
 3ed18c0:	e8 fb 10 e5 03       	call   7d229c0 <pthread_mutex_unlock@plt>
 3ed1a3a:	e8 81 0f e5 03       	call   7d229c0 <pthread_mutex_unlock@plt>
 3ed20ad:	e8 0e 09 e5 03       	call   7d229c0 <pthread_mutex_unlock@plt>
 3ed2cda:	e8 e1 fc e4 03       	call   7d229c0 <pthread_mutex_unlock@plt>
 3ed49c1:	e8 fa df e4 03       	call   7d229c0 <pthread_mutex_unlock@plt>
 3ed4b8d:	e8 2e de e4 03       	call   7d229c0 <pthread_mutex_unlock@plt>
 3ed4c59:	e8 62 dd e4 03       	call   7d229c0 <pthread_mutex_unlock@plt>
 3ed4dee:	e8 cd db e4 03       	call   7d229c0 <pthread_mutex_unlock@plt>
 3ed75e7:	e9 d4 b3 e4 03       	jmp    7d229c0 <pthread_mutex_unlock@plt>
 3ed8ebb:	e8 00 9b e4 03       	call   7d229c0 <pthread_mutex_unlock@plt>
 3ed90fb:	e8 c0 98 e4 03       	call   7d229c0 <pthread_mutex_unlock@plt>
 3ed9630:	e8 8b 93 e4 03       	call   7d229c0 <pthread_mutex_unlock@plt>
 3edb618:	e9 a3 73 e4 03       	jmp    7d229c0 <pthread_mutex_unlock@plt>
 3edcc81:	e9 3a 5d e4 03       	jmp    7d229c0 <pthread_mutex_unlock@plt>
 3edd9ab:	e8 10 50 e4 03       	call   7d229c0 <pthread_mutex_unlock@plt>
 3edda1b:	e8 a0 4f e4 03       	call   7d229c0 <pthread_mutex_unlock@plt>
 3ede8f0:	e8 cb 40 e4 03       	call   7d229c0 <pthread_mutex_unlock@plt>
 3ede921:	e8 9a 40 e4 03       	call   7d229c0 <pthread_mutex_unlock@plt>
 3eded3d:	e8 7e 3c e4 03       	call   7d229c0 <pthread_mutex_unlock@plt>
 3edf130:	e8 8b 38 e4 03       	call   7d229c0 <pthread_mutex_unlock@plt>
 3edf161:	e8 5a 38 e4 03       	call   7d229c0 <pthread_mutex_unlock@plt>
 3edf57d:	e8 3e 34 e4 03       	call   7d229c0 <pthread_mutex_unlock@plt>
 3ee178c:	e8 2f 12 e4 03       	call   7d229c0 <pthread_mutex_unlock@plt>
 3ee261c:	e8 9f 03 e4 03       	call   7d229c0 <pthread_mutex_unlock@plt>
 3ee3aea:	e8 d1 ee e3 03       	call   7d229c0 <pthread_mutex_unlock@plt>
 3ee3ce9:	e8 d2 ec e3 03       	call   7d229c0 <pthread_mutex_unlock@plt>
 3ee4204:	e8 b7 e7 e3 03       	call   7d229c0 <pthread_mutex_unlock@plt>
 3ee438a:	e8 31 e6 e3 03       	call   7d229c0 <pthread_mutex_unlock@plt>
 3ee46e9:	e8 d2 e2 e3 03       	call   7d229c0 <pthread_mutex_unlock@plt>
 3ee4cfe:	e8 bd dc e3 03       	call   7d229c0 <pthread_mutex_unlock@plt>
 3ee4da4:	e9 17 dc e3 03       	jmp    7d229c0 <pthread_mutex_unlock@plt>
 3ee4e44:	e9 77 db e3 03       	jmp    7d229c0 <pthread_mutex_unlock@plt>
 3eee25a:	e8 61 47 e3 03       	call   7d229c0 <pthread_mutex_unlock@plt>
 3eef773:	e8 48 5a 29 03       	call   71851c0 <mongo::Lock::ResourceLock::_unlock()>
 3ef2f31:	e8 8a 22 29 03       	call   71851c0 <mongo::Lock::ResourceLock::_unlock()>
 3ef4a8a:	e8 31 df e2 03       	call   7d229c0 <pthread_mutex_unlock@plt>
 3efb8ae:	e8 0d 71 e2 03       	call   7d229c0 <pthread_mutex_unlock@plt>
 3efc6b1:	e8 0a 63 e2 03       	call   7d229c0 <pthread_mutex_unlock@plt>
 3f2c40a:	e8 b1 65 df 03       	call   7d229c0 <pthread_mutex_unlock@plt>
 3f2f49a:	e8 21 35 df 03       	call   7d229c0 <pthread_mutex_unlock@plt>
 3f32218:	e8 73 d1 b3 ff       	call   3a6f390 <std::unique_lock<std::mutex>::unlock()>
 3f32d7d:	e9 3e fc de 03       	jmp    7d229c0 <pthread_mutex_unlock@plt>
 3f3359f:	e8 1c f4 de 03       	call   7d229c0 <pthread_mutex_unlock@plt>
 3f34457:	e8 34 af b3 ff       	call   3a6f390 <std::unique_lock<std::mutex>::unlock()>
 3f34de6:	e8 a5 a5 b3 ff       	call   3a6f390 <std::unique_lock<std::mutex>::unlock()>
 3f35383:	e8 38 d6 de 03       	call   7d229c0 <pthread_mutex_unlock@plt>
 3f35629:	e8 62 9d b3 ff       	call   3a6f390 <std::unique_lock<std::mutex>::unlock()>
 3f6d8da:	e8 e1 50 db 03       	call   7d229c0 <pthread_mutex_unlock@plt>
 3f7c71a:	e8 a1 62 da 03       	call   7d229c0 <pthread_mutex_unlock@plt>
 3f8005a:	e8 61 29 da 03       	call   7d229c0 <pthread_mutex_unlock@plt>
 3f8d4aa:	e8 11 55 d9 03       	call   7d229c0 <pthread_mutex_unlock@plt>
 3f90e29:	e8 92 43 1f 03       	call   71851c0 <mongo::Lock::ResourceLock::_unlock()>
 3f919f2:	e8 c9 37 1f 03       	call   71851c0 <mongo::Lock::ResourceLock::_unlock()>
 3f98bca:	e8 f1 9d d8 03       	call   7d229c0 <pthread_mutex_unlock@plt>
 3f9b69c:	e8 1f 9b 1e 03       	call   71851c0 <mongo::Lock::ResourceLock::_unlock()>
 3f9b9e9:	e8 d2 97 1e 03       	call   71851c0 <mongo::Lock::ResourceLock::_unlock()>
 3f9c314:	e8 a7 8e 1e 03       	call   71851c0 <mongo::Lock::ResourceLock::_unlock()>
 3f9c39c:	e8 1f 8e 1e 03       	call   71851c0 <mongo::Lock::ResourceLock::_unlock()>
 3fa637a:	e8 41 c6 d7 03       	call   7d229c0 <pthread_mutex_unlock@plt>
 3fa63ec:	e8 cf c5 d7 03       	call   7d229c0 <pthread_mutex_unlock@plt>
 3fbd5f6:	e8 c5 53 d6 03       	call   7d229c0 <pthread_mutex_unlock@plt>
 3fbd6b9:	e8 02 53 d6 03       	call   7d229c0 <pthread_mutex_unlock@plt>
 3fbdb1b:	e8 a0 4e d6 03       	call   7d229c0 <pthread_mutex_unlock@plt>
 3fbe317:	e8 a4 46 d6 03       	call   7d229c0 <pthread_mutex_unlock@plt>
 3fbe43d:	e8 7e 45 d6 03       	call   7d229c0 <pthread_mutex_unlock@plt>
 3fbfdd4:	e9 e7 2b d6 03       	jmp    7d229c0 <pthread_mutex_unlock@plt>
 3fc0117:	e8 a4 28 d6 03       	call   7d229c0 <pthread_mutex_unlock@plt>
 3fc08ba:	e8 01 21 d6 03       	call   7d229c0 <pthread_mutex_unlock@plt>
 3fc0b5a:	e8 61 1e d6 03       	call   7d229c0 <pthread_mutex_unlock@plt>
 3fc0f65:	e8 56 1a d6 03       	call   7d229c0 <pthread_mutex_unlock@plt>
 3fc103c:	e8 7f 19 d6 03       	call   7d229c0 <pthread_mutex_unlock@plt>
 3fc1c00:	e8 bb 0d d6 03       	call   7d229c0 <pthread_mutex_unlock@plt>
 3fca04a:	e8 71 89 d5 03       	call   7d229c0 <pthread_mutex_unlock@plt>
 3fd1e46:	e8 75 0b d5 03       	call   7d229c0 <pthread_mutex_unlock@plt>
 3fd1f47:	e8 74 0a d5 03       	call   7d229c0 <pthread_mutex_unlock@plt>
 3fd23db:	e8 e0 05 d5 03       	call   7d229c0 <pthread_mutex_unlock@plt>
 3fd25b7:	e8 04 04 d5 03       	call   7d229c0 <pthread_mutex_unlock@plt>
 3fd26dd:	e8 de 02 d5 03       	call   7d229c0 <pthread_mutex_unlock@plt>
 3fd4584:	e9 37 e4 d4 03       	jmp    7d229c0 <pthread_mutex_unlock@plt>
 3fd499b:	e8 20 e0 d4 03       	call   7d229c0 <pthread_mutex_unlock@plt>
 3fd4e81:	e8 3a db d4 03       	call   7d229c0 <pthread_mutex_unlock@plt>
 3fd5a6c:	e8 4f cf d4 03       	call   7d229c0 <pthread_mutex_unlock@plt>
 3fd6818:	e8 a3 c1 d4 03       	call   7d229c0 <pthread_mutex_unlock@plt>
 3fd6905:	e8 b6 c0 d4 03       	call   7d229c0 <pthread_mutex_unlock@plt>
 3fd7019:	e8 a2 b9 d4 03       	call   7d229c0 <pthread_mutex_unlock@plt>
 3fdbb4a:	e8 71 6e d4 03       	call   7d229c0 <pthread_mutex_unlock@plt>
 3fddb24:	e8 97 76 1a 03       	call   71851c0 <mongo::Lock::ResourceLock::_unlock()>
 3fddc33:	e8 88 75 1a 03       	call   71851c0 <mongo::Lock::ResourceLock::_unlock()>
 3fe457e:	e8 3d 0c 1a 03       	call   71851c0 <mongo::Lock::ResourceLock::_unlock()>
 3fe538c:	e8 2f fe 19 03       	call   71851c0 <mongo::Lock::ResourceLock::_unlock()>
 3fe5d14:	e8 a7 f4 19 03       	call   71851c0 <mongo::Lock::ResourceLock::_unlock()>
 3fe6c66:	e8 55 bd d3 03       	call   7d229c0 <pthread_mutex_unlock@plt>
 3fe6d67:	e8 54 bc d3 03       	call   7d229c0 <pthread_mutex_unlock@plt>
 3fe71fb:	e8 c0 b7 d3 03       	call   7d229c0 <pthread_mutex_unlock@plt>
 3fe73d7:	e8 e4 b5 d3 03       	call   7d229c0 <pthread_mutex_unlock@plt>
 3fe74fd:	e8 be b4 d3 03       	call   7d229c0 <pthread_mutex_unlock@plt>
 3fe8d64:	e9 57 9c d3 03       	jmp    7d229c0 <pthread_mutex_unlock@plt>
 3fe8fad:	e8 0e 9a d3 03       	call   7d229c0 <pthread_mutex_unlock@plt>
 3fe92de:	e8 dd 96 d3 03       	call   7d229c0 <pthread_mutex_unlock@plt>
 3fe9d8d:	e8 2e 8c d3 03       	call   7d229c0 <pthread_mutex_unlock@plt>
 3feab43:	e8 78 7e d3 03       	call   7d229c0 <pthread_mutex_unlock@plt>
 3feac92:	e8 29 7d d3 03       	call   7d229c0 <pthread_mutex_unlock@plt>
 3feb115:	e8 a6 78 d3 03       	call   7d229c0 <pthread_mutex_unlock@plt>
 3feb2aa:	e8 11 77 d3 03       	call   7d229c0 <pthread_mutex_unlock@plt>
 3fecfca:	e8 f1 81 19 03       	call   71851c0 <mongo::Lock::ResourceLock::_unlock()>
 3fed76a:	e8 51 7a 19 03       	call   71851c0 <mongo::Lock::ResourceLock::_unlock()>
 3fee717:	e8 a4 6a 19 03       	call   71851c0 <mongo::Lock::ResourceLock::_unlock()>
 3fee8a3:	e8 18 69 19 03       	call   71851c0 <mongo::Lock::ResourceLock::_unlock()>
 3ff2d5a:	e8 61 fc d2 03       	call   7d229c0 <pthread_mutex_unlock@plt>
 3ff7d91:	e8 2a d4 18 03       	call   71851c0 <mongo::Lock::ResourceLock::_unlock()>
 3ff8971:	e8 4a c8 18 03       	call   71851c0 <mongo::Lock::ResourceLock::_unlock()>
 3ffd5fa:	e8 c1 53 d2 03       	call   7d229c0 <pthread_mutex_unlock@plt>
 3fffa00:	e8 bb 2f d2 03       	call   7d229c0 <pthread_mutex_unlock@plt>
 4000e10:	e8 7b e5 a6 ff       	call   3a6f390 <std::unique_lock<std::mutex>::unlock()>
 400c452:	e8 69 65 d1 03       	call   7d229c0 <pthread_mutex_unlock@plt>
 400c4da:	e8 e1 64 d1 03       	call   7d229c0 <pthread_mutex_unlock@plt>
 400c88a:	e8 31 89 17 03       	call   71851c0 <mongo::Lock::ResourceLock::_unlock()>
 400c9b5:	e8 06 88 17 03       	call   71851c0 <mongo::Lock::ResourceLock::_unlock()>
 400cae5:	e8 d6 86 17 03       	call   71851c0 <mongo::Lock::ResourceLock::_unlock()>
 400d92a:	e9 91 50 d1 03       	jmp    7d229c0 <pthread_mutex_unlock@plt>
 400dadd:	e8 de 4e d1 03       	call   7d229c0 <pthread_mutex_unlock@plt>
 401624e:	e8 6d ef 16 03       	call   71851c0 <mongo::Lock::ResourceLock::_unlock()>
 401626a:	e8 51 ef 16 03       	call   71851c0 <mongo::Lock::ResourceLock::_unlock()>
 4016286:	e8 35 ef 16 03       	call   71851c0 <mongo::Lock::ResourceLock::_unlock()>
 4016341:	e8 7a c6 d0 03       	call   7d229c0 <pthread_mutex_unlock@plt>
 40163c4:	e8 f7 c5 d0 03       	call   7d229c0 <pthread_mutex_unlock@plt>
 40192b3:	e8 08 97 d0 03       	call   7d229c0 <pthread_mutex_unlock@plt>
 40192ec:	e8 cf 96 d0 03       	call   7d229c0 <pthread_mutex_unlock@plt>
 40195cd:	e8 ee 93 d0 03       	call   7d229c0 <pthread_mutex_unlock@plt>
 4019877:	e8 44 91 d0 03       	call   7d229c0 <pthread_mutex_unlock@plt>
 40199a5:	e8 16 90 d0 03       	call   7d229c0 <pthread_mutex_unlock@plt>
 401b4c4:	e9 f7 74 d0 03       	jmp    7d229c0 <pthread_mutex_unlock@plt>
 401b8a3:	e8 18 71 d0 03       	call   7d229c0 <pthread_mutex_unlock@plt>
 401bf97:	e8 24 6a d0 03       	call   7d229c0 <pthread_mutex_unlock@plt>
 401c31a:	e8 a1 66 d0 03       	call   7d229c0 <pthread_mutex_unlock@plt>
 401c785:	e8 36 62 d0 03       	call   7d229c0 <pthread_mutex_unlock@plt>
 401c85c:	e8 5f 61 d0 03       	call   7d229c0 <pthread_mutex_unlock@plt>
 401d5c1:	e8 fa 53 d0 03       	call   7d229c0 <pthread_mutex_unlock@plt>
 401d921:	e8 9a 50 d0 03       	call   7d229c0 <pthread_mutex_unlock@plt>
 401da35:	e8 86 4f d0 03       	call   7d229c0 <pthread_mutex_unlock@plt>
 401f13b:	e9 80 38 d0 03       	jmp    7d229c0 <pthread_mutex_unlock@plt>
 4020bdd:	e8 de 1d d0 03       	call   7d229c0 <pthread_mutex_unlock@plt>
 40269ba:	e8 01 c0 cf 03       	call   7d229c0 <pthread_mutex_unlock@plt>
 4029bad:	e8 ce b0 15 03       	call   7184c80 <mongo::Lock::GlobalLock::_unlock()>
 4029bfb:	e8 c0 b5 15 03       	call   71851c0 <mongo::Lock::ResourceLock::_unlock()>
 4029c27:	e8 94 b5 15 03       	call   71851c0 <mongo::Lock::ResourceLock::_unlock()>
 402b4b9:	e8 02 75 cf 03       	call   7d229c0 <pthread_mutex_unlock@plt>
 402b57c:	e8 3f 74 cf 03       	call   7d229c0 <pthread_mutex_unlock@plt>
 402b92b:	e8 90 70 cf 03       	call   7d229c0 <pthread_mutex_unlock@plt>
 402c9da:	e9 e1 5f cf 03       	jmp    7d229c0 <pthread_mutex_unlock@plt>
 402e209:	e8 b2 47 cf 03       	call   7d229c0 <pthread_mutex_unlock@plt>
 402ee9a:	e8 21 3b cf 03       	call   7d229c0 <pthread_mutex_unlock@plt>
 402f261:	e8 5a 37 cf 03       	call   7d229c0 <pthread_mutex_unlock@plt>
 402f8f4:	e8 c7 30 cf 03       	call   7d229c0 <pthread_mutex_unlock@plt>
 403559a:	e8 21 d4 ce 03       	call   7d229c0 <pthread_mutex_unlock@plt>
 4046990:	e8 2b c0 cd 03       	call   7d229c0 <pthread_mutex_unlock@plt>
 4046a53:	e8 68 bf cd 03       	call   7d229c0 <pthread_mutex_unlock@plt>
 4046eab:	e8 10 bb cd 03       	call   7d229c0 <pthread_mutex_unlock@plt>
 4047841:	e8 7a b1 cd 03       	call   7d229c0 <pthread_mutex_unlock@plt>
 4047965:	e8 56 b0 cd 03       	call   7d229c0 <pthread_mutex_unlock@plt>
 40485c4:	e9 f7 a3 cd 03       	jmp    7d229c0 <pthread_mutex_unlock@plt>
 404977c:	e8 3f 92 cd 03       	call   7d229c0 <pthread_mutex_unlock@plt>
 404a6cc:	e8 ef 82 cd 03       	call   7d229c0 <pthread_mutex_unlock@plt>
 404aada:	e8 e1 7e cd 03       	call   7d229c0 <pthread_mutex_unlock@plt>
 404aed5:	e8 e6 7a cd 03       	call   7d229c0 <pthread_mutex_unlock@plt>
 404af8c:	e8 2f 7a cd 03       	call   7d229c0 <pthread_mutex_unlock@plt>
 404bb60:	e8 5b 6e cd 03       	call   7d229c0 <pthread_mutex_unlock@plt>
 404beca:	e8 f1 6a cd 03       	call   7d229c0 <pthread_mutex_unlock@plt>
 404c2c0:	e9 fb 66 cd 03       	jmp    7d229c0 <pthread_mutex_unlock@plt>
 405223e:	e8 7d 07 cd 03       	call   7d229c0 <pthread_mutex_unlock@plt>
 405373f:	e9 7c f2 cc 03       	jmp    7d229c0 <pthread_mutex_unlock@plt>
 4055e2b:	e8 90 cb cc 03       	call   7d229c0 <pthread_mutex_unlock@plt>
 405fe6a:	e8 51 2b cc 03       	call   7d229c0 <pthread_mutex_unlock@plt>
 406204d:	e8 2e 2c 12 03       	call   7184c80 <mongo::Lock::GlobalLock::_unlock()>
 406209b:	e8 20 31 12 03       	call   71851c0 <mongo::Lock::ResourceLock::_unlock()>
 40620c7:	e8 f4 30 12 03       	call   71851c0 <mongo::Lock::ResourceLock::_unlock()>
 4065aa9:	e8 12 cf cb 03       	call   7d229c0 <pthread_mutex_unlock@plt>
 4065b6c:	e8 4f ce cb 03       	call   7d229c0 <pthread_mutex_unlock@plt>
 4065f5b:	e8 60 ca cb 03       	call   7d229c0 <pthread_mutex_unlock@plt>
 4067a1a:	e9 a1 af cb 03       	jmp    7d229c0 <pthread_mutex_unlock@plt>
 4068770:	e8 4b a2 cb 03       	call   7d229c0 <pthread_mutex_unlock@plt>
 4068d5a:	e8 61 9c cb 03       	call   7d229c0 <pthread_mutex_unlock@plt>
 406916c:	e8 4f 98 cb 03       	call   7d229c0 <pthread_mutex_unlock@plt>
 4069930:	e8 8b 90 cb 03       	call   7d229c0 <pthread_mutex_unlock@plt>
 406a1da:	e8 e1 87 cb 03       	call   7d229c0 <pthread_mutex_unlock@plt>
 4076fd1:	e9 ea b9 ca 03       	jmp    7d229c0 <pthread_mutex_unlock@plt>
 40794a2:	e8 19 95 ca 03       	call   7d229c0 <pthread_mutex_unlock@plt>
 4079d4e:	e8 6d 8c ca 03       	call   7d229c0 <pthread_mutex_unlock@plt>
 4079d9b:	e8 20 8c ca 03       	call   7d229c0 <pthread_mutex_unlock@plt>
 407a396:	e9 25 86 ca 03       	jmp    7d229c0 <pthread_mutex_unlock@plt>
 4090a9a:	e8 21 1f c9 03       	call   7d229c0 <pthread_mutex_unlock@plt>
 4090d64:	e9 57 1c c9 03       	jmp    7d229c0 <pthread_mutex_unlock@plt>
 4091787:	e8 34 12 c9 03       	call   7d229c0 <pthread_mutex_unlock@plt>
 40918eb:	e9 d0 10 c9 03       	jmp    7d229c0 <pthread_mutex_unlock@plt>
 4091973:	e8 48 10 c9 03       	call   7d229c0 <pthread_mutex_unlock@plt>
 4091a75:	e8 46 0f c9 03       	call   7d229c0 <pthread_mutex_unlock@plt>
 4092767:	e8 24 cc 9d ff       	call   3a6f390 <std::unique_lock<std::mutex>::unlock()>
 4092bb7:	e8 d4 c7 9d ff       	call   3a6f390 <std::unique_lock<std::mutex>::unlock()>
 4095299:	e8 22 ff 0e 03       	call   71851c0 <mongo::Lock::ResourceLock::_unlock()>
 4095fcb:	e8 f0 c9 c8 03       	call   7d229c0 <pthread_mutex_unlock@plt>
 4095fd3:	e8 e8 c9 c8 03       	call   7d229c0 <pthread_mutex_unlock@plt>
 40960f8:	e8 c3 c8 c8 03       	call   7d229c0 <pthread_mutex_unlock@plt>
 40961a5:	e8 16 c8 c8 03       	call   7d229c0 <pthread_mutex_unlock@plt>
 409733d:	e8 7e b6 c8 03       	call   7d229c0 <pthread_mutex_unlock@plt>
 40989ee:	e8 cd 9f c8 03       	call   7d229c0 <pthread_mutex_unlock@plt>
 4098bee:	e8 cd 9d c8 03       	call   7d229c0 <pthread_mutex_unlock@plt>
 4098d8b:	e8 00 66 9d ff       	call   3a6f390 <std::unique_lock<std::mutex>::unlock()>
 4098de7:	e8 a4 65 9d ff       	call   3a6f390 <std::unique_lock<std::mutex>::unlock()>
 4099077:	e8 44 c1 0e 03       	call   71851c0 <mongo::Lock::ResourceLock::_unlock()>
 409938a:	e8 31 96 c8 03       	call   7d229c0 <pthread_mutex_unlock@plt>
 4099574:	e8 47 94 c8 03       	call   7d229c0 <pthread_mutex_unlock@plt>
 409f46a:	e8 51 35 c8 03       	call   7d229c0 <pthread_mutex_unlock@plt>
 409fd51:	e8 6a 54 0e 03       	call   71851c0 <mongo::Lock::ResourceLock::_unlock()>
 40a3194:	e9 27 f8 c7 03       	jmp    7d229c0 <pthread_mutex_unlock@plt>
 40a3637:	e8 54 bd 9c ff       	call   3a6f390 <std::unique_lock<std::mutex>::unlock()>
 40a888d:	e8 2e a1 c7 03       	call   7d229c0 <pthread_mutex_unlock@plt>
 40a8b50:	e9 6b 9e c7 03       	jmp    7d229c0 <pthread_mutex_unlock@plt>
 40abe86:	e8 35 6b c7 03       	call   7d229c0 <pthread_mutex_unlock@plt>
 40ae448:	e8 73 6d 0d 03       	call   71851c0 <mongo::Lock::ResourceLock::_unlock()>
 40ae99f:	e8 ec 09 9c ff       	call   3a6f390 <std::unique_lock<std::mutex>::unlock()>
 40ae9d3:	e8 e8 3f c7 03       	call   7d229c0 <pthread_mutex_unlock@plt>
 40ba642:	e8 39 a6 0c 03       	call   7184c80 <mongo::Lock::GlobalLock::_unlock()>
 40ba7d4:	e8 a7 a4 0c 03       	call   7184c80 <mongo::Lock::GlobalLock::_unlock()>
 40ba83c:	e8 7f a9 0c 03       	call   71851c0 <mongo::Lock::ResourceLock::_unlock()>
 40ba857:	e8 64 a9 0c 03       	call   71851c0 <mongo::Lock::ResourceLock::_unlock()>
 40ba903:	e8 b8 a8 0c 03       	call   71851c0 <mongo::Lock::ResourceLock::_unlock()>
 40ba914:	e8 a7 a8 0c 03       	call   71851c0 <mongo::Lock::ResourceLock::_unlock()>
 40bbf2a:	e8 91 6a c6 03       	call   7d229c0 <pthread_mutex_unlock@plt>
 40c1fb9:	e8 02 32 0c 03       	call   71851c0 <mongo::Lock::ResourceLock::_unlock()>
 40c3e73:	e8 08 0e 0c 03       	call   7184c80 <mongo::Lock::GlobalLock::_unlock()>
 40c497a:	e8 41 08 0c 03       	call   71851c0 <mongo::Lock::ResourceLock::_unlock()>
 40c4993:	e8 28 08 0c 03       	call   71851c0 <mongo::Lock::ResourceLock::_unlock()>
 40c5c08:	e8 b3 f5 0b 03       	call   71851c0 <mongo::Lock::ResourceLock::_unlock()>
 40d306a:	e8 51 f9 c4 03       	call   7d229c0 <pthread_mutex_unlock@plt>
 40e39ca:	e8 f1 ef c3 03       	call   7d229c0 <pthread_mutex_unlock@plt>
 40e700a:	e8 b1 b9 c3 03       	call   7d229c0 <pthread_mutex_unlock@plt>
 40ec87a:	e8 41 61 c3 03       	call   7d229c0 <pthread_mutex_unlock@plt>
 40f903a:	e8 81 99 c2 03       	call   7d229c0 <pthread_mutex_unlock@plt>
 410326a:	e8 51 f7 c1 03       	call   7d229c0 <pthread_mutex_unlock@plt>
 410d6a2:	e8 19 7b 07 03       	call   71851c0 <mongo::Lock::ResourceLock::_unlock()>
 410f6b5:	e8 06 5b 07 03       	call   71851c0 <mongo::Lock::ResourceLock::_unlock()>
 411e58f:	e8 ec 66 06 03       	call   7184c80 <mongo::Lock::GlobalLock::_unlock()>
 411e609:	e9 02 c7 05 00       	jmp    417ad10 <mongo::ActiveMigrationsRegistry::unlock(mongo::StringData)>
 411e67c:	e8 3f 6b 06 03       	call   71851c0 <mongo::Lock::ResourceLock::_unlock()>
 411e68f:	e8 2c 6b 06 03       	call   71851c0 <mongo::Lock::ResourceLock::_unlock()>
 41274da:	e8 e1 b4 bf 03       	call   7d229c0 <pthread_mutex_unlock@plt>
 412b96a:	e8 51 70 bf 03       	call   7d229c0 <pthread_mutex_unlock@plt>
 412c6c9:	e8 f2 8a 05 03       	call   71851c0 <mongo::Lock::ResourceLock::_unlock()>
 412d371:	e8 4a 7e 05 03       	call   71851c0 <mongo::Lock::ResourceLock::_unlock()>
 412dffe:	e8 bd 71 05 03       	call   71851c0 <mongo::Lock::ResourceLock::_unlock()>
 412fdc5:	e8 f6 53 05 03       	call   71851c0 <mongo::Lock::ResourceLock::_unlock()>
 4131859:	e8 62 39 05 03       	call   71851c0 <mongo::Lock::ResourceLock::_unlock()>
 41326ca:	e8 f1 02 bf 03       	call   7d229c0 <pthread_mutex_unlock@plt>
 413aa3a:	e8 81 7f be 03       	call   7d229c0 <pthread_mutex_unlock@plt>
 4140bea:	e8 d1 1d be 03       	call   7d229c0 <pthread_mutex_unlock@plt>
 4145a1a:	e8 a1 cf bd 03       	call   7d229c0 <pthread_mutex_unlock@plt>
 414783c:	e8 7f b1 bd 03       	call   7d229c0 <pthread_mutex_unlock@plt>
 41489b8:	e8 03 a0 bd 03       	call   7d229c0 <pthread_mutex_unlock@plt>
 414d51a:	e8 a1 54 bd 03       	call   7d229c0 <pthread_mutex_unlock@plt>
 415563a:	e8 81 d3 bc 03       	call   7d229c0 <pthread_mutex_unlock@plt>
 415993a:	e8 81 90 bc 03       	call   7d229c0 <pthread_mutex_unlock@plt>
 415c9ca:	e8 f1 5f bc 03       	call   7d229c0 <pthread_mutex_unlock@plt>
 415d3c7:	e8 f4 55 bc 03       	call   7d229c0 <pthread_mutex_unlock@plt>
 415ec07:	e8 b4 3d bc 03       	call   7d229c0 <pthread_mutex_unlock@plt>
 41666aa:	e8 11 c3 bb 03       	call   7d229c0 <pthread_mutex_unlock@plt>
 41781da:	e8 e1 a7 ba 03       	call   7d229c0 <pthread_mutex_unlock@plt>
 41791dd:	e8 de 97 ba 03       	call   7d229c0 <pthread_mutex_unlock@plt>
 4179e47:	e8 44 55 8f ff       	call   3a6f390 <std::unique_lock<std::mutex>::unlock()>
 417a2c7:	e8 c4 50 8f ff       	call   3a6f390 <std::unique_lock<std::mutex>::unlock()>
 417ac67:	e8 24 47 8f ff       	call   3a6f390 <std::unique_lock<std::mutex>::unlock()>
000000000417ad10 <mongo::ActiveMigrationsRegistry::unlock(mongo::StringData)>:
 417ad3f:	0f 85 1e 01 00 00    	jne    417ae63 <mongo::ActiveMigrationsRegistry::unlock(mongo::StringData)+0x153>
 417adf2:	75 3c                	jne    417ae30 <mongo::ActiveMigrationsRegistry::unlock(mongo::StringData)+0x120>
 417ae14:	75 54                	jne    417ae6a <mongo::ActiveMigrationsRegistry::unlock(mongo::StringData)+0x15a>
 417ae26:	e9 95 7b ba 03       	jmp    7d229c0 <pthread_mutex_unlock@plt>
 417ae33:	76 bf                	jbe    417adf4 <mongo::ActiveMigrationsRegistry::unlock(mongo::StringData)+0xe4>
 417ae38:	74 16                	je     417ae50 <mongo::ActiveMigrationsRegistry::unlock(mongo::StringData)+0x140>
 417ae3d:	75 11                	jne    417ae50 <mongo::ActiveMigrationsRegistry::unlock(mongo::StringData)+0x140>
 417ae4b:	eb a7                	jmp    417adf4 <mongo::ActiveMigrationsRegistry::unlock(mongo::StringData)+0xe4>
 417ae5a:	74 98                	je     417adf4 <mongo::ActiveMigrationsRegistry::unlock(mongo::StringData)+0xe4>
 417ae61:	eb 91                	jmp    417adf4 <mongo::ActiveMigrationsRegistry::unlock(mongo::StringData)+0xe4>
 417ae72:	e9 d7 35 00 00       	jmp    417e44e <mongo::ActiveMigrationsRegistry::unlock(mongo::StringData) [clone .cold]>
 417ae7d:	e9 db 35 00 00       	jmp    417e45d <mongo::ActiveMigrationsRegistry::unlock(mongo::StringData) [clone .cold]+0xf>
 417b090:	e9 2b 79 ba 03       	jmp    7d229c0 <pthread_mutex_unlock@plt>
 417b44d:	e9 6e 75 ba 03       	jmp    7d229c0 <pthread_mutex_unlock@plt>
 417b56b:	e8 50 74 ba 03       	call   7d229c0 <pthread_mutex_unlock@plt>
 417bd5a:	e9 61 6c ba 03       	jmp    7d229c0 <pthread_mutex_unlock@plt>
 417cdc3:	e8 c8 25 8f ff       	call   3a6f390 <std::unique_lock<std::mutex>::unlock()>
 417d667:	e8 24 1d 8f ff       	call   3a6f390 <std::unique_lock<std::mutex>::unlock()>
 417d73e:	e8 7d 52 ba 03       	call   7d229c0 <pthread_mutex_unlock@plt>
 417de86:	e8 35 4b ba 03       	call   7d229c0 <pthread_mutex_unlock@plt>
 417e0f3:	e8 98 12 8f ff       	call   3a6f390 <std::unique_lock<std::mutex>::unlock()>
 417e18b:	e8 00 12 8f ff       	call   3a6f390 <std::unique_lock<std::mutex>::unlock()>
 417e2cf:	e8 bc 10 8f ff       	call   3a6f390 <std::unique_lock<std::mutex>::unlock()>
000000000417e44e <mongo::ActiveMigrationsRegistry::unlock(mongo::StringData) [clone .cold]>:
 417e460:	e8 5b 45 ba 03       	call   7d229c0 <pthread_mutex_unlock@plt>
 417e4cd:	e8 ee 44 ba 03       	call   7d229c0 <pthread_mutex_unlock@plt>
 417e533:	e8 88 44 ba 03       	call   7d229c0 <pthread_mutex_unlock@plt>
 417e626:	e8 95 43 ba 03       	call   7d229c0 <pthread_mutex_unlock@plt>
 417e69a:	e8 f1 0c 8f ff       	call   3a6f390 <std::unique_lock<std::mutex>::unlock()>
 417ea1f:	e8 6c 09 8f ff       	call   3a6f390 <std::unique_lock<std::mutex>::unlock()>
 417eaf6:	e8 c5 3e ba 03       	call   7d229c0 <pthread_mutex_unlock@plt>
 419160a:	e8 b1 13 b9 03       	call   7d229c0 <pthread_mutex_unlock@plt>
 41916b2:	e8 09 13 b9 03       	call   7d229c0 <pthread_mutex_unlock@plt>
 4191f9e:	e8 1d 0a b9 03       	call   7d229c0 <pthread_mutex_unlock@plt>
 4192133:	e8 88 08 b9 03       	call   7d229c0 <pthread_mutex_unlock@plt>
 41926ed:	e8 ce 02 b9 03       	call   7d229c0 <pthread_mutex_unlock@plt>
 4192e64:	e8 57 fb b8 03       	call   7d229c0 <pthread_mutex_unlock@plt>
 41937bf:	e8 fc f1 b8 03       	call   7d229c0 <pthread_mutex_unlock@plt>
 4194252:	e9 69 e7 b8 03       	jmp    7d229c0 <pthread_mutex_unlock@plt>
 4194516:	e8 a5 e4 b8 03       	call   7d229c0 <pthread_mutex_unlock@plt>
 41947df:	e8 dc e1 b8 03       	call   7d229c0 <pthread_mutex_unlock@plt>
 419494a:	e9 71 e0 b8 03       	jmp    7d229c0 <pthread_mutex_unlock@plt>
 419696a:	e8 51 c0 b8 03       	call   7d229c0 <pthread_mutex_unlock@plt>
 4197d28:	e8 93 ac b8 03       	call   7d229c0 <pthread_mutex_unlock@plt>
 4197de4:	e8 d7 ab b8 03       	call   7d229c0 <pthread_mutex_unlock@plt>
 4197e2c:	e8 8f ab b8 03       	call   7d229c0 <pthread_mutex_unlock@plt>
 4197fed:	e8 ce a9 b8 03       	call   7d229c0 <pthread_mutex_unlock@plt>
 41980b7:	e8 04 a9 b8 03       	call   7d229c0 <pthread_mutex_unlock@plt>
 419818c:	e8 ff 71 8d ff       	call   3a6f390 <std::unique_lock<std::mutex>::unlock()>
 4198474:	e8 47 a5 b8 03       	call   7d229c0 <pthread_mutex_unlock@plt>
 41984ca:	e8 f1 a4 b8 03       	call   7d229c0 <pthread_mutex_unlock@plt>
 4198611:	e8 aa a3 b8 03       	call   7d229c0 <pthread_mutex_unlock@plt>
 4199889:	e8 32 91 b8 03       	call   7d229c0 <pthread_mutex_unlock@plt>
 419bf77:	e8 44 6a b8 03       	call   7d229c0 <pthread_mutex_unlock@plt>
 419c746:	e8 75 62 b8 03       	call   7d229c0 <pthread_mutex_unlock@plt>
 41b26a5:	e8 16 03 b7 03       	call   7d229c0 <pthread_mutex_unlock@plt>
 41b279b:	e8 20 02 b7 03       	call   7d229c0 <pthread_mutex_unlock@plt>
 41c88a9:	e9 12 a1 b5 03       	jmp    7d229c0 <pthread_mutex_unlock@plt>
 41c88fe:	e8 bd a0 b5 03       	call   7d229c0 <pthread_mutex_unlock@plt>
 41cd3f0:	e8 cb 55 b5 03       	call   7d229c0 <pthread_mutex_unlock@plt>
 41d81d6:	e8 e5 a7 b4 03       	call   7d229c0 <pthread_mutex_unlock@plt>
 41d8abb:	e8 00 9f b4 03       	call   7d229c0 <pthread_mutex_unlock@plt>
 41db6fd:	e8 be 72 b4 03       	call   7d229c0 <pthread_mutex_unlock@plt>
 41e3bfa:	e8 c1 ed b3 03       	call   7d229c0 <pthread_mutex_unlock@plt>
 41ffdd5:	e8 e6 2b b2 03       	call   7d229c0 <pthread_mutex_unlock@plt>
 42002ae:	e8 0d 27 b2 03       	call   7d229c0 <pthread_mutex_unlock@plt>
 4200326:	e8 95 26 b2 03       	call   7d229c0 <pthread_mutex_unlock@plt>
 42005a0:	e8 1b 24 b2 03       	call   7d229c0 <pthread_mutex_unlock@plt>
 4200618:	e8 a3 23 b2 03       	call   7d229c0 <pthread_mutex_unlock@plt>
 4200634:	e8 87 23 b2 03       	call   7d229c0 <pthread_mutex_unlock@plt>
 420068a:	e8 31 23 b2 03       	call   7d229c0 <pthread_mutex_unlock@plt>
 42010a4:	e9 17 19 b2 03       	jmp    7d229c0 <pthread_mutex_unlock@plt>
 4201adc:	e8 df 0e b2 03       	call   7d229c0 <pthread_mutex_unlock@plt>
 42031f8:	e8 c3 f7 b1 03       	call   7d229c0 <pthread_mutex_unlock@plt>
 4203324:	e8 97 f6 b1 03       	call   7d229c0 <pthread_mutex_unlock@plt>
 4203ebf:	e9 fc ea b1 03       	jmp    7d229c0 <pthread_mutex_unlock@plt>
 420468a:	e8 31 e3 b1 03       	call   7d229c0 <pthread_mutex_unlock@plt>
 4204afb:	e8 c0 de b1 03       	call   7d229c0 <pthread_mutex_unlock@plt>
 4204d11:	e8 aa dc b1 03       	call   7d229c0 <pthread_mutex_unlock@plt>
 4204f4c:	e8 6f da b1 03       	call   7d229c0 <pthread_mutex_unlock@plt>
 4204f61:	e8 5a da b1 03       	call   7d229c0 <pthread_mutex_unlock@plt>
 4205264:	e8 57 d7 b1 03       	call   7d229c0 <pthread_mutex_unlock@plt>
 420540c:	e8 af d5 b1 03       	call   7d229c0 <pthread_mutex_unlock@plt>
 420584d:	e8 6e d1 b1 03       	call   7d229c0 <pthread_mutex_unlock@plt>
 4205a53:	e8 68 cf b1 03       	call   7d229c0 <pthread_mutex_unlock@plt>
 4207dd0:	e8 eb ab b1 03       	call   7d229c0 <pthread_mutex_unlock@plt>
 4207e29:	e8 92 ab b1 03       	call   7d229c0 <pthread_mutex_unlock@plt>
 420909e:	e8 1d 99 b1 03       	call   7d229c0 <pthread_mutex_unlock@plt>
 420943e:	e9 7d 95 b1 03       	jmp    7d229c0 <pthread_mutex_unlock@plt>
 4209794:	e8 27 92 b1 03       	call   7d229c0 <pthread_mutex_unlock@plt>
 4209a04:	e8 b7 8f b1 03       	call   7d229c0 <pthread_mutex_unlock@plt>
 4209b26:	e8 95 8e b1 03       	call   7d229c0 <pthread_mutex_unlock@plt>
 420ebea:	e8 d1 3d b1 03       	call   7d229c0 <pthread_mutex_unlock@plt>
 420f8ae:	e8 0d 31 b1 03       	call   7d229c0 <pthread_mutex_unlock@plt>
 420f8be:	e9 fd 30 b1 03       	jmp    7d229c0 <pthread_mutex_unlock@plt>
 420f8cb:	e8 f0 30 b1 03       	call   7d229c0 <pthread_mutex_unlock@plt>
 420f8ee:	e8 cd 30 b1 03       	call   7d229c0 <pthread_mutex_unlock@plt>
 420f8fe:	e9 bd 30 b1 03       	jmp    7d229c0 <pthread_mutex_unlock@plt>
 420fbbe:	e8 fd 2d b1 03       	call   7d229c0 <pthread_mutex_unlock@plt>
 420fbce:	e9 ed 2d b1 03       	jmp    7d229c0 <pthread_mutex_unlock@plt>
 420fbdb:	e8 e0 2d b1 03       	call   7d229c0 <pthread_mutex_unlock@plt>
 420fbfe:	e8 bd 2d b1 03       	call   7d229c0 <pthread_mutex_unlock@plt>
 420fc0e:	e9 ad 2d b1 03       	jmp    7d229c0 <pthread_mutex_unlock@plt>
 4211c55:	e8 36 d7 85 ff       	call   3a6f390 <std::unique_lock<std::mutex>::unlock()>
 4211d74:	e8 17 d6 85 ff       	call   3a6f390 <std::unique_lock<std::mutex>::unlock()>
 42122b5:	e8 d6 d0 85 ff       	call   3a6f390 <std::unique_lock<std::mutex>::unlock()>
 42123d4:	e8 b7 cf 85 ff       	call   3a6f390 <std::unique_lock<std::mutex>::unlock()>
 421822d:	e8 8e a7 b0 03       	call   7d229c0 <pthread_mutex_unlock@plt>
 4218363:	e8 58 a6 b0 03       	call   7d229c0 <pthread_mutex_unlock@plt>
 421838e:	e8 2d a6 b0 03       	call   7d229c0 <pthread_mutex_unlock@plt>
 421a44a:	e8 71 85 b0 03       	call   7d229c0 <pthread_mutex_unlock@plt>
 421b25d:	e8 5e 77 b0 03       	call   7d229c0 <pthread_mutex_unlock@plt>
 421b2fb:	e8 c0 76 b0 03       	call   7d229c0 <pthread_mutex_unlock@plt>
 421b386:	e9 35 76 b0 03       	jmp    7d229c0 <pthread_mutex_unlock@plt>
 421b3c9:	e8 f2 75 b0 03       	call   7d229c0 <pthread_mutex_unlock@plt>
 421b451:	e8 6a 75 b0 03       	call   7d229c0 <pthread_mutex_unlock@plt>
 421b4cd:	e8 ee 74 b0 03       	call   7d229c0 <pthread_mutex_unlock@plt>
 421b4e5:	e8 d6 74 b0 03       	call   7d229c0 <pthread_mutex_unlock@plt>
 421b8ef:	e9 cc 70 b0 03       	jmp    7d229c0 <pthread_mutex_unlock@plt>
 421b9ba:	e9 01 70 b0 03       	jmp    7d229c0 <pthread_mutex_unlock@plt>
 421bc63:	e8 58 6d b0 03       	call   7d229c0 <pthread_mutex_unlock@plt>
 421bc9c:	e8 1f 6d b0 03       	call   7d229c0 <pthread_mutex_unlock@plt>
 421bd74:	e8 47 6c b0 03       	call   7d229c0 <pthread_mutex_unlock@plt>
 421bd84:	e9 37 6c b0 03       	jmp    7d229c0 <pthread_mutex_unlock@plt>
 421bd93:	e8 28 6c b0 03       	call   7d229c0 <pthread_mutex_unlock@plt>
 421bdbc:	e8 ff 6b b0 03       	call   7d229c0 <pthread_mutex_unlock@plt>
 421bdcc:	e9 ef 6b b0 03       	jmp    7d229c0 <pthread_mutex_unlock@plt>
 421c1e4:	e8 d7 67 b0 03       	call   7d229c0 <pthread_mutex_unlock@plt>
 421c314:	e8 77 30 85 ff       	call   3a6f390 <std::unique_lock<std::mutex>::unlock()>
 421c706:	e8 85 2c 85 ff       	call   3a6f390 <std::unique_lock<std::mutex>::unlock()>
 421cd7b:	e8 40 5c b0 03       	call   7d229c0 <pthread_mutex_unlock@plt>
 421cde9:	e8 d2 5b b0 03       	call   7d229c0 <pthread_mutex_unlock@plt>
 421d2dd:	e8 de 56 b0 03       	call   7d229c0 <pthread_mutex_unlock@plt>
 421d387:	e8 34 56 b0 03       	call   7d229c0 <pthread_mutex_unlock@plt>
 421d3c5:	e8 c6 1f 85 ff       	call   3a6f390 <std::unique_lock<std::mutex>::unlock()>
 421d434:	e8 57 1f 85 ff       	call   3a6f390 <std::unique_lock<std::mutex>::unlock()>
 421d4c3:	e8 c8 1e 85 ff       	call   3a6f390 <std::unique_lock<std::mutex>::unlock()>
 421db33:	e8 88 4e b0 03       	call   7d229c0 <pthread_mutex_unlock@plt>
 421dbe9:	e8 d2 4d b0 03       	call   7d229c0 <pthread_mutex_unlock@plt>
 421dc73:	e8 48 4d b0 03       	call   7d229c0 <pthread_mutex_unlock@plt>
 421e1ff:	e8 8c 11 85 ff       	call   3a6f390 <std::unique_lock<std::mutex>::unlock()>
 421ef43:	e8 48 04 85 ff       	call   3a6f390 <std::unique_lock<std::mutex>::unlock()>
 421fe97:	e9 24 2b b0 03       	jmp    7d229c0 <pthread_mutex_unlock@plt>
 42221a7:	e8 14 08 b0 03       	call   7d229c0 <pthread_mutex_unlock@plt>
 4222568:	e8 53 04 b0 03       	call   7d229c0 <pthread_mutex_unlock@plt>
 4224d1a:	e8 a1 dc af 03       	call   7d229c0 <pthread_mutex_unlock@plt>
 4224d92:	e8 f9 a5 84 ff       	call   3a6f390 <std::unique_lock<std::mutex>::unlock()>
 422517c:	e8 0f a2 84 ff       	call   3a6f390 <std::unique_lock<std::mutex>::unlock()>
 4226080:	e8 3b c9 af 03       	call   7d229c0 <pthread_mutex_unlock@plt>
 422645a:	e8 61 c5 af 03       	call   7d229c0 <pthread_mutex_unlock@plt>
 42269fa:	e8 c1 bf af 03       	call   7d229c0 <pthread_mutex_unlock@plt>
 4226a2a:	e8 91 bf af 03       	call   7d229c0 <pthread_mutex_unlock@plt>
 4226a56:	e8 65 bf af 03       	call   7d229c0 <pthread_mutex_unlock@plt>
 4226b39:	e8 52 88 84 ff       	call   3a6f390 <std::unique_lock<std::mutex>::unlock()>
 4226cb3:	e8 d8 86 84 ff       	call   3a6f390 <std::unique_lock<std::mutex>::unlock()>
 4226f2f:	e8 5c 84 84 ff       	call   3a6f390 <std::unique_lock<std::mutex>::unlock()>
 4226fc1:	e8 ca 83 84 ff       	call   3a6f390 <std::unique_lock<std::mutex>::unlock()>
 422791a:	e8 71 7a 84 ff       	call   3a6f390 <std::unique_lock<std::mutex>::unlock()>
 4227bcc:	e8 ef ad af 03       	call   7d229c0 <pthread_mutex_unlock@plt>
 4227ccf:	e8 ec ac af 03       	call   7d229c0 <pthread_mutex_unlock@plt>
 4228825:	e8 96 a1 af 03       	call   7d229c0 <pthread_mutex_unlock@plt>
 42288a5:	e8 e6 6a 84 ff       	call   3a6f390 <std::unique_lock<std::mutex>::unlock()>
 4228c49:	e8 72 9d af 03       	call   7d229c0 <pthread_mutex_unlock@plt>
 422c4ea:	e8 d1 64 af 03       	call   7d229c0 <pthread_mutex_unlock@plt>
 42358ca:	e8 f1 d0 ae 03       	call   7d229c0 <pthread_mutex_unlock@plt>
 42367fa:	e8 c1 c1 ae 03       	call   7d229c0 <pthread_mutex_unlock@plt>
 4236863:	e9 58 c1 ae 03       	jmp    7d229c0 <pthread_mutex_unlock@plt>
 4236898:	e8 23 c1 ae 03       	call   7d229c0 <pthread_mutex_unlock@plt>
 4236985:	e8 36 c0 ae 03       	call   7d229c0 <pthread_mutex_unlock@plt>
 4236ada:	e9 e1 be ae 03       	jmp    7d229c0 <pthread_mutex_unlock@plt>
 4236bfc:	e9 bf bd ae 03       	jmp    7d229c0 <pthread_mutex_unlock@plt>
 42396f7:	e8 94 5c 83 ff       	call   3a6f390 <std::unique_lock<std::mutex>::unlock()>
 423994a:	e8 71 90 ae 03       	call   7d229c0 <pthread_mutex_unlock@plt>
 4239a3b:	e8 80 8f ae 03       	call   7d229c0 <pthread_mutex_unlock@plt>
 4239cd8:	e8 e3 8c ae 03       	call   7d229c0 <pthread_mutex_unlock@plt>
 423a2ad:	e8 0e 87 ae 03       	call   7d229c0 <pthread_mutex_unlock@plt>
 423a2f3:	e8 c8 86 ae 03       	call   7d229c0 <pthread_mutex_unlock@plt>
 423a365:	e9 56 86 ae 03       	jmp    7d229c0 <pthread_mutex_unlock@plt>
 423ba3f:	e8 4c 39 83 ff       	call   3a6f390 <std::unique_lock<std::mutex>::unlock()>
 423bb52:	e8 69 6e ae 03       	call   7d229c0 <pthread_mutex_unlock@plt>
 423bd25:	e9 96 6c ae 03       	jmp    7d229c0 <pthread_mutex_unlock@plt>
 423c23d:	e8 7e 67 ae 03       	call   7d229c0 <pthread_mutex_unlock@plt>
 423c58e:	e8 2d 64 ae 03       	call   7d229c0 <pthread_mutex_unlock@plt>
 423c7de:	e8 dd 61 ae 03       	call   7d229c0 <pthread_mutex_unlock@plt>
 423c996:	e8 25 60 ae 03       	call   7d229c0 <pthread_mutex_unlock@plt>
 423ca7b:	e8 10 29 83 ff       	call   3a6f390 <std::unique_lock<std::mutex>::unlock()>
 423d1ab:	e8 10 58 ae 03       	call   7d229c0 <pthread_mutex_unlock@plt>
 423d96c:	e8 4f 50 ae 03       	call   7d229c0 <pthread_mutex_unlock@plt>
 423edef:	e8 cc 3b ae 03       	call   7d229c0 <pthread_mutex_unlock@plt>
 424140d:	e8 ae 15 ae 03       	call   7d229c0 <pthread_mutex_unlock@plt>
 4241675:	e8 46 13 ae 03       	call   7d229c0 <pthread_mutex_unlock@plt>
 4243101:	e8 ba f8 ad 03       	call   7d229c0 <pthread_mutex_unlock@plt>
 424350d:	e8 ae f4 ad 03       	call   7d229c0 <pthread_mutex_unlock@plt>
 4243fe6:	e8 d5 e9 ad 03       	call   7d229c0 <pthread_mutex_unlock@plt>
 42454a9:	e8 12 d5 ad 03       	call   7d229c0 <pthread_mutex_unlock@plt>
 4245ac3:	e8 f8 ce ad 03       	call   7d229c0 <pthread_mutex_unlock@plt>
 4245ae6:	e8 d5 ce ad 03       	call   7d229c0 <pthread_mutex_unlock@plt>
 4245b25:	e8 96 ce ad 03       	call   7d229c0 <pthread_mutex_unlock@plt>
 4245e29:	e8 92 cb ad 03       	call   7d229c0 <pthread_mutex_unlock@plt>
 4245e50:	e8 6b cb ad 03       	call   7d229c0 <pthread_mutex_unlock@plt>
 4245e81:	e8 3a cb ad 03       	call   7d229c0 <pthread_mutex_unlock@plt>
 4246312:	e8 a9 c6 ad 03       	call   7d229c0 <pthread_mutex_unlock@plt>
 4246332:	e8 89 c6 ad 03       	call   7d229c0 <pthread_mutex_unlock@plt>
 4246926:	e8 95 c0 ad 03       	call   7d229c0 <pthread_mutex_unlock@plt>
 424694d:	e8 6e c0 ad 03       	call   7d229c0 <pthread_mutex_unlock@plt>
 4246994:	e8 27 c0 ad 03       	call   7d229c0 <pthread_mutex_unlock@plt>
 4247030:	e8 8b b9 ad 03       	call   7d229c0 <pthread_mutex_unlock@plt>
 4247b7c:	e8 3f ae ad 03       	call   7d229c0 <pthread_mutex_unlock@plt>
 424839b:	e8 20 a6 ad 03       	call   7d229c0 <pthread_mutex_unlock@plt>
 42483e1:	e8 da a5 ad 03       	call   7d229c0 <pthread_mutex_unlock@plt>
 4248413:	e8 a8 a5 ad 03       	call   7d229c0 <pthread_mutex_unlock@plt>
 424841b:	e8 a0 a5 ad 03       	call   7d229c0 <pthread_mutex_unlock@plt>
 42484b0:	e8 0b a5 ad 03       	call   7d229c0 <pthread_mutex_unlock@plt>
 42484c4:	e8 f7 a4 ad 03       	call   7d229c0 <pthread_mutex_unlock@plt>
 42484d8:	e8 e3 a4 ad 03       	call   7d229c0 <pthread_mutex_unlock@plt>
 424924a:	e8 71 97 ad 03       	call   7d229c0 <pthread_mutex_unlock@plt>
 424926d:	e8 1e 61 82 ff       	call   3a6f390 <std::unique_lock<std::mutex>::unlock()>
 4249874:	e8 17 5b 82 ff       	call   3a6f390 <std::unique_lock<std::mutex>::unlock()>
 4249ac9:	e8 f2 8e ad 03       	call   7d229c0 <pthread_mutex_unlock@plt>
 4249b3c:	e8 7f 8e ad 03       	call   7d229c0 <pthread_mutex_unlock@plt>
 4249ba8:	e8 13 8e ad 03       	call   7d229c0 <pthread_mutex_unlock@plt>
 4249caa:	e8 11 8d ad 03       	call   7d229c0 <pthread_mutex_unlock@plt>
 4249cbe:	e8 fd 8c ad 03       	call   7d229c0 <pthread_mutex_unlock@plt>
 4249d23:	e8 68 56 82 ff       	call   3a6f390 <std::unique_lock<std::mutex>::unlock()>
 4249d4c:	e8 3f 56 82 ff       	call   3a6f390 <std::unique_lock<std::mutex>::unlock()>
 4249e43:	e8 48 55 82 ff       	call   3a6f390 <std::unique_lock<std::mutex>::unlock()>
 424a3b5:	e8 06 86 ad 03       	call   7d229c0 <pthread_mutex_unlock@plt>
 424a6c8:	e8 f3 82 ad 03       	call   7d229c0 <pthread_mutex_unlock@plt>
 424d2c5:	e8 f6 56 ad 03       	call   7d229c0 <pthread_mutex_unlock@plt>
 424d620:	e8 9b 53 ad 03       	call   7d229c0 <pthread_mutex_unlock@plt>
 424ff87:	e8 04 f4 81 ff       	call   3a6f390 <std::unique_lock<std::mutex>::unlock()>
 42502de:	e8 ad f0 81 ff       	call   3a6f390 <std::unique_lock<std::mutex>::unlock()>
 42503ca:	e8 f1 25 ad 03       	call   7d229c0 <pthread_mutex_unlock@plt>
 4250413:	e8 a8 25 ad 03       	call   7d229c0 <pthread_mutex_unlock@plt>
 425042d:	e8 8e 25 ad 03       	call   7d229c0 <pthread_mutex_unlock@plt>
 4250a86:	e8 05 e9 81 ff       	call   3a6f390 <std::unique_lock<std::mutex>::unlock()>
 425102d:	e8 5e e3 81 ff       	call   3a6f390 <std::unique_lock<std::mutex>::unlock()>
 425634a:	e8 71 c6 ac 03       	call   7d229c0 <pthread_mutex_unlock@plt>
 4262dda:	e8 e1 fb ab 03       	call   7d229c0 <pthread_mutex_unlock@plt>
 426cc7f:	e8 0c 27 80 ff       	call   3a6f390 <std::unique_lock<std::mutex>::unlock()>
 42703b1:	e8 0a 26 ab 03       	call   7d229c0 <pthread_mutex_unlock@plt>
 427047a:	e8 41 25 ab 03       	call   7d229c0 <pthread_mutex_unlock@plt>
 4270a53:	e8 68 1f ab 03       	call   7d229c0 <pthread_mutex_unlock@plt>
 42712cd:	e8 ee 16 ab 03       	call   7d229c0 <pthread_mutex_unlock@plt>
 4271ab4:	e8 07 0f ab 03       	call   7d229c0 <pthread_mutex_unlock@plt>
 4275375:	e8 06 f9 f0 02       	call   7184c80 <mongo::Lock::GlobalLock::_unlock()>
 42753c3:	e8 f8 fd f0 02       	call   71851c0 <mongo::Lock::ResourceLock::_unlock()>
 42753d7:	e8 e4 fd f0 02       	call   71851c0 <mongo::Lock::ResourceLock::_unlock()>
 4276c9d:	e8 de df f0 02       	call   7184c80 <mongo::Lock::GlobalLock::_unlock()>
 4276ceb:	e8 d0 e4 f0 02       	call   71851c0 <mongo::Lock::ResourceLock::_unlock()>
 4276cff:	e8 bc e4 f0 02       	call   71851c0 <mongo::Lock::ResourceLock::_unlock()>
 427975e:	e8 2d 5c 7f ff       	call   3a6f390 <std::unique_lock<std::mutex>::unlock()>
 427b140:	e8 7b 78 aa 03       	call   7d229c0 <pthread_mutex_unlock@plt>
 427b1d6:	e8 e5 77 aa 03       	call   7d229c0 <pthread_mutex_unlock@plt>
 427b335:	e8 86 76 aa 03       	call   7d229c0 <pthread_mutex_unlock@plt>
 427b43b:	e8 80 75 aa 03       	call   7d229c0 <pthread_mutex_unlock@plt>
 428285a:	e8 61 01 aa 03       	call   7d229c0 <pthread_mutex_unlock@plt>
 42834b4:	e8 07 1d f0 02       	call   71851c0 <mongo::Lock::ResourceLock::_unlock()>
 4284d0b:	e8 b0 04 f0 02       	call   71851c0 <mongo::Lock::ResourceLock::_unlock()>
 4285567:	e8 54 fc ef 02       	call   71851c0 <mongo::Lock::ResourceLock::_unlock()>
 428783b:	e8 80 d9 ef 02       	call   71851c0 <mongo::Lock::ResourceLock::_unlock()>
 428825d:	e8 5e cf ef 02       	call   71851c0 <mongo::Lock::ResourceLock::_unlock()>
 42886fa:	e8 c1 ca ef 02       	call   71851c0 <mongo::Lock::ResourceLock::_unlock()>
 4288c10:	e8 ab c5 ef 02       	call   71851c0 <mongo::Lock::ResourceLock::_unlock()>
 428917d:	e8 3e c0 ef 02       	call   71851c0 <mongo::Lock::ResourceLock::_unlock()>
 428969f:	e8 1c bb ef 02       	call   71851c0 <mongo::Lock::ResourceLock::_unlock()>
 428989f:	e8 1c b9 ef 02       	call   71851c0 <mongo::Lock::ResourceLock::_unlock()>
 428dab3:	e8 08 4f a9 03       	call   7d229c0 <pthread_mutex_unlock@plt>
 428db60:	e8 5b 4e a9 03       	call   7d229c0 <pthread_mutex_unlock@plt>
 428db68:	e8 53 4e a9 03       	call   7d229c0 <pthread_mutex_unlock@plt>
 428dc63:	e8 58 4d a9 03       	call   7d229c0 <pthread_mutex_unlock@plt>
 428dcb1:	e9 0a 4d a9 03       	jmp    7d229c0 <pthread_mutex_unlock@plt>
 428de50:	e9 6b 4b a9 03       	jmp    7d229c0 <pthread_mutex_unlock@plt>
 428e4b2:	e8 09 45 a9 03       	call   7d229c0 <pthread_mutex_unlock@plt>
 428e7c5:	e8 f6 41 a9 03       	call   7d229c0 <pthread_mutex_unlock@plt>
 428e7e2:	e8 d9 41 a9 03       	call   7d229c0 <pthread_mutex_unlock@plt>
 429064f:	e8 6c 4b ef 02       	call   71851c0 <mongo::Lock::ResourceLock::_unlock()>
 4291cdb:	e8 e0 34 ef 02       	call   71851c0 <mongo::Lock::ResourceLock::_unlock()>
 4292edc:	e8 df fa a8 03       	call   7d229c0 <pthread_mutex_unlock@plt>
 4292f50:	e9 6b fa a8 03       	jmp    7d229c0 <pthread_mutex_unlock@plt>
 42933b7:	e9 04 f6 a8 03       	jmp    7d229c0 <pthread_mutex_unlock@plt>
 4294073:	e8 48 e9 a8 03       	call   7d229c0 <pthread_mutex_unlock@plt>
 42949b6:	e8 05 e0 a8 03       	call   7d229c0 <pthread_mutex_unlock@plt>
 4294a32:	e8 89 df a8 03       	call   7d229c0 <pthread_mutex_unlock@plt>
 4295ec5:	e9 f6 ca a8 03       	jmp    7d229c0 <pthread_mutex_unlock@plt>
 4296425:	e9 96 c5 a8 03       	jmp    7d229c0 <pthread_mutex_unlock@plt>
 42967fa:	e9 c1 c1 a8 03       	jmp    7d229c0 <pthread_mutex_unlock@plt>
 4296ab0:	e8 0b bf a8 03       	call   7d229c0 <pthread_mutex_unlock@plt>
 4296bd3:	e9 e8 bd a8 03       	jmp    7d229c0 <pthread_mutex_unlock@plt>
 4297010:	e9 ab b9 a8 03       	jmp    7d229c0 <pthread_mutex_unlock@plt>
 4297a84:	e9 37 af a8 03       	jmp    7d229c0 <pthread_mutex_unlock@plt>
 4297e35:	e9 86 ab a8 03       	jmp    7d229c0 <pthread_mutex_unlock@plt>
 429801c:	e9 9f a9 a8 03       	jmp    7d229c0 <pthread_mutex_unlock@plt>
 429922e:	e9 8d 97 a8 03       	jmp    7d229c0 <pthread_mutex_unlock@plt>
 4299ed9:	e8 e2 8a a8 03       	call   7d229c0 <pthread_mutex_unlock@plt>
 429a40e:	e8 ad 85 a8 03       	call   7d229c0 <pthread_mutex_unlock@plt>
 429a42e:	e8 8d 85 a8 03       	call   7d229c0 <pthread_mutex_unlock@plt>
 429a5d0:	e8 eb 83 a8 03       	call   7d229c0 <pthread_mutex_unlock@plt>
 429a610:	e8 ab 83 a8 03       	call   7d229c0 <pthread_mutex_unlock@plt>
 429a673:	e8 48 83 a8 03       	call   7d229c0 <pthread_mutex_unlock@plt>
 429a7bc:	e8 ff 81 a8 03       	call   7d229c0 <pthread_mutex_unlock@plt>
 429a7eb:	e8 d0 81 a8 03       	call   7d229c0 <pthread_mutex_unlock@plt>
 429a88e:	e8 2d 81 a8 03       	call   7d229c0 <pthread_mutex_unlock@plt>
 429aafe:	e8 bd 7e a8 03       	call   7d229c0 <pthread_mutex_unlock@plt>
 42a270a:	e8 b1 02 a8 03       	call   7d229c0 <pthread_mutex_unlock@plt>
 42a2b5d:	e9 5e fe a7 03       	jmp    7d229c0 <pthread_mutex_unlock@plt>
 42a2bb1:	e8 0a fe a7 03       	call   7d229c0 <pthread_mutex_unlock@plt>
 42a2c88:	e9 33 fd a7 03       	jmp    7d229c0 <pthread_mutex_unlock@plt>
 42a385d:	e8 2e bb 7c ff       	call   3a6f390 <std::unique_lock<std::mutex>::unlock()>
 42a3a83:	e8 08 b9 7c ff       	call   3a6f390 <std::unique_lock<std::mutex>::unlock()>
 42a3bb7:	e8 d4 b7 7c ff       	call   3a6f390 <std::unique_lock<std::mutex>::unlock()>
 42a4b44:	e8 47 a8 7c ff       	call   3a6f390 <std::unique_lock<std::mutex>::unlock()>
 42a4b64:	e8 27 a8 7c ff       	call   3a6f390 <std::unique_lock<std::mutex>::unlock()>
 42a4c73:	e8 48 dd a7 03       	call   7d229c0 <pthread_mutex_unlock@plt>
 42a4c7c:	e8 0f a7 7c ff       	call   3a6f390 <std::unique_lock<std::mutex>::unlock()>
 42a4cac:	e8 df a6 7c ff       	call   3a6f390 <std::unique_lock<std::mutex>::unlock()>
 42a4d33:	e8 88 dc a7 03       	call   7d229c0 <pthread_mutex_unlock@plt>
 42a5137:	e8 54 a2 7c ff       	call   3a6f390 <std::unique_lock<std::mutex>::unlock()>
 42a583d:	e8 4e 9b 7c ff       	call   3a6f390 <std::unique_lock<std::mutex>::unlock()>
 42a6d87:	e8 04 86 7c ff       	call   3a6f390 <std::unique_lock<std::mutex>::unlock()>
 42a784f:	e8 3c 7b 7c ff       	call   3a6f390 <std::unique_lock<std::mutex>::unlock()>
 42a7c6e:	e8 1d 77 7c ff       	call   3a6f390 <std::unique_lock<std::mutex>::unlock()>
 42a89da:	e8 b1 69 7c ff       	call   3a6f390 <std::unique_lock<std::mutex>::unlock()>
 42a8ac6:	e8 f5 c6 ed 02       	call   71851c0 <mongo::Lock::ResourceLock::_unlock()>
 42a8b16:	e8 75 68 7c ff       	call   3a6f390 <std::unique_lock<std::mutex>::unlock()>
 42a8cc3:	e8 c8 66 7c ff       	call   3a6f390 <std::unique_lock<std::mutex>::unlock()>
 42a91bf:	e8 fc 97 a7 03       	call   7d229c0 <pthread_mutex_unlock@plt>
 42aa4cf:	e8 bc 4e 7c ff       	call   3a6f390 <std::unique_lock<std::mutex>::unlock()>
 42aab7f:	e8 3c 7e a7 03       	call   7d229c0 <pthread_mutex_unlock@plt>
 42aac0d:	e9 ae 7d a7 03       	jmp    7d229c0 <pthread_mutex_unlock@plt>
 42ab152:	e8 39 42 7c ff       	call   3a6f390 <std::unique_lock<std::mutex>::unlock()>
 42ab551:	e8 6a 74 a7 03       	call   7d229c0 <pthread_mutex_unlock@plt>
 42ab67b:	e8 10 3d 7c ff       	call   3a6f390 <std::unique_lock<std::mutex>::unlock()>
 42ab712:	e8 79 3c 7c ff       	call   3a6f390 <std::unique_lock<std::mutex>::unlock()>
 42ab797:	e8 f4 3b 7c ff       	call   3a6f390 <std::unique_lock<std::mutex>::unlock()>
 42ab895:	e8 f6 3a 7c ff       	call   3a6f390 <std::unique_lock<std::mutex>::unlock()>
 42ab8af:	e8 dc 3a 7c ff       	call   3a6f390 <std::unique_lock<std::mutex>::unlock()>
 42ab949:	e8 42 3a 7c ff       	call   3a6f390 <std::unique_lock<std::mutex>::unlock()>
 42aba39:	e8 52 39 7c ff       	call   3a6f390 <std::unique_lock<std::mutex>::unlock()>
 42abcf7:	e8 94 36 7c ff       	call   3a6f390 <std::unique_lock<std::mutex>::unlock()>
 42ac030:	e8 5b 33 7c ff       	call   3a6f390 <std::unique_lock<std::mutex>::unlock()>
 42ac0e4:	e8 d7 90 ed 02       	call   71851c0 <mongo::Lock::ResourceLock::_unlock()>
 42ac122:	e8 99 68 a7 03       	call   7d229c0 <pthread_mutex_unlock@plt>
 42ac308:	e8 83 30 7c ff       	call   3a6f390 <std::unique_lock<std::mutex>::unlock()>
 42ac46c:	e8 4f 65 a7 03       	call   7d229c0 <pthread_mutex_unlock@plt>
 42ac88f:	e8 2c 61 a7 03       	call   7d229c0 <pthread_mutex_unlock@plt>
 42acc2f:	e8 5c 27 7c ff       	call   3a6f390 <std::unique_lock<std::mutex>::unlock()>
 42acc60:	e8 2b 27 7c ff       	call   3a6f390 <std::unique_lock<std::mutex>::unlock()>
 42acd9d:	e8 ee 25 7c ff       	call   3a6f390 <std::unique_lock<std::mutex>::unlock()>
 42ad3db:	e8 b0 1f 7c ff       	call   3a6f390 <std::unique_lock<std::mutex>::unlock()>
 42b644a:	e8 71 c5 a6 03       	call   7d229c0 <pthread_mutex_unlock@plt>
 42b910e:	e8 ad c0 ec 02       	call   71851c0 <mongo::Lock::ResourceLock::_unlock()>
 42c0cc0:	e8 fb 44 ec 02       	call   71851c0 <mongo::Lock::ResourceLock::_unlock()>
 42f737a:	e8 41 b6 a2 03       	call   7d229c0 <pthread_mutex_unlock@plt>
 42fae15:	e8 76 45 77 ff       	call   3a6f390 <std::unique_lock<std::mutex>::unlock()>
 42fb945:	e8 46 3a 77 ff       	call   3a6f390 <std::unique_lock<std::mutex>::unlock()>
 42ff744:	e9 77 32 a2 03       	jmp    7d229c0 <pthread_mutex_unlock@plt>
 42ff876:	e9 45 31 a2 03       	jmp    7d229c0 <pthread_mutex_unlock@plt>
 42ffa5e:	e8 5d 2f a2 03       	call   7d229c0 <pthread_mutex_unlock@plt>
 42ffeb6:	e8 05 2b a2 03       	call   7d229c0 <pthread_mutex_unlock@plt>
 430054c:	e9 6f 24 a2 03       	jmp    7d229c0 <pthread_mutex_unlock@plt>
 43007b4:	e8 07 22 a2 03       	call   7d229c0 <pthread_mutex_unlock@plt>
 4300c6a:	e8 51 1d a2 03       	call   7d229c0 <pthread_mutex_unlock@plt>
 4302f6a:	e8 51 fa a1 03       	call   7d229c0 <pthread_mutex_unlock@plt>
 43041f9:	e8 c2 e7 a1 03       	call   7d229c0 <pthread_mutex_unlock@plt>
 430cf38:	e8 83 5a a1 03       	call   7d229c0 <pthread_mutex_unlock@plt>
 431df92:	e8 29 4a a0 03       	call   7d229c0 <pthread_mutex_unlock@plt>
 4327634:	e9 87 b3 9f 03       	jmp    7d229c0 <pthread_mutex_unlock@plt>
 432810d:	e8 ae a8 9f 03       	call   7d229c0 <pthread_mutex_unlock@plt>
 4339121:	e8 9a 98 9e 03       	call   7d229c0 <pthread_mutex_unlock@plt>
 433f171:	e8 4a 38 9e 03       	call   7d229c0 <pthread_mutex_unlock@plt>
 43419da:	e8 e1 0f 9e 03       	call   7d229c0 <pthread_mutex_unlock@plt>
 4356534:	e8 57 8e 71 ff       	call   3a6f390 <std::unique_lock<std::mutex>::unlock()>
 4356589:	e8 02 8e 71 ff       	call   3a6f390 <std::unique_lock<std::mutex>::unlock()>
 43566b3:	e8 d8 8c 71 ff       	call   3a6f390 <std::unique_lock<std::mutex>::unlock()>
 435df2d:	e8 4e 6d e2 02       	call   7184c80 <mongo::Lock::GlobalLock::_unlock()>
 435df7f:	e8 3c 72 e2 02       	call   71851c0 <mongo::Lock::ResourceLock::_unlock()>
 435e077:	e8 44 71 e2 02       	call   71851c0 <mongo::Lock::ResourceLock::_unlock()>
 437345a:	e8 61 f5 9a 03       	call   7d229c0 <pthread_mutex_unlock@plt>
 437cb7a:	e8 41 5e 9a 03       	call   7d229c0 <pthread_mutex_unlock@plt>
 437d4f5:	e9 c6 54 9a 03       	jmp    7d229c0 <pthread_mutex_unlock@plt>
 437d828:	e9 93 51 9a 03       	jmp    7d229c0 <pthread_mutex_unlock@plt>
 437d845:	e8 76 51 9a 03       	call   7d229c0 <pthread_mutex_unlock@plt>
 437da46:	e8 75 4f 9a 03       	call   7d229c0 <pthread_mutex_unlock@plt>
 437dbc8:	e9 f3 4d 9a 03       	jmp    7d229c0 <pthread_mutex_unlock@plt>
 437e9ad:	e8 0e 40 9a 03       	call   7d229c0 <pthread_mutex_unlock@plt>
 437fd3d:	e9 7e 2c 9a 03       	jmp    7d229c0 <pthread_mutex_unlock@plt>
 4380711:	e8 aa 22 9a 03       	call   7d229c0 <pthread_mutex_unlock@plt>
 438332e:	e8 8d f6 99 03       	call   7d229c0 <pthread_mutex_unlock@plt>
 438827d:	e8 3e a7 99 03       	call   7d229c0 <pthread_mutex_unlock@plt>
 438a991:	e8 2a 80 99 03       	call   7d229c0 <pthread_mutex_unlock@plt>
 438b195:	e8 26 78 99 03       	call   7d229c0 <pthread_mutex_unlock@plt>
 438b2d0:	e9 eb 76 99 03       	jmp    7d229c0 <pthread_mutex_unlock@plt>
 438d565:	e8 16 77 df 02       	call   7184c80 <mongo::Lock::GlobalLock::_unlock()>
 438d5b3:	e8 08 7c df 02       	call   71851c0 <mongo::Lock::ResourceLock::_unlock()>
 438d5c7:	e8 f4 7b df 02       	call   71851c0 <mongo::Lock::ResourceLock::_unlock()>
 438d6dc:	e8 df 52 99 03       	call   7d229c0 <pthread_mutex_unlock@plt>
 438df7f:	e8 3c 4a 99 03       	call   7d229c0 <pthread_mutex_unlock@plt>
 438e150:	e9 6b 48 99 03       	jmp    7d229c0 <pthread_mutex_unlock@plt>
 438e415:	e8 66 68 df 02       	call   7184c80 <mongo::Lock::GlobalLock::_unlock()>
 438e463:	e8 58 6d df 02       	call   71851c0 <mongo::Lock::ResourceLock::_unlock()>
 438e477:	e8 44 6d df 02       	call   71851c0 <mongo::Lock::ResourceLock::_unlock()>
 438ea65:	e8 16 62 df 02       	call   7184c80 <mongo::Lock::GlobalLock::_unlock()>
 438eab3:	e8 08 67 df 02       	call   71851c0 <mongo::Lock::ResourceLock::_unlock()>
 438eadf:	e8 dc 66 df 02       	call   71851c0 <mongo::Lock::ResourceLock::_unlock()>
 4391a40:	e8 7b 0f 99 03       	call   7d229c0 <pthread_mutex_unlock@plt>
 4391bd3:	e8 e8 0d 99 03       	call   7d229c0 <pthread_mutex_unlock@plt>
 4391ecc:	e8 ef 0a 99 03       	call   7d229c0 <pthread_mutex_unlock@plt>
 4393a89:	e8 32 ef 98 03       	call   7d229c0 <pthread_mutex_unlock@plt>
 4393acb:	e8 f0 ee 98 03       	call   7d229c0 <pthread_mutex_unlock@plt>
 439409f:	e8 1c e9 98 03       	call   7d229c0 <pthread_mutex_unlock@plt>
 439439a:	e8 21 e6 98 03       	call   7d229c0 <pthread_mutex_unlock@plt>
 43943e5:	e8 d6 e5 98 03       	call   7d229c0 <pthread_mutex_unlock@plt>
 439ee3a:	e8 81 3b 98 03       	call   7d229c0 <pthread_mutex_unlock@plt>
 43d709d:	e8 1e b9 94 03       	call   7d229c0 <pthread_mutex_unlock@plt>
 43d7606:	e8 b5 b3 94 03       	call   7d229c0 <pthread_mutex_unlock@plt>
 43d78ea:	e9 d1 b0 94 03       	jmp    7d229c0 <pthread_mutex_unlock@plt>
 43dd035:	e8 86 59 94 03       	call   7d229c0 <pthread_mutex_unlock@plt>
 43de454:	e8 67 45 94 03       	call   7d229c0 <pthread_mutex_unlock@plt>
 43e1abf:	e8 bc 31 da 02       	call   7184c80 <mongo::Lock::GlobalLock::_unlock()>
 43e1b0e:	e8 ad 36 da 02       	call   71851c0 <mongo::Lock::ResourceLock::_unlock()>
 43e1b27:	e8 94 36 da 02       	call   71851c0 <mongo::Lock::ResourceLock::_unlock()>
 43e57a2:	e9 19 d2 93 03       	jmp    7d229c0 <pthread_mutex_unlock@plt>
 43e5b3a:	e8 81 ce 93 03       	call   7d229c0 <pthread_mutex_unlock@plt>
 43e69b5:	e9 06 c0 93 03       	jmp    7d229c0 <pthread_mutex_unlock@plt>
 43e6e93:	e8 28 bb 93 03       	call   7d229c0 <pthread_mutex_unlock@plt>
 43e6fe8:	e9 d3 b9 93 03       	jmp    7d229c0 <pthread_mutex_unlock@plt>
 43e70df:	e9 dc b8 93 03       	jmp    7d229c0 <pthread_mutex_unlock@plt>
 43e70fd:	e8 be b8 93 03       	call   7d229c0 <pthread_mutex_unlock@plt>
 43e7fdd:	e8 de a9 93 03       	call   7d229c0 <pthread_mutex_unlock@plt>
 43e978a:	e9 31 92 93 03       	jmp    7d229c0 <pthread_mutex_unlock@plt>
 43eae21:	e8 9a 7b 93 03       	call   7d229c0 <pthread_mutex_unlock@plt>
 43f086b:	e8 50 21 93 03       	call   7d229c0 <pthread_mutex_unlock@plt>
 43f159f:	e8 1c 14 93 03       	call   7d229c0 <pthread_mutex_unlock@plt>
 43fe395:	e8 e6 68 d8 02       	call   7184c80 <mongo::Lock::GlobalLock::_unlock()>
 43fe3e3:	e8 d8 6d d8 02       	call   71851c0 <mongo::Lock::ResourceLock::_unlock()>
 43fe3f7:	e8 c4 6d d8 02       	call   71851c0 <mongo::Lock::ResourceLock::_unlock()>
 43fef70:	e8 4b 3a 92 03       	call   7d229c0 <pthread_mutex_unlock@plt>
 43ff239:	e8 82 37 92 03       	call   7d229c0 <pthread_mutex_unlock@plt>
 43ff2db:	e8 e0 36 92 03       	call   7d229c0 <pthread_mutex_unlock@plt>
 43ff575:	e8 46 34 92 03       	call   7d229c0 <pthread_mutex_unlock@plt>
 43ff840:	e8 7b 31 92 03       	call   7d229c0 <pthread_mutex_unlock@plt>
 4408144:	e8 47 72 66 ff       	call   3a6f390 <std::unique_lock<std::mutex>::unlock()>
 4408199:	e8 f2 71 66 ff       	call   3a6f390 <std::unique_lock<std::mutex>::unlock()>
 4408326:	e8 65 70 66 ff       	call   3a6f390 <std::unique_lock<std::mutex>::unlock()>
 442509d:	e8 de fb d5 02       	call   7184c80 <mongo::Lock::GlobalLock::_unlock()>
 44250eb:	e8 d0 00 d6 02       	call   71851c0 <mongo::Lock::ResourceLock::_unlock()>
 4425127:	e8 94 00 d6 02       	call   71851c0 <mongo::Lock::ResourceLock::_unlock()>
 442b0f7:	e8 c4 78 8f 03       	call   7d229c0 <pthread_mutex_unlock@plt>
 442b254:	e9 67 77 8f 03       	jmp    7d229c0 <pthread_mutex_unlock@plt>
 442b2e6:	e8 d5 76 8f 03       	call   7d229c0 <pthread_mutex_unlock@plt>
 442b39a:	e8 21 76 8f 03       	call   7d229c0 <pthread_mutex_unlock@plt>
 442d419:	e8 a2 55 8f 03       	call   7d229c0 <pthread_mutex_unlock@plt>
 442d918:	e8 a3 50 8f 03       	call   7d229c0 <pthread_mutex_unlock@plt>
 442d985:	e8 36 50 8f 03       	call   7d229c0 <pthread_mutex_unlock@plt>
 442e590:	e8 2b 44 8f 03       	call   7d229c0 <pthread_mutex_unlock@plt>
 442eb73:	e8 48 3e 8f 03       	call   7d229c0 <pthread_mutex_unlock@plt>
 442ecc7:	e8 f4 3c 8f 03       	call   7d229c0 <pthread_mutex_unlock@plt>
 442f57c:	e9 3f 34 8f 03       	jmp    7d229c0 <pthread_mutex_unlock@plt>
 442f8d4:	e8 e7 30 8f 03       	call   7d229c0 <pthread_mutex_unlock@plt>
 4430d81:	e8 3a 1c 8f 03       	call   7d229c0 <pthread_mutex_unlock@plt>
 4430ff1:	e8 ca 19 8f 03       	call   7d229c0 <pthread_mutex_unlock@plt>
 44312be:	e8 fd 16 8f 03       	call   7d229c0 <pthread_mutex_unlock@plt>
 4432563:	e8 58 04 8f 03       	call   7d229c0 <pthread_mutex_unlock@plt>
 44326d3:	e8 e8 02 8f 03       	call   7d229c0 <pthread_mutex_unlock@plt>
 4432799:	e8 22 02 8f 03       	call   7d229c0 <pthread_mutex_unlock@plt>
 4432812:	e8 a9 01 8f 03       	call   7d229c0 <pthread_mutex_unlock@plt>
 4432f83:	e9 38 fa 8e 03       	jmp    7d229c0 <pthread_mutex_unlock@plt>
 4433013:	e8 a8 f9 8e 03       	call   7d229c0 <pthread_mutex_unlock@plt>
 4433277:	e9 44 f7 8e 03       	jmp    7d229c0 <pthread_mutex_unlock@plt>
 4433307:	e9 b4 f6 8e 03       	jmp    7d229c0 <pthread_mutex_unlock@plt>
 44343dc:	e8 df e5 8e 03       	call   7d229c0 <pthread_mutex_unlock@plt>
 443441a:	e8 a1 e5 8e 03       	call   7d229c0 <pthread_mutex_unlock@plt>
 4437a7a:	e8 41 af 8e 03       	call   7d229c0 <pthread_mutex_unlock@plt>
 4438105:	e8 b6 a8 8e 03       	call   7d229c0 <pthread_mutex_unlock@plt>
 44381d9:	e8 e2 a7 8e 03       	call   7d229c0 <pthread_mutex_unlock@plt>
 443835b:	e8 30 70 63 ff       	call   3a6f390 <std::unique_lock<std::mutex>::unlock()>
 44383f7:	e8 94 6f 63 ff       	call   3a6f390 <std::unique_lock<std::mutex>::unlock()>
 4438453:	e8 38 6f 63 ff       	call   3a6f390 <std::unique_lock<std::mutex>::unlock()>
 4438e58:	e8 33 65 63 ff       	call   3a6f390 <std::unique_lock<std::mutex>::unlock()>
 443b462:	e8 19 98 d4 02       	call   7184c80 <mongo::Lock::GlobalLock::_unlock()>
 443b4b4:	e8 07 9d d4 02       	call   71851c0 <mongo::Lock::ResourceLock::_unlock()>
 443b667:	e8 54 9b d4 02       	call   71851c0 <mongo::Lock::ResourceLock::_unlock()>
 443bbe4:	e8 d7 6d 8e 03       	call   7d229c0 <pthread_mutex_unlock@plt>
 443bc18:	e8 a3 6d 8e 03       	call   7d229c0 <pthread_mutex_unlock@plt>
 443bc46:	e8 75 6d 8e 03       	call   7d229c0 <pthread_mutex_unlock@plt>
 443bc5a:	e8 61 6d 8e 03       	call   7d229c0 <pthread_mutex_unlock@plt>
 443bcd0:	e8 eb 6c 8e 03       	call   7d229c0 <pthread_mutex_unlock@plt>
 443c7e3:	e8 a8 2b 63 ff       	call   3a6f390 <std::unique_lock<std::mutex>::unlock()>
 443c7f6:	e8 c5 61 8e 03       	call   7d229c0 <pthread_mutex_unlock@plt>
 443c889:	e8 02 2b 63 ff       	call   3a6f390 <std::unique_lock<std::mutex>::unlock()>
 443d364:	e8 57 56 8e 03       	call   7d229c0 <pthread_mutex_unlock@plt>
 443d37a:	e9 41 56 8e 03       	jmp    7d229c0 <pthread_mutex_unlock@plt>
 443d402:	e8 b9 55 8e 03       	call   7d229c0 <pthread_mutex_unlock@plt>
 443eb1a:	e8 a1 3e 8e 03       	call   7d229c0 <pthread_mutex_unlock@plt>
 4440bc0:	e8 fb 1d 8e 03       	call   7d229c0 <pthread_mutex_unlock@plt>
 4442883:	e8 38 29 d4 02       	call   71851c0 <mongo::Lock::ResourceLock::_unlock()>
 4442921:	e8 9a 28 d4 02       	call   71851c0 <mongo::Lock::ResourceLock::_unlock()>
 4442a48:	e8 73 27 d4 02       	call   71851c0 <mongo::Lock::ResourceLock::_unlock()>
 4442ee9:	e8 d2 22 d4 02       	call   71851c0 <mongo::Lock::ResourceLock::_unlock()>
 444531f:	e8 9c fe d3 02       	call   71851c0 <mongo::Lock::ResourceLock::_unlock()>
 44455d2:	e8 e9 fb d3 02       	call   71851c0 <mongo::Lock::ResourceLock::_unlock()>
 4445ee7:	e8 d4 f2 d3 02       	call   71851c0 <mongo::Lock::ResourceLock::_unlock()>
 4445f0f:	e8 ac f2 d3 02       	call   71851c0 <mongo::Lock::ResourceLock::_unlock()>
 4446b4f:	e8 6c e6 d3 02       	call   71851c0 <mongo::Lock::ResourceLock::_unlock()>
 444727f:	e8 3c df d3 02       	call   71851c0 <mongo::Lock::ResourceLock::_unlock()>
 44472a7:	e8 14 df d3 02       	call   71851c0 <mongo::Lock::ResourceLock::_unlock()>
 44472d7:	e8 e4 de d3 02       	call   71851c0 <mongo::Lock::ResourceLock::_unlock()>
 44473b7:	e8 04 de d3 02       	call   71851c0 <mongo::Lock::ResourceLock::_unlock()>
 444766f:	e8 4c db d3 02       	call   71851c0 <mongo::Lock::ResourceLock::_unlock()>
 44478c9:	e8 f2 d8 d3 02       	call   71851c0 <mongo::Lock::ResourceLock::_unlock()>
 4447fef:	e8 9c 73 62 ff       	call   3a6f390 <std::unique_lock<std::mutex>::unlock()>
 44485b4:	e8 07 cc d3 02       	call   71851c0 <mongo::Lock::ResourceLock::_unlock()>
 4448624:	e8 97 cb d3 02       	call   71851c0 <mongo::Lock::ResourceLock::_unlock()>
 4448659:	e8 62 cb d3 02       	call   71851c0 <mongo::Lock::ResourceLock::_unlock()>
 44486f8:	e8 c3 ca d3 02       	call   71851c0 <mongo::Lock::ResourceLock::_unlock()>
 444880f:	e8 ac c9 d3 02       	call   71851c0 <mongo::Lock::ResourceLock::_unlock()>
 4449093:	e8 28 c1 d3 02       	call   71851c0 <mongo::Lock::ResourceLock::_unlock()>
 44492cd:	e8 ee be d3 02       	call   71851c0 <mongo::Lock::ResourceLock::_unlock()>
 445da4e:	e9 6d 4f 8c 03       	jmp    7d229c0 <pthread_mutex_unlock@plt>
 445db06:	e9 b5 4e 8c 03       	jmp    7d229c0 <pthread_mutex_unlock@plt>
 445db6d:	e9 4e 4e 8c 03       	jmp    7d229c0 <pthread_mutex_unlock@plt>
 445dbde:	e9 dd 4d 8c 03       	jmp    7d229c0 <pthread_mutex_unlock@plt>
 445dc5e:	e9 5d 4d 8c 03       	jmp    7d229c0 <pthread_mutex_unlock@plt>
 445dc9a:	e8 21 4d 8c 03       	call   7d229c0 <pthread_mutex_unlock@plt>
 445e520:	e9 9b 44 8c 03       	jmp    7d229c0 <pthread_mutex_unlock@plt>
 445e5a7:	e8 14 44 8c 03       	call   7d229c0 <pthread_mutex_unlock@plt>
 445f2b4:	e8 07 37 8c 03       	call   7d229c0 <pthread_mutex_unlock@plt>
 445ff50:	e9 6b 2a 8c 03       	jmp    7d229c0 <pthread_mutex_unlock@plt>
 445ffd7:	e8 e4 29 8c 03       	call   7d229c0 <pthread_mutex_unlock@plt>
 4460771:	e8 1a ec 60 ff       	call   3a6f390 <std::unique_lock<std::mutex>::unlock()>
 44618ac:	e8 0f 11 8c 03       	call   7d229c0 <pthread_mutex_unlock@plt>
 44629f3:	e8 98 c9 60 ff       	call   3a6f390 <std::unique_lock<std::mutex>::unlock()>
 4462a23:	e8 68 c9 60 ff       	call   3a6f390 <std::unique_lock<std::mutex>::unlock()>
 4462d41:	e8 4a c6 60 ff       	call   3a6f390 <std::unique_lock<std::mutex>::unlock()>
 44637d1:	e8 ba bb 60 ff       	call   3a6f390 <std::unique_lock<std::mutex>::unlock()>
 4464b1f:	e8 6c a8 60 ff       	call   3a6f390 <std::unique_lock<std::mutex>::unlock()>
 44658c0:	e8 cb 9a 60 ff       	call   3a6f390 <std::unique_lock<std::mutex>::unlock()>
 44658f3:	e8 98 9a 60 ff       	call   3a6f390 <std::unique_lock<std::mutex>::unlock()>
 4466069:	e8 22 93 60 ff       	call   3a6f390 <std::unique_lock<std::mutex>::unlock()>
 44685f3:	e8 c8 a3 8b 03       	call   7d229c0 <pthread_mutex_unlock@plt>
 44695a7:	e8 14 94 8b 03       	call   7d229c0 <pthread_mutex_unlock@plt>
 44695e0:	e8 db 93 8b 03       	call   7d229c0 <pthread_mutex_unlock@plt>
 4469625:	e9 96 93 8b 03       	jmp    7d229c0 <pthread_mutex_unlock@plt>
 4469dd7:	e8 e4 8b 8b 03       	call   7d229c0 <pthread_mutex_unlock@plt>
 4469e26:	e8 95 8b 8b 03       	call   7d229c0 <pthread_mutex_unlock@plt>
 446a307:	e8 b4 86 8b 03       	call   7d229c0 <pthread_mutex_unlock@plt>
 446a5e8:	e8 d3 83 8b 03       	call   7d229c0 <pthread_mutex_unlock@plt>
 446a63e:	e8 7d 83 8b 03       	call   7d229c0 <pthread_mutex_unlock@plt>
 446ab31:	e8 8a 7e 8b 03       	call   7d229c0 <pthread_mutex_unlock@plt>
 446b09d:	e8 de 9b d1 02       	call   7184c80 <mongo::Lock::GlobalLock::_unlock()>
 446b0eb:	e8 d0 a0 d1 02       	call   71851c0 <mongo::Lock::ResourceLock::_unlock()>
 446b0ff:	e8 bc a0 d1 02       	call   71851c0 <mongo::Lock::ResourceLock::_unlock()>
 446b37e:	e9 3d 76 8b 03       	jmp    7d229c0 <pthread_mutex_unlock@plt>
 446b38b:	e8 30 76 8b 03       	call   7d229c0 <pthread_mutex_unlock@plt>
 446b676:	e8 45 73 8b 03       	call   7d229c0 <pthread_mutex_unlock@plt>
 446bd6d:	e8 4e 6c 8b 03       	call   7d229c0 <pthread_mutex_unlock@plt>
 446c2b9:	e8 02 67 8b 03       	call   7d229c0 <pthread_mutex_unlock@plt>
 446c8ac:	e8 0f 61 8b 03       	call   7d229c0 <pthread_mutex_unlock@plt>
 446cb32:	e9 89 5e 8b 03       	jmp    7d229c0 <pthread_mutex_unlock@plt>
 446cb86:	e8 35 5e 8b 03       	call   7d229c0 <pthread_mutex_unlock@plt>
 446d31c:	e8 9f 56 8b 03       	call   7d229c0 <pthread_mutex_unlock@plt>
 446d678:	e8 43 53 8b 03       	call   7d229c0 <pthread_mutex_unlock@plt>
 446d68c:	e8 2f 53 8b 03       	call   7d229c0 <pthread_mutex_unlock@plt>
 446d6d0:	e8 eb 52 8b 03       	call   7d229c0 <pthread_mutex_unlock@plt>
 446d6fc:	e8 bf 52 8b 03       	call   7d229c0 <pthread_mutex_unlock@plt>
 446df78:	e8 13 14 60 ff       	call   3a6f390 <std::unique_lock<std::mutex>::unlock()>
 446e729:	e8 62 0c 60 ff       	call   3a6f390 <std::unique_lock<std::mutex>::unlock()>
 446ea6d:	e8 1e 09 60 ff       	call   3a6f390 <std::unique_lock<std::mutex>::unlock()>
 446effd:	e8 8e 03 60 ff       	call   3a6f390 <std::unique_lock<std::mutex>::unlock()>
 446f27c:	e8 0f 01 60 ff       	call   3a6f390 <std::unique_lock<std::mutex>::unlock()>
 446f7e7:	e8 a4 fb 5f ff       	call   3a6f390 <std::unique_lock<std::mutex>::unlock()>
 446fc74:	e8 47 2d 8b 03       	call   7d229c0 <pthread_mutex_unlock@plt>
 446fe75:	e8 46 2b 8b 03       	call   7d229c0 <pthread_mutex_unlock@plt>
 44703b2:	e8 09 26 8b 03       	call   7d229c0 <pthread_mutex_unlock@plt>
 44708eb:	e8 d0 20 8b 03       	call   7d229c0 <pthread_mutex_unlock@plt>
 4470d48:	e8 73 1c 8b 03       	call   7d229c0 <pthread_mutex_unlock@plt>
 4470e29:	e8 92 1b 8b 03       	call   7d229c0 <pthread_mutex_unlock@plt>
 4470f1e:	e8 9d 1a 8b 03       	call   7d229c0 <pthread_mutex_unlock@plt>
 447f814:	e8 a7 59 d0 02       	call   71851c0 <mongo::Lock::ResourceLock::_unlock()>
 4480253:	e8 68 4f d0 02       	call   71851c0 <mongo::Lock::ResourceLock::_unlock()>
 4480cd3:	e8 e8 44 d0 02       	call   71851c0 <mongo::Lock::ResourceLock::_unlock()>
 4481063:	e8 58 41 d0 02       	call   71851c0 <mongo::Lock::ResourceLock::_unlock()>
 44813f3:	e8 c8 3d d0 02       	call   71851c0 <mongo::Lock::ResourceLock::_unlock()>
 4482477:	e8 44 2d d0 02       	call   71851c0 <mongo::Lock::ResourceLock::_unlock()>
 44826fc:	e8 bf 2a d0 02       	call   71851c0 <mongo::Lock::ResourceLock::_unlock()>
 4482916:	e8 a5 28 d0 02       	call   71851c0 <mongo::Lock::ResourceLock::_unlock()>
 4482976:	e8 45 28 d0 02       	call   71851c0 <mongo::Lock::ResourceLock::_unlock()>
 4482a10:	e8 ab 27 d0 02       	call   71851c0 <mongo::Lock::ResourceLock::_unlock()>
 448439a:	e8 21 e6 89 03       	call   7d229c0 <pthread_mutex_unlock@plt>
 44860fc:	e8 bf c8 89 03       	call   7d229c0 <pthread_mutex_unlock@plt>
 4486264:	e9 57 c7 89 03       	jmp    7d229c0 <pthread_mutex_unlock@plt>
 4486787:	e8 04 8c 5e ff       	call   3a6f390 <std::unique_lock<std::mutex>::unlock()>
 4489972:	e8 49 90 89 03       	call   7d229c0 <pthread_mutex_unlock@plt>
 4489a08:	e8 b3 8f 89 03       	call   7d229c0 <pthread_mutex_unlock@plt>
 448a14a:	e8 71 88 89 03       	call   7d229c0 <pthread_mutex_unlock@plt>
 448a603:	e9 b8 83 89 03       	jmp    7d229c0 <pthread_mutex_unlock@plt>
 448a613:	e8 a8 83 89 03       	call   7d229c0 <pthread_mutex_unlock@plt>
 448ace4:	e9 d7 7c 89 03       	jmp    7d229c0 <pthread_mutex_unlock@plt>
 448b6a5:	e8 e6 3c 5e ff       	call   3a6f390 <std::unique_lock<std::mutex>::unlock()>
 448b8ef:	e8 9c 3a 5e ff       	call   3a6f390 <std::unique_lock<std::mutex>::unlock()>
 448ca06:	e8 b5 5f 89 03       	call   7d229c0 <pthread_mutex_unlock@plt>
 448cbd6:	e8 e5 5d 89 03       	call   7d229c0 <pthread_mutex_unlock@plt>
 448cdf2:	e8 c9 5b 89 03       	call   7d229c0 <pthread_mutex_unlock@plt>
 4490969:	e8 52 48 cf 02       	call   71851c0 <mongo::Lock::ResourceLock::_unlock()>
 4491037:	e8 84 41 cf 02       	call   71851c0 <mongo::Lock::ResourceLock::_unlock()>
 449696c:	e8 4f e8 ce 02       	call   71851c0 <mongo::Lock::ResourceLock::_unlock()>
 4496a96:	e8 25 e7 ce 02       	call   71851c0 <mongo::Lock::ResourceLock::_unlock()>
 44bbe0f:	e8 ac 6b 86 03       	call   7d229c0 <pthread_mutex_unlock@plt>
 44bc597:	e8 24 64 86 03       	call   7d229c0 <pthread_mutex_unlock@plt>
 44bcd35:	e8 86 5c 86 03       	call   7d229c0 <pthread_mutex_unlock@plt>
 44bddd0:	e8 eb 4b 86 03       	call   7d229c0 <pthread_mutex_unlock@plt>
 44be262:	e8 59 47 86 03       	call   7d229c0 <pthread_mutex_unlock@plt>
 44be318:	e8 a3 46 86 03       	call   7d229c0 <pthread_mutex_unlock@plt>
 44be583:	e8 38 44 86 03       	call   7d229c0 <pthread_mutex_unlock@plt>
 44bead0:	e9 eb 3e 86 03       	jmp    7d229c0 <pthread_mutex_unlock@plt>
 44c06f7:	e9 c4 22 86 03       	jmp    7d229c0 <pthread_mutex_unlock@plt>
 44c2682:	e8 39 03 86 03       	call   7d229c0 <pthread_mutex_unlock@plt>
 44c279b:	e8 f0 cb 5a ff       	call   3a6f390 <std::unique_lock<std::mutex>::unlock()>
 44c2974:	e8 47 00 86 03       	call   7d229c0 <pthread_mutex_unlock@plt>
 44c2bc7:	e8 c4 c7 5a ff       	call   3a6f390 <std::unique_lock<std::mutex>::unlock()>
 44c2c53:	e8 68 fd 85 03       	call   7d229c0 <pthread_mutex_unlock@plt>
 44c2ced:	e8 ce fc 85 03       	call   7d229c0 <pthread_mutex_unlock@plt>
 44c2e31:	e8 5a c5 5a ff       	call   3a6f390 <std::unique_lock<std::mutex>::unlock()>
 44c2e58:	e8 33 c5 5a ff       	call   3a6f390 <std::unique_lock<std::mutex>::unlock()>
 44c3fdb:	e8 e0 e9 85 03       	call   7d229c0 <pthread_mutex_unlock@plt>
 44c4063:	e8 28 b3 5a ff       	call   3a6f390 <std::unique_lock<std::mutex>::unlock()>
 44c870a:	e8 b1 a2 85 03       	call   7d229c0 <pthread_mutex_unlock@plt>
 44c88ba:	e8 01 a1 85 03       	call   7d229c0 <pthread_mutex_unlock@plt>
 44c8afc:	e9 bf 9e 85 03       	jmp    7d229c0 <pthread_mutex_unlock@plt>
 44c8b84:	e8 37 9e 85 03       	call   7d229c0 <pthread_mutex_unlock@plt>
 44c8b93:	e8 28 9e 85 03       	call   7d229c0 <pthread_mutex_unlock@plt>
 44c8bba:	e8 01 9e 85 03       	call   7d229c0 <pthread_mutex_unlock@plt>
 44c8c70:	e9 4b 9d 85 03       	jmp    7d229c0 <pthread_mutex_unlock@plt>
 44c8ced:	e8 ce 9c 85 03       	call   7d229c0 <pthread_mutex_unlock@plt>
 44c8d83:	e8 38 9c 85 03       	call   7d229c0 <pthread_mutex_unlock@plt>
 44c8dc5:	e9 f6 9b 85 03       	jmp    7d229c0 <pthread_mutex_unlock@plt>
 44c9467:	e8 54 95 85 03       	call   7d229c0 <pthread_mutex_unlock@plt>
 44c95d7:	e8 e4 93 85 03       	call   7d229c0 <pthread_mutex_unlock@plt>
 44c9651:	e8 6a 93 85 03       	call   7d229c0 <pthread_mutex_unlock@plt>
 44c96e4:	e8 d7 92 85 03       	call   7d229c0 <pthread_mutex_unlock@plt>
 44c997e:	e8 3d 90 85 03       	call   7d229c0 <pthread_mutex_unlock@plt>
 44c9a05:	e8 b6 8f 85 03       	call   7d229c0 <pthread_mutex_unlock@plt>
 44c9b2e:	e8 8d 8e 85 03       	call   7d229c0 <pthread_mutex_unlock@plt>
 44c9b45:	e8 76 8e 85 03       	call   7d229c0 <pthread_mutex_unlock@plt>
 44c9c8a:	e8 31 8d 85 03       	call   7d229c0 <pthread_mutex_unlock@plt>
 44ca111:	e8 aa 88 85 03       	call   7d229c0 <pthread_mutex_unlock@plt>
 44ca279:	e8 42 87 85 03       	call   7d229c0 <pthread_mutex_unlock@plt>
 44ca2b2:	e8 09 87 85 03       	call   7d229c0 <pthread_mutex_unlock@plt>
 44ca3bb:	e8 00 86 85 03       	call   7d229c0 <pthread_mutex_unlock@plt>
 44ca4c3:	e8 f8 84 85 03       	call   7d229c0 <pthread_mutex_unlock@plt>
 44ca69b:	e8 20 83 85 03       	call   7d229c0 <pthread_mutex_unlock@plt>
 44ca752:	e8 69 82 85 03       	call   7d229c0 <pthread_mutex_unlock@plt>
 44ca8bc:	e8 ff 80 85 03       	call   7d229c0 <pthread_mutex_unlock@plt>
 44ca8e9:	e8 d2 80 85 03       	call   7d229c0 <pthread_mutex_unlock@plt>
 44ca91f:	e8 6c 4a 5a ff       	call   3a6f390 <std::unique_lock<std::mutex>::unlock()>
 44caa01:	e8 8a 49 5a ff       	call   3a6f390 <std::unique_lock<std::mutex>::unlock()>
 44cab33:	e8 88 7e 85 03       	call   7d229c0 <pthread_mutex_unlock@plt>
 44d1f9a:	e8 21 0a 85 03       	call   7d229c0 <pthread_mutex_unlock@plt>
 44d2e5f:	e8 5c fb 84 03       	call   7d229c0 <pthread_mutex_unlock@plt>
 44d3293:	e8 f8 c0 59 ff       	call   3a6f390 <std::unique_lock<std::mutex>::unlock()>
 44d38d4:	e9 e7 f0 84 03       	jmp    7d229c0 <pthread_mutex_unlock@plt>
 44d3b96:	e8 f5 b7 59 ff       	call   3a6f390 <std::unique_lock<std::mutex>::unlock()>
 44d3c4b:	e8 40 b7 59 ff       	call   3a6f390 <std::unique_lock<std::mutex>::unlock()>
 44d4103:	e8 88 b2 59 ff       	call   3a6f390 <std::unique_lock<std::mutex>::unlock()>
 44d43d2:	e8 e9 e5 84 03       	call   7d229c0 <pthread_mutex_unlock@plt>
 44d442e:	e8 8d e5 84 03       	call   7d229c0 <pthread_mutex_unlock@plt>
 44d4553:	e8 68 e4 84 03       	call   7d229c0 <pthread_mutex_unlock@plt>
 44d4831:	e8 5a ab 59 ff       	call   3a6f390 <std::unique_lock<std::mutex>::unlock()>
 44d4d35:	e9 86 dc 84 03       	jmp    7d229c0 <pthread_mutex_unlock@plt>
 44d5146:	e9 75 d8 84 03       	jmp    7d229c0 <pthread_mutex_unlock@plt>
 44d56f3:	e8 98 9c 59 ff       	call   3a6f390 <std::unique_lock<std::mutex>::unlock()>
 44d5e67:	e8 24 95 59 ff       	call   3a6f390 <std::unique_lock<std::mutex>::unlock()>
 44d615c:	e8 5f c8 84 03       	call   7d229c0 <pthread_mutex_unlock@plt>
 44d6218:	e8 73 91 59 ff       	call   3a6f390 <std::unique_lock<std::mutex>::unlock()>
 44d6256:	e8 65 c7 84 03       	call   7d229c0 <pthread_mutex_unlock@plt>
 44d62cd:	e8 be 90 59 ff       	call   3a6f390 <std::unique_lock<std::mutex>::unlock()>
 44d631c:	e8 6f 90 59 ff       	call   3a6f390 <std::unique_lock<std::mutex>::unlock()>
 44d63ae:	e8 dd 8f 59 ff       	call   3a6f390 <std::unique_lock<std::mutex>::unlock()>
 44d63d3:	e8 b8 8f 59 ff       	call   3a6f390 <std::unique_lock<std::mutex>::unlock()>
 44d65e2:	e8 d9 c3 84 03       	call   7d229c0 <pthread_mutex_unlock@plt>
 44d66ac:	e8 df 8c 59 ff       	call   3a6f390 <std::unique_lock<std::mutex>::unlock()>
 44d6918:	e8 a3 c0 84 03       	call   7d229c0 <pthread_mutex_unlock@plt>
 44d6a1a:	e8 a1 bf 84 03       	call   7d229c0 <pthread_mutex_unlock@plt>
 44d6a57:	e8 34 89 59 ff       	call   3a6f390 <std::unique_lock<std::mutex>::unlock()>
 44d6a75:	e8 16 89 59 ff       	call   3a6f390 <std::unique_lock<std::mutex>::unlock()>
 44d6b11:	e8 aa be 84 03       	call   7d229c0 <pthread_mutex_unlock@plt>
 44d8024:	e8 67 73 59 ff       	call   3a6f390 <std::unique_lock<std::mutex>::unlock()>
 44d806c:	e8 1f 73 59 ff       	call   3a6f390 <std::unique_lock<std::mutex>::unlock()>
 44d8125:	e8 66 72 59 ff       	call   3a6f390 <std::unique_lock<std::mutex>::unlock()>
 44e014a:	e8 71 28 84 03       	call   7d229c0 <pthread_mutex_unlock@plt>
 44e03cf:	e9 ec 25 84 03       	jmp    7d229c0 <pthread_mutex_unlock@plt>
 44e0453:	e8 68 25 84 03       	call   7d229c0 <pthread_mutex_unlock@plt>
 44e0811:	e9 aa 21 84 03       	jmp    7d229c0 <pthread_mutex_unlock@plt>
 44e0aca:	e8 c1 e8 58 ff       	call   3a6f390 <std::unique_lock<std::mutex>::unlock()>
 44e0bbe:	e8 cd e7 58 ff       	call   3a6f390 <std::unique_lock<std::mutex>::unlock()>
 44e0c13:	e8 78 e7 58 ff       	call   3a6f390 <std::unique_lock<std::mutex>::unlock()>
 44e0e07:	e8 84 e5 58 ff       	call   3a6f390 <std::unique_lock<std::mutex>::unlock()>
 44e1147:	e8 74 18 84 03       	call   7d229c0 <pthread_mutex_unlock@plt>
 44e124b:	e8 40 e1 58 ff       	call   3a6f390 <std::unique_lock<std::mutex>::unlock()>
 44e1268:	e8 23 e1 58 ff       	call   3a6f390 <std::unique_lock<std::mutex>::unlock()>
 44e1aa2:	e8 19 0f 84 03       	call   7d229c0 <pthread_mutex_unlock@plt>
 44e1b20:	e8 9b 0e 84 03       	call   7d229c0 <pthread_mutex_unlock@plt>
 44e1c45:	e8 76 0d 84 03       	call   7d229c0 <pthread_mutex_unlock@plt>
 44e1fb6:	e8 d5 d3 58 ff       	call   3a6f390 <std::unique_lock<std::mutex>::unlock()>
 44e2041:	e8 7a 09 84 03       	call   7d229c0 <pthread_mutex_unlock@plt>
 44e20b0:	e8 0b 09 84 03       	call   7d229c0 <pthread_mutex_unlock@plt>
 44e24bd:	e8 fe 04 84 03       	call   7d229c0 <pthread_mutex_unlock@plt>
 44e28b1:	e8 0a 01 84 03       	call   7d229c0 <pthread_mutex_unlock@plt>
 44e2930:	e8 8b 00 84 03       	call   7d229c0 <pthread_mutex_unlock@plt>
 44e2a15:	e8 a6 ff 83 03       	call   7d229c0 <pthread_mutex_unlock@plt>
 44e2b91:	e8 2a fe 83 03       	call   7d229c0 <pthread_mutex_unlock@plt>
 44e2c10:	e8 ab fd 83 03       	call   7d229c0 <pthread_mutex_unlock@plt>
 44e2cf5:	e8 c6 fc 83 03       	call   7d229c0 <pthread_mutex_unlock@plt>
 44e336a:	e8 51 f6 83 03       	call   7d229c0 <pthread_mutex_unlock@plt>
 44e33c3:	e8 c8 bf 58 ff       	call   3a6f390 <std::unique_lock<std::mutex>::unlock()>
 44e37ab:	e8 10 f2 83 03       	call   7d229c0 <pthread_mutex_unlock@plt>
 44e3fdc:	e8 af b3 58 ff       	call   3a6f390 <std::unique_lock<std::mutex>::unlock()>
 44e40c6:	e8 f5 e8 83 03       	call   7d229c0 <pthread_mutex_unlock@plt>
 44e4722:	e8 99 e2 83 03       	call   7d229c0 <pthread_mutex_unlock@plt>
 44e4803:	e8 88 ab 58 ff       	call   3a6f390 <std::unique_lock<std::mutex>::unlock()>
 44e4943:	e8 78 e0 83 03       	call   7d229c0 <pthread_mutex_unlock@plt>
 44e5279:	e8 42 d7 83 03       	call   7d229c0 <pthread_mutex_unlock@plt>
 44e5350:	e8 6b d6 83 03       	call   7d229c0 <pthread_mutex_unlock@plt>
 44e572a:	e8 91 d2 83 03       	call   7d229c0 <pthread_mutex_unlock@plt>
 44e63df:	e8 ac 8f 58 ff       	call   3a6f390 <std::unique_lock<std::mutex>::unlock()>
 44e64c2:	e8 f9 c4 83 03       	call   7d229c0 <pthread_mutex_unlock@plt>
 44e6997:	e8 24 c0 83 03       	call   7d229c0 <pthread_mutex_unlock@plt>
 44e6a53:	e8 38 89 58 ff       	call   3a6f390 <std::unique_lock<std::mutex>::unlock()>
 44e6cdd:	e8 de bc 83 03       	call   7d229c0 <pthread_mutex_unlock@plt>
 44e740d:	e8 7e 7f 58 ff       	call   3a6f390 <std::unique_lock<std::mutex>::unlock()>
 44e74f7:	e8 c4 b4 83 03       	call   7d229c0 <pthread_mutex_unlock@plt>
 44e7c8f:	e8 fc 76 58 ff       	call   3a6f390 <std::unique_lock<std::mutex>::unlock()>
 44e7fcb:	e8 f0 a9 83 03       	call   7d229c0 <pthread_mutex_unlock@plt>
 44e829c:	e8 1f a7 83 03       	call   7d229c0 <pthread_mutex_unlock@plt>
 44e8af9:	e8 c2 9e 83 03       	call   7d229c0 <pthread_mutex_unlock@plt>
 44e8bd3:	e8 e8 9d 83 03       	call   7d229c0 <pthread_mutex_unlock@plt>
 44e901a:	e8 a1 99 83 03       	call   7d229c0 <pthread_mutex_unlock@plt>
 44ea3a5:	e8 16 86 83 03       	call   7d229c0 <pthread_mutex_unlock@plt>
 44ea4d5:	e8 b6 4e 58 ff       	call   3a6f390 <std::unique_lock<std::mutex>::unlock()>
 44ea5a5:	e8 e6 4d 58 ff       	call   3a6f390 <std::unique_lock<std::mutex>::unlock()>
 44ea5c1:	e8 ca 4d 58 ff       	call   3a6f390 <std::unique_lock<std::mutex>::unlock()>
 44ea7bb:	e8 00 82 83 03       	call   7d229c0 <pthread_mutex_unlock@plt>
 44eacdf:	e8 ac 46 58 ff       	call   3a6f390 <std::unique_lock<std::mutex>::unlock()>
 44eaf97:	e8 24 7a 83 03       	call   7d229c0 <pthread_mutex_unlock@plt>
 44eb02f:	e8 8c 79 83 03       	call   7d229c0 <pthread_mutex_unlock@plt>
 44eb042:	e8 79 79 83 03       	call   7d229c0 <pthread_mutex_unlock@plt>
 44eb314:	e8 77 40 58 ff       	call   3a6f390 <std::unique_lock<std::mutex>::unlock()>
 44eb647:	e8 44 3d 58 ff       	call   3a6f390 <std::unique_lock<std::mutex>::unlock()>
 44eb960:	e8 5b 70 83 03       	call   7d229c0 <pthread_mutex_unlock@plt>
 44eba52:	e8 69 6f 83 03       	call   7d229c0 <pthread_mutex_unlock@plt>
 44ebbed:	e8 ce 6d 83 03       	call   7d229c0 <pthread_mutex_unlock@plt>
 44f0e2a:	e8 91 1b 83 03       	call   7d229c0 <pthread_mutex_unlock@plt>
 44f1289:	e8 32 17 83 03       	call   7d229c0 <pthread_mutex_unlock@plt>
 44f18b6:	e9 05 11 83 03       	jmp    7d229c0 <pthread_mutex_unlock@plt>
 44f195f:	e8 5c 10 83 03       	call   7d229c0 <pthread_mutex_unlock@plt>
 44f1977:	e9 44 10 83 03       	jmp    7d229c0 <pthread_mutex_unlock@plt>
 44f1cff:	e8 bc 0c 83 03       	call   7d229c0 <pthread_mutex_unlock@plt>
 44f1dc7:	e8 f4 0b 83 03       	call   7d229c0 <pthread_mutex_unlock@plt>
 44f257b:	e8 40 04 83 03       	call   7d229c0 <pthread_mutex_unlock@plt>
 44f2695:	e8 f6 cc 57 ff       	call   3a6f390 <std::unique_lock<std::mutex>::unlock()>
 44f272f:	e8 5c cc 57 ff       	call   3a6f390 <std::unique_lock<std::mutex>::unlock()>
 44f2804:	e8 b7 01 83 03       	call   7d229c0 <pthread_mutex_unlock@plt>
 44f2b06:	e8 b5 fe 82 03       	call   7d229c0 <pthread_mutex_unlock@plt>
 44f2be8:	e8 d3 fd 82 03       	call   7d229c0 <pthread_mutex_unlock@plt>
 44f2eb7:	e9 04 fb 82 03       	jmp    7d229c0 <pthread_mutex_unlock@plt>
 44f3017:	e8 74 c3 57 ff       	call   3a6f390 <std::unique_lock<std::mutex>::unlock()>
 44f3185:	e8 36 f8 82 03       	call   7d229c0 <pthread_mutex_unlock@plt>
 44f4280:	e8 3b e7 82 03       	call   7d229c0 <pthread_mutex_unlock@plt>
 44f433a:	e8 81 e6 82 03       	call   7d229c0 <pthread_mutex_unlock@plt>
 44f4391:	e8 2a e6 82 03       	call   7d229c0 <pthread_mutex_unlock@plt>
 44f4937:	e8 54 aa 57 ff       	call   3a6f390 <std::unique_lock<std::mutex>::unlock()>
 44f4b6a:	e8 51 de 82 03       	call   7d229c0 <pthread_mutex_unlock@plt>
 44f4c22:	e8 99 dd 82 03       	call   7d229c0 <pthread_mutex_unlock@plt>
 44f4c3a:	e8 81 dd 82 03       	call   7d229c0 <pthread_mutex_unlock@plt>
 44f4f16:	e8 75 a4 57 ff       	call   3a6f390 <std::unique_lock<std::mutex>::unlock()>
 44f4f63:	e8 58 da 82 03       	call   7d229c0 <pthread_mutex_unlock@plt>
 44f505c:	e8 5f d9 82 03       	call   7d229c0 <pthread_mutex_unlock@plt>
 44f50ec:	e8 9f a2 57 ff       	call   3a6f390 <std::unique_lock<std::mutex>::unlock()>
 44f519f:	e8 1c d8 82 03       	call   7d229c0 <pthread_mutex_unlock@plt>
 44f5541:	e8 7a d4 82 03       	call   7d229c0 <pthread_mutex_unlock@plt>
 44f555f:	e8 5c d4 82 03       	call   7d229c0 <pthread_mutex_unlock@plt>
 44f55cd:	e8 ee d3 82 03       	call   7d229c0 <pthread_mutex_unlock@plt>
 44f760a:	e8 b1 b3 82 03       	call   7d229c0 <pthread_mutex_unlock@plt>
 44f8fb6:	e8 d5 63 57 ff       	call   3a6f390 <std::unique_lock<std::mutex>::unlock()>
 44f9013:	e8 78 63 57 ff       	call   3a6f390 <std::unique_lock<std::mutex>::unlock()>
 44f926b:	e8 50 97 82 03       	call   7d229c0 <pthread_mutex_unlock@plt>
 44fa0d6:	e8 e5 88 82 03       	call   7d229c0 <pthread_mutex_unlock@plt>
 44fa1d3:	e8 e8 87 82 03       	call   7d229c0 <pthread_mutex_unlock@plt>
 44fa2a6:	e8 15 87 82 03       	call   7d229c0 <pthread_mutex_unlock@plt>
 44fa3a3:	e8 18 86 82 03       	call   7d229c0 <pthread_mutex_unlock@plt>
 44fa489:	e8 32 85 82 03       	call   7d229c0 <pthread_mutex_unlock@plt>
 44fa669:	e8 52 83 82 03       	call   7d229c0 <pthread_mutex_unlock@plt>
 44fa849:	e8 72 81 82 03       	call   7d229c0 <pthread_mutex_unlock@plt>
 44faa29:	e8 92 7f 82 03       	call   7d229c0 <pthread_mutex_unlock@plt>
 44fac09:	e8 b2 7d 82 03       	call   7d229c0 <pthread_mutex_unlock@plt>
 44fade9:	e8 d2 7b 82 03       	call   7d229c0 <pthread_mutex_unlock@plt>
 44fee1f:	e8 6c 05 57 ff       	call   3a6f390 <std::unique_lock<std::mutex>::unlock()>
 44ff0f8:	e8 c3 38 82 03       	call   7d229c0 <pthread_mutex_unlock@plt>
 44ff1ac:	e8 0f 38 82 03       	call   7d229c0 <pthread_mutex_unlock@plt>
 44ff1ef:	e8 cc 37 82 03       	call   7d229c0 <pthread_mutex_unlock@plt>
 44ff368:	e8 53 36 82 03       	call   7d229c0 <pthread_mutex_unlock@plt>
 44ff41c:	e8 9f 35 82 03       	call   7d229c0 <pthread_mutex_unlock@plt>
 44ff45f:	e8 5c 35 82 03       	call   7d229c0 <pthread_mutex_unlock@plt>
 44ff5d8:	e8 e3 33 82 03       	call   7d229c0 <pthread_mutex_unlock@plt>
 44ff68a:	e8 31 33 82 03       	call   7d229c0 <pthread_mutex_unlock@plt>
 44ff726:	e8 95 32 82 03       	call   7d229c0 <pthread_mutex_unlock@plt>
 44ff8a8:	e8 13 31 82 03       	call   7d229c0 <pthread_mutex_unlock@plt>
 44ff95c:	e8 5f 30 82 03       	call   7d229c0 <pthread_mutex_unlock@plt>
 44ff99f:	e8 1c 30 82 03       	call   7d229c0 <pthread_mutex_unlock@plt>
 44ffb18:	e8 a3 2e 82 03       	call   7d229c0 <pthread_mutex_unlock@plt>
 44ffbcc:	e8 ef 2d 82 03       	call   7d229c0 <pthread_mutex_unlock@plt>
 44ffc0f:	e8 ac 2d 82 03       	call   7d229c0 <pthread_mutex_unlock@plt>
 44ffd88:	e8 33 2c 82 03       	call   7d229c0 <pthread_mutex_unlock@plt>
 44ffe3c:	e8 7f 2b 82 03       	call   7d229c0 <pthread_mutex_unlock@plt>
 44ffe7f:	e8 3c 2b 82 03       	call   7d229c0 <pthread_mutex_unlock@plt>
 4500256:	e8 35 f1 56 ff       	call   3a6f390 <std::unique_lock<std::mutex>::unlock()>
 4500360:	e8 5b 26 82 03       	call   7d229c0 <pthread_mutex_unlock@plt>
 45004d6:	e8 e5 24 82 03       	call   7d229c0 <pthread_mutex_unlock@plt>
 45006af:	e8 dc ec 56 ff       	call   3a6f390 <std::unique_lock<std::mutex>::unlock()>
 4500bed:	e8 ce 1d 82 03       	call   7d229c0 <pthread_mutex_unlock@plt>
 450121f:	e8 6c e1 56 ff       	call   3a6f390 <std::unique_lock<std::mutex>::unlock()>
 450130f:	e8 ac 16 82 03       	call   7d229c0 <pthread_mutex_unlock@plt>
 4501546:	e8 75 14 82 03       	call   7d229c0 <pthread_mutex_unlock@plt>
 450175f:	e8 2c dc 56 ff       	call   3a6f390 <std::unique_lock<std::mutex>::unlock()>
 4501b16:	e8 a5 0e 82 03       	call   7d229c0 <pthread_mutex_unlock@plt>
 4502023:	e8 68 d3 56 ff       	call   3a6f390 <std::unique_lock<std::mutex>::unlock()>
 450212d:	e8 8e 08 82 03       	call   7d229c0 <pthread_mutex_unlock@plt>
 4502607:	e8 84 cd 56 ff       	call   3a6f390 <std::unique_lock<std::mutex>::unlock()>
 45026b6:	e8 05 03 82 03       	call   7d229c0 <pthread_mutex_unlock@plt>
 4502bcd:	e8 ee fd 81 03       	call   7d229c0 <pthread_mutex_unlock@plt>
 4505cf1:	e8 9a 96 56 ff       	call   3a6f390 <std::unique_lock<std::mutex>::unlock()>
 4507808:	e8 b3 b1 81 03       	call   7d229c0 <pthread_mutex_unlock@plt>
 45078ba:	e8 01 b1 81 03       	call   7d229c0 <pthread_mutex_unlock@plt>
 4507993:	e8 28 b0 81 03       	call   7d229c0 <pthread_mutex_unlock@plt>
 4509138:	e8 83 98 81 03       	call   7d229c0 <pthread_mutex_unlock@plt>
 45091ea:	e8 d1 97 81 03       	call   7d229c0 <pthread_mutex_unlock@plt>
 45092b9:	e8 02 97 81 03       	call   7d229c0 <pthread_mutex_unlock@plt>
 45099cf:	e8 bc 59 56 ff       	call   3a6f390 <std::unique_lock<std::mutex>::unlock()>
 4509a74:	e8 47 8f 81 03       	call   7d229c0 <pthread_mutex_unlock@plt>
 450a071:	e8 4a 89 81 03       	call   7d229c0 <pthread_mutex_unlock@plt>
 450a0d5:	e8 e6 88 81 03       	call   7d229c0 <pthread_mutex_unlock@plt>
 450a13f:	e8 4c 52 56 ff       	call   3a6f390 <std::unique_lock<std::mutex>::unlock()>
 450ad36:	e8 55 46 56 ff       	call   3a6f390 <std::unique_lock<std::mutex>::unlock()>
 450ae40:	e8 7b 7b 81 03       	call   7d229c0 <pthread_mutex_unlock@plt>
 450b407:	e8 84 3f 56 ff       	call   3a6f390 <std::unique_lock<std::mutex>::unlock()>
 450b4b6:	e8 05 75 81 03       	call   7d229c0 <pthread_mutex_unlock@plt>
 450ba3d:	e8 7e 6f 81 03       	call   7d229c0 <pthread_mutex_unlock@plt>
 450c15d:	e8 2e 32 56 ff       	call   3a6f390 <std::unique_lock<std::mutex>::unlock()>
 450c201:	e8 ba 67 81 03       	call   7d229c0 <pthread_mutex_unlock@plt>
 450c6f1:	e8 ca 62 81 03       	call   7d229c0 <pthread_mutex_unlock@plt>
 450c756:	e8 65 62 81 03       	call   7d229c0 <pthread_mutex_unlock@plt>
 450c7bf:	e8 cc 2b 56 ff       	call   3a6f390 <std::unique_lock<std::mutex>::unlock()>
 450d196:	e8 f5 21 56 ff       	call   3a6f390 <std::unique_lock<std::mutex>::unlock()>
 450d2a0:	e8 1b 57 81 03       	call   7d229c0 <pthread_mutex_unlock@plt>
 450d7a7:	e8 e4 1b 56 ff       	call   3a6f390 <std::unique_lock<std::mutex>::unlock()>
 450d856:	e8 65 51 81 03       	call   7d229c0 <pthread_mutex_unlock@plt>
 450dbfd:	e8 be 4d 81 03       	call   7d229c0 <pthread_mutex_unlock@plt>
 4512ebe:	e8 cd c4 55 ff       	call   3a6f390 <std::unique_lock<std::mutex>::unlock()>
 45130e1:	e8 aa c2 55 ff       	call   3a6f390 <std::unique_lock<std::mutex>::unlock()>
 451383c:	e8 7f f1 80 03       	call   7d229c0 <pthread_mutex_unlock@plt>
 4513ad0:	e8 bb b8 55 ff       	call   3a6f390 <std::unique_lock<std::mutex>::unlock()>
 4514616:	e8 75 ad 55 ff       	call   3a6f390 <std::unique_lock<std::mutex>::unlock()>
 4514720:	e8 9b e2 80 03       	call   7d229c0 <pthread_mutex_unlock@plt>
 45148ae:	e8 0d e1 80 03       	call   7d229c0 <pthread_mutex_unlock@plt>
 4514b17:	e8 74 a8 55 ff       	call   3a6f390 <std::unique_lock<std::mutex>::unlock()>
 4515055:	e8 66 d9 80 03       	call   7d229c0 <pthread_mutex_unlock@plt>
 4515820:	e8 6b 9b 55 ff       	call   3a6f390 <std::unique_lock<std::mutex>::unlock()>
 4515a52:	e8 69 cf 80 03       	call   7d229c0 <pthread_mutex_unlock@plt>
 4515a72:	e8 49 cf 80 03       	call   7d229c0 <pthread_mutex_unlock@plt>
 4515a82:	e8 39 cf 80 03       	call   7d229c0 <pthread_mutex_unlock@plt>
 4515aa2:	e8 19 cf 80 03       	call   7d229c0 <pthread_mutex_unlock@plt>
 4515ab2:	e8 09 cf 80 03       	call   7d229c0 <pthread_mutex_unlock@plt>
 4515ad0:	e8 eb ce 80 03       	call   7d229c0 <pthread_mutex_unlock@plt>
 4515aee:	e8 cd ce 80 03       	call   7d229c0 <pthread_mutex_unlock@plt>
 4515b0c:	e8 af ce 80 03       	call   7d229c0 <pthread_mutex_unlock@plt>
 4515b2a:	e8 91 ce 80 03       	call   7d229c0 <pthread_mutex_unlock@plt>
 4515b48:	e8 73 ce 80 03       	call   7d229c0 <pthread_mutex_unlock@plt>
 4515b66:	e8 55 ce 80 03       	call   7d229c0 <pthread_mutex_unlock@plt>
 4515b84:	e8 37 ce 80 03       	call   7d229c0 <pthread_mutex_unlock@plt>
 4515ba2:	e8 19 ce 80 03       	call   7d229c0 <pthread_mutex_unlock@plt>
 4515bc0:	e8 fb cd 80 03       	call   7d229c0 <pthread_mutex_unlock@plt>
 4515bde:	e8 dd cd 80 03       	call   7d229c0 <pthread_mutex_unlock@plt>
 4515bfc:	e8 bf cd 80 03       	call   7d229c0 <pthread_mutex_unlock@plt>
 451648f:	e8 fc 8e 55 ff       	call   3a6f390 <std::unique_lock<std::mutex>::unlock()>
 45165cf:	e8 ec c3 80 03       	call   7d229c0 <pthread_mutex_unlock@plt>
 4516602:	e8 b9 c3 80 03       	call   7d229c0 <pthread_mutex_unlock@plt>
 451668b:	e8 30 c3 80 03       	call   7d229c0 <pthread_mutex_unlock@plt>
 45166be:	e8 fd c2 80 03       	call   7d229c0 <pthread_mutex_unlock@plt>
 4516782:	e8 39 c2 80 03       	call   7d229c0 <pthread_mutex_unlock@plt>
 45167fa:	e8 c1 c1 80 03       	call   7d229c0 <pthread_mutex_unlock@plt>
 4516823:	e8 98 c1 80 03       	call   7d229c0 <pthread_mutex_unlock@plt>
 4516873:	e8 48 c1 80 03       	call   7d229c0 <pthread_mutex_unlock@plt>
 45168a6:	e8 15 c1 80 03       	call   7d229c0 <pthread_mutex_unlock@plt>
 451692f:	e8 8c c0 80 03       	call   7d229c0 <pthread_mutex_unlock@plt>
 4516962:	e8 59 c0 80 03       	call   7d229c0 <pthread_mutex_unlock@plt>
 45169eb:	e8 d0 bf 80 03       	call   7d229c0 <pthread_mutex_unlock@plt>
 4516a1e:	e8 9d bf 80 03       	call   7d229c0 <pthread_mutex_unlock@plt>
 4516abf:	e8 fc be 80 03       	call   7d229c0 <pthread_mutex_unlock@plt>
 4516bb4:	e8 07 be 80 03       	call   7d229c0 <pthread_mutex_unlock@plt>
 4516c58:	e8 33 87 55 ff       	call   3a6f390 <std::unique_lock<std::mutex>::unlock()>
 4516d45:	e8 76 bc 80 03       	call   7d229c0 <pthread_mutex_unlock@plt>
 4516e8e:	e8 2d bb 80 03       	call   7d229c0 <pthread_mutex_unlock@plt>
 4516edd:	e8 de ba 80 03       	call   7d229c0 <pthread_mutex_unlock@plt>
 4516fef:	e8 9c 83 55 ff       	call   3a6f390 <std::unique_lock<std::mutex>::unlock()>
 451711c:	e8 9f b8 80 03       	call   7d229c0 <pthread_mutex_unlock@plt>
 45171a0:	e8 1b b8 80 03       	call   7d229c0 <pthread_mutex_unlock@plt>
 4517257:	e8 34 81 55 ff       	call   3a6f390 <std::unique_lock<std::mutex>::unlock()>
 45173b5:	e8 06 b6 80 03       	call   7d229c0 <pthread_mutex_unlock@plt>
 4517473:	e8 48 b5 80 03       	call   7d229c0 <pthread_mutex_unlock@plt>
 4517dff:	e8 8c 75 55 ff       	call   3a6f390 <std::unique_lock<std::mutex>::unlock()>
 451840b:	e8 b0 a5 80 03       	call   7d229c0 <pthread_mutex_unlock@plt>
 451847b:	e8 40 a5 80 03       	call   7d229c0 <pthread_mutex_unlock@plt>
 45184ab:	e8 10 a5 80 03       	call   7d229c0 <pthread_mutex_unlock@plt>
 4518931:	e8 8a a0 80 03       	call   7d229c0 <pthread_mutex_unlock@plt>
 45189a1:	e8 1a a0 80 03       	call   7d229c0 <pthread_mutex_unlock@plt>
 45189d1:	e8 ea 9f 80 03       	call   7d229c0 <pthread_mutex_unlock@plt>
 4518b22:	e8 69 68 55 ff       	call   3a6f390 <std::unique_lock<std::mutex>::unlock()>
 4518c3a:	e8 81 9d 80 03       	call   7d229c0 <pthread_mutex_unlock@plt>
 4518ce9:	e8 d2 9c 80 03       	call   7d229c0 <pthread_mutex_unlock@plt>
 4518dff:	e8 bc 9b 80 03       	call   7d229c0 <pthread_mutex_unlock@plt>
 4518fd6:	e8 b5 63 55 ff       	call   3a6f390 <std::unique_lock<std::mutex>::unlock()>
 451904b:	e8 70 99 80 03       	call   7d229c0 <pthread_mutex_unlock@plt>
 4519070:	e8 4b 99 80 03       	call   7d229c0 <pthread_mutex_unlock@plt>
 4519236:	e8 85 97 80 03       	call   7d229c0 <pthread_mutex_unlock@plt>
 45194ca:	e8 f1 94 80 03       	call   7d229c0 <pthread_mutex_unlock@plt>
 45194ef:	e8 cc 94 80 03       	call   7d229c0 <pthread_mutex_unlock@plt>
 45197a1:	e8 1a 92 80 03       	call   7d229c0 <pthread_mutex_unlock@plt>
 45197db:	e8 b0 5b 55 ff       	call   3a6f390 <std::unique_lock<std::mutex>::unlock()>
 4519974:	e8 17 5a 55 ff       	call   3a6f390 <std::unique_lock<std::mutex>::unlock()>
 4519a1a:	e8 a1 8f 80 03       	call   7d229c0 <pthread_mutex_unlock@plt>
 4519aa3:	e8 18 8f 80 03       	call   7d229c0 <pthread_mutex_unlock@plt>
 4519acd:	e8 ee 8e 80 03       	call   7d229c0 <pthread_mutex_unlock@plt>
 451ae7e:	e8 0d 45 55 ff       	call   3a6f390 <std::unique_lock<std::mutex>::unlock()>
 451aeeb:	e8 a0 44 55 ff       	call   3a6f390 <std::unique_lock<std::mutex>::unlock()>
 451b597:	e8 24 74 80 03       	call   7d229c0 <pthread_mutex_unlock@plt>
 451b5e3:	e8 d8 73 80 03       	call   7d229c0 <pthread_mutex_unlock@plt>
 451b6da:	e8 b1 3c 55 ff       	call   3a6f390 <std::unique_lock<std::mutex>::unlock()>
 451b74b:	e8 70 72 80 03       	call   7d229c0 <pthread_mutex_unlock@plt>
 452366a:	e8 51 f3 7f 03       	call   7d229c0 <pthread_mutex_unlock@plt>
 452372e:	e8 8d f2 7f 03       	call   7d229c0 <pthread_mutex_unlock@plt>
 4523848:	e8 73 f1 7f 03       	call   7d229c0 <pthread_mutex_unlock@plt>
 45238bb:	e8 00 f1 7f 03       	call   7d229c0 <pthread_mutex_unlock@plt>
 4523998:	e8 23 f0 7f 03       	call   7d229c0 <pthread_mutex_unlock@plt>
 4523a13:	e8 a8 ef 7f 03       	call   7d229c0 <pthread_mutex_unlock@plt>
 4523c4d:	e8 6e ed 7f 03       	call   7d229c0 <pthread_mutex_unlock@plt>
 4523cd9:	e8 e2 ec 7f 03       	call   7d229c0 <pthread_mutex_unlock@plt>
 452601f:	e8 9c c9 7f 03       	call   7d229c0 <pthread_mutex_unlock@plt>
 452606d:	e8 4e c9 7f 03       	call   7d229c0 <pthread_mutex_unlock@plt>
 4526192:	e9 29 c8 7f 03       	jmp    7d229c0 <pthread_mutex_unlock@plt>
 4526231:	e8 8a c7 7f 03       	call   7d229c0 <pthread_mutex_unlock@plt>
 4526293:	e8 28 c7 7f 03       	call   7d229c0 <pthread_mutex_unlock@plt>
 4526678:	e8 43 c3 7f 03       	call   7d229c0 <pthread_mutex_unlock@plt>
 45266b5:	e8 06 c3 7f 03       	call   7d229c0 <pthread_mutex_unlock@plt>
 4526761:	e9 5a c2 7f 03       	jmp    7d229c0 <pthread_mutex_unlock@plt>
 45268c5:	e9 f6 c0 7f 03       	jmp    7d229c0 <pthread_mutex_unlock@plt>
 4526b11:	e8 aa be 7f 03       	call   7d229c0 <pthread_mutex_unlock@plt>
 4528cd3:	e8 e8 9c 7f 03       	call   7d229c0 <pthread_mutex_unlock@plt>
 4529727:	e8 64 5c 54 ff       	call   3a6f390 <std::unique_lock<std::mutex>::unlock()>
 452a802:	e8 89 4b 54 ff       	call   3a6f390 <std::unique_lock<std::mutex>::unlock()>
 452a8e0:	e8 db 80 7f 03       	call   7d229c0 <pthread_mutex_unlock@plt>
 452ab27:	e8 94 7e 7f 03       	call   7d229c0 <pthread_mutex_unlock@plt>
 452ac79:	e8 42 7d 7f 03       	call   7d229c0 <pthread_mutex_unlock@plt>
 452acd7:	e8 b4 46 54 ff       	call   3a6f390 <std::unique_lock<std::mutex>::unlock()>
 452c72b:	e8 90 62 7f 03       	call   7d229c0 <pthread_mutex_unlock@plt>
 452caf3:	e8 c8 5e 7f 03       	call   7d229c0 <pthread_mutex_unlock@plt>
 452cec9:	e8 c2 24 54 ff       	call   3a6f390 <std::unique_lock<std::mutex>::unlock()>
 452d053:	e8 38 23 54 ff       	call   3a6f390 <std::unique_lock<std::mutex>::unlock()>
 452e309:	e8 b2 46 7f 03       	call   7d229c0 <pthread_mutex_unlock@plt>
 452e3df:	e8 dc 45 7f 03       	call   7d229c0 <pthread_mutex_unlock@plt>
 452e481:	e8 3a 45 7f 03       	call   7d229c0 <pthread_mutex_unlock@plt>
 452f655:	e8 66 33 7f 03       	call   7d229c0 <pthread_mutex_unlock@plt>
 452fbee:	e8 cd 2d 7f 03       	call   7d229c0 <pthread_mutex_unlock@plt>
 452fc8f:	e8 2c 2d 7f 03       	call   7d229c0 <pthread_mutex_unlock@plt>
 452fcc3:	e8 f8 2c 7f 03       	call   7d229c0 <pthread_mutex_unlock@plt>
 4530194:	e8 27 28 7f 03       	call   7d229c0 <pthread_mutex_unlock@plt>
 45304dc:	e9 df 24 7f 03       	jmp    7d229c0 <pthread_mutex_unlock@plt>
 4530a14:	e8 a7 1f 7f 03       	call   7d229c0 <pthread_mutex_unlock@plt>
 4530a40:	e8 7b 1f 7f 03       	call   7d229c0 <pthread_mutex_unlock@plt>
 4530a6c:	e8 4f 1f 7f 03       	call   7d229c0 <pthread_mutex_unlock@plt>
 4530ab0:	e8 0b 1f 7f 03       	call   7d229c0 <pthread_mutex_unlock@plt>
 4530b5e:	e8 5d 1e 7f 03       	call   7d229c0 <pthread_mutex_unlock@plt>
 4530bb5:	e8 06 1e 7f 03       	call   7d229c0 <pthread_mutex_unlock@plt>
 4530c72:	e8 49 1d 7f 03       	call   7d229c0 <pthread_mutex_unlock@plt>
 4530cb6:	e8 05 1d 7f 03       	call   7d229c0 <pthread_mutex_unlock@plt>
 4530cd4:	e8 e7 1c 7f 03       	call   7d229c0 <pthread_mutex_unlock@plt>
 4530f81:	e8 3a 1a 7f 03       	call   7d229c0 <pthread_mutex_unlock@plt>
 4531195:	e8 f6 e1 53 ff       	call   3a6f390 <std::unique_lock<std::mutex>::unlock()>
 453143f:	e8 7c 15 7f 03       	call   7d229c0 <pthread_mutex_unlock@plt>
 453153e:	e8 7d 14 7f 03       	call   7d229c0 <pthread_mutex_unlock@plt>
 453179e:	e8 ed db 53 ff       	call   3a6f390 <std::unique_lock<std::mutex>::unlock()>
 4531930:	e8 8b 10 7f 03       	call   7d229c0 <pthread_mutex_unlock@plt>
 4531c64:	e8 27 d7 53 ff       	call   3a6f390 <std::unique_lock<std::mutex>::unlock()>
 4532075:	e9 46 09 7f 03       	jmp    7d229c0 <pthread_mutex_unlock@plt>
 453208f:	e8 2c 09 7f 03       	call   7d229c0 <pthread_mutex_unlock@plt>
 453216e:	e8 4d 08 7f 03       	call   7d229c0 <pthread_mutex_unlock@plt>
 4532195:	e8 26 08 7f 03       	call   7d229c0 <pthread_mutex_unlock@plt>
 45321b5:	e8 06 08 7f 03       	call   7d229c0 <pthread_mutex_unlock@plt>
 45321da:	e8 e1 07 7f 03       	call   7d229c0 <pthread_mutex_unlock@plt>
 4532279:	e8 42 07 7f 03       	call   7d229c0 <pthread_mutex_unlock@plt>
 45327b0:	e8 0b 02 7f 03       	call   7d229c0 <pthread_mutex_unlock@plt>
 4532925:	e8 96 00 7f 03       	call   7d229c0 <pthread_mutex_unlock@plt>
 453837a:	e8 41 a6 7e 03       	call   7d229c0 <pthread_mutex_unlock@plt>
 45542f1:	e9 ca e6 7c 03       	jmp    7d229c0 <pthread_mutex_unlock@plt>
 4554352:	e9 69 e6 7c 03       	jmp    7d229c0 <pthread_mutex_unlock@plt>
 45543b7:	e8 04 e6 7c 03       	call   7d229c0 <pthread_mutex_unlock@plt>
 4554e1b:	e8 a0 db 7c 03       	call   7d229c0 <pthread_mutex_unlock@plt>
 455574e:	e8 6d d2 7c 03       	call   7d229c0 <pthread_mutex_unlock@plt>
 45589d5:	e8 a6 c2 c2 02       	call   7184c80 <mongo::Lock::GlobalLock::_unlock()>
 4558a23:	e8 98 c7 c2 02       	call   71851c0 <mongo::Lock::ResourceLock::_unlock()>
 4558a37:	e8 84 c7 c2 02       	call   71851c0 <mongo::Lock::ResourceLock::_unlock()>
 456f7d3:	e9 e8 31 7b 03       	jmp    7d229c0 <pthread_mutex_unlock@plt>
 456f8c1:	e9 fa 30 7b 03       	jmp    7d229c0 <pthread_mutex_unlock@plt>
 456fa2a:	e9 91 2f 7b 03       	jmp    7d229c0 <pthread_mutex_unlock@plt>
 456ff41:	e9 7a 2a 7b 03       	jmp    7d229c0 <pthread_mutex_unlock@plt>
 4572c31:	e8 8a fd 7a 03       	call   7d229c0 <pthread_mutex_unlock@plt>
 4573096:	e8 25 f9 7a 03       	call   7d229c0 <pthread_mutex_unlock@plt>
 45730aa:	e8 11 f9 7a 03       	call   7d229c0 <pthread_mutex_unlock@plt>
 4573301:	e8 ba f6 7a 03       	call   7d229c0 <pthread_mutex_unlock@plt>
 4573a81:	e8 3a ef 7a 03       	call   7d229c0 <pthread_mutex_unlock@plt>
 4588117:	e9 a4 a8 79 03       	jmp    7d229c0 <pthread_mutex_unlock@plt>
 45885c8:	e8 f3 a3 79 03       	call   7d229c0 <pthread_mutex_unlock@plt>
 4588615:	e9 a6 a3 79 03       	jmp    7d229c0 <pthread_mutex_unlock@plt>
 4588a06:	e8 b5 9f 79 03       	call   7d229c0 <pthread_mutex_unlock@plt>
 4589c16:	e8 a5 8d 79 03       	call   7d229c0 <pthread_mutex_unlock@plt>
 458ade2:	e8 d9 7b 79 03       	call   7d229c0 <pthread_mutex_unlock@plt>
 458ae38:	e8 83 7b 79 03       	call   7d229c0 <pthread_mutex_unlock@plt>
 458aee0:	e8 db 7a 79 03       	call   7d229c0 <pthread_mutex_unlock@plt>
 458b6dd:	e8 ae 3c 4e ff       	call   3a6f390 <std::unique_lock<std::mutex>::unlock()>
 458df05:	e8 b6 4a 79 03       	call   7d229c0 <pthread_mutex_unlock@plt>
 458e374:	e8 47 46 79 03       	call   7d229c0 <pthread_mutex_unlock@plt>
 458e4e4:	e8 a7 0e 4e ff       	call   3a6f390 <std::unique_lock<std::mutex>::unlock()>
 458e74e:	e8 6d 42 79 03       	call   7d229c0 <pthread_mutex_unlock@plt>
 458e9ac:	e8 df 09 4e ff       	call   3a6f390 <std::unique_lock<std::mutex>::unlock()>
 4594b0a:	e8 b1 de 78 03       	call   7d229c0 <pthread_mutex_unlock@plt>
 4594c0f:	e9 ac dd 78 03       	jmp    7d229c0 <pthread_mutex_unlock@plt>
 4594cc7:	e9 f4 dc 78 03       	jmp    7d229c0 <pthread_mutex_unlock@plt>
 459502d:	e8 8e d9 78 03       	call   7d229c0 <pthread_mutex_unlock@plt>
 4597d19:	e8 a2 ac 78 03       	call   7d229c0 <pthread_mutex_unlock@plt>
 4598881:	e8 3a a1 78 03       	call   7d229c0 <pthread_mutex_unlock@plt>
 4598d8e:	e8 2d 9c 78 03       	call   7d229c0 <pthread_mutex_unlock@plt>
 4598f32:	e8 89 9a 78 03       	call   7d229c0 <pthread_mutex_unlock@plt>
 459e59b:	e8 20 44 78 03       	call   7d229c0 <pthread_mutex_unlock@plt>
 45a196f:	e8 1c da 4c ff       	call   3a6f390 <std::unique_lock<std::mutex>::unlock()>
 45a396d:	e8 4e f0 77 03       	call   7d229c0 <pthread_mutex_unlock@plt>
 45a4622:	e9 99 e3 77 03       	jmp    7d229c0 <pthread_mutex_unlock@plt>
 45a565a:	e8 61 d3 77 03       	call   7d229c0 <pthread_mutex_unlock@plt>
 45a59af:	e8 0c d0 77 03       	call   7d229c0 <pthread_mutex_unlock@plt>
 45a5a1e:	e8 9d cf 77 03       	call   7d229c0 <pthread_mutex_unlock@plt>
 45a5bec:	e8 cf cd 77 03       	call   7d229c0 <pthread_mutex_unlock@plt>
 45a63e4:	e8 d7 c5 77 03       	call   7d229c0 <pthread_mutex_unlock@plt>
 45a6b7a:	e8 11 88 4c ff       	call   3a6f390 <std::unique_lock<std::mutex>::unlock()>
 45a706d:	e8 4e b9 77 03       	call   7d229c0 <pthread_mutex_unlock@plt>
 45a718a:	e8 31 b8 77 03       	call   7d229c0 <pthread_mutex_unlock@plt>
 45b9dca:	e8 f1 8b 76 03       	call   7d229c0 <pthread_mutex_unlock@plt>
 45ba977:	e9 44 80 76 03       	jmp    7d229c0 <pthread_mutex_unlock@plt>
 45bac8c:	e9 2f 7d 76 03       	jmp    7d229c0 <pthread_mutex_unlock@plt>
 45badeb:	e8 d0 7b 76 03       	call   7d229c0 <pthread_mutex_unlock@plt>
 45bae44:	e9 77 7b 76 03       	jmp    7d229c0 <pthread_mutex_unlock@plt>
 45bd537:	e8 54 1e 4b ff       	call   3a6f390 <std::unique_lock<std::mutex>::unlock()>
 45bd854:	e8 67 51 76 03       	call   7d229c0 <pthread_mutex_unlock@plt>
 45bd8c9:	e8 f2 50 76 03       	call   7d229c0 <pthread_mutex_unlock@plt>
 45bd924:	e8 67 1a 4b ff       	call   3a6f390 <std::unique_lock<std::mutex>::unlock()>
 45c0112:	e8 a9 28 76 03       	call   7d229c0 <pthread_mutex_unlock@plt>
 45c0159:	e8 62 28 76 03       	call   7d229c0 <pthread_mutex_unlock@plt>
 45c0258:	e8 63 27 76 03       	call   7d229c0 <pthread_mutex_unlock@plt>
 45c02dc:	e8 af f0 4a ff       	call   3a6f390 <std::unique_lock<std::mutex>::unlock()>
 45c03a7:	e8 14 26 76 03       	call   7d229c0 <pthread_mutex_unlock@plt>
 45c0fc0:	e9 fb 19 76 03       	jmp    7d229c0 <pthread_mutex_unlock@plt>
 45c12f8:	e8 c3 16 76 03       	call   7d229c0 <pthread_mutex_unlock@plt>
 45c2526:	e8 65 ce 4a ff       	call   3a6f390 <std::unique_lock<std::mutex>::unlock()>
 45c2610:	e8 7b cd 4a ff       	call   3a6f390 <std::unique_lock<std::mutex>::unlock()>
 45c2a03:	e8 b8 ff 75 03       	call   7d229c0 <pthread_mutex_unlock@plt>
 45c2a5f:	e8 5c ff 75 03       	call   7d229c0 <pthread_mutex_unlock@plt>
 45c2b60:	e8 5b fe 75 03       	call   7d229c0 <pthread_mutex_unlock@plt>
 45c3fcb:	e8 f0 e9 75 03       	call   7d229c0 <pthread_mutex_unlock@plt>
 45c405c:	e8 5f e9 75 03       	call   7d229c0 <pthread_mutex_unlock@plt>
 45c4f53:	e8 68 da 75 03       	call   7d229c0 <pthread_mutex_unlock@plt>
 45c6865:	e8 56 c1 75 03       	call   7d229c0 <pthread_mutex_unlock@plt>
 45c8e98:	e8 23 9b 75 03       	call   7d229c0 <pthread_mutex_unlock@plt>
 45c8ec6:	e8 f5 9a 75 03       	call   7d229c0 <pthread_mutex_unlock@plt>
 45c9397:	e8 24 96 75 03       	call   7d229c0 <pthread_mutex_unlock@plt>
 45c9418:	e8 a3 95 75 03       	call   7d229c0 <pthread_mutex_unlock@plt>
 45c985a:	e8 61 91 75 03       	call   7d229c0 <pthread_mutex_unlock@plt>
 45c99c6:	e8 f5 8f 75 03       	call   7d229c0 <pthread_mutex_unlock@plt>
 45c99f7:	e8 c4 8f 75 03       	call   7d229c0 <pthread_mutex_unlock@plt>
 45cb590:	e8 2b 74 75 03       	call   7d229c0 <pthread_mutex_unlock@plt>
 45cb5a4:	e8 17 74 75 03       	call   7d229c0 <pthread_mutex_unlock@plt>
 45cb7e3:	e8 a8 3b 4a ff       	call   3a6f390 <std::unique_lock<std::mutex>::unlock()>
 45cb887:	e8 04 3b 4a ff       	call   3a6f390 <std::unique_lock<std::mutex>::unlock()>
 45cb8a3:	e8 e8 3a 4a ff       	call   3a6f390 <std::unique_lock<std::mutex>::unlock()>
 45cbd64:	e8 27 36 4a ff       	call   3a6f390 <std::unique_lock<std::mutex>::unlock()>
 45cbd8d:	e8 fe 35 4a ff       	call   3a6f390 <std::unique_lock<std::mutex>::unlock()>
 45cbfb4:	e8 07 6a 75 03       	call   7d229c0 <pthread_mutex_unlock@plt>
 45cc27a:	e8 11 31 4a ff       	call   3a6f390 <std::unique_lock<std::mutex>::unlock()>
 45cc298:	e8 f3 30 4a ff       	call   3a6f390 <std::unique_lock<std::mutex>::unlock()>
 45cc2ba:	e8 d1 30 4a ff       	call   3a6f390 <std::unique_lock<std::mutex>::unlock()>
 45e56d1:	e9 ea d2 73 03       	jmp    7d229c0 <pthread_mutex_unlock@plt>
 45e5a61:	e9 5a cf 73 03       	jmp    7d229c0 <pthread_mutex_unlock@plt>
 45e72f8:	e8 c3 b6 73 03       	call   7d229c0 <pthread_mutex_unlock@plt>
 45e732d:	e8 8e b6 73 03       	call   7d229c0 <pthread_mutex_unlock@plt>
 45eb4cc:	e8 ef 9c b9 02       	call   71851c0 <mongo::Lock::ResourceLock::_unlock()>
 45ecc90:	e8 2b 85 b9 02       	call   71851c0 <mongo::Lock::ResourceLock::_unlock()>
 45eecd6:	e8 e5 64 b9 02       	call   71851c0 <mongo::Lock::ResourceLock::_unlock()>
 45f0717:	e8 a4 4a b9 02       	call   71851c0 <mongo::Lock::ResourceLock::_unlock()>
 45f0dc8:	e8 f3 43 b9 02       	call   71851c0 <mongo::Lock::ResourceLock::_unlock()>
 45f1ccc:	e8 ef 34 b9 02       	call   71851c0 <mongo::Lock::ResourceLock::_unlock()>
 45f2c1a:	e8 a1 25 b9 02       	call   71851c0 <mongo::Lock::ResourceLock::_unlock()>
 45fed9d:	e8 1e 64 b8 02       	call   71851c0 <mongo::Lock::ResourceLock::_unlock()>
 460029f:	e8 1c 4f b8 02       	call   71851c0 <mongo::Lock::ResourceLock::_unlock()>
 460043c:	e8 7f 4d b8 02       	call   71851c0 <mongo::Lock::ResourceLock::_unlock()>
 4603278:	e8 43 1f b8 02       	call   71851c0 <mongo::Lock::ResourceLock::_unlock()>
 460429a:	e8 21 0f b8 02       	call   71851c0 <mongo::Lock::ResourceLock::_unlock()>
 460547e:	e8 3d fd b7 02       	call   71851c0 <mongo::Lock::ResourceLock::_unlock()>
 4607657:	e8 64 db b7 02       	call   71851c0 <mongo::Lock::ResourceLock::_unlock()>
 46084dc:	e8 df cc b7 02       	call   71851c0 <mongo::Lock::ResourceLock::_unlock()>
 4609d18:	e8 a3 b4 b7 02       	call   71851c0 <mongo::Lock::ResourceLock::_unlock()>
 4609d3c:	e8 7f b4 b7 02       	call   71851c0 <mongo::Lock::ResourceLock::_unlock()>
 460bbe5:	e8 d6 95 b7 02       	call   71851c0 <mongo::Lock::ResourceLock::_unlock()>
 460c601:	e8 ba 8b b7 02       	call   71851c0 <mongo::Lock::ResourceLock::_unlock()>
 460cd5c:	e8 5f 84 b7 02       	call   71851c0 <mongo::Lock::ResourceLock::_unlock()>
 460d5f7:	e8 c4 7b b7 02       	call   71851c0 <mongo::Lock::ResourceLock::_unlock()>
 460dea0:	e8 1b 73 b7 02       	call   71851c0 <mongo::Lock::ResourceLock::_unlock()>
 460e0a2:	e8 19 71 b7 02       	call   71851c0 <mongo::Lock::ResourceLock::_unlock()>
 460fbc1:	e8 fa 55 b7 02       	call   71851c0 <mongo::Lock::ResourceLock::_unlock()>
 460ff59:	e8 62 52 b7 02       	call   71851c0 <mongo::Lock::ResourceLock::_unlock()>
 46109fe:	e8 bd 47 b7 02       	call   71851c0 <mongo::Lock::ResourceLock::_unlock()>
 4610c0a:	e8 b1 45 b7 02       	call   71851c0 <mongo::Lock::ResourceLock::_unlock()>
 461131d:	e8 9e 3e b7 02       	call   71851c0 <mongo::Lock::ResourceLock::_unlock()>
 4611b3f:	e8 7c 36 b7 02       	call   71851c0 <mongo::Lock::ResourceLock::_unlock()>
 461224f:	e8 6c 2f b7 02       	call   71851c0 <mongo::Lock::ResourceLock::_unlock()>
 4612273:	e8 48 2f b7 02       	call   71851c0 <mongo::Lock::ResourceLock::_unlock()>
 4619c9a:	e8 21 8d 70 03       	call   7d229c0 <pthread_mutex_unlock@plt>
 461b033:	e8 88 a1 b6 02       	call   71851c0 <mongo::Lock::ResourceLock::_unlock()>
 461e18b:	e8 30 70 b6 02       	call   71851c0 <mongo::Lock::ResourceLock::_unlock()>
 462124e:	e8 6d 3f b6 02       	call   71851c0 <mongo::Lock::ResourceLock::_unlock()>
 462125a:	e8 61 3f b6 02       	call   71851c0 <mongo::Lock::ResourceLock::_unlock()>
 4623ef2:	e8 c9 12 b6 02       	call   71851c0 <mongo::Lock::ResourceLock::_unlock()>
 4623efe:	e8 bd 12 b6 02       	call   71851c0 <mongo::Lock::ResourceLock::_unlock()>
 46248e3:	e8 d8 08 b6 02       	call   71851c0 <mongo::Lock::ResourceLock::_unlock()>
 46250ef:	e8 cc 00 b6 02       	call   71851c0 <mongo::Lock::ResourceLock::_unlock()>
 46256ae:	e8 0d fb b5 02       	call   71851c0 <mongo::Lock::ResourceLock::_unlock()>
 46256ba:	e8 01 fb b5 02       	call   71851c0 <mongo::Lock::ResourceLock::_unlock()>
 4625b83:	e8 38 f6 b5 02       	call   71851c0 <mongo::Lock::ResourceLock::_unlock()>
 4625b8f:	e8 2c f6 b5 02       	call   71851c0 <mongo::Lock::ResourceLock::_unlock()>
 46282fc:	e8 bf ce b5 02       	call   71851c0 <mongo::Lock::ResourceLock::_unlock()>
 462f51b:	e8 a0 5c b5 02       	call   71851c0 <mongo::Lock::ResourceLock::_unlock()>
 4631aba:	e8 01 0f 6f 03       	call   7d229c0 <pthread_mutex_unlock@plt>
 463c673:	e8 48 8b b4 02       	call   71851c0 <mongo::Lock::ResourceLock::_unlock()>
 463ca9a:	e8 21 87 b4 02       	call   71851c0 <mongo::Lock::ResourceLock::_unlock()>
 463d3fa:	e8 c1 7d b4 02       	call   71851c0 <mongo::Lock::ResourceLock::_unlock()>
 46454b5:	e8 06 fd b3 02       	call   71851c0 <mongo::Lock::ResourceLock::_unlock()>
 4649db5:	e8 06 b4 b3 02       	call   71851c0 <mongo::Lock::ResourceLock::_unlock()>
 464c8c0:	e8 fb 88 b3 02       	call   71851c0 <mongo::Lock::ResourceLock::_unlock()>
 4651243:	e8 78 3f b3 02       	call   71851c0 <mongo::Lock::ResourceLock::_unlock()>
 4651b4c:	e8 6f 36 b3 02       	call   71851c0 <mongo::Lock::ResourceLock::_unlock()>
 4652365:	e8 56 2e b3 02       	call   71851c0 <mongo::Lock::ResourceLock::_unlock()>
 4653f1e:	e8 9d 12 b3 02       	call   71851c0 <mongo::Lock::ResourceLock::_unlock()>
 4654ca1:	e8 1a 05 b3 02       	call   71851c0 <mongo::Lock::ResourceLock::_unlock()>
 4654ec8:	e8 f3 02 b3 02       	call   71851c0 <mongo::Lock::ResourceLock::_unlock()>
 4654f80:	e8 3b 02 b3 02       	call   71851c0 <mongo::Lock::ResourceLock::_unlock()>
 465523f:	e8 7c ff b2 02       	call   71851c0 <mongo::Lock::ResourceLock::_unlock()>
 46568ba:	e8 01 c1 6c 03       	call   7d229c0 <pthread_mutex_unlock@plt>
 4658082:	e9 39 a9 6c 03       	jmp    7d229c0 <pthread_mutex_unlock@plt>
 4658245:	e9 76 a7 6c 03       	jmp    7d229c0 <pthread_mutex_unlock@plt>
 465ab30:	e8 8b a6 b2 02       	call   71851c0 <mongo::Lock::ResourceLock::_unlock()>
 465c0a8:	e8 13 69 6c 03       	call   7d229c0 <pthread_mutex_unlock@plt>
 465c218:	e8 a3 67 6c 03       	call   7d229c0 <pthread_mutex_unlock@plt>
 46687cd:	e8 ee c9 b1 02       	call   71851c0 <mongo::Lock::ResourceLock::_unlock()>
 4668e4e:	e8 6d c3 b1 02       	call   71851c0 <mongo::Lock::ResourceLock::_unlock()>
 466946b:	e8 20 5f 40 ff       	call   3a6f390 <std::unique_lock<std::mutex>::unlock()>
 466b56b:	e8 50 74 6b 03       	call   7d229c0 <pthread_mutex_unlock@plt>
 466bb38:	e8 83 96 b1 02       	call   71851c0 <mongo::Lock::ResourceLock::_unlock()>
 466bf02:	e8 b9 6a 6b 03       	call   7d229c0 <pthread_mutex_unlock@plt>
 466bf36:	e8 85 6a 6b 03       	call   7d229c0 <pthread_mutex_unlock@plt>
 466d5bf:	e8 fc 7b b1 02       	call   71851c0 <mongo::Lock::ResourceLock::_unlock()>
 466d6e6:	e8 a5 1c 40 ff       	call   3a6f390 <std::unique_lock<std::mutex>::unlock()>
 466d873:	e8 48 79 b1 02       	call   71851c0 <mongo::Lock::ResourceLock::_unlock()>
 467057a:	e8 41 24 6b 03       	call   7d229c0 <pthread_mutex_unlock@plt>
 4671415:	e8 a6 15 6b 03       	call   7d229c0 <pthread_mutex_unlock@plt>
 467142b:	e9 90 15 6b 03       	jmp    7d229c0 <pthread_mutex_unlock@plt>
 46714b2:	e8 09 15 6b 03       	call   7d229c0 <pthread_mutex_unlock@plt>
 46715f5:	e8 c6 13 6b 03       	call   7d229c0 <pthread_mutex_unlock@plt>
 467170f:	e8 ac 12 6b 03       	call   7d229c0 <pthread_mutex_unlock@plt>
 4671802:	e8 b9 11 6b 03       	call   7d229c0 <pthread_mutex_unlock@plt>
 46719eb:	e8 d0 0f 6b 03       	call   7d229c0 <pthread_mutex_unlock@plt>
 46725d0:	e8 eb 03 6b 03       	call   7d229c0 <pthread_mutex_unlock@plt>
 4673376:	e8 15 c0 3f ff       	call   3a6f390 <std::unique_lock<std::mutex>::unlock()>
 468fc5b:	e8 60 2d 69 03       	call   7d229c0 <pthread_mutex_unlock@plt>
 468fecd:	e8 ee 2a 69 03       	call   7d229c0 <pthread_mutex_unlock@plt>
 46905b2:	e8 09 24 69 03       	call   7d229c0 <pthread_mutex_unlock@plt>
 4690b4d:	e8 6e 1e 69 03       	call   7d229c0 <pthread_mutex_unlock@plt>
 4690f89:	e8 32 1a 69 03       	call   7d229c0 <pthread_mutex_unlock@plt>
 4691d40:	e8 7b 0c 69 03       	call   7d229c0 <pthread_mutex_unlock@plt>
 4691d70:	e8 4b 0c 69 03       	call   7d229c0 <pthread_mutex_unlock@plt>
 46920c3:	e8 f8 08 69 03       	call   7d229c0 <pthread_mutex_unlock@plt>
 4692377:	e8 44 06 69 03       	call   7d229c0 <pthread_mutex_unlock@plt>
 4692f93:	e8 28 fa 68 03       	call   7d229c0 <pthread_mutex_unlock@plt>
 46e9a81:	e9 3a 8f 63 03       	jmp    7d229c0 <pthread_mutex_unlock@plt>
 46e9b28:	e9 93 8e 63 03       	jmp    7d229c0 <pthread_mutex_unlock@plt>
 46e9bc4:	e8 f7 8d 63 03       	call   7d229c0 <pthread_mutex_unlock@plt>
 46e9e86:	e8 35 8b 63 03       	call   7d229c0 <pthread_mutex_unlock@plt>
 46e9ed5:	e8 e6 8a 63 03       	call   7d229c0 <pthread_mutex_unlock@plt>
 46eae81:	e9 3a 7b 63 03       	jmp    7d229c0 <pthread_mutex_unlock@plt>
 46eaec1:	e9 fa 7a 63 03       	jmp    7d229c0 <pthread_mutex_unlock@plt>
 46eaefb:	e9 c0 7a 63 03       	jmp    7d229c0 <pthread_mutex_unlock@plt>
 46eaf3b:	e9 80 7a 63 03       	jmp    7d229c0 <pthread_mutex_unlock@plt>
 46ec465:	e9 56 65 63 03       	jmp    7d229c0 <pthread_mutex_unlock@plt>
 46ed5f6:	e8 95 1d 38 ff       	call   3a6f390 <std::unique_lock<std::mutex>::unlock()>
 46ed6a1:	e8 ea 1c 38 ff       	call   3a6f390 <std::unique_lock<std::mutex>::unlock()>
 46edacb:	e8 c0 18 38 ff       	call   3a6f390 <std::unique_lock<std::mutex>::unlock()>
 46edbb1:	e8 da 17 38 ff       	call   3a6f390 <std::unique_lock<std::mutex>::unlock()>
 46edd0d:	e8 ae 4c 63 03       	call   7d229c0 <pthread_mutex_unlock@plt>
 46ef95e:	e8 5d 30 63 03       	call   7d229c0 <pthread_mutex_unlock@plt>
 46ef9c0:	e8 fb 2f 63 03       	call   7d229c0 <pthread_mutex_unlock@plt>
 46f0427:	e8 94 25 63 03       	call   7d229c0 <pthread_mutex_unlock@plt>
 46f0482:	e8 09 ef 37 ff       	call   3a6f390 <std::unique_lock<std::mutex>::unlock()>
 46f0557:	e8 64 24 63 03       	call   7d229c0 <pthread_mutex_unlock@plt>
 46f05b2:	e8 d9 ed 37 ff       	call   3a6f390 <std::unique_lock<std::mutex>::unlock()>
 46f0687:	e8 34 23 63 03       	call   7d229c0 <pthread_mutex_unlock@plt>
 46f0706:	e8 85 ec 37 ff       	call   3a6f390 <std::unique_lock<std::mutex>::unlock()>
 46f0c2a:	e8 91 1d 63 03       	call   7d229c0 <pthread_mutex_unlock@plt>
 46f0e8f:	e8 2c 1b 63 03       	call   7d229c0 <pthread_mutex_unlock@plt>
 46f2067:	e8 24 d3 37 ff       	call   3a6f390 <std::unique_lock<std::mutex>::unlock()>
 46f2076:	e8 15 d3 37 ff       	call   3a6f390 <std::unique_lock<std::mutex>::unlock()>
 46f208b:	e8 00 d3 37 ff       	call   3a6f390 <std::unique_lock<std::mutex>::unlock()>
 46f209a:	e8 f1 d2 37 ff       	call   3a6f390 <std::unique_lock<std::mutex>::unlock()>
 46f20af:	e8 dc d2 37 ff       	call   3a6f390 <std::unique_lock<std::mutex>::unlock()>
 46f20be:	e8 cd d2 37 ff       	call   3a6f390 <std::unique_lock<std::mutex>::unlock()>
 46ff8ea:	e8 d1 30 62 03       	call   7d229c0 <pthread_mutex_unlock@plt>
 4700a54:	e8 87 de 47 00       	call   4b7e8e0 <mongo::repl::ReplSyncSharedData::unlock()>
 470237c:	e9 3f 06 62 03       	jmp    7d229c0 <pthread_mutex_unlock@plt>
 4703438:	e9 83 f5 61 03       	jmp    7d229c0 <pthread_mutex_unlock@plt>
 4704546:	e8 75 e4 61 03       	call   7d229c0 <pthread_mutex_unlock@plt>
 47045e0:	e8 db e3 61 03       	call   7d229c0 <pthread_mutex_unlock@plt>
 470482d:	e8 8e e1 61 03       	call   7d229c0 <pthread_mutex_unlock@plt>
 47048b8:	e8 03 e1 61 03       	call   7d229c0 <pthread_mutex_unlock@plt>
 47072a4:	e8 17 b7 61 03       	call   7d229c0 <pthread_mutex_unlock@plt>
 4707934:	e8 87 b0 61 03       	call   7d229c0 <pthread_mutex_unlock@plt>
 4708503:	e8 b8 a4 61 03       	call   7d229c0 <pthread_mutex_unlock@plt>
 470902d:	e8 ae 58 47 00       	call   4b7e8e0 <mongo::repl::ReplSyncSharedData::unlock()>
 470a9be:	e8 fd 7f 61 03       	call   7d229c0 <pthread_mutex_unlock@plt>
 470aa4b:	e8 70 7f 61 03       	call   7d229c0 <pthread_mutex_unlock@plt>
 470afd3:	e8 e8 79 61 03       	call   7d229c0 <pthread_mutex_unlock@plt>
 470d305:	e8 b6 56 61 03       	call   7d229c0 <pthread_mutex_unlock@plt>
 470d463:	e8 58 55 61 03       	call   7d229c0 <pthread_mutex_unlock@plt>
 470e628:	e8 63 0d 36 ff       	call   3a6f390 <std::unique_lock<std::mutex>::unlock()>
 470e6bf:	e8 cc 0c 36 ff       	call   3a6f390 <std::unique_lock<std::mutex>::unlock()>
 470ee11:	e8 aa 3b 61 03       	call   7d229c0 <pthread_mutex_unlock@plt>
 470eeb0:	e8 0b 3b 61 03       	call   7d229c0 <pthread_mutex_unlock@plt>
 470ef91:	e8 2a 3a 61 03       	call   7d229c0 <pthread_mutex_unlock@plt>
 470f034:	e8 a7 f8 46 00       	call   4b7e8e0 <mongo::repl::ReplSyncSharedData::unlock()>
 470f2f3:	e8 c8 36 61 03       	call   7d229c0 <pthread_mutex_unlock@plt>
 470f530:	e8 8b 34 61 03       	call   7d229c0 <pthread_mutex_unlock@plt>
 4713c98:	e8 23 ed 60 03       	call   7d229c0 <pthread_mutex_unlock@plt>
 4714d54:	e8 67 04 a7 02       	call   71851c0 <mongo::Lock::ResourceLock::_unlock()>
 4716431:	e8 8a c5 60 03       	call   7d229c0 <pthread_mutex_unlock@plt>
 471790d:	e8 7e 7a 35 ff       	call   3a6f390 <std::unique_lock<std::mutex>::unlock()>
 4717a9b:	e8 f0 78 35 ff       	call   3a6f390 <std::unique_lock<std::mutex>::unlock()>
 4717b02:	e8 89 78 35 ff       	call   3a6f390 <std::unique_lock<std::mutex>::unlock()>
 47187d2:	e8 b9 6b 35 ff       	call   3a6f390 <std::unique_lock<std::mutex>::unlock()>
 4718a66:	e8 55 9f 60 03       	call   7d229c0 <pthread_mutex_unlock@plt>
 4718b57:	e8 34 68 35 ff       	call   3a6f390 <std::unique_lock<std::mutex>::unlock()>
 4718cdf:	e8 ac 66 35 ff       	call   3a6f390 <std::unique_lock<std::mutex>::unlock()>
 471932c:	e8 af 55 46 00       	call   4b7e8e0 <mongo::repl::ReplSyncSharedData::unlock()>
 4719380:	e8 3b 96 60 03       	call   7d229c0 <pthread_mutex_unlock@plt>
 47195fa:	e8 c1 93 60 03       	call   7d229c0 <pthread_mutex_unlock@plt>
 471a765:	e8 56 82 60 03       	call   7d229c0 <pthread_mutex_unlock@plt>
 471af23:	e9 98 7a 60 03       	jmp    7d229c0 <pthread_mutex_unlock@plt>
 471b462:	e8 59 75 60 03       	call   7d229c0 <pthread_mutex_unlock@plt>
 471b518:	e8 a3 74 60 03       	call   7d229c0 <pthread_mutex_unlock@plt>
 471b92b:	e8 90 70 60 03       	call   7d229c0 <pthread_mutex_unlock@plt>
 471bb31:	e8 aa 2d 46 00       	call   4b7e8e0 <mongo::repl::ReplSyncSharedData::unlock()>
 471bcd4:	e9 e7 6c 60 03       	jmp    7d229c0 <pthread_mutex_unlock@plt>
 471c384:	e8 07 30 35 ff       	call   3a6f390 <std::unique_lock<std::mutex>::unlock()>
 471c57a:	e8 11 2e 35 ff       	call   3a6f390 <std::unique_lock<std::mutex>::unlock()>
 471d851:	e8 6a 51 60 03       	call   7d229c0 <pthread_mutex_unlock@plt>
 471d943:	e9 78 50 60 03       	jmp    7d229c0 <pthread_mutex_unlock@plt>
 471e273:	e8 48 47 60 03       	call   7d229c0 <pthread_mutex_unlock@plt>
 471e7a8:	e8 13 42 60 03       	call   7d229c0 <pthread_mutex_unlock@plt>
 471f119:	e9 a2 38 60 03       	jmp    7d229c0 <pthread_mutex_unlock@plt>
 471f6ec:	e8 cf 32 60 03       	call   7d229c0 <pthread_mutex_unlock@plt>
 471fa58:	e8 63 2f 60 03       	call   7d229c0 <pthread_mutex_unlock@plt>
 4720087:	e8 34 29 60 03       	call   7d229c0 <pthread_mutex_unlock@plt>
 4720b26:	e8 95 1e 60 03       	call   7d229c0 <pthread_mutex_unlock@plt>
 4721465:	e8 56 15 60 03       	call   7d229c0 <pthread_mutex_unlock@plt>
 472219f:	e8 1c 08 60 03       	call   7d229c0 <pthread_mutex_unlock@plt>
 4722264:	e8 57 07 60 03       	call   7d229c0 <pthread_mutex_unlock@plt>
 4722ece:	e8 0d ba 45 00       	call   4b7e8e0 <mongo::repl::ReplSyncSharedData::unlock()>
 4722ed6:	e8 e5 fa 5f 03       	call   7d229c0 <pthread_mutex_unlock@plt>
 4724bbd:	e8 fe dd 5f 03       	call   7d229c0 <pthread_mutex_unlock@plt>
 4724bc5:	e8 c6 a7 34 ff       	call   3a6f390 <std::unique_lock<std::mutex>::unlock()>
 4724c6b:	e8 20 a7 34 ff       	call   3a6f390 <std::unique_lock<std::mutex>::unlock()>
 4724cf8:	e8 c3 dc 5f 03       	call   7d229c0 <pthread_mutex_unlock@plt>
 4724d42:	e8 49 a6 34 ff       	call   3a6f390 <std::unique_lock<std::mutex>::unlock()>
 4725859:	e8 62 d1 5f 03       	call   7d229c0 <pthread_mutex_unlock@plt>
 4726224:	e8 97 c7 5f 03       	call   7d229c0 <pthread_mutex_unlock@plt>
 4726bfc:	e8 bf bd 5f 03       	call   7d229c0 <pthread_mutex_unlock@plt>
 47271d8:	e8 e3 b7 5f 03       	call   7d229c0 <pthread_mutex_unlock@plt>
 472734d:	e8 6e b6 5f 03       	call   7d229c0 <pthread_mutex_unlock@plt>
 47279fd:	e8 be af 5f 03       	call   7d229c0 <pthread_mutex_unlock@plt>
 47288ff:	e8 8c 6a 34 ff       	call   3a6f390 <std::unique_lock<std::mutex>::unlock()>
 4728c97:	e8 f4 66 34 ff       	call   3a6f390 <std::unique_lock<std::mutex>::unlock()>
 47293e7:	e8 d4 95 5f 03       	call   7d229c0 <pthread_mutex_unlock@plt>
 47295ae:	e9 0d 94 5f 03       	jmp    7d229c0 <pthread_mutex_unlock@plt>
 472ae09:	e8 b2 7b 5f 03       	call   7d229c0 <pthread_mutex_unlock@plt>
 472edb2:	e8 29 fb 44 00       	call   4b7e8e0 <mongo::repl::ReplSyncSharedData::unlock()>
 472edcc:	e8 ef 3b 5f 03       	call   7d229c0 <pthread_mutex_unlock@plt>
 4730cf3:	e8 c8 1c 5f 03       	call   7d229c0 <pthread_mutex_unlock@plt>
 4730d7d:	e8 3e 1c 5f 03       	call   7d229c0 <pthread_mutex_unlock@plt>
 4730fa7:	e8 14 1a 5f 03       	call   7d229c0 <pthread_mutex_unlock@plt>
 47310fb:	e8 c0 18 5f 03       	call   7d229c0 <pthread_mutex_unlock@plt>
 4731565:	e8 56 14 5f 03       	call   7d229c0 <pthread_mutex_unlock@plt>
 47315db:	e8 e0 13 5f 03       	call   7d229c0 <pthread_mutex_unlock@plt>
 47317f4:	e8 c7 11 5f 03       	call   7d229c0 <pthread_mutex_unlock@plt>
 4731a4e:	e8 6d 0f 5f 03       	call   7d229c0 <pthread_mutex_unlock@plt>
 4731ad6:	e8 e5 0e 5f 03       	call   7d229c0 <pthread_mutex_unlock@plt>
 473270a:	e8 d1 c1 44 00       	call   4b7e8e0 <mongo::repl::ReplSyncSharedData::unlock()>
 47328ea:	e8 f1 bf 44 00       	call   4b7e8e0 <mongo::repl::ReplSyncSharedData::unlock()>
 473291b:	e8 c0 bf 44 00       	call   4b7e8e0 <mongo::repl::ReplSyncSharedData::unlock()>
 473299e:	e8 1d 00 5f 03       	call   7d229c0 <pthread_mutex_unlock@plt>
 473315c:	e8 5f f8 5e 03       	call   7d229c0 <pthread_mutex_unlock@plt>
 47337f9:	e8 c2 f1 5e 03       	call   7d229c0 <pthread_mutex_unlock@plt>
 4733ca2:	e8 39 ac 44 00       	call   4b7e8e0 <mongo::repl::ReplSyncSharedData::unlock()>
 4733eae:	e8 0d eb 5e 03       	call   7d229c0 <pthread_mutex_unlock@plt>
 47345bc:	e8 ff e3 5e 03       	call   7d229c0 <pthread_mutex_unlock@plt>
 4734753:	e8 68 e2 5e 03       	call   7d229c0 <pthread_mutex_unlock@plt>
 47349a8:	e8 e3 a9 33 ff       	call   3a6f390 <std::unique_lock<std::mutex>::unlock()>
 4734b70:	e8 4b de 5e 03       	call   7d229c0 <pthread_mutex_unlock@plt>
 4734b84:	e8 37 de 5e 03       	call   7d229c0 <pthread_mutex_unlock@plt>
 4734b98:	e8 23 de 5e 03       	call   7d229c0 <pthread_mutex_unlock@plt>
 4734bb1:	e8 2a 9d 44 00       	call   4b7e8e0 <mongo::repl::ReplSyncSharedData::unlock()>
 4734bb9:	e8 02 de 5e 03       	call   7d229c0 <pthread_mutex_unlock@plt>
 4734c93:	e8 28 dd 5e 03       	call   7d229c0 <pthread_mutex_unlock@plt>
 4735643:	e8 78 d3 5e 03       	call   7d229c0 <pthread_mutex_unlock@plt>
 473581f:	e8 9c f9 a4 02       	call   71851c0 <mongo::Lock::ResourceLock::_unlock()>
 4735b8b:	e8 30 ce 5e 03       	call   7d229c0 <pthread_mutex_unlock@plt>
 4736040:	e8 4b 93 33 ff       	call   3a6f390 <std::unique_lock<std::mutex>::unlock()>
 47361df:	e8 ac 91 33 ff       	call   3a6f390 <std::unique_lock<std::mutex>::unlock()>
 473622f:	e8 5c 91 33 ff       	call   3a6f390 <std::unique_lock<std::mutex>::unlock()>
 4736534:	e8 a7 83 44 00       	call   4b7e8e0 <mongo::repl::ReplSyncSharedData::unlock()>
 473653c:	e8 7f c4 5e 03       	call   7d229c0 <pthread_mutex_unlock@plt>
 47366e8:	e8 d3 c2 5e 03       	call   7d229c0 <pthread_mutex_unlock@plt>
 47367a8:	e8 13 c2 5e 03       	call   7d229c0 <pthread_mutex_unlock@plt>
 47368b5:	e8 06 c1 5e 03       	call   7d229c0 <pthread_mutex_unlock@plt>
 47368d4:	e8 e7 c0 5e 03       	call   7d229c0 <pthread_mutex_unlock@plt>
 4736978:	e8 43 c0 5e 03       	call   7d229c0 <pthread_mutex_unlock@plt>
 47369f1:	e8 ea 7e 44 00       	call   4b7e8e0 <mongo::repl::ReplSyncSharedData::unlock()>
 47369fd:	e8 be bf 5e 03       	call   7d229c0 <pthread_mutex_unlock@plt>
 4736b7b:	e8 10 88 33 ff       	call   3a6f390 <std::unique_lock<std::mutex>::unlock()>
 47371ea:	e8 d1 b7 5e 03       	call   7d229c0 <pthread_mutex_unlock@plt>
 4737480:	e8 3b b5 5e 03       	call   7d229c0 <pthread_mutex_unlock@plt>
 4737545:	e8 76 b4 5e 03       	call   7d229c0 <pthread_mutex_unlock@plt>
 4737681:	e8 3a b3 5e 03       	call   7d229c0 <pthread_mutex_unlock@plt>
 473774f:	e8 6c b2 5e 03       	call   7d229c0 <pthread_mutex_unlock@plt>
 47378a9:	e8 12 b1 5e 03       	call   7d229c0 <pthread_mutex_unlock@plt>
 4737a0f:	e8 ac af 5e 03       	call   7d229c0 <pthread_mutex_unlock@plt>
 4737b76:	e8 45 ae 5e 03       	call   7d229c0 <pthread_mutex_unlock@plt>
 4737f2b:	e8 90 aa 5e 03       	call   7d229c0 <pthread_mutex_unlock@plt>
 4738166:	e8 55 a8 5e 03       	call   7d229c0 <pthread_mutex_unlock@plt>
 473831c:	e8 9f a6 5e 03       	call   7d229c0 <pthread_mutex_unlock@plt>
 4738751:	e8 8a 61 44 00       	call   4b7e8e0 <mongo::repl::ReplSyncSharedData::unlock()>
 473875c:	e8 5f a2 5e 03       	call   7d229c0 <pthread_mutex_unlock@plt>
 473893e:	e8 4d 6a 33 ff       	call   3a6f390 <std::unique_lock<std::mutex>::unlock()>
 4738c7f:	e8 0c 67 33 ff       	call   3a6f390 <std::unique_lock<std::mutex>::unlock()>
 4738d4d:	e8 6e 9c 5e 03       	call   7d229c0 <pthread_mutex_unlock@plt>
 4738d6c:	e8 4f 9c 5e 03       	call   7d229c0 <pthread_mutex_unlock@plt>
 47390bf:	e8 cc 62 33 ff       	call   3a6f390 <std::unique_lock<std::mutex>::unlock()>
 47391d5:	e8 e6 97 5e 03       	call   7d229c0 <pthread_mutex_unlock@plt>
 4739245:	e8 76 97 5e 03       	call   7d229c0 <pthread_mutex_unlock@plt>
 473947e:	e8 3d 95 5e 03       	call   7d229c0 <pthread_mutex_unlock@plt>
 47394a3:	e8 18 95 5e 03       	call   7d229c0 <pthread_mutex_unlock@plt>
 4739bdb:	e8 e0 8d 5e 03       	call   7d229c0 <pthread_mutex_unlock@plt>
 473a92d:	e8 ae 3f 44 00       	call   4b7e8e0 <mongo::repl::ReplSyncSharedData::unlock()>
 473a935:	e8 86 80 5e 03       	call   7d229c0 <pthread_mutex_unlock@plt>
 473b4d3:	e8 e8 74 5e 03       	call   7d229c0 <pthread_mutex_unlock@plt>
 473b50f:	e8 ac 74 5e 03       	call   7d229c0 <pthread_mutex_unlock@plt>
 473b534:	e8 87 74 5e 03       	call   7d229c0 <pthread_mutex_unlock@plt>
 473b575:	e8 46 74 5e 03       	call   7d229c0 <pthread_mutex_unlock@plt>
 473b699:	e8 22 73 5e 03       	call   7d229c0 <pthread_mutex_unlock@plt>
 473b74d:	e8 6e 72 5e 03       	call   7d229c0 <pthread_mutex_unlock@plt>
 473c1fe:	e8 bd 67 5e 03       	call   7d229c0 <pthread_mutex_unlock@plt>
 473c2fa:	e8 c1 66 5e 03       	call   7d229c0 <pthread_mutex_unlock@plt>
 473c395:	e8 26 66 5e 03       	call   7d229c0 <pthread_mutex_unlock@plt>
 473c47e:	e8 3d 65 5e 03       	call   7d229c0 <pthread_mutex_unlock@plt>
 473c5a2:	e8 19 64 5e 03       	call   7d229c0 <pthread_mutex_unlock@plt>
 473c635:	e8 86 63 5e 03       	call   7d229c0 <pthread_mutex_unlock@plt>
 4744414:	e8 77 af 32 ff       	call   3a6f390 <std::unique_lock<std::mutex>::unlock()>
 474445c:	e8 2f af 32 ff       	call   3a6f390 <std::unique_lock<std::mutex>::unlock()>
 474451c:	e8 6f ae 32 ff       	call   3a6f390 <std::unique_lock<std::mutex>::unlock()>
 474cc6a:	e8 51 5d 5d 03       	call   7d229c0 <pthread_mutex_unlock@plt>
 474d4b4:	e8 07 55 5d 03       	call   7d229c0 <pthread_mutex_unlock@plt>
 474d71b:	e8 a0 52 5d 03       	call   7d229c0 <pthread_mutex_unlock@plt>
 474dd44:	e9 77 4c 5d 03       	jmp    7d229c0 <pthread_mutex_unlock@plt>
 474de88:	e9 33 4b 5d 03       	jmp    7d229c0 <pthread_mutex_unlock@plt>
 474ded0:	e9 eb 4a 5d 03       	jmp    7d229c0 <pthread_mutex_unlock@plt>
 474e5d6:	e8 e5 43 5d 03       	call   7d229c0 <pthread_mutex_unlock@plt>
 474e6c0:	e9 fb 42 5d 03       	jmp    7d229c0 <pthread_mutex_unlock@plt>
 474e9d2:	e9 e9 3f 5d 03       	jmp    7d229c0 <pthread_mutex_unlock@plt>
 474ea72:	e9 49 3f 5d 03       	jmp    7d229c0 <pthread_mutex_unlock@plt>
 4750788:	e8 33 22 5d 03       	call   7d229c0 <pthread_mutex_unlock@plt>
 47548d5:	e8 e6 e0 5c 03       	call   7d229c0 <pthread_mutex_unlock@plt>
 4754abb:	e8 00 df 5c 03       	call   7d229c0 <pthread_mutex_unlock@plt>
 4755136:	e8 85 d8 5c 03       	call   7d229c0 <pthread_mutex_unlock@plt>
 4756330:	e9 8b c6 5c 03       	jmp    7d229c0 <pthread_mutex_unlock@plt>
 475717b:	e8 40 b8 5c 03       	call   7d229c0 <pthread_mutex_unlock@plt>
 47571be:	e8 fd b7 5c 03       	call   7d229c0 <pthread_mutex_unlock@plt>
 47584f8:	e8 c3 a4 5c 03       	call   7d229c0 <pthread_mutex_unlock@plt>
 4759aa0:	e8 1b 8f 5c 03       	call   7d229c0 <pthread_mutex_unlock@plt>
 4760bcf:	e8 ec 1d 5c 03       	call   7d229c0 <pthread_mutex_unlock@plt>
 4763cd7:	e8 e4 ec 5b 03       	call   7d229c0 <pthread_mutex_unlock@plt>
 4763ddc:	e8 df eb 5b 03       	call   7d229c0 <pthread_mutex_unlock@plt>
 47644bf:	e8 fc e4 5b 03       	call   7d229c0 <pthread_mutex_unlock@plt>
 4764580:	e8 3b e4 5b 03       	call   7d229c0 <pthread_mutex_unlock@plt>
 4764fb2:	e8 09 da 5b 03       	call   7d229c0 <pthread_mutex_unlock@plt>
 476882e:	e9 8d a1 5b 03       	jmp    7d229c0 <pthread_mutex_unlock@plt>
 4768d3f:	e8 7c 9c 5b 03       	call   7d229c0 <pthread_mutex_unlock@plt>
 47692ca:	e8 f1 96 5b 03       	call   7d229c0 <pthread_mutex_unlock@plt>
 476b20f:	e8 ac 77 5b 03       	call   7d229c0 <pthread_mutex_unlock@plt>
 476b415:	e8 a6 75 5b 03       	call   7d229c0 <pthread_mutex_unlock@plt>
 476b44b:	e8 70 75 5b 03       	call   7d229c0 <pthread_mutex_unlock@plt>
 476c2ab:	e8 10 67 5b 03       	call   7d229c0 <pthread_mutex_unlock@plt>
 476c4f7:	e8 c4 64 5b 03       	call   7d229c0 <pthread_mutex_unlock@plt>
 476c5b3:	e8 08 64 5b 03       	call   7d229c0 <pthread_mutex_unlock@plt>
 476d58e:	e8 2d 54 5b 03       	call   7d229c0 <pthread_mutex_unlock@plt>
 476de94:	e8 27 4b 5b 03       	call   7d229c0 <pthread_mutex_unlock@plt>
 476ec09:	e8 b2 3d 5b 03       	call   7d229c0 <pthread_mutex_unlock@plt>
 476ec43:	e8 78 3d 5b 03       	call   7d229c0 <pthread_mutex_unlock@plt>
 476fa54:	e8 67 2f 5b 03       	call   7d229c0 <pthread_mutex_unlock@plt>
 476fefb:	e8 c0 2a 5b 03       	call   7d229c0 <pthread_mutex_unlock@plt>
 476ff33:	e8 88 2a 5b 03       	call   7d229c0 <pthread_mutex_unlock@plt>
 4770cc7:	e8 f4 1c 5b 03       	call   7d229c0 <pthread_mutex_unlock@plt>
 4771d4a:	e8 71 0c 5b 03       	call   7d229c0 <pthread_mutex_unlock@plt>
 47720cd:	e8 ee 08 5b 03       	call   7d229c0 <pthread_mutex_unlock@plt>
 4772643:	e8 78 03 5b 03       	call   7d229c0 <pthread_mutex_unlock@plt>
 4773780:	e8 3b f2 5a 03       	call   7d229c0 <pthread_mutex_unlock@plt>
 47737c0:	e8 fb f1 5a 03       	call   7d229c0 <pthread_mutex_unlock@plt>
 4778846:	e8 75 a1 5a 03       	call   7d229c0 <pthread_mutex_unlock@plt>
 4778d5a:	e8 61 9c 5a 03       	call   7d229c0 <pthread_mutex_unlock@plt>
 4778d7b:	e8 40 9c 5a 03       	call   7d229c0 <pthread_mutex_unlock@plt>
 4778f05:	e8 b6 9a 5a 03       	call   7d229c0 <pthread_mutex_unlock@plt>
 4778f73:	e8 48 9a 5a 03       	call   7d229c0 <pthread_mutex_unlock@plt>
 47794d5:	e8 e6 94 5a 03       	call   7d229c0 <pthread_mutex_unlock@plt>
 47795d9:	e8 e2 93 5a 03       	call   7d229c0 <pthread_mutex_unlock@plt>
 477977b:	e8 40 92 5a 03       	call   7d229c0 <pthread_mutex_unlock@plt>
 477a466:	e8 55 85 5a 03       	call   7d229c0 <pthread_mutex_unlock@plt>
 477afc5:	e8 f6 79 5a 03       	call   7d229c0 <pthread_mutex_unlock@plt>
 477b08e:	e8 2d 79 5a 03       	call   7d229c0 <pthread_mutex_unlock@plt>
 477ba60:	e8 5b 6f 5a 03       	call   7d229c0 <pthread_mutex_unlock@plt>
 477bc8d:	e8 2e 6d 5a 03       	call   7d229c0 <pthread_mutex_unlock@plt>
 477bfc1:	e8 fa 69 5a 03       	call   7d229c0 <pthread_mutex_unlock@plt>
 477c5e6:	e8 d5 63 5a 03       	call   7d229c0 <pthread_mutex_unlock@plt>
 477c97b:	e8 40 60 5a 03       	call   7d229c0 <pthread_mutex_unlock@plt>
 478095b:	e8 60 20 5a 03       	call   7d229c0 <pthread_mutex_unlock@plt>
 4786bb5:	e8 06 be 59 03       	call   7d229c0 <pthread_mutex_unlock@plt>
 4786dd0:	e8 eb bb 59 03       	call   7d229c0 <pthread_mutex_unlock@plt>
 47b44da:	e8 e1 e4 56 03       	call   7d229c0 <pthread_mutex_unlock@plt>
 47b4700:	e9 bb e2 56 03       	jmp    7d229c0 <pthread_mutex_unlock@plt>
 47b5794:	e8 47 91 3c 00       	call   4b7e8e0 <mongo::repl::ReplSyncSharedData::unlock()>
 47b5c4d:	e9 6e cd 56 03       	jmp    7d229c0 <pthread_mutex_unlock@plt>
 47b5d48:	e9 73 cc 56 03       	jmp    7d229c0 <pthread_mutex_unlock@plt>
 47b5e2a:	e9 91 cb 56 03       	jmp    7d229c0 <pthread_mutex_unlock@plt>
 47ba1a3:	e8 18 88 56 03       	call   7d229c0 <pthread_mutex_unlock@plt>
 47bb5b8:	e8 03 74 56 03       	call   7d229c0 <pthread_mutex_unlock@plt>
 47bb6c2:	e8 f9 72 56 03       	call   7d229c0 <pthread_mutex_unlock@plt>
 47bc195:	e8 26 68 56 03       	call   7d229c0 <pthread_mutex_unlock@plt>
 47bc73a:	e8 81 62 56 03       	call   7d229c0 <pthread_mutex_unlock@plt>
 47befe4:	e8 f7 f8 3b 00       	call   4b7e8e0 <mongo::repl::ReplSyncSharedData::unlock()>
 47bf2a3:	e8 18 37 56 03       	call   7d229c0 <pthread_mutex_unlock@plt>
 47bfd9e:	e8 1d 2c 56 03       	call   7d229c0 <pthread_mutex_unlock@plt>
 47c0a17:	e8 a4 1f 56 03       	call   7d229c0 <pthread_mutex_unlock@plt>
 47c1c72:	e8 49 0d 56 03       	call   7d229c0 <pthread_mutex_unlock@plt>
 47c46fc:	e8 df a1 3b 00       	call   4b7e8e0 <mongo::repl::ReplSyncSharedData::unlock()>
 47c4717:	e8 a4 e2 55 03       	call   7d229c0 <pthread_mutex_unlock@plt>
 47c4840:	e8 4b ab 2a ff       	call   3a6f390 <std::unique_lock<std::mutex>::unlock()>
 47c4da9:	e8 12 dc 55 03       	call   7d229c0 <pthread_mutex_unlock@plt>
 47c5ce9:	e8 d2 cc 55 03       	call   7d229c0 <pthread_mutex_unlock@plt>
 47c6e16:	e8 75 85 2a ff       	call   3a6f390 <std::unique_lock<std::mutex>::unlock()>
 47c84ff:	e8 bc a4 55 03       	call   7d229c0 <pthread_mutex_unlock@plt>
 47c8edd:	e8 de 9a 55 03       	call   7d229c0 <pthread_mutex_unlock@plt>
 47c921d:	e8 9e 97 55 03       	call   7d229c0 <pthread_mutex_unlock@plt>
 47c9555:	e8 66 94 55 03       	call   7d229c0 <pthread_mutex_unlock@plt>
 47cb191:	e9 2a 78 55 03       	jmp    7d229c0 <pthread_mutex_unlock@plt>
 47cb744:	e8 77 72 55 03       	call   7d229c0 <pthread_mutex_unlock@plt>
 47cb759:	e8 62 72 55 03       	call   7d229c0 <pthread_mutex_unlock@plt>
 47cb808:	e8 83 3b 2a ff       	call   3a6f390 <std::unique_lock<std::mutex>::unlock()>
 47cb898:	e8 23 71 55 03       	call   7d229c0 <pthread_mutex_unlock@plt>
 47cc2a1:	e9 1a 67 55 03       	jmp    7d229c0 <pthread_mutex_unlock@plt>
 47cc8f1:	e8 ea 1f 3b 00       	call   4b7e8e0 <mongo::repl::ReplSyncSharedData::unlock()>
 47cca94:	e9 27 5f 55 03       	jmp    7d229c0 <pthread_mutex_unlock@plt>
 47ccf8c:	e8 2f 5a 55 03       	call   7d229c0 <pthread_mutex_unlock@plt>
 47ceafc:	e9 bf 3e 55 03       	jmp    7d229c0 <pthread_mutex_unlock@plt>
 47cee58:	e8 63 3b 55 03       	call   7d229c0 <pthread_mutex_unlock@plt>
 47cf696:	e8 25 33 55 03       	call   7d229c0 <pthread_mutex_unlock@plt>
 47d020b:	e8 b0 27 55 03       	call   7d229c0 <pthread_mutex_unlock@plt>
 47d0de0:	e8 db 1b 55 03       	call   7d229c0 <pthread_mutex_unlock@plt>
 47d20f1:	e8 ea c7 3a 00       	call   4b7e8e0 <mongo::repl::ReplSyncSharedData::unlock()>
 47d20fd:	e8 be 08 55 03       	call   7d229c0 <pthread_mutex_unlock@plt>
 47d3aa6:	e8 15 ef 54 03       	call   7d229c0 <pthread_mutex_unlock@plt>
 47d3af1:	e8 ca ee 54 03       	call   7d229c0 <pthread_mutex_unlock@plt>
 47d4594:	e8 27 e4 54 03       	call   7d229c0 <pthread_mutex_unlock@plt>
 47d5209:	e8 b2 d7 54 03       	call   7d229c0 <pthread_mutex_unlock@plt>
 47d6ce9:	e8 d2 bc 54 03       	call   7d229c0 <pthread_mutex_unlock@plt>
 47d71de:	e9 dd b7 54 03       	jmp    7d229c0 <pthread_mutex_unlock@plt>
 47d8b05:	e8 b6 9e 54 03       	call   7d229c0 <pthread_mutex_unlock@plt>
 47d9fa2:	e8 39 49 3a 00       	call   4b7e8e0 <mongo::repl::ReplSyncSharedData::unlock()>
 47d9fbc:	e8 ff 89 54 03       	call   7d229c0 <pthread_mutex_unlock@plt>
 47dbb00:	e8 bb 6e 54 03       	call   7d229c0 <pthread_mutex_unlock@plt>
 47dbb3b:	e8 80 6e 54 03       	call   7d229c0 <pthread_mutex_unlock@plt>
 47dbc2b:	e8 90 6d 54 03       	call   7d229c0 <pthread_mutex_unlock@plt>
 47dc76d:	e8 1e 2c 29 ff       	call   3a6f390 <std::unique_lock<std::mutex>::unlock()>
 47dcc37:	e8 54 27 29 ff       	call   3a6f390 <std::unique_lock<std::mutex>::unlock()>
 47dcd37:	e8 54 26 29 ff       	call   3a6f390 <std::unique_lock<std::mutex>::unlock()>
 47dd218:	e8 a3 57 54 03       	call   7d229c0 <pthread_mutex_unlock@plt>
 47dd65b:	e8 60 53 54 03       	call   7d229c0 <pthread_mutex_unlock@plt>
 47dd9c0:	e8 fb 4f 54 03       	call   7d229c0 <pthread_mutex_unlock@plt>
 47dda36:	e8 85 4f 54 03       	call   7d229c0 <pthread_mutex_unlock@plt>
 47ddc44:	e8 77 4d 54 03       	call   7d229c0 <pthread_mutex_unlock@plt>
 47de792:	e8 49 01 3a 00       	call   4b7e8e0 <mongo::repl::ReplSyncSharedData::unlock()>
 47de8aa:	e8 11 41 54 03       	call   7d229c0 <pthread_mutex_unlock@plt>
 47de8e8:	e8 d3 40 54 03       	call   7d229c0 <pthread_mutex_unlock@plt>
 47df5c4:	e8 f7 33 54 03       	call   7d229c0 <pthread_mutex_unlock@plt>
 47df7cd:	e8 ee 31 54 03       	call   7d229c0 <pthread_mutex_unlock@plt>
 47e013f:	e8 9c e7 39 00       	call   4b7e8e0 <mongo::repl::ReplSyncSharedData::unlock()>
 47e0147:	e8 74 28 54 03       	call   7d229c0 <pthread_mutex_unlock@plt>
 47e024a:	e8 71 27 54 03       	call   7d229c0 <pthread_mutex_unlock@plt>
 47e0556:	e8 65 24 54 03       	call   7d229c0 <pthread_mutex_unlock@plt>
 47e07c0:	e8 fb 21 54 03       	call   7d229c0 <pthread_mutex_unlock@plt>
 47e0a54:	e8 87 de 39 00       	call   4b7e8e0 <mongo::repl::ReplSyncSharedData::unlock()>
 47e0a69:	e8 22 e9 28 ff       	call   3a6f390 <std::unique_lock<std::mutex>::unlock()>
 47e0ac5:	e8 f6 1e 54 03       	call   7d229c0 <pthread_mutex_unlock@plt>
 47e0c86:	e8 35 1d 54 03       	call   7d229c0 <pthread_mutex_unlock@plt>
 47e1074:	e8 17 e3 28 ff       	call   3a6f390 <std::unique_lock<std::mutex>::unlock()>
 47e162d:	e8 8e 13 54 03       	call   7d229c0 <pthread_mutex_unlock@plt>
 47e175a:	e8 61 12 54 03       	call   7d229c0 <pthread_mutex_unlock@plt>
 47e19e2:	e8 d9 0f 54 03       	call   7d229c0 <pthread_mutex_unlock@plt>
 47e1a53:	e8 68 0f 54 03       	call   7d229c0 <pthread_mutex_unlock@plt>
 47e1a8a:	e8 31 0f 54 03       	call   7d229c0 <pthread_mutex_unlock@plt>
 47e1f27:	e8 94 0a 54 03       	call   7d229c0 <pthread_mutex_unlock@plt>
 47e1fb3:	e8 d8 d3 28 ff       	call   3a6f390 <std::unique_lock<std::mutex>::unlock()>
 47e21cb:	e8 f0 07 54 03       	call   7d229c0 <pthread_mutex_unlock@plt>
 47e22a5:	e8 36 c6 39 00       	call   4b7e8e0 <mongo::repl::ReplSyncSharedData::unlock()>
 47e22b1:	e8 0a 07 54 03       	call   7d229c0 <pthread_mutex_unlock@plt>
 47e2327:	e8 94 06 54 03       	call   7d229c0 <pthread_mutex_unlock@plt>
 47e23fb:	e8 c0 05 54 03       	call   7d229c0 <pthread_mutex_unlock@plt>
 47e2485:	e9 36 05 54 03       	jmp    7d229c0 <pthread_mutex_unlock@plt>
 47e2933:	e8 88 00 54 03       	call   7d229c0 <pthread_mutex_unlock@plt>
 47e2fd3:	e8 e8 f9 53 03       	call   7d229c0 <pthread_mutex_unlock@plt>
 47e34cb:	e8 10 b4 39 00       	call   4b7e8e0 <mongo::repl::ReplSyncSharedData::unlock()>
 47e34d7:	e8 e4 f4 53 03       	call   7d229c0 <pthread_mutex_unlock@plt>
 47e3bb0:	e8 0b ee 53 03       	call   7d229c0 <pthread_mutex_unlock@plt>
 47e3d8d:	e8 2e ec 53 03       	call   7d229c0 <pthread_mutex_unlock@plt>
 47e3f00:	e8 bb ea 53 03       	call   7d229c0 <pthread_mutex_unlock@plt>
 47e40c1:	e8 fa e8 53 03       	call   7d229c0 <pthread_mutex_unlock@plt>
 47e47d6:	e8 e5 e1 53 03       	call   7d229c0 <pthread_mutex_unlock@plt>
 47e4d49:	e8 92 9b 39 00       	call   4b7e8e0 <mongo::repl::ReplSyncSharedData::unlock()>
 47e4d51:	e8 6a dc 53 03       	call   7d229c0 <pthread_mutex_unlock@plt>
 47e54e1:	e8 da d4 53 03       	call   7d229c0 <pthread_mutex_unlock@plt>
 47e5551:	e8 6a d4 53 03       	call   7d229c0 <pthread_mutex_unlock@plt>
 47e5876:	e8 15 9b 28 ff       	call   3a6f390 <std::unique_lock<std::mutex>::unlock()>
 47e58d4:	e8 b7 9a 28 ff       	call   3a6f390 <std::unique_lock<std::mutex>::unlock()>
 47e5ff1:	e8 ca c9 53 03       	call   7d229c0 <pthread_mutex_unlock@plt>
 47e632e:	e8 8d c6 53 03       	call   7d229c0 <pthread_mutex_unlock@plt>
 47e642a:	e8 91 c5 53 03       	call   7d229c0 <pthread_mutex_unlock@plt>
 47e64c5:	e8 f6 c4 53 03       	call   7d229c0 <pthread_mutex_unlock@plt>
 47e7bf4:	e8 97 77 28 ff       	call   3a6f390 <std::unique_lock<std::mutex>::unlock()>
 47e7c49:	e8 42 77 28 ff       	call   3a6f390 <std::unique_lock<std::mutex>::unlock()>
 47e7d0c:	e8 7f 76 28 ff       	call   3a6f390 <std::unique_lock<std::mutex>::unlock()>
 47ea078:	e8 43 89 53 03       	call   7d229c0 <pthread_mutex_unlock@plt>
 47ea238:	e8 83 87 53 03       	call   7d229c0 <pthread_mutex_unlock@plt>
 47eadd2:	e8 e9 7b 53 03       	call   7d229c0 <pthread_mutex_unlock@plt>
 47eb514:	e9 a7 74 53 03       	jmp    7d229c0 <pthread_mutex_unlock@plt>
 47eb678:	e8 43 73 53 03       	call   7d229c0 <pthread_mutex_unlock@plt>
 47ec6e0:	e8 db 62 53 03       	call   7d229c0 <pthread_mutex_unlock@plt>
 47ecc27:	e8 94 5d 53 03       	call   7d229c0 <pthread_mutex_unlock@plt>
 47ecd06:	e8 b5 5c 53 03       	call   7d229c0 <pthread_mutex_unlock@plt>
 47f0a2a:	e8 91 1f 53 03       	call   7d229c0 <pthread_mutex_unlock@plt>
 47f183b:	e9 80 11 53 03       	jmp    7d229c0 <pthread_mutex_unlock@plt>
 47f5d6e:	e8 4d cc 52 03       	call   7d229c0 <pthread_mutex_unlock@plt>
 47f5de2:	e8 d9 cb 52 03       	call   7d229c0 <pthread_mutex_unlock@plt>
 47f6844:	e8 77 c1 52 03       	call   7d229c0 <pthread_mutex_unlock@plt>
 47f8926:	e8 95 a0 52 03       	call   7d229c0 <pthread_mutex_unlock@plt>
 47f927f:	e8 0c 61 27 ff       	call   3a6f390 <std::unique_lock<std::mutex>::unlock()>
 47f97da:	e8 e1 91 52 03       	call   7d229c0 <pthread_mutex_unlock@plt>
 47f9e07:	e9 b4 8b 52 03       	jmp    7d229c0 <pthread_mutex_unlock@plt>
 47fb46d:	e8 0e 98 98 02       	call   7184c80 <mongo::Lock::GlobalLock::_unlock()>
 47fb4bb:	e8 00 9d 98 02       	call   71851c0 <mongo::Lock::ResourceLock::_unlock()>
 47fb4cf:	e8 ec 9c 98 02       	call   71851c0 <mongo::Lock::ResourceLock::_unlock()>
 47fc9ae:	e8 cd 82 98 02       	call   7184c80 <mongo::Lock::GlobalLock::_unlock()>
 47fca00:	e8 bb 87 98 02       	call   71851c0 <mongo::Lock::ResourceLock::_unlock()>
 47fd437:	e8 84 7d 98 02       	call   71851c0 <mongo::Lock::ResourceLock::_unlock()>
 47ffbe1:	e8 da 2d 52 03       	call   7d229c0 <pthread_mutex_unlock@plt>
 47ffe34:	e8 87 2b 52 03       	call   7d229c0 <pthread_mutex_unlock@plt>
 4800668:	e8 23 ed 26 ff       	call   3a6f390 <std::unique_lock<std::mutex>::unlock()>
 4800771:	e8 4a 22 52 03       	call   7d229c0 <pthread_mutex_unlock@plt>
 48033a7:	e8 14 f6 51 03       	call   7d229c0 <pthread_mutex_unlock@plt>
 48033f2:	e8 c9 f5 51 03       	call   7d229c0 <pthread_mutex_unlock@plt>
 4803504:	e8 87 be 26 ff       	call   3a6f390 <std::unique_lock<std::mutex>::unlock()>
 48072fa:	e8 c1 b6 51 03       	call   7d229c0 <pthread_mutex_unlock@plt>
 4807844:	e8 77 b1 51 03       	call   7d229c0 <pthread_mutex_unlock@plt>
 480785a:	e9 61 b1 51 03       	jmp    7d229c0 <pthread_mutex_unlock@plt>
 48078e1:	e8 da b0 51 03       	call   7d229c0 <pthread_mutex_unlock@plt>
 4807e09:	e8 b2 ab 51 03       	call   7d229c0 <pthread_mutex_unlock@plt>
 4807e81:	e8 3a ab 51 03       	call   7d229c0 <pthread_mutex_unlock@plt>
 480803d:	e8 7e a9 51 03       	call   7d229c0 <pthread_mutex_unlock@plt>
 4808054:	e8 37 73 26 ff       	call   3a6f390 <std::unique_lock<std::mutex>::unlock()>
 4808166:	e8 55 a8 51 03       	call   7d229c0 <pthread_mutex_unlock@plt>
 4808178:	e8 43 a8 51 03       	call   7d229c0 <pthread_mutex_unlock@plt>
 4808211:	e8 7a 71 26 ff       	call   3a6f390 <std::unique_lock<std::mutex>::unlock()>
 48082a2:	e8 19 a7 51 03       	call   7d229c0 <pthread_mutex_unlock@plt>
 4808adf:	e8 dc 9e 51 03       	call   7d229c0 <pthread_mutex_unlock@plt>
 48092b7:	e8 04 97 51 03       	call   7d229c0 <pthread_mutex_unlock@plt>
 480b234:	e8 57 41 26 ff       	call   3a6f390 <std::unique_lock<std::mutex>::unlock()>
 480f418:	e8 a3 5d 97 02       	call   71851c0 <mongo::Lock::ResourceLock::_unlock()>
 480fdc2:	e8 b9 4e 97 02       	call   7184c80 <mongo::Lock::GlobalLock::_unlock()>
 480fe10:	e8 ab 53 97 02       	call   71851c0 <mongo::Lock::ResourceLock::_unlock()>
 480fe67:	e8 54 53 97 02       	call   71851c0 <mongo::Lock::ResourceLock::_unlock()>
 480fedb:	e8 a0 4d 97 02       	call   7184c80 <mongo::Lock::GlobalLock::_unlock()>
 480ff2f:	e8 8c 52 97 02       	call   71851c0 <mongo::Lock::ResourceLock::_unlock()>
 480ff40:	e8 7b 52 97 02       	call   71851c0 <mongo::Lock::ResourceLock::_unlock()>
0000000004810928 <mongo::SimpleMutex::unlock() [clone .part.0]>:
 4810b63:	e8 28 e8 25 ff       	call   3a6f390 <std::unique_lock<std::mutex>::unlock()>
 4810b7f:	e8 0c e8 25 ff       	call   3a6f390 <std::unique_lock<std::mutex>::unlock()>
 4810bf4:	e8 2f fd ff ff       	call   4810928 <mongo::SimpleMutex::unlock() [clone .part.0]>
 4810c3d:	e8 7e 1d 51 03       	call   7d229c0 <pthread_mutex_unlock@plt>
 4810c46:	e8 dd fc ff ff       	call   4810928 <mongo::SimpleMutex::unlock() [clone .part.0]>
 4810d9e:	e8 85 fb ff ff       	call   4810928 <mongo::SimpleMutex::unlock() [clone .part.0]>
 4811281:	e8 0a e1 25 ff       	call   3a6f390 <std::unique_lock<std::mutex>::unlock()>
 4811693:	e8 28 3b 97 02       	call   71851c0 <mongo::Lock::ResourceLock::_unlock()>
 4815d6a:	e8 51 cc 50 03       	call   7d229c0 <pthread_mutex_unlock@plt>
 481ba5f:	e8 2c 39 25 ff       	call   3a6f390 <std::unique_lock<std::mutex>::unlock()>
 481c8e6:	e8 a5 2a 25 ff       	call   3a6f390 <std::unique_lock<std::mutex>::unlock()>
 48274d0:	e9 eb b4 4f 03       	jmp    7d229c0 <pthread_mutex_unlock@plt>
 48274e5:	e9 d6 b4 4f 03       	jmp    7d229c0 <pthread_mutex_unlock@plt>
 4827500:	e9 bb b4 4f 03       	jmp    7d229c0 <pthread_mutex_unlock@plt>
 4827518:	e9 a3 b4 4f 03       	jmp    7d229c0 <pthread_mutex_unlock@plt>
 4827530:	e9 8b b4 4f 03       	jmp    7d229c0 <pthread_mutex_unlock@plt>
 4827580:	e9 3b b4 4f 03       	jmp    7d229c0 <pthread_mutex_unlock@plt>
 4827595:	e9 26 b4 4f 03       	jmp    7d229c0 <pthread_mutex_unlock@plt>
 48275b0:	e9 0b b4 4f 03       	jmp    7d229c0 <pthread_mutex_unlock@plt>
 48275c8:	e9 f3 b3 4f 03       	jmp    7d229c0 <pthread_mutex_unlock@plt>
 48275e0:	e9 db b3 4f 03       	jmp    7d229c0 <pthread_mutex_unlock@plt>
 4827617:	e9 a4 b3 4f 03       	jmp    7d229c0 <pthread_mutex_unlock@plt>
 4827688:	e9 33 b3 4f 03       	jmp    7d229c0 <pthread_mutex_unlock@plt>
 48276e0:	e9 db b2 4f 03       	jmp    7d229c0 <pthread_mutex_unlock@plt>
 48276f8:	e9 c3 b2 4f 03       	jmp    7d229c0 <pthread_mutex_unlock@plt>
 4827710:	e9 ab b2 4f 03       	jmp    7d229c0 <pthread_mutex_unlock@plt>
 4827728:	e9 93 b2 4f 03       	jmp    7d229c0 <pthread_mutex_unlock@plt>
 4827740:	e9 7b b2 4f 03       	jmp    7d229c0 <pthread_mutex_unlock@plt>
 4827758:	e9 63 b2 4f 03       	jmp    7d229c0 <pthread_mutex_unlock@plt>
 4827770:	e9 4b b2 4f 03       	jmp    7d229c0 <pthread_mutex_unlock@plt>
 482779c:	e8 1f b2 4f 03       	call   7d229c0 <pthread_mutex_unlock@plt>
 48277df:	e8 dc b1 4f 03       	call   7d229c0 <pthread_mutex_unlock@plt>
 482781f:	e8 9c b1 4f 03       	call   7d229c0 <pthread_mutex_unlock@plt>
 482785f:	e8 5c b1 4f 03       	call   7d229c0 <pthread_mutex_unlock@plt>
 482789f:	e8 1c b1 4f 03       	call   7d229c0 <pthread_mutex_unlock@plt>
 48278dc:	e8 df b0 4f 03       	call   7d229c0 <pthread_mutex_unlock@plt>
 482791f:	e8 9c b0 4f 03       	call   7d229c0 <pthread_mutex_unlock@plt>
 482795f:	e8 5c b0 4f 03       	call   7d229c0 <pthread_mutex_unlock@plt>
 482799f:	e8 1c b0 4f 03       	call   7d229c0 <pthread_mutex_unlock@plt>
 48279df:	e8 dc af 4f 03       	call   7d229c0 <pthread_mutex_unlock@plt>
 4827a1f:	e8 9c af 4f 03       	call   7d229c0 <pthread_mutex_unlock@plt>
 4827a5f:	e8 5c af 4f 03       	call   7d229c0 <pthread_mutex_unlock@plt>
 4827a9f:	e8 1c af 4f 03       	call   7d229c0 <pthread_mutex_unlock@plt>
 4827adf:	e8 dc ae 4f 03       	call   7d229c0 <pthread_mutex_unlock@plt>
 4827b1f:	e8 9c ae 4f 03       	call   7d229c0 <pthread_mutex_unlock@plt>
 4827b5f:	e8 5c ae 4f 03       	call   7d229c0 <pthread_mutex_unlock@plt>
 4827b9f:	e8 1c ae 4f 03       	call   7d229c0 <pthread_mutex_unlock@plt>
 4827bdf:	e8 dc ad 4f 03       	call   7d229c0 <pthread_mutex_unlock@plt>
 4827c1f:	e8 9c ad 4f 03       	call   7d229c0 <pthread_mutex_unlock@plt>
 4827d2a:	e9 91 ac 4f 03       	jmp    7d229c0 <pthread_mutex_unlock@plt>
 4827dac:	e9 0f ac 4f 03       	jmp    7d229c0 <pthread_mutex_unlock@plt>
 4827e54:	e9 67 ab 4f 03       	jmp    7d229c0 <pthread_mutex_unlock@plt>
 4827eb6:	e9 05 ab 4f 03       	jmp    7d229c0 <pthread_mutex_unlock@plt>
 4827f36:	e9 85 aa 4f 03       	jmp    7d229c0 <pthread_mutex_unlock@plt>
 4827fa2:	e8 19 aa 4f 03       	call   7d229c0 <pthread_mutex_unlock@plt>
 4827ffd:	e8 be a9 4f 03       	call   7d229c0 <pthread_mutex_unlock@plt>
 482808e:	e8 2d a9 4f 03       	call   7d229c0 <pthread_mutex_unlock@plt>
 4828158:	e9 63 a8 4f 03       	jmp    7d229c0 <pthread_mutex_unlock@plt>
 4828327:	e9 94 a6 4f 03       	jmp    7d229c0 <pthread_mutex_unlock@plt>
 482840e:	e8 ad a5 4f 03       	call   7d229c0 <pthread_mutex_unlock@plt>
 48284d4:	e9 e7 a4 4f 03       	jmp    7d229c0 <pthread_mutex_unlock@plt>
 4828556:	e9 65 a4 4f 03       	jmp    7d229c0 <pthread_mutex_unlock@plt>
 4828694:	e8 27 a3 4f 03       	call   7d229c0 <pthread_mutex_unlock@plt>
 48286a8:	e8 13 a3 4f 03       	call   7d229c0 <pthread_mutex_unlock@plt>
 48286bc:	e8 ff a2 4f 03       	call   7d229c0 <pthread_mutex_unlock@plt>
 48286d0:	e8 eb a2 4f 03       	call   7d229c0 <pthread_mutex_unlock@plt>
 4828940:	e8 7b a0 4f 03       	call   7d229c0 <pthread_mutex_unlock@plt>
 4828980:	e8 3b a0 4f 03       	call   7d229c0 <pthread_mutex_unlock@plt>
 4857e69:	e8 72 6a 32 00       	call   4b7e8e0 <mongo::repl::ReplSyncSharedData::unlock()>
 485817a:	e8 41 a8 4c 03       	call   7d229c0 <pthread_mutex_unlock@plt>
 4858b30:	e8 ab 5d 32 00       	call   4b7e8e0 <mongo::repl::ReplSyncSharedData::unlock()>
 4858b63:	e8 78 5d 32 00       	call   4b7e8e0 <mongo::repl::ReplSyncSharedData::unlock()>
 4859023:	e8 98 99 4c 03       	call   7d229c0 <pthread_mutex_unlock@plt>
 485907a:	e8 41 99 4c 03       	call   7d229c0 <pthread_mutex_unlock@plt>
 48590ca:	e8 f1 98 4c 03       	call   7d229c0 <pthread_mutex_unlock@plt>
 485913a:	e8 a1 57 32 00       	call   4b7e8e0 <mongo::repl::ReplSyncSharedData::unlock()>
 485914a:	e9 71 98 4c 03       	jmp    7d229c0 <pthread_mutex_unlock@plt>
 485918e:	e8 2d 98 4c 03       	call   7d229c0 <pthread_mutex_unlock@plt>
 48592a9:	e9 12 97 4c 03       	jmp    7d229c0 <pthread_mutex_unlock@plt>
 4859325:	e9 96 96 4c 03       	jmp    7d229c0 <pthread_mutex_unlock@plt>
 4859370:	e8 4b 96 4c 03       	call   7d229c0 <pthread_mutex_unlock@plt>
 485939f:	e8 1c 96 4c 03       	call   7d229c0 <pthread_mutex_unlock@plt>
 48594aa:	e8 31 54 32 00       	call   4b7e8e0 <mongo::repl::ReplSyncSharedData::unlock()>
 48594ec:	e8 ef 53 32 00       	call   4b7e8e0 <mongo::repl::ReplSyncSharedData::unlock()>
 4859585:	e8 56 53 32 00       	call   4b7e8e0 <mongo::repl::ReplSyncSharedData::unlock()>
 485971f:	e8 9c 92 4c 03       	call   7d229c0 <pthread_mutex_unlock@plt>
 4859d62:	e8 59 8c 4c 03       	call   7d229c0 <pthread_mutex_unlock@plt>
 485a596:	e8 25 84 4c 03       	call   7d229c0 <pthread_mutex_unlock@plt>
 485a611:	e8 aa 83 4c 03       	call   7d229c0 <pthread_mutex_unlock@plt>
 485a65c:	e8 2f 4d 21 ff       	call   3a6f390 <std::unique_lock<std::mutex>::unlock()>
 485b605:	e8 d6 32 32 00       	call   4b7e8e0 <mongo::repl::ReplSyncSharedData::unlock()>
 485b6cb:	e8 f0 72 4c 03       	call   7d229c0 <pthread_mutex_unlock@plt>
 485b93f:	e8 4c 3a 21 ff       	call   3a6f390 <std::unique_lock<std::mutex>::unlock()>
 485b9aa:	e8 e1 39 21 ff       	call   3a6f390 <std::unique_lock<std::mutex>::unlock()>
 485d1ea:	e8 f1 16 32 00       	call   4b7e8e0 <mongo::repl::ReplSyncSharedData::unlock()>
 485dd23:	e8 98 4c 4c 03       	call   7d229c0 <pthread_mutex_unlock@plt>
 485f6ab:	e9 10 33 4c 03       	jmp    7d229c0 <pthread_mutex_unlock@plt>
 4860c3f:	e8 4c e7 20 ff       	call   3a6f390 <std::unique_lock<std::mutex>::unlock()>
 4860ee1:	e8 aa e4 20 ff       	call   3a6f390 <std::unique_lock<std::mutex>::unlock()>
 4861a8f:	e8 fc d8 20 ff       	call   3a6f390 <std::unique_lock<std::mutex>::unlock()>
 4861c2d:	e8 5e d7 20 ff       	call   3a6f390 <std::unique_lock<std::mutex>::unlock()>
 4861fe1:	e9 da 09 4c 03       	jmp    7d229c0 <pthread_mutex_unlock@plt>
 4862528:	e9 93 04 4c 03       	jmp    7d229c0 <pthread_mutex_unlock@plt>
 48627e6:	e8 a5 cb 20 ff       	call   3a6f390 <std::unique_lock<std::mutex>::unlock()>
 4862c02:	e9 b9 fd 4b 03       	jmp    7d229c0 <pthread_mutex_unlock@plt>
 486369d:	e9 1e f3 4b 03       	jmp    7d229c0 <pthread_mutex_unlock@plt>
 486463a:	e8 81 e3 4b 03       	call   7d229c0 <pthread_mutex_unlock@plt>
 486470c:	e8 af e2 4b 03       	call   7d229c0 <pthread_mutex_unlock@plt>
 4864753:	e8 68 e2 4b 03       	call   7d229c0 <pthread_mutex_unlock@plt>
 4864bcc:	e8 ef dd 4b 03       	call   7d229c0 <pthread_mutex_unlock@plt>
 4864d60:	e8 5b dc 4b 03       	call   7d229c0 <pthread_mutex_unlock@plt>
 4865273:	e9 48 d7 4b 03       	jmp    7d229c0 <pthread_mutex_unlock@plt>
 486586a:	e9 51 d1 4b 03       	jmp    7d229c0 <pthread_mutex_unlock@plt>
 4865c87:	e9 34 cd 4b 03       	jmp    7d229c0 <pthread_mutex_unlock@plt>
 486667c:	e8 3f c3 4b 03       	call   7d229c0 <pthread_mutex_unlock@plt>
 4867617:	e8 74 7d 20 ff       	call   3a6f390 <std::unique_lock<std::mutex>::unlock()>
 4867914:	e8 77 7a 20 ff       	call   3a6f390 <std::unique_lock<std::mutex>::unlock()>
 4867af7:	e8 94 78 20 ff       	call   3a6f390 <std::unique_lock<std::mutex>::unlock()>
 4868a67:	e8 54 9f 4b 03       	call   7d229c0 <pthread_mutex_unlock@plt>
 4868b45:	e8 76 9e 4b 03       	call   7d229c0 <pthread_mutex_unlock@plt>
 4868c05:	e8 b6 9d 4b 03       	call   7d229c0 <pthread_mutex_unlock@plt>
 4868d05:	e8 b6 9c 4b 03       	call   7d229c0 <pthread_mutex_unlock@plt>
 4869379:	e8 62 55 31 00       	call   4b7e8e0 <mongo::repl::ReplSyncSharedData::unlock()>
 48696ea:	e8 d1 92 4b 03       	call   7d229c0 <pthread_mutex_unlock@plt>
 4869aa5:	e8 16 8f 4b 03       	call   7d229c0 <pthread_mutex_unlock@plt>
 486a1ea:	e8 d1 87 4b 03       	call   7d229c0 <pthread_mutex_unlock@plt>
 486a57c:	e8 3f 84 4b 03       	call   7d229c0 <pthread_mutex_unlock@plt>
 486bdfe:	e8 8d 35 20 ff       	call   3a6f390 <std::unique_lock<std::mutex>::unlock()>
 486bf04:	e8 d7 29 31 00       	call   4b7e8e0 <mongo::repl::ReplSyncSharedData::unlock()>
 486c055:	e8 36 33 20 ff       	call   3a6f390 <std::unique_lock<std::mutex>::unlock()>
 486c29f:	e8 ec 30 20 ff       	call   3a6f390 <std::unique_lock<std::mutex>::unlock()>
 486c3d7:	e8 b4 2f 20 ff       	call   3a6f390 <std::unique_lock<std::mutex>::unlock()>
 486c56c:	e8 1f 2e 20 ff       	call   3a6f390 <std::unique_lock<std::mutex>::unlock()>
 486cc70:	e8 6b 1c 31 00       	call   4b7e8e0 <mongo::repl::ReplSyncSharedData::unlock()>
 486cd60:	e8 5b 5c 4b 03       	call   7d229c0 <pthread_mutex_unlock@plt>
 486cd7c:	e8 3f 5c 4b 03       	call   7d229c0 <pthread_mutex_unlock@plt>
 486cd90:	e8 4b 1b 31 00       	call   4b7e8e0 <mongo::repl::ReplSyncSharedData::unlock()>
 486ce2d:	e8 8e 5b 4b 03       	call   7d229c0 <pthread_mutex_unlock@plt>
 486ce7f:	e8 0c 25 20 ff       	call   3a6f390 <std::unique_lock<std::mutex>::unlock()>
 486ce9b:	e8 f0 24 20 ff       	call   3a6f390 <std::unique_lock<std::mutex>::unlock()>
 486d052:	e8 89 18 31 00       	call   4b7e8e0 <mongo::repl::ReplSyncSharedData::unlock()>
 486d100:	e8 bb 58 4b 03       	call   7d229c0 <pthread_mutex_unlock@plt>
 486d185:	e8 06 22 20 ff       	call   3a6f390 <std::unique_lock<std::mutex>::unlock()>
 486d578:	e8 63 13 31 00       	call   4b7e8e0 <mongo::repl::ReplSyncSharedData::unlock()>
 486d711:	e8 aa 52 4b 03       	call   7d229c0 <pthread_mutex_unlock@plt>
 486da75:	e8 46 4f 4b 03       	call   7d229c0 <pthread_mutex_unlock@plt>
 486deae:	e8 0d 4b 4b 03       	call   7d229c0 <pthread_mutex_unlock@plt>
 486e1b5:	e8 d6 11 20 ff       	call   3a6f390 <std::unique_lock<std::mutex>::unlock()>
 486e32d:	e8 5e 10 20 ff       	call   3a6f390 <std::unique_lock<std::mutex>::unlock()>
 486e518:	e8 a3 44 4b 03       	call   7d229c0 <pthread_mutex_unlock@plt>
 486e54b:	e8 40 0e 20 ff       	call   3a6f390 <std::unique_lock<std::mutex>::unlock()>
 486e6af:	e8 0c 43 4b 03       	call   7d229c0 <pthread_mutex_unlock@plt>
 486e89a:	e8 21 41 4b 03       	call   7d229c0 <pthread_mutex_unlock@plt>
 486e94b:	e8 40 0a 20 ff       	call   3a6f390 <std::unique_lock<std::mutex>::unlock()>
 486edd7:	e8 e4 3b 4b 03       	call   7d229c0 <pthread_mutex_unlock@plt>
 486ee58:	e8 63 3b 4b 03       	call   7d229c0 <pthread_mutex_unlock@plt>
 486ef36:	e8 85 3a 4b 03       	call   7d229c0 <pthread_mutex_unlock@plt>
 486efc5:	e8 f6 39 4b 03       	call   7d229c0 <pthread_mutex_unlock@plt>
 486f09f:	e8 1c 39 4b 03       	call   7d229c0 <pthread_mutex_unlock@plt>
 486f1a8:	e8 13 38 4b 03       	call   7d229c0 <pthread_mutex_unlock@plt>
 486f227:	e8 94 37 4b 03       	call   7d229c0 <pthread_mutex_unlock@plt>
 486f4e4:	e8 d7 34 4b 03       	call   7d229c0 <pthread_mutex_unlock@plt>
 486f8e1:	e8 aa fa 1f ff       	call   3a6f390 <std::unique_lock<std::mutex>::unlock()>
 486f98f:	e8 fc f9 1f ff       	call   3a6f390 <std::unique_lock<std::mutex>::unlock()>
 48704cc:	e8 ef 24 4b 03       	call   7d229c0 <pthread_mutex_unlock@plt>
 487053b:	e8 80 24 4b 03       	call   7d229c0 <pthread_mutex_unlock@plt>
 4870668:	e8 53 23 4b 03       	call   7d229c0 <pthread_mutex_unlock@plt>
 4870a29:	e8 92 1f 4b 03       	call   7d229c0 <pthread_mutex_unlock@plt>
 4870a4e:	e8 8d de 30 00       	call   4b7e8e0 <mongo::repl::ReplSyncSharedData::unlock()>
 4870add:	e8 de 1e 4b 03       	call   7d229c0 <pthread_mutex_unlock@plt>
 4870bdb:	e8 b0 e7 1f ff       	call   3a6f390 <std::unique_lock<std::mutex>::unlock()>
 48713e3:	e8 f8 d4 30 00       	call   4b7e8e0 <mongo::repl::ReplSyncSharedData::unlock()>
 487148b:	e8 50 d4 30 00       	call   4b7e8e0 <mongo::repl::ReplSyncSharedData::unlock()>
 4871549:	e8 92 d3 30 00       	call   4b7e8e0 <mongo::repl::ReplSyncSharedData::unlock()>
 487168b:	e8 50 d2 30 00       	call   4b7e8e0 <mongo::repl::ReplSyncSharedData::unlock()>
 48716e3:	e8 f8 d1 30 00       	call   4b7e8e0 <mongo::repl::ReplSyncSharedData::unlock()>
 487407e:	e8 5d a8 30 00       	call   4b7e8e0 <mongo::repl::ReplSyncSharedData::unlock()>
 48743c6:	e8 15 a5 30 00       	call   4b7e8e0 <mongo::repl::ReplSyncSharedData::unlock()>
 4874731:	e8 aa a1 30 00       	call   4b7e8e0 <mongo::repl::ReplSyncSharedData::unlock()>
 4878ae8:	e9 d3 9e 4a 03       	jmp    7d229c0 <pthread_mutex_unlock@plt>
 4878c3e:	e9 7d 9d 4a 03       	jmp    7d229c0 <pthread_mutex_unlock@plt>
 4878eac:	e8 0f 9b 4a 03       	call   7d229c0 <pthread_mutex_unlock@plt>
 4878f2f:	e9 8c 9a 4a 03       	jmp    7d229c0 <pthread_mutex_unlock@plt>
 4879233:	e9 88 97 4a 03       	jmp    7d229c0 <pthread_mutex_unlock@plt>
 487a635:	e9 86 83 4a 03       	jmp    7d229c0 <pthread_mutex_unlock@plt>
 487aad4:	e9 e7 7e 4a 03       	jmp    7d229c0 <pthread_mutex_unlock@plt>
 487ace4:	e8 d7 7c 4a 03       	call   7d229c0 <pthread_mutex_unlock@plt>
 487ad04:	e8 b7 7c 4a 03       	call   7d229c0 <pthread_mutex_unlock@plt>
 487ad24:	e8 97 7c 4a 03       	call   7d229c0 <pthread_mutex_unlock@plt>
 487affd:	e8 be 79 4a 03       	call   7d229c0 <pthread_mutex_unlock@plt>
 487b08c:	e8 2f 79 4a 03       	call   7d229c0 <pthread_mutex_unlock@plt>
 487fbf7:	e8 c4 2d 4a 03       	call   7d229c0 <pthread_mutex_unlock@plt>
 487fc47:	e8 74 2d 4a 03       	call   7d229c0 <pthread_mutex_unlock@plt>
 487fe4f:	e8 6c 2b 4a 03       	call   7d229c0 <pthread_mutex_unlock@plt>
 487ff9b:	e8 20 2a 4a 03       	call   7d229c0 <pthread_mutex_unlock@plt>
 4881b9d:	e8 1e 0e 4a 03       	call   7d229c0 <pthread_mutex_unlock@plt>
 4881be8:	e9 d3 0d 4a 03       	jmp    7d229c0 <pthread_mutex_unlock@plt>
 4881c38:	e8 83 0d 4a 03       	call   7d229c0 <pthread_mutex_unlock@plt>
 4881cd1:	e8 ea 0c 4a 03       	call   7d229c0 <pthread_mutex_unlock@plt>
 4881d5a:	e8 61 0c 4a 03       	call   7d229c0 <pthread_mutex_unlock@plt>
 4881dee:	e8 cd 0b 4a 03       	call   7d229c0 <pthread_mutex_unlock@plt>
 4881fc9:	e8 f2 09 4a 03       	call   7d229c0 <pthread_mutex_unlock@plt>
 488208c:	e8 2f 09 4a 03       	call   7d229c0 <pthread_mutex_unlock@plt>
 488209b:	e8 20 09 4a 03       	call   7d229c0 <pthread_mutex_unlock@plt>
 48820bc:	e8 ff 08 4a 03       	call   7d229c0 <pthread_mutex_unlock@plt>
 48820d2:	e9 e9 08 4a 03       	jmp    7d229c0 <pthread_mutex_unlock@plt>
 4882245:	e8 76 07 4a 03       	call   7d229c0 <pthread_mutex_unlock@plt>
 488224d:	e8 6e 07 4a 03       	call   7d229c0 <pthread_mutex_unlock@plt>
 488225b:	e8 60 07 4a 03       	call   7d229c0 <pthread_mutex_unlock@plt>
 4882286:	e8 35 07 4a 03       	call   7d229c0 <pthread_mutex_unlock@plt>
 488228e:	e8 2d 07 4a 03       	call   7d229c0 <pthread_mutex_unlock@plt>
 48822d3:	e8 e8 06 4a 03       	call   7d229c0 <pthread_mutex_unlock@plt>
 48828cc:	e8 ef 00 4a 03       	call   7d229c0 <pthread_mutex_unlock@plt>
 488294b:	e8 70 00 4a 03       	call   7d229c0 <pthread_mutex_unlock@plt>
 4882c8c:	e8 2f fd 49 03       	call   7d229c0 <pthread_mutex_unlock@plt>
 4882d0b:	e8 b0 fc 49 03       	call   7d229c0 <pthread_mutex_unlock@plt>
 488308f:	e8 2c f9 49 03       	call   7d229c0 <pthread_mutex_unlock@plt>
 48830c1:	e8 fa f8 49 03       	call   7d229c0 <pthread_mutex_unlock@plt>
 48832a2:	e8 19 f7 49 03       	call   7d229c0 <pthread_mutex_unlock@plt>
 48832eb:	e8 d0 f6 49 03       	call   7d229c0 <pthread_mutex_unlock@plt>
 48833a0:	e8 1b f6 49 03       	call   7d229c0 <pthread_mutex_unlock@plt>
 48833ad:	e8 0e f6 49 03       	call   7d229c0 <pthread_mutex_unlock@plt>
 48833d4:	e8 e7 f5 49 03       	call   7d229c0 <pthread_mutex_unlock@plt>
 488367b:	e8 40 f3 49 03       	call   7d229c0 <pthread_mutex_unlock@plt>
 488374b:	e8 70 f2 49 03       	call   7d229c0 <pthread_mutex_unlock@plt>
 48837c7:	e8 f4 f1 49 03       	call   7d229c0 <pthread_mutex_unlock@plt>
 48838c8:	e8 f3 f0 49 03       	call   7d229c0 <pthread_mutex_unlock@plt>
 48839bf:	e8 fc ef 49 03       	call   7d229c0 <pthread_mutex_unlock@plt>
 48839cc:	e8 ef ef 49 03       	call   7d229c0 <pthread_mutex_unlock@plt>
 4883d6b:	e8 50 ec 49 03       	call   7d229c0 <pthread_mutex_unlock@plt>
 4883e3b:	e8 80 eb 49 03       	call   7d229c0 <pthread_mutex_unlock@plt>
 4883eb7:	e8 04 eb 49 03       	call   7d229c0 <pthread_mutex_unlock@plt>
 4883fb8:	e8 03 ea 49 03       	call   7d229c0 <pthread_mutex_unlock@plt>
 48840bf:	e8 fc e8 49 03       	call   7d229c0 <pthread_mutex_unlock@plt>
 48840cc:	e8 ef e8 49 03       	call   7d229c0 <pthread_mutex_unlock@plt>
 488468e:	e8 2d e3 49 03       	call   7d229c0 <pthread_mutex_unlock@plt>
 48847eb:	e8 a0 ab 1e ff       	call   3a6f390 <std::unique_lock<std::mutex>::unlock()>
 488481a:	e8 71 ab 1e ff       	call   3a6f390 <std::unique_lock<std::mutex>::unlock()>
 48848ce:	e8 bd aa 1e ff       	call   3a6f390 <std::unique_lock<std::mutex>::unlock()>
 4884aa9:	e8 12 df 49 03       	call   7d229c0 <pthread_mutex_unlock@plt>
 4884b21:	e8 9a de 49 03       	call   7d229c0 <pthread_mutex_unlock@plt>
 4884bf9:	e9 c2 dd 49 03       	jmp    7d229c0 <pthread_mutex_unlock@plt>
 4884c80:	e8 0b a7 1e ff       	call   3a6f390 <std::unique_lock<std::mutex>::unlock()>
 4884c9f:	e8 ec a6 1e ff       	call   3a6f390 <std::unique_lock<std::mutex>::unlock()>
 4885146:	e8 75 d8 49 03       	call   7d229c0 <pthread_mutex_unlock@plt>
 48851cf:	e8 ec d7 49 03       	call   7d229c0 <pthread_mutex_unlock@plt>
 48851e3:	e8 d8 d7 49 03       	call   7d229c0 <pthread_mutex_unlock@plt>
 4885210:	e8 ab d7 49 03       	call   7d229c0 <pthread_mutex_unlock@plt>
 488524a:	e8 71 d7 49 03       	call   7d229c0 <pthread_mutex_unlock@plt>
 4885272:	e9 49 d7 49 03       	jmp    7d229c0 <pthread_mutex_unlock@plt>
 4885283:	e8 38 d7 49 03       	call   7d229c0 <pthread_mutex_unlock@plt>
 48852bb:	e8 00 d7 49 03       	call   7d229c0 <pthread_mutex_unlock@plt>
 4885753:	e8 68 d2 49 03       	call   7d229c0 <pthread_mutex_unlock@plt>
 48857d5:	e9 e6 d1 49 03       	jmp    7d229c0 <pthread_mutex_unlock@plt>
 488584a:	e8 71 d1 49 03       	call   7d229c0 <pthread_mutex_unlock@plt>
 488597e:	e8 3d d0 49 03       	call   7d229c0 <pthread_mutex_unlock@plt>
 48859ed:	e8 ce cf 49 03       	call   7d229c0 <pthread_mutex_unlock@plt>
 48859f5:	e8 c6 cf 49 03       	call   7d229c0 <pthread_mutex_unlock@plt>
 4885ac1:	e8 fa ce 49 03       	call   7d229c0 <pthread_mutex_unlock@plt>
 4885c47:	e8 74 cd 49 03       	call   7d229c0 <pthread_mutex_unlock@plt>
 4885cb9:	e8 02 cd 49 03       	call   7d229c0 <pthread_mutex_unlock@plt>
 4885da9:	e9 12 cc 49 03       	jmp    7d229c0 <pthread_mutex_unlock@plt>
 4885f47:	e8 74 ca 49 03       	call   7d229c0 <pthread_mutex_unlock@plt>
 488669c:	e8 1f c3 49 03       	call   7d229c0 <pthread_mutex_unlock@plt>
 4886725:	e8 66 8c 1e ff       	call   3a6f390 <std::unique_lock<std::mutex>::unlock()>
 4886741:	e8 4a 8c 1e ff       	call   3a6f390 <std::unique_lock<std::mutex>::unlock()>
 488827e:	e8 3d a7 49 03       	call   7d229c0 <pthread_mutex_unlock@plt>
 4889452:	e8 89 54 2f 00       	call   4b7e8e0 <mongo::repl::ReplSyncSharedData::unlock()>
 488b27a:	e8 41 77 49 03       	call   7d229c0 <pthread_mutex_unlock@plt>
 488baf1:	e8 ca 6e 49 03       	call   7d229c0 <pthread_mutex_unlock@plt>
 488bbd4:	e8 e7 6d 49 03       	call   7d229c0 <pthread_mutex_unlock@plt>
 488beac:	e8 0f 6b 49 03       	call   7d229c0 <pthread_mutex_unlock@plt>
 488c97c:	e8 3f 60 49 03       	call   7d229c0 <pthread_mutex_unlock@plt>
 488cee3:	e8 f8 19 2f 00       	call   4b7e8e0 <mongo::repl::ReplSyncSharedData::unlock()>
 488d037:	e8 a4 18 2f 00       	call   4b7e8e0 <mongo::repl::ReplSyncSharedData::unlock()>
 488d0d0:	e8 0b 18 2f 00       	call   4b7e8e0 <mongo::repl::ReplSyncSharedData::unlock()>
 488d15d:	e8 7e 17 2f 00       	call   4b7e8e0 <mongo::repl::ReplSyncSharedData::unlock()>
 488d2f6:	e8 c5 56 49 03       	call   7d229c0 <pthread_mutex_unlock@plt>
 488d56e:	e8 4d 54 49 03       	call   7d229c0 <pthread_mutex_unlock@plt>
 488d5f4:	e8 c7 53 49 03       	call   7d229c0 <pthread_mutex_unlock@plt>
 488d9e2:	e8 f9 0e 2f 00       	call   4b7e8e0 <mongo::repl::ReplSyncSharedData::unlock()>
 488db28:	e8 b3 0d 2f 00       	call   4b7e8e0 <mongo::repl::ReplSyncSharedData::unlock()>
 488f4d2:	e9 e9 34 49 03       	jmp    7d229c0 <pthread_mutex_unlock@plt>
 488fcf1:	e8 ca 2c 49 03       	call   7d229c0 <pthread_mutex_unlock@plt>
 4890c3f:	e8 7c 1d 49 03       	call   7d229c0 <pthread_mutex_unlock@plt>
 489124a:	e8 71 17 49 03       	call   7d229c0 <pthread_mutex_unlock@plt>
 48917f6:	e8 c5 11 49 03       	call   7d229c0 <pthread_mutex_unlock@plt>
 4891907:	e9 b4 10 49 03       	jmp    7d229c0 <pthread_mutex_unlock@plt>
 4891f9b:	e8 40 c9 2e 00       	call   4b7e8e0 <mongo::repl::ReplSyncSharedData::unlock()>
 48920db:	e8 e0 08 49 03       	call   7d229c0 <pthread_mutex_unlock@plt>
 48938d8:	e8 e3 f0 48 03       	call   7d229c0 <pthread_mutex_unlock@plt>
 48956a6:	e8 15 d3 48 03       	call   7d229c0 <pthread_mutex_unlock@plt>
 4895746:	e8 75 d2 48 03       	call   7d229c0 <pthread_mutex_unlock@plt>
 4895c49:	e8 72 cd 48 03       	call   7d229c0 <pthread_mutex_unlock@plt>
 4895d60:	e8 5b cc 48 03       	call   7d229c0 <pthread_mutex_unlock@plt>
 4895f6b:	e8 70 89 2e 00       	call   4b7e8e0 <mongo::repl::ReplSyncSharedData::unlock()>
 48961d5:	e8 e6 c7 48 03       	call   7d229c0 <pthread_mutex_unlock@plt>
 4898b72:	e9 49 9e 48 03       	jmp    7d229c0 <pthread_mutex_unlock@plt>
 489927b:	e8 40 97 48 03       	call   7d229c0 <pthread_mutex_unlock@plt>
 489c2b7:	e8 04 67 48 03       	call   7d229c0 <pthread_mutex_unlock@plt>
 489c392:	e8 29 66 48 03       	call   7d229c0 <pthread_mutex_unlock@plt>
 489c7f9:	e8 c2 61 48 03       	call   7d229c0 <pthread_mutex_unlock@plt>
 489c84a:	e8 71 61 48 03       	call   7d229c0 <pthread_mutex_unlock@plt>
 489c935:	e8 86 60 48 03       	call   7d229c0 <pthread_mutex_unlock@plt>
 489ca72:	e8 49 5f 48 03       	call   7d229c0 <pthread_mutex_unlock@plt>
 489cac1:	e8 fa 5e 48 03       	call   7d229c0 <pthread_mutex_unlock@plt>
 489d3da:	e8 e1 55 48 03       	call   7d229c0 <pthread_mutex_unlock@plt>
 489d4a5:	e8 16 55 48 03       	call   7d229c0 <pthread_mutex_unlock@plt>
 489d4c6:	e8 f5 54 48 03       	call   7d229c0 <pthread_mutex_unlock@plt>
 489fbb5:	e8 26 ed 2d 00       	call   4b7e8e0 <mongo::repl::ReplSyncSharedData::unlock()>
 489fc8a:	e8 31 2d 48 03       	call   7d229c0 <pthread_mutex_unlock@plt>
 48a107a:	e8 61 d8 2d 00       	call   4b7e8e0 <mongo::repl::ReplSyncSharedData::unlock()>
 48a19cc:	e8 0f cf 2d 00       	call   4b7e8e0 <mongo::repl::ReplSyncSharedData::unlock()>
 48a1b44:	e8 97 cd 2d 00       	call   4b7e8e0 <mongo::repl::ReplSyncSharedData::unlock()>
 48a2aa3:	e8 38 be 2d 00       	call   4b7e8e0 <mongo::repl::ReplSyncSharedData::unlock()>
 48a2d1a:	e8 c1 bb 2d 00       	call   4b7e8e0 <mongo::repl::ReplSyncSharedData::unlock()>
 48a2d3e:	e8 9d bb 2d 00       	call   4b7e8e0 <mongo::repl::ReplSyncSharedData::unlock()>
 48a9942:	e9 79 90 47 03       	jmp    7d229c0 <pthread_mutex_unlock@plt>
 48a997a:	e8 41 90 47 03       	call   7d229c0 <pthread_mutex_unlock@plt>
 48aa5bd:	e8 fe 83 47 03       	call   7d229c0 <pthread_mutex_unlock@plt>
 48ab094:	e8 47 38 2d 00       	call   4b7e8e0 <mongo::repl::ReplSyncSharedData::unlock()>
 48abfe7:	e8 d4 69 47 03       	call   7d229c0 <pthread_mutex_unlock@plt>
 48ac3b9:	e8 02 66 47 03       	call   7d229c0 <pthread_mutex_unlock@plt>
 48aca8a:	e8 31 5f 47 03       	call   7d229c0 <pthread_mutex_unlock@plt>
 48ad02f:	e8 8c 59 47 03       	call   7d229c0 <pthread_mutex_unlock@plt>
 48ae397:	e8 24 46 47 03       	call   7d229c0 <pthread_mutex_unlock@plt>
 48ae9d6:	e8 e5 3f 47 03       	call   7d229c0 <pthread_mutex_unlock@plt>
 48aea60:	e8 5b 3f 47 03       	call   7d229c0 <pthread_mutex_unlock@plt>
 48aecbb:	e8 20 fc 2c 00       	call   4b7e8e0 <mongo::repl::ReplSyncSharedData::unlock()>
 48aed25:	e8 96 3c 47 03       	call   7d229c0 <pthread_mutex_unlock@plt>
 48aedb2:	e8 09 3c 47 03       	call   7d229c0 <pthread_mutex_unlock@plt>
 48aefdf:	e8 dc 39 47 03       	call   7d229c0 <pthread_mutex_unlock@plt>
 48af077:	e8 44 39 47 03       	call   7d229c0 <pthread_mutex_unlock@plt>
 48af084:	e8 37 39 47 03       	call   7d229c0 <pthread_mutex_unlock@plt>
 48b168a:	e8 31 13 47 03       	call   7d229c0 <pthread_mutex_unlock@plt>
 48b1705:	e9 b6 12 47 03       	jmp    7d229c0 <pthread_mutex_unlock@plt>
 48b1785:	e9 36 12 47 03       	jmp    7d229c0 <pthread_mutex_unlock@plt>
 48b23e1:	e8 da 05 47 03       	call   7d229c0 <pthread_mutex_unlock@plt>
 48b2898:	e8 23 01 47 03       	call   7d229c0 <pthread_mutex_unlock@plt>
 48b3c8b:	e8 30 ed 46 03       	call   7d229c0 <pthread_mutex_unlock@plt>
 48b5591:	e8 2a d4 46 03       	call   7d229c0 <pthread_mutex_unlock@plt>
 48b6c66:	e8 55 bd 46 03       	call   7d229c0 <pthread_mutex_unlock@plt>
 48b717a:	e8 61 77 2c 00       	call   4b7e8e0 <mongo::repl::ReplSyncSharedData::unlock()>
 48b80c9:	e8 f2 a8 46 03       	call   7d229c0 <pthread_mutex_unlock@plt>
 48b95e7:	e8 a4 5d 1b ff       	call   3a6f390 <std::unique_lock<std::mutex>::unlock()>
 48ba9a6:	e8 15 80 46 03       	call   7d229c0 <pthread_mutex_unlock@plt>
 48ba9ba:	e8 01 80 46 03       	call   7d229c0 <pthread_mutex_unlock@plt>
 48ba9ce:	e8 ed 7f 46 03       	call   7d229c0 <pthread_mutex_unlock@plt>
 48babe3:	e8 d8 7d 46 03       	call   7d229c0 <pthread_mutex_unlock@plt>
 48baeb6:	e8 05 7b 46 03       	call   7d229c0 <pthread_mutex_unlock@plt>
 48bb575:	e8 46 74 46 03       	call   7d229c0 <pthread_mutex_unlock@plt>
 48bba68:	e8 73 2e 2c 00       	call   4b7e8e0 <mongo::repl::ReplSyncSharedData::unlock()>
 48bbce3:	e8 a8 36 1b ff       	call   3a6f390 <std::unique_lock<std::mutex>::unlock()>
 48bc07d:	e8 3e 69 46 03       	call   7d229c0 <pthread_mutex_unlock@plt>
 48bd392:	e9 29 56 46 03       	jmp    7d229c0 <pthread_mutex_unlock@plt>
 48be175:	e8 46 48 46 03       	call   7d229c0 <pthread_mutex_unlock@plt>
 48bfe8f:	e8 2c 2b 46 03       	call   7d229c0 <pthread_mutex_unlock@plt>
 48bffa4:	e8 17 2a 46 03       	call   7d229c0 <pthread_mutex_unlock@plt>
 48c05b3:	e8 08 24 46 03       	call   7d229c0 <pthread_mutex_unlock@plt>
 48c062e:	e9 8d 23 46 03       	jmp    7d229c0 <pthread_mutex_unlock@plt>
 48c078a:	e8 31 22 46 03       	call   7d229c0 <pthread_mutex_unlock@plt>
 48c14c4:	e8 f7 14 46 03       	call   7d229c0 <pthread_mutex_unlock@plt>
 48c206b:	e8 70 c8 2b 00       	call   4b7e8e0 <mongo::repl::ReplSyncSharedData::unlock()>
 48c2da6:	e8 15 fc 45 03       	call   7d229c0 <pthread_mutex_unlock@plt>
 48c2e41:	e8 7a fb 45 03       	call   7d229c0 <pthread_mutex_unlock@plt>
 48c3271:	e8 4a f7 45 03       	call   7d229c0 <pthread_mutex_unlock@plt>
 48c32b6:	e8 05 f7 45 03       	call   7d229c0 <pthread_mutex_unlock@plt>
 48c3448:	e8 73 f5 45 03       	call   7d229c0 <pthread_mutex_unlock@plt>
 48c3e8f:	e8 4c aa 2b 00       	call   4b7e8e0 <mongo::repl::ReplSyncSharedData::unlock()>
 48c5eaa:	e9 11 cb 45 03       	jmp    7d229c0 <pthread_mutex_unlock@plt>
 48c654a:	e8 71 c4 45 03       	call   7d229c0 <pthread_mutex_unlock@plt>
 48c6641:	e8 7a c3 45 03       	call   7d229c0 <pthread_mutex_unlock@plt>
 48c7110:	e9 ab b8 45 03       	jmp    7d229c0 <pthread_mutex_unlock@plt>
 48c7518:	e8 c3 73 2b 00       	call   4b7e8e0 <mongo::repl::ReplSyncSharedData::unlock()>
 48c7633:	e8 88 b3 45 03       	call   7d229c0 <pthread_mutex_unlock@plt>
 48c791e:	e8 9d b0 45 03       	call   7d229c0 <pthread_mutex_unlock@plt>
 48c8187:	e8 34 a8 45 03       	call   7d229c0 <pthread_mutex_unlock@plt>
 48c952a:	e8 91 94 45 03       	call   7d229c0 <pthread_mutex_unlock@plt>
 48c95f5:	e8 c6 93 45 03       	call   7d229c0 <pthread_mutex_unlock@plt>
 48ca31c:	e8 9f 86 45 03       	call   7d229c0 <pthread_mutex_unlock@plt>
 48ca330:	e8 8b 86 45 03       	call   7d229c0 <pthread_mutex_unlock@plt>
 48ca4bc:	e8 ff 84 45 03       	call   7d229c0 <pthread_mutex_unlock@plt>
 48ca97b:	e8 40 80 45 03       	call   7d229c0 <pthread_mutex_unlock@plt>
 48ca9c8:	e8 13 3f 2b 00       	call   4b7e8e0 <mongo::repl::ReplSyncSharedData::unlock()>
 48cad64:	e8 57 7c 45 03       	call   7d229c0 <pthread_mutex_unlock@plt>
 48cb3d9:	e8 e2 75 45 03       	call   7d229c0 <pthread_mutex_unlock@plt>
 48cc5aa:	e8 11 64 45 03       	call   7d229c0 <pthread_mutex_unlock@plt>
 48cd817:	e9 a4 51 45 03       	jmp    7d229c0 <pthread_mutex_unlock@plt>
 48cd983:	e9 38 50 45 03       	jmp    7d229c0 <pthread_mutex_unlock@plt>
 48cdab0:	e8 0b 4f 45 03       	call   7d229c0 <pthread_mutex_unlock@plt>
 48cdc0f:	e8 ac 4d 45 03       	call   7d229c0 <pthread_mutex_unlock@plt>
 48cdd60:	e8 5b 4c 45 03       	call   7d229c0 <pthread_mutex_unlock@plt>
 48ce7bb:	e8 00 42 45 03       	call   7d229c0 <pthread_mutex_unlock@plt>
 48cec24:	e8 97 3d 45 03       	call   7d229c0 <pthread_mutex_unlock@plt>
 48ceeca:	e9 f1 3a 45 03       	jmp    7d229c0 <pthread_mutex_unlock@plt>
 48cefbd:	e9 fe 39 45 03       	jmp    7d229c0 <pthread_mutex_unlock@plt>
 48cf0bf:	e9 fc 38 45 03       	jmp    7d229c0 <pthread_mutex_unlock@plt>
 48cf1dc:	e8 df 37 45 03       	call   7d229c0 <pthread_mutex_unlock@plt>
 48cf5c6:	e9 f5 33 45 03       	jmp    7d229c0 <pthread_mutex_unlock@plt>
 48d04b0:	e8 0b 25 45 03       	call   7d229c0 <pthread_mutex_unlock@plt>
 48d06ae:	e8 0d 23 45 03       	call   7d229c0 <pthread_mutex_unlock@plt>
 48d09dd:	e8 de 1f 45 03       	call   7d229c0 <pthread_mutex_unlock@plt>
 48d0a4c:	e8 6f 1f 45 03       	call   7d229c0 <pthread_mutex_unlock@plt>
 48d0b4b:	e8 70 1e 45 03       	call   7d229c0 <pthread_mutex_unlock@plt>
 48d0fde:	e8 fd d8 2a 00       	call   4b7e8e0 <mongo::repl::ReplSyncSharedData::unlock()>
 48d1007:	e8 d4 d8 2a 00       	call   4b7e8e0 <mongo::repl::ReplSyncSharedData::unlock()>
 48d1061:	e8 5a 19 45 03       	call   7d229c0 <pthread_mutex_unlock@plt>
 48d1074:	e8 47 19 45 03       	call   7d229c0 <pthread_mutex_unlock@plt>
 48d109c:	e8 1f 19 45 03       	call   7d229c0 <pthread_mutex_unlock@plt>
 48d11a2:	e8 19 18 45 03       	call   7d229c0 <pthread_mutex_unlock@plt>
 48d17f8:	e8 93 db 19 ff       	call   3a6f390 <std::unique_lock<std::mutex>::unlock()>
 48d1cfc:	e8 8f d6 19 ff       	call   3a6f390 <std::unique_lock<std::mutex>::unlock()>
 48d1da8:	e8 13 0c 45 03       	call   7d229c0 <pthread_mutex_unlock@plt>
 48d1e08:	e8 b3 0b 45 03       	call   7d229c0 <pthread_mutex_unlock@plt>
 48d2a0c:	e8 7f c9 19 ff       	call   3a6f390 <std::unique_lock<std::mutex>::unlock()>
 48d2e3f:	e8 4c c5 19 ff       	call   3a6f390 <std::unique_lock<std::mutex>::unlock()>
 48d2ec0:	e8 fb fa 44 03       	call   7d229c0 <pthread_mutex_unlock@plt>
 48d2f0c:	e8 af fa 44 03       	call   7d229c0 <pthread_mutex_unlock@plt>
 48d3c47:	e8 74 ed 44 03       	call   7d229c0 <pthread_mutex_unlock@plt>
 48d3c6f:	e8 4c ed 44 03       	call   7d229c0 <pthread_mutex_unlock@plt>
 48d3ca9:	e8 12 ed 44 03       	call   7d229c0 <pthread_mutex_unlock@plt>
 48f5d2a:	e8 91 cc 42 03       	call   7d229c0 <pthread_mutex_unlock@plt>
 48fdc31:	e8 5a 17 17 ff       	call   3a6f390 <std::unique_lock<std::mutex>::unlock()>
 490495d:	e8 2e aa 16 ff       	call   3a6f390 <std::unique_lock<std::mutex>::unlock()>
 490e40a:	e8 b1 45 41 03       	call   7d229c0 <pthread_mutex_unlock@plt>
 490e8a6:	e9 15 41 41 03       	jmp    7d229c0 <pthread_mutex_unlock@plt>
 490fb21:	e9 9a 2e 41 03       	jmp    7d229c0 <pthread_mutex_unlock@plt>
 491000d:	e8 ae 29 41 03       	call   7d229c0 <pthread_mutex_unlock@plt>
 491009e:	e9 1d 29 41 03       	jmp    7d229c0 <pthread_mutex_unlock@plt>
 491214f:	e8 6c 08 41 03       	call   7d229c0 <pthread_mutex_unlock@plt>
 4912840:	e8 7b 01 41 03       	call   7d229c0 <pthread_mutex_unlock@plt>
 49128ff:	e8 8c ca 15 ff       	call   3a6f390 <std::unique_lock<std::mutex>::unlock()>
 4916624:	e8 97 c3 40 03       	call   7d229c0 <pthread_mutex_unlock@plt>
 49167ad:	e8 0e c2 40 03       	call   7d229c0 <pthread_mutex_unlock@plt>
 4916a6b:	e8 50 bf 40 03       	call   7d229c0 <pthread_mutex_unlock@plt>
 491765d:	e8 5e b3 40 03       	call   7d229c0 <pthread_mutex_unlock@plt>
 491768f:	e8 2c b3 40 03       	call   7d229c0 <pthread_mutex_unlock@plt>
 49179c6:	e8 f5 af 40 03       	call   7d229c0 <pthread_mutex_unlock@plt>
 4917ad9:	e8 e2 ae 40 03       	call   7d229c0 <pthread_mutex_unlock@plt>
 4917b33:	e8 88 ae 40 03       	call   7d229c0 <pthread_mutex_unlock@plt>
 4917c98:	e8 23 ad 40 03       	call   7d229c0 <pthread_mutex_unlock@plt>
 4917dd9:	e8 e2 ab 40 03       	call   7d229c0 <pthread_mutex_unlock@plt>
 4917dff:	e9 bc ab 40 03       	jmp    7d229c0 <pthread_mutex_unlock@plt>
 49197d4:	e8 e7 91 40 03       	call   7d229c0 <pthread_mutex_unlock@plt>
 491bea6:	e8 15 6b 40 03       	call   7d229c0 <pthread_mutex_unlock@plt>
 491c1e7:	e9 d4 67 40 03       	jmp    7d229c0 <pthread_mutex_unlock@plt>
 491c3f9:	e9 c2 65 40 03       	jmp    7d229c0 <pthread_mutex_unlock@plt>
 491c61b:	e8 a0 63 40 03       	call   7d229c0 <pthread_mutex_unlock@plt>
 491d13b:	e8 80 58 40 03       	call   7d229c0 <pthread_mutex_unlock@plt>
 491d17f:	e8 3c 58 40 03       	call   7d229c0 <pthread_mutex_unlock@plt>
 491d187:	e8 34 58 40 03       	call   7d229c0 <pthread_mutex_unlock@plt>
 491efc4:	e8 b7 5c 86 02       	call   7184c80 <mongo::Lock::GlobalLock::_unlock()>
 491f219:	e8 a2 37 40 03       	call   7d229c0 <pthread_mutex_unlock@plt>
 491f231:	e8 8a 37 40 03       	call   7d229c0 <pthread_mutex_unlock@plt>
 491f23d:	e8 7e 37 40 03       	call   7d229c0 <pthread_mutex_unlock@plt>
 491f745:	e8 76 5a 86 02       	call   71851c0 <mongo::Lock::ResourceLock::_unlock()>
 491f756:	e8 65 5a 86 02       	call   71851c0 <mongo::Lock::ResourceLock::_unlock()>
 4921016:	e8 a5 19 40 03       	call   7d229c0 <pthread_mutex_unlock@plt>
 4921940:	e8 7b 10 40 03       	call   7d229c0 <pthread_mutex_unlock@plt>
 4921a48:	e8 73 0f 40 03       	call   7d229c0 <pthread_mutex_unlock@plt>
 4921a5d:	e8 2e d9 14 ff       	call   3a6f390 <std::unique_lock<std::mutex>::unlock()>
 4921ffa:	e8 91 d3 14 ff       	call   3a6f390 <std::unique_lock<std::mutex>::unlock()>
 4922085:	e8 06 d3 14 ff       	call   3a6f390 <std::unique_lock<std::mutex>::unlock()>
 4922c7e:	e8 3d fd 3f 03       	call   7d229c0 <pthread_mutex_unlock@plt>
 4922c8a:	e8 31 fd 3f 03       	call   7d229c0 <pthread_mutex_unlock@plt>
 4922f21:	e8 9a fa 3f 03       	call   7d229c0 <pthread_mutex_unlock@plt>
 4922f3f:	e8 7c fa 3f 03       	call   7d229c0 <pthread_mutex_unlock@plt>
 4922f48:	e8 73 fa 3f 03       	call   7d229c0 <pthread_mutex_unlock@plt>
 4923446:	e8 75 f5 3f 03       	call   7d229c0 <pthread_mutex_unlock@plt>
 4923c7b:	e8 40 ed 3f 03       	call   7d229c0 <pthread_mutex_unlock@plt>
 4923cbe:	e8 fd ec 3f 03       	call   7d229c0 <pthread_mutex_unlock@plt>
 4923d06:	e8 b5 ec 3f 03       	call   7d229c0 <pthread_mutex_unlock@plt>
 4923d49:	e8 72 ec 3f 03       	call   7d229c0 <pthread_mutex_unlock@plt>
 49240f9:	e8 c2 e8 3f 03       	call   7d229c0 <pthread_mutex_unlock@plt>
 4924137:	e8 84 e8 3f 03       	call   7d229c0 <pthread_mutex_unlock@plt>
 49241d4:	e8 e7 e7 3f 03       	call   7d229c0 <pthread_mutex_unlock@plt>
 49246ef:	e8 cc e2 3f 03       	call   7d229c0 <pthread_mutex_unlock@plt>
 4926548:	e8 73 c4 3f 03       	call   7d229c0 <pthread_mutex_unlock@plt>
 49265a5:	e8 16 c4 3f 03       	call   7d229c0 <pthread_mutex_unlock@plt>
 4926751:	e8 6a c2 3f 03       	call   7d229c0 <pthread_mutex_unlock@plt>
 49267a8:	e8 13 c2 3f 03       	call   7d229c0 <pthread_mutex_unlock@plt>
 49269f1:	e8 9a 89 14 ff       	call   3a6f390 <std::unique_lock<std::mutex>::unlock()>
 4926a1e:	e8 6d 89 14 ff       	call   3a6f390 <std::unique_lock<std::mutex>::unlock()>
 492b62a:	e8 91 73 3f 03       	call   7d229c0 <pthread_mutex_unlock@plt>
 492ba05:	e8 b6 6f 3f 03       	call   7d229c0 <pthread_mutex_unlock@plt>
 492ba2b:	e9 90 6f 3f 03       	jmp    7d229c0 <pthread_mutex_unlock@plt>
 492ba9f:	e8 1c 6f 3f 03       	call   7d229c0 <pthread_mutex_unlock@plt>
 492bab3:	e8 08 6f 3f 03       	call   7d229c0 <pthread_mutex_unlock@plt>
 492bad4:	e8 e7 6e 3f 03       	call   7d229c0 <pthread_mutex_unlock@plt>
 492bb45:	e9 76 6e 3f 03       	jmp    7d229c0 <pthread_mutex_unlock@plt>
 492bbc4:	e8 f7 6d 3f 03       	call   7d229c0 <pthread_mutex_unlock@plt>
 492bbd3:	e8 e8 6d 3f 03       	call   7d229c0 <pthread_mutex_unlock@plt>
 492bbf4:	e8 c7 6d 3f 03       	call   7d229c0 <pthread_mutex_unlock@plt>
 492bc99:	e8 22 6d 3f 03       	call   7d229c0 <pthread_mutex_unlock@plt>
 492bdbf:	e8 fc 6b 3f 03       	call   7d229c0 <pthread_mutex_unlock@plt>
 492bed2:	e9 e9 6a 3f 03       	jmp    7d229c0 <pthread_mutex_unlock@plt>
 492c131:	e8 8a 68 3f 03       	call   7d229c0 <pthread_mutex_unlock@plt>
 492c25c:	e8 5f 67 3f 03       	call   7d229c0 <pthread_mutex_unlock@plt>
 492ce1d:	e8 9e 5b 3f 03       	call   7d229c0 <pthread_mutex_unlock@plt>
 492d256:	e8 65 57 3f 03       	call   7d229c0 <pthread_mutex_unlock@plt>
 492d476:	e8 45 55 3f 03       	call   7d229c0 <pthread_mutex_unlock@plt>
 492d4ba:	e8 01 55 3f 03       	call   7d229c0 <pthread_mutex_unlock@plt>
 492d4e7:	e8 d4 54 3f 03       	call   7d229c0 <pthread_mutex_unlock@plt>
 492d5f8:	e8 c3 53 3f 03       	call   7d229c0 <pthread_mutex_unlock@plt>
 492d656:	e8 65 53 3f 03       	call   7d229c0 <pthread_mutex_unlock@plt>
 492d892:	e8 29 51 3f 03       	call   7d229c0 <pthread_mutex_unlock@plt>
 492da00:	e8 bb 4f 3f 03       	call   7d229c0 <pthread_mutex_unlock@plt>
 492db2c:	e9 8f 4e 3f 03       	jmp    7d229c0 <pthread_mutex_unlock@plt>
 492dbb5:	e8 06 4e 3f 03       	call   7d229c0 <pthread_mutex_unlock@plt>
 492dfa0:	e8 1b 4a 3f 03       	call   7d229c0 <pthread_mutex_unlock@plt>
 492dfb4:	e8 07 4a 3f 03       	call   7d229c0 <pthread_mutex_unlock@plt>
 492dfe4:	e8 d7 49 3f 03       	call   7d229c0 <pthread_mutex_unlock@plt>
 492e118:	e8 73 12 14 ff       	call   3a6f390 <std::unique_lock<std::mutex>::unlock()>
 492e1ea:	e8 a1 11 14 ff       	call   3a6f390 <std::unique_lock<std::mutex>::unlock()>
 492e27a:	e8 11 11 14 ff       	call   3a6f390 <std::unique_lock<std::mutex>::unlock()>
 492e31c:	e8 6f 10 14 ff       	call   3a6f390 <std::unique_lock<std::mutex>::unlock()>
 493e6ae:	e8 0d 43 3e 03       	call   7d229c0 <pthread_mutex_unlock@plt>
 493e6e7:	e9 d4 42 3e 03       	jmp    7d229c0 <pthread_mutex_unlock@plt>
 4948274:	e8 47 a7 3d 03       	call   7d229c0 <pthread_mutex_unlock@plt>
 4954a6a:	e8 51 df 3c 03       	call   7d229c0 <pthread_mutex_unlock@plt>
 495566d:	e8 4e d3 3c 03       	call   7d229c0 <pthread_mutex_unlock@plt>
 4955683:	e9 38 d3 3c 03       	jmp    7d229c0 <pthread_mutex_unlock@plt>
 4955711:	e8 aa d2 3c 03       	call   7d229c0 <pthread_mutex_unlock@plt>
 4955794:	e9 27 d2 3c 03       	jmp    7d229c0 <pthread_mutex_unlock@plt>
 49557e4:	e8 d7 d1 3c 03       	call   7d229c0 <pthread_mutex_unlock@plt>
 4955878:	e9 43 d1 3c 03       	jmp    7d229c0 <pthread_mutex_unlock@plt>
 4955940:	e8 7b d0 3c 03       	call   7d229c0 <pthread_mutex_unlock@plt>
 495637e:	e8 3d c6 3c 03       	call   7d229c0 <pthread_mutex_unlock@plt>
 4956393:	e8 28 c6 3c 03       	call   7d229c0 <pthread_mutex_unlock@plt>
 495661a:	e8 a1 c3 3c 03       	call   7d229c0 <pthread_mutex_unlock@plt>
 495669d:	e8 1e c3 3c 03       	call   7d229c0 <pthread_mutex_unlock@plt>
 49566bd:	e8 fe c2 3c 03       	call   7d229c0 <pthread_mutex_unlock@plt>
 4956836:	e8 85 c1 3c 03       	call   7d229c0 <pthread_mutex_unlock@plt>
 4956910:	e9 ab c0 3c 03       	jmp    7d229c0 <pthread_mutex_unlock@plt>
 4956a1c:	e8 9f bf 3c 03       	call   7d229c0 <pthread_mutex_unlock@plt>
 4956e67:	e8 54 bb 3c 03       	call   7d229c0 <pthread_mutex_unlock@plt>
 4956f28:	e8 93 ba 3c 03       	call   7d229c0 <pthread_mutex_unlock@plt>
 4956fcf:	e8 ec b9 3c 03       	call   7d229c0 <pthread_mutex_unlock@plt>
 4957039:	e8 82 b9 3c 03       	call   7d229c0 <pthread_mutex_unlock@plt>
 4957bc8:	e8 f3 ad 3c 03       	call   7d229c0 <pthread_mutex_unlock@plt>
 4957dc5:	e8 f6 ab 3c 03       	call   7d229c0 <pthread_mutex_unlock@plt>
 4957e1a:	e8 a1 ab 3c 03       	call   7d229c0 <pthread_mutex_unlock@plt>
 4957ee2:	e8 a9 74 11 ff       	call   3a6f390 <std::unique_lock<std::mutex>::unlock()>
 4957fb6:	e8 d5 73 11 ff       	call   3a6f390 <std::unique_lock<std::mutex>::unlock()>
 4958a9b:	e9 20 9f 3c 03       	jmp    7d229c0 <pthread_mutex_unlock@plt>
 4958aef:	e8 cc 9e 3c 03       	call   7d229c0 <pthread_mutex_unlock@plt>
 4958b5d:	e9 5e 9e 3c 03       	jmp    7d229c0 <pthread_mutex_unlock@plt>
 4958bc2:	e9 f9 9d 3c 03       	jmp    7d229c0 <pthread_mutex_unlock@plt>
 495905f:	e8 5c 99 3c 03       	call   7d229c0 <pthread_mutex_unlock@plt>
 49590de:	e8 dd 98 3c 03       	call   7d229c0 <pthread_mutex_unlock@plt>
 49593e6:	e8 d5 95 3c 03       	call   7d229c0 <pthread_mutex_unlock@plt>
 495a515:	e8 a6 84 3c 03       	call   7d229c0 <pthread_mutex_unlock@plt>
 495a600:	e8 bb 83 3c 03       	call   7d229c0 <pthread_mutex_unlock@plt>
 495accf:	e8 ec 7c 3c 03       	call   7d229c0 <pthread_mutex_unlock@plt>
 495ae13:	e8 a8 7b 3c 03       	call   7d229c0 <pthread_mutex_unlock@plt>
 495af97:	e9 24 7a 3c 03       	jmp    7d229c0 <pthread_mutex_unlock@plt>
 495b1bd:	e8 fe 77 3c 03       	call   7d229c0 <pthread_mutex_unlock@plt>
 495c105:	e8 b6 68 3c 03       	call   7d229c0 <pthread_mutex_unlock@plt>
 495c60d:	e8 ae 63 3c 03       	call   7d229c0 <pthread_mutex_unlock@plt>
 495c7b7:	e8 04 62 3c 03       	call   7d229c0 <pthread_mutex_unlock@plt>
 495c7ca:	e8 f1 61 3c 03       	call   7d229c0 <pthread_mutex_unlock@plt>
 495c7df:	e8 dc 61 3c 03       	call   7d229c0 <pthread_mutex_unlock@plt>
 495c829:	e8 92 61 3c 03       	call   7d229c0 <pthread_mutex_unlock@plt>
 496fc04:	e8 b7 2d 3b 03       	call   7d229c0 <pthread_mutex_unlock@plt>
 496fc34:	e8 87 2d 3b 03       	call   7d229c0 <pthread_mutex_unlock@plt>
 496ffc3:	e8 f8 29 3b 03       	call   7d229c0 <pthread_mutex_unlock@plt>
 4970577:	e8 44 24 3b 03       	call   7d229c0 <pthread_mutex_unlock@plt>
 49724ff:	e8 bc 04 3b 03       	call   7d229c0 <pthread_mutex_unlock@plt>
 4972db0:	e8 0b fc 3a 03       	call   7d229c0 <pthread_mutex_unlock@plt>
 4975584:	48 8d 15 45 c6 1b 00 	lea    0x1bc645(%rip),%rdx        # 4b31bd0 <__wt_ext_spin_unlock>
 4975ea0:	e8 1b cb 3a 03       	call   7d229c0 <pthread_mutex_unlock@plt>
 497b2d7:	e8 e4 76 3a 03       	call   7d229c0 <pthread_mutex_unlock@plt>
 497b9b7:	e8 04 70 3a 03       	call   7d229c0 <pthread_mutex_unlock@plt>
 497c0a7:	e8 14 69 3a 03       	call   7d229c0 <pthread_mutex_unlock@plt>
 497c797:	e8 24 62 3a 03       	call   7d229c0 <pthread_mutex_unlock@plt>
 497cef7:	e8 c4 5a 3a 03       	call   7d229c0 <pthread_mutex_unlock@plt>
 497e1e6:	e8 d5 47 3a 03       	call   7d229c0 <pthread_mutex_unlock@plt>
 497e3db:	e8 e0 45 3a 03       	call   7d229c0 <pthread_mutex_unlock@plt>
 497fddf:	e8 dc 2b 3a 03       	call   7d229c0 <pthread_mutex_unlock@plt>
 4980751:	e8 6a 22 3a 03       	call   7d229c0 <pthread_mutex_unlock@plt>
 4981741:	e8 7a 12 3a 03       	call   7d229c0 <pthread_mutex_unlock@plt>
 498198c:	e8 2f 10 3a 03       	call   7d229c0 <pthread_mutex_unlock@plt>
 49851b1:	e8 0a d8 39 03       	call   7d229c0 <pthread_mutex_unlock@plt>
 49854f0:	e8 cb d4 39 03       	call   7d229c0 <pthread_mutex_unlock@plt>
 498569b:	e8 20 d3 39 03       	call   7d229c0 <pthread_mutex_unlock@plt>
 4985741:	e8 7a d2 39 03       	call   7d229c0 <pthread_mutex_unlock@plt>
 4985b2f:	e8 8c ce 39 03       	call   7d229c0 <pthread_mutex_unlock@plt>
 4985de0:	e8 db cb 39 03       	call   7d229c0 <pthread_mutex_unlock@plt>
 498620a:	e8 b1 c7 39 03       	call   7d229c0 <pthread_mutex_unlock@plt>
 49862be:	e8 fd c6 39 03       	call   7d229c0 <pthread_mutex_unlock@plt>
 49866ae:	e8 0d c3 39 03       	call   7d229c0 <pthread_mutex_unlock@plt>
 49899b1:	e8 0a 90 39 03       	call   7d229c0 <pthread_mutex_unlock@plt>
 498aa05:	e8 36 86 1a 00       	call   4b33040 <__wt_readunlock>
 498aa76:	e8 c5 85 1a 00       	call   4b33040 <__wt_readunlock>
 498ab81:	e8 ba 84 1a 00       	call   4b33040 <__wt_readunlock>
 498ae9e:	e8 9d 81 1a 00       	call   4b33040 <__wt_readunlock>
 498b1d6:	e8 85 83 1a 00       	call   4b33560 <__wt_writeunlock>
 498b729:	e8 32 7e 1a 00       	call   4b33560 <__wt_writeunlock>
 498b7af:	e8 ac 7d 1a 00       	call   4b33560 <__wt_writeunlock>
 498b975:	e8 c6 76 1a 00       	call   4b33040 <__wt_readunlock>
 4993c0f:	e8 ac ed 38 03       	call   7d229c0 <pthread_mutex_unlock@plt>
 4993cbe:	e8 fd ec 38 03       	call   7d229c0 <pthread_mutex_unlock@plt>
 4994099:	e8 22 e9 38 03       	call   7d229c0 <pthread_mutex_unlock@plt>
 499474f:	e8 6c e2 38 03       	call   7d229c0 <pthread_mutex_unlock@plt>
 4994943:	e8 78 e0 38 03       	call   7d229c0 <pthread_mutex_unlock@plt>
 4994d14:	e8 a7 dc 38 03       	call   7d229c0 <pthread_mutex_unlock@plt>
 4994eea:	e8 d1 da 38 03       	call   7d229c0 <pthread_mutex_unlock@plt>
 4994f43:	e8 78 da 38 03       	call   7d229c0 <pthread_mutex_unlock@plt>
 4995103:	e8 b8 d8 38 03       	call   7d229c0 <pthread_mutex_unlock@plt>
 4996992:	e8 29 c0 38 03       	call   7d229c0 <pthread_mutex_unlock@plt>
 4999a3b:	e8 00 96 19 00       	call   4b33040 <__wt_readunlock>
 4999aeb:	e8 70 9a 19 00       	call   4b33560 <__wt_writeunlock>
 4999b88:	e8 d3 99 19 00       	call   4b33560 <__wt_writeunlock>
 4999ff7:	e8 c4 89 38 03       	call   7d229c0 <pthread_mutex_unlock@plt>
 499a053:	e8 68 89 38 03       	call   7d229c0 <pthread_mutex_unlock@plt>
 499a3ab:	e8 10 86 38 03       	call   7d229c0 <pthread_mutex_unlock@plt>
 499c3c8:	e8 73 6c 19 00       	call   4b33040 <__wt_readunlock>
 499c42e:	e8 0d 6c 19 00       	call   4b33040 <__wt_readunlock>
 499c6af:	e8 0c 63 38 03       	call   7d229c0 <pthread_mutex_unlock@plt>
 499c733:	e8 88 62 38 03       	call   7d229c0 <pthread_mutex_unlock@plt>
 499ce92:	e8 a9 61 19 00       	call   4b33040 <__wt_readunlock>
 499cf55:	e8 e6 60 19 00       	call   4b33040 <__wt_readunlock>
 499d28f:	e8 2c 57 38 03       	call   7d229c0 <pthread_mutex_unlock@plt>
 499d83b:	e8 80 51 38 03       	call   7d229c0 <pthread_mutex_unlock@plt>
 499d969:	e8 52 50 38 03       	call   7d229c0 <pthread_mutex_unlock@plt>
 499db22:	e8 19 55 19 00       	call   4b33040 <__wt_readunlock>
 499db43:	e8 78 4e 38 03       	call   7d229c0 <pthread_mutex_unlock@plt>
 499dc58:	e8 e3 53 19 00       	call   4b33040 <__wt_readunlock>
 499dd88:	e8 33 4c 38 03       	call   7d229c0 <pthread_mutex_unlock@plt>
 499ddac:	e8 0f 4c 38 03       	call   7d229c0 <pthread_mutex_unlock@plt>
 49a20c3:	e8 f8 08 38 03       	call   7d229c0 <pthread_mutex_unlock@plt>
 49a2207:	e8 b4 07 38 03       	call   7d229c0 <pthread_mutex_unlock@plt>
 49a24f0:	e8 cb 04 38 03       	call   7d229c0 <pthread_mutex_unlock@plt>
 49a2896:	e8 25 01 38 03       	call   7d229c0 <pthread_mutex_unlock@plt>
 49a2a78:	e8 43 ff 37 03       	call   7d229c0 <pthread_mutex_unlock@plt>
 49a2db2:	e8 09 fc 37 03       	call   7d229c0 <pthread_mutex_unlock@plt>
 49c3be4:	e8 d7 ed 35 03       	call   7d229c0 <pthread_mutex_unlock@plt>
 49c4f4b:	e8 70 da 35 03       	call   7d229c0 <pthread_mutex_unlock@plt>
 49c501d:	e8 9e d9 35 03       	call   7d229c0 <pthread_mutex_unlock@plt>
 49c824e:	e8 ed ad 16 00       	call   4b33040 <__wt_readunlock>
 49c8563:	e8 f8 af 16 00       	call   4b33560 <__wt_writeunlock>
 49ca1cc:	e8 6f 8e 16 00       	call   4b33040 <__wt_readunlock>
 49ca355:	e8 e6 8c 16 00       	call   4b33040 <__wt_readunlock>
 49cb2b6:	e8 85 7d 16 00       	call   4b33040 <__wt_readunlock>
 49cb39b:	e8 a0 7c 16 00       	call   4b33040 <__wt_readunlock>
 49cb521:	e8 1a 7b 16 00       	call   4b33040 <__wt_readunlock>
 49cb56b:	e8 d0 7a 16 00       	call   4b33040 <__wt_readunlock>
 49ce263:	e8 58 47 35 03       	call   7d229c0 <pthread_mutex_unlock@plt>
 49ce43e:	e8 7d 45 35 03       	call   7d229c0 <pthread_mutex_unlock@plt>
 49ce5c4:	e8 f7 43 35 03       	call   7d229c0 <pthread_mutex_unlock@plt>
 49ce711:	e8 aa 42 35 03       	call   7d229c0 <pthread_mutex_unlock@plt>
 49e0c47:	e8 74 1d 34 03       	call   7d229c0 <pthread_mutex_unlock@plt>
 49e14aa:	e8 91 1b 15 00       	call   4b33040 <__wt_readunlock>
 49e1527:	e8 14 1b 15 00       	call   4b33040 <__wt_readunlock>
 49e1d03:	e8 58 18 15 00       	call   4b33560 <__wt_writeunlock>
 49e1d65:	e8 d6 12 15 00       	call   4b33040 <__wt_readunlock>
 49e1eb9:	e8 82 11 15 00       	call   4b33040 <__wt_readunlock>
 49e20c5:	e8 f6 08 34 03       	call   7d229c0 <pthread_mutex_unlock@plt>
 49e2247:	e8 f4 0d 15 00       	call   4b33040 <__wt_readunlock>
 49e22ab:	e8 90 0d 15 00       	call   4b33040 <__wt_readunlock>
 49e29b2:	e8 a9 0b 15 00       	call   4b33560 <__wt_writeunlock>
 49e2dd1:	e8 ea fb 33 03       	call   7d229c0 <pthread_mutex_unlock@plt>
 49e3e9e:	e8 1d eb 33 03       	call   7d229c0 <pthread_mutex_unlock@plt>
 49e6dbc:	e8 ff bb 33 03       	call   7d229c0 <pthread_mutex_unlock@plt>
 49e7159:	e8 62 b8 33 03       	call   7d229c0 <pthread_mutex_unlock@plt>
 49e72ab:	e8 10 b7 33 03       	call   7d229c0 <pthread_mutex_unlock@plt>
 49e72c2:	e8 f9 b6 33 03       	call   7d229c0 <pthread_mutex_unlock@plt>
 49e73ad:	e8 0e b6 33 03       	call   7d229c0 <pthread_mutex_unlock@plt>
 49e755b:	e8 60 b4 33 03       	call   7d229c0 <pthread_mutex_unlock@plt>
 49e759c:	e8 1f b4 33 03       	call   7d229c0 <pthread_mutex_unlock@plt>
 49e798a:	e8 31 b0 33 03       	call   7d229c0 <pthread_mutex_unlock@plt>
 49e7b29:	e8 92 ae 33 03       	call   7d229c0 <pthread_mutex_unlock@plt>
 49e7c45:	e8 76 ad 33 03       	call   7d229c0 <pthread_mutex_unlock@plt>
 49e7c59:	e8 62 ad 33 03       	call   7d229c0 <pthread_mutex_unlock@plt>
 49e7cc4:	e8 f7 ac 33 03       	call   7d229c0 <pthread_mutex_unlock@plt>
 49e7d33:	e8 88 ac 33 03       	call   7d229c0 <pthread_mutex_unlock@plt>
 49e9428:	e8 93 95 33 03       	call   7d229c0 <pthread_mutex_unlock@plt>
 49e94c7:	e8 f4 94 33 03       	call   7d229c0 <pthread_mutex_unlock@plt>
 49ea54a:	e8 71 84 33 03       	call   7d229c0 <pthread_mutex_unlock@plt>
 49ea603:	e8 b8 83 33 03       	call   7d229c0 <pthread_mutex_unlock@plt>
 49ea666:	e8 55 83 33 03       	call   7d229c0 <pthread_mutex_unlock@plt>
 49ea68d:	e8 2e 83 33 03       	call   7d229c0 <pthread_mutex_unlock@plt>
 49eba1d:	e8 1e 36 13 00       	call   4b1f040 <__wt_session_dhandle_writeunlock>
 49eba83:	e8 b8 35 13 00       	call   4b1f040 <__wt_session_dhandle_writeunlock>
 49ec0d1:	e8 8a 74 14 00       	call   4b33560 <__wt_writeunlock>
 49ec1a8:	e8 b3 73 14 00       	call   4b33560 <__wt_writeunlock>
 49ec331:	e8 2a 72 14 00       	call   4b33560 <__wt_writeunlock>
 49ec433:	e8 28 71 14 00       	call   4b33560 <__wt_writeunlock>
 49ed2c1:	e8 fa 56 33 03       	call   7d229c0 <pthread_mutex_unlock@plt>
 49ed3a7:	e8 14 56 33 03       	call   7d229c0 <pthread_mutex_unlock@plt>
 49ed46f:	e8 4c 55 33 03       	call   7d229c0 <pthread_mutex_unlock@plt>
 49f02e6:	e8 d5 26 33 03       	call   7d229c0 <pthread_mutex_unlock@plt>
 49f0397:	e8 c4 31 14 00       	call   4b33560 <__wt_writeunlock>
 49f0407:	e8 54 31 14 00       	call   4b33560 <__wt_writeunlock>
 49f0938:	e8 83 20 33 03       	call   7d229c0 <pthread_mutex_unlock@plt>
 49f09d8:	e8 e3 1f 33 03       	call   7d229c0 <pthread_mutex_unlock@plt>
 49f102e:	e8 2d 25 14 00       	call   4b33560 <__wt_writeunlock>
 49f17eb:	e8 70 1d 14 00       	call   4b33560 <__wt_writeunlock>
 49f1f99:	e8 c2 15 14 00       	call   4b33560 <__wt_writeunlock>
 49f231a:	e8 a1 06 33 03       	call   7d229c0 <pthread_mutex_unlock@plt>
 49fe0eb:	e8 d0 48 32 03       	call   7d229c0 <pthread_mutex_unlock@plt>
 4a2989f:	e8 1c 91 2f 03       	call   7d229c0 <pthread_mutex_unlock@plt>
 4a298c3:	e8 f8 90 2f 03       	call   7d229c0 <pthread_mutex_unlock@plt>
 4a29d08:	e8 b3 8c 2f 03       	call   7d229c0 <pthread_mutex_unlock@plt>
 4a29e56:	e8 65 8b 2f 03       	call   7d229c0 <pthread_mutex_unlock@plt>
 4a2a104:	e8 b7 88 2f 03       	call   7d229c0 <pthread_mutex_unlock@plt>
 4a2ac62:	e8 59 7d 2f 03       	call   7d229c0 <pthread_mutex_unlock@plt>
 4a2bf13:	e8 a8 6a 2f 03       	call   7d229c0 <pthread_mutex_unlock@plt>
 4a2bfe6:	e8 d5 69 2f 03       	call   7d229c0 <pthread_mutex_unlock@plt>
 4a2bff6:	e8 c5 69 2f 03       	call   7d229c0 <pthread_mutex_unlock@plt>
 4a2c65b:	e8 60 63 2f 03       	call   7d229c0 <pthread_mutex_unlock@plt>
 4a2c9a8:	e8 13 60 2f 03       	call   7d229c0 <pthread_mutex_unlock@plt>
 4a2ca35:	e8 86 5f 2f 03       	call   7d229c0 <pthread_mutex_unlock@plt>
 4a2ca53:	e8 68 5f 2f 03       	call   7d229c0 <pthread_mutex_unlock@plt>
 4a2cb2b:	e8 90 5e 2f 03       	call   7d229c0 <pthread_mutex_unlock@plt>
 4a2cb52:	e8 69 5e 2f 03       	call   7d229c0 <pthread_mutex_unlock@plt>
 4a2d6e8:	e8 53 59 10 00       	call   4b33040 <__wt_readunlock>
 4a2dbfc:	e8 3f 54 10 00       	call   4b33040 <__wt_readunlock>
 4a2dd72:	e8 49 4c 2f 03       	call   7d229c0 <pthread_mutex_unlock@plt>
 4a2de79:	e8 c2 51 10 00       	call   4b33040 <__wt_readunlock>
 4a2e119:	e8 a2 48 2f 03       	call   7d229c0 <pthread_mutex_unlock@plt>
 4a2e83f:	e8 fc 47 10 00       	call   4b33040 <__wt_readunlock>
 4a2eb99:	e8 22 3e 2f 03       	call   7d229c0 <pthread_mutex_unlock@plt>
 4a2f433:	e8 88 35 2f 03       	call   7d229c0 <pthread_mutex_unlock@plt>
 4a2fadb:	e8 e0 2e 2f 03       	call   7d229c0 <pthread_mutex_unlock@plt>
 4a3026b:	e8 50 27 2f 03       	call   7d229c0 <pthread_mutex_unlock@plt>
 4a30709:	e8 b2 22 2f 03       	call   7d229c0 <pthread_mutex_unlock@plt>
 4a30f40:	e8 7b 1a 2f 03       	call   7d229c0 <pthread_mutex_unlock@plt>
 4a31665:	e8 56 13 2f 03       	call   7d229c0 <pthread_mutex_unlock@plt>
 4a32713:	e8 28 09 10 00       	call   4b33040 <__wt_readunlock>
 4a3763e:	e8 7d b3 2e 03       	call   7d229c0 <pthread_mutex_unlock@plt>
 4a37945:	e8 76 b0 2e 03       	call   7d229c0 <pthread_mutex_unlock@plt>
 4a3ba73:	e8 48 6f 2e 03       	call   7d229c0 <pthread_mutex_unlock@plt>
 4a3c09e:	e8 1d 69 2e 03       	call   7d229c0 <pthread_mutex_unlock@plt>
 4a3c5d3:	e8 e8 63 2e 03       	call   7d229c0 <pthread_mutex_unlock@plt>
 4a3d763:	e8 58 52 2e 03       	call   7d229c0 <pthread_mutex_unlock@plt>
 4a3d783:	e8 38 52 2e 03       	call   7d229c0 <pthread_mutex_unlock@plt>
 4a3da31:	e8 8a 4f 2e 03       	call   7d229c0 <pthread_mutex_unlock@plt>
 4a3db83:	e8 38 4e 2e 03       	call   7d229c0 <pthread_mutex_unlock@plt>
 4a3dc7d:	e8 3e 4d 2e 03       	call   7d229c0 <pthread_mutex_unlock@plt>
 4a3dcfd:	e8 be 4c 2e 03       	call   7d229c0 <pthread_mutex_unlock@plt>
 4a404e1:	e8 da 24 2e 03       	call   7d229c0 <pthread_mutex_unlock@plt>
 4a430cb:	e8 f0 f8 2d 03       	call   7d229c0 <pthread_mutex_unlock@plt>
 4a431d7:	e8 64 fe 0e 00       	call   4b33040 <__wt_readunlock>
 4a4322e:	e8 0d fe 0e 00       	call   4b33040 <__wt_readunlock>
 4a44df2:	e8 c9 db 2d 03       	call   7d229c0 <pthread_mutex_unlock@plt>
 4a4584b:	e8 70 d1 2d 03       	call   7d229c0 <pthread_mutex_unlock@plt>
 4a45cdc:	e8 df cc 2d 03       	call   7d229c0 <pthread_mutex_unlock@plt>
 4a46364:	e8 57 c6 2d 03       	call   7d229c0 <pthread_mutex_unlock@plt>
 4a465d6:	e8 65 ca 0e 00       	call   4b33040 <__wt_readunlock>
 4a4670e:	e8 2d c9 0e 00       	call   4b33040 <__wt_readunlock>
 4a46bea:	e8 d1 bd 2d 03       	call   7d229c0 <pthread_mutex_unlock@plt>
 4a46d55:	e8 66 bc 2d 03       	call   7d229c0 <pthread_mutex_unlock@plt>
 4a47a6f:	e8 4c af 2d 03       	call   7d229c0 <pthread_mutex_unlock@plt>
 4a47fbc:	e8 ff a9 2d 03       	call   7d229c0 <pthread_mutex_unlock@plt>
 4a480c3:	e8 f8 a8 2d 03       	call   7d229c0 <pthread_mutex_unlock@plt>
 4a4a49d:	e8 1e 85 2d 03       	call   7d229c0 <pthread_mutex_unlock@plt>
 4a4c909:	e8 32 67 0e 00       	call   4b33040 <__wt_readunlock>
 4a522d5:	e8 e6 06 2d 03       	call   7d229c0 <pthread_mutex_unlock@plt>
 4a5273e:	e8 7d 02 2d 03       	call   7d229c0 <pthread_mutex_unlock@plt>
 4a54bbb:	e8 00 de 2c 03       	call   7d229c0 <pthread_mutex_unlock@plt>
 4a54c6b:	e8 50 dd 2c 03       	call   7d229c0 <pthread_mutex_unlock@plt>
 4a54d1b:	e8 a0 dc 2c 03       	call   7d229c0 <pthread_mutex_unlock@plt>
 4a54e32:	e8 89 db 2c 03       	call   7d229c0 <pthread_mutex_unlock@plt>
 4a54eaa:	e8 11 db 2c 03       	call   7d229c0 <pthread_mutex_unlock@plt>
 4a54f0a:	e8 b1 da 2c 03       	call   7d229c0 <pthread_mutex_unlock@plt>
 4a54f60:	e8 5b da 2c 03       	call   7d229c0 <pthread_mutex_unlock@plt>
 4a54fe1:	e8 da d9 2c 03       	call   7d229c0 <pthread_mutex_unlock@plt>
 4a5502b:	e8 90 d9 2c 03       	call   7d229c0 <pthread_mutex_unlock@plt>
 4a55198:	e8 23 d8 2c 03       	call   7d229c0 <pthread_mutex_unlock@plt>
 4a5528b:	e8 30 d7 2c 03       	call   7d229c0 <pthread_mutex_unlock@plt>
 4a55305:	e8 b6 d6 2c 03       	call   7d229c0 <pthread_mutex_unlock@plt>
 4a555af:	e8 8c da 0d 00       	call   4b33040 <__wt_readunlock>
 4a55b0e:	e8 2d d5 0d 00       	call   4b33040 <__wt_readunlock>
 4a55ff7:	e8 14 33 00 00       	call   4a59310 <__wt_lsm_tree_readunlock>
 4a56403:	e8 b8 c5 2c 03       	call   7d229c0 <pthread_mutex_unlock@plt>
 4a56c5b:	e8 e0 c3 0d 00       	call   4b33040 <__wt_readunlock>
 4a56c7d:	e8 de c8 0d 00       	call   4b33560 <__wt_writeunlock>
 4a56ca4:	e8 97 c3 0d 00       	call   4b33040 <__wt_readunlock>
 4a56ccb:	e8 90 c8 0d 00       	call   4b33560 <__wt_writeunlock>
 4a56ceb:	e8 d0 bc 2c 03       	call   7d229c0 <pthread_mutex_unlock@plt>
 4a56d13:	e8 a8 bc 2c 03       	call   7d229c0 <pthread_mutex_unlock@plt>
 4a56fdc:	e8 df b9 2c 03       	call   7d229c0 <pthread_mutex_unlock@plt>
 4a57e56:	e8 e5 b1 0d 00       	call   4b33040 <__wt_readunlock>
 4a57ed5:	e8 86 b6 0d 00       	call   4b33560 <__wt_writeunlock>
 4a57f27:	e8 34 b6 0d 00       	call   4b33560 <__wt_writeunlock>
 4a5801d:	e8 3e b5 0d 00       	call   4b33560 <__wt_writeunlock>
 4a588f8:	e8 63 ac 0d 00       	call   4b33560 <__wt_writeunlock>
 4a5892e:	e8 2d ac 0d 00       	call   4b33560 <__wt_writeunlock>
 4a58a27:	e8 34 ab 0d 00       	call   4b33560 <__wt_writeunlock>
 4a58b90:	e8 cb a9 0d 00       	call   4b33560 <__wt_writeunlock>
 4a58c2c:	e8 2f a9 0d 00       	call   4b33560 <__wt_writeunlock>
 4a58cd9:	e8 82 a8 0d 00       	call   4b33560 <__wt_writeunlock>
 4a58f1c:	e8 3f a6 0d 00       	call   4b33560 <__wt_writeunlock>
 4a58fdc:	e8 7f a5 0d 00       	call   4b33560 <__wt_writeunlock>
 4a59018:	e8 43 a5 0d 00       	call   4b33560 <__wt_writeunlock>
 4a5913f:	e8 1c a4 0d 00       	call   4b33560 <__wt_writeunlock>
 4a591e0:	e8 7b a3 0d 00       	call   4b33560 <__wt_writeunlock>
 4a59285:	e8 d6 a2 0d 00       	call   4b33560 <__wt_writeunlock>
0000000004a59310 <__wt_lsm_tree_readunlock>:
 4a59325:	e9 16 9d 0d 00       	jmp    4b33040 <__wt_readunlock>
0000000004a59360 <__wt_lsm_tree_writeunlock>:
 4a59375:	e9 e6 a1 0d 00       	jmp    4b33560 <__wt_writeunlock>
 4a594e0:	e8 7b a0 0d 00       	call   4b33560 <__wt_writeunlock>
 4a5968a:	e8 d1 9e 0d 00       	call   4b33560 <__wt_writeunlock>
 4a59827:	e8 34 9d 0d 00       	call   4b33560 <__wt_writeunlock>
 4a59a10:	e8 2b 96 0d 00       	call   4b33040 <__wt_readunlock>
 4a59a90:	e8 cb 9a 0d 00       	call   4b33560 <__wt_writeunlock>
 4a59aea:	e8 51 95 0d 00       	call   4b33040 <__wt_readunlock>
 4a59b36:	e8 25 9a 0d 00       	call   4b33560 <__wt_writeunlock>
 4a59b7a:	e8 e1 99 0d 00       	call   4b33560 <__wt_writeunlock>
 4a5c83f:	e8 1c cb ff ff       	call   4a59360 <__wt_lsm_tree_writeunlock>
 4a5cc5d:	e8 fe c6 ff ff       	call   4a59360 <__wt_lsm_tree_writeunlock>
 4a5ce41:	e8 7a 5b 2c 03       	call   7d229c0 <pthread_mutex_unlock@plt>
 4a5d31f:	e8 9c 56 2c 03       	call   7d229c0 <pthread_mutex_unlock@plt>
 4a5d3c8:	e8 f3 55 2c 03       	call   7d229c0 <pthread_mutex_unlock@plt>
 4a5f4f4:	e8 17 9e ff ff       	call   4a59310 <__wt_lsm_tree_readunlock>
 4a5f6b9:	e8 52 9c ff ff       	call   4a59310 <__wt_lsm_tree_readunlock>
 4a61484:	e8 87 7e ff ff       	call   4a59310 <__wt_lsm_tree_readunlock>
 4a614c7:	e8 44 7e ff ff       	call   4a59310 <__wt_lsm_tree_readunlock>
 4a6167a:	e8 41 13 2c 03       	call   7d229c0 <pthread_mutex_unlock@plt>
 4a6890c:	e8 af a0 2b 03       	call   7d229c0 <pthread_mutex_unlock@plt>
 4a6ac05:	e8 b6 7d 2b 03       	call   7d229c0 <pthread_mutex_unlock@plt>
 4a6afee:	e8 1d e3 fe ff       	call   4a59310 <__wt_lsm_tree_readunlock>
 4a6b048:	e8 c3 e2 fe ff       	call   4a59310 <__wt_lsm_tree_readunlock>
 4a6b05e:	e8 ad e2 fe ff       	call   4a59310 <__wt_lsm_tree_readunlock>
 4a6b947:	e8 14 7c 0c 00       	call   4b33560 <__wt_writeunlock>
 4a6b9c0:	e8 fb 6f 2b 03       	call   7d229c0 <pthread_mutex_unlock@plt>
 4a6bb6d:	e8 9e d7 fe ff       	call   4a59310 <__wt_lsm_tree_readunlock>
 4a6bba9:	e8 62 d7 fe ff       	call   4a59310 <__wt_lsm_tree_readunlock>
 4a6bd20:	e8 9b 6c 2b 03       	call   7d229c0 <pthread_mutex_unlock@plt>
 4a6c0ca:	e8 91 d2 fe ff       	call   4a59360 <__wt_lsm_tree_writeunlock>
 4a6c550:	e8 6b 64 2b 03       	call   7d229c0 <pthread_mutex_unlock@plt>
 4a6c5c3:	e8 78 6a 0c 00       	call   4b33040 <__wt_readunlock>
 4a6c7f8:	e8 63 cb fe ff       	call   4a59360 <__wt_lsm_tree_writeunlock>
 4a6c95b:	e8 00 6c 0c 00       	call   4b33560 <__wt_writeunlock>
 4a6ca67:	e8 54 5f 2b 03       	call   7d229c0 <pthread_mutex_unlock@plt>
 4a6cb38:	e8 83 5e 2b 03       	call   7d229c0 <pthread_mutex_unlock@plt>
 4a6cc1e:	e8 9d 5d 2b 03       	call   7d229c0 <pthread_mutex_unlock@plt>
 4a6cf52:	e8 09 c4 fe ff       	call   4a59360 <__wt_lsm_tree_writeunlock>
 4a6d164:	e8 f7 c1 fe ff       	call   4a59360 <__wt_lsm_tree_writeunlock>
 4a6f794:	e8 27 32 2b 03       	call   7d229c0 <pthread_mutex_unlock@plt>
 4a6ff82:	e8 39 2a 2b 03       	call   7d229c0 <pthread_mutex_unlock@plt>
 4a78901:	e8 ba a0 2a 03       	call   7d229c0 <pthread_mutex_unlock@plt>
 4a78bf6:	e8 c5 9d 2a 03       	call   7d229c0 <pthread_mutex_unlock@plt>
 4a79721:	e8 9a 92 2a 03       	call   7d229c0 <pthread_mutex_unlock@plt>
 4a7bdf5:	e8 c6 6b 2a 03       	call   7d229c0 <pthread_mutex_unlock@plt>
 4a7ca2a:	e8 31 6b 0b 00       	call   4b33560 <__wt_writeunlock>
 4a7d14c:	e8 6f 58 2a 03       	call   7d229c0 <pthread_mutex_unlock@plt>
 4a7d1fe:	e8 bd 57 2a 03       	call   7d229c0 <pthread_mutex_unlock@plt>
 4a7d276:	e8 e5 62 0b 00       	call   4b33560 <__wt_writeunlock>
 4a7d368:	e8 53 56 2a 03       	call   7d229c0 <pthread_mutex_unlock@plt>
 4a7d40c:	e8 af 55 2a 03       	call   7d229c0 <pthread_mutex_unlock@plt>
 4a7daea:	e8 d1 4e 2a 03       	call   7d229c0 <pthread_mutex_unlock@plt>
 4a80485:	e8 36 25 2a 03       	call   7d229c0 <pthread_mutex_unlock@plt>
 4a80667:	e8 54 23 2a 03       	call   7d229c0 <pthread_mutex_unlock@plt>
 4a80746:	e8 75 22 2a 03       	call   7d229c0 <pthread_mutex_unlock@plt>
 4a80d33:	e8 88 1c 2a 03       	call   7d229c0 <pthread_mutex_unlock@plt>
 4a80db0:	e8 0b 1c 2a 03       	call   7d229c0 <pthread_mutex_unlock@plt>
 4a80f0d:	e8 ae 1a 2a 03       	call   7d229c0 <pthread_mutex_unlock@plt>
 4a80fbb:	e8 00 1a 2a 03       	call   7d229c0 <pthread_mutex_unlock@plt>
 4a8230e:	e8 ad 06 2a 03       	call   7d229c0 <pthread_mutex_unlock@plt>
 4a82362:	e8 59 06 2a 03       	call   7d229c0 <pthread_mutex_unlock@plt>
 4a823ca:	e8 f1 05 2a 03       	call   7d229c0 <pthread_mutex_unlock@plt>
 4a82447:	e8 74 05 2a 03       	call   7d229c0 <pthread_mutex_unlock@plt>
 4a824c5:	e8 f6 04 2a 03       	call   7d229c0 <pthread_mutex_unlock@plt>
 4a82558:	e8 63 04 2a 03       	call   7d229c0 <pthread_mutex_unlock@plt>
 4a82590:	e8 2b 04 2a 03       	call   7d229c0 <pthread_mutex_unlock@plt>
 4a82631:	e8 8a 03 2a 03       	call   7d229c0 <pthread_mutex_unlock@plt>
 4a8268d:	e8 2e 03 2a 03       	call   7d229c0 <pthread_mutex_unlock@plt>
 4a82895:	e8 26 01 2a 03       	call   7d229c0 <pthread_mutex_unlock@plt>
 4a82ad8:	e8 e3 fe 29 03       	call   7d229c0 <pthread_mutex_unlock@plt>
 4a82b17:	e8 a4 fe 29 03       	call   7d229c0 <pthread_mutex_unlock@plt>
 4a82c15:	e8 a6 fd 29 03       	call   7d229c0 <pthread_mutex_unlock@plt>
 4a82c8f:	e8 2c fd 29 03       	call   7d229c0 <pthread_mutex_unlock@plt>
 4a87b0e:	e8 ad ae 29 03       	call   7d229c0 <pthread_mutex_unlock@plt>
 4a87b8c:	e8 2f ae 29 03       	call   7d229c0 <pthread_mutex_unlock@plt>
 4a87f7f:	e8 3c aa 29 03       	call   7d229c0 <pthread_mutex_unlock@plt>
 4aab081:	e8 3a 79 27 03       	call   7d229c0 <pthread_mutex_unlock@plt>
 4ab0aca:	e8 f1 1e 27 03       	call   7d229c0 <pthread_mutex_unlock@plt>
 4abd83f:	e8 7c 51 26 03       	call   7d229c0 <pthread_mutex_unlock@plt>
 4abe1b8:	e8 83 4e 07 00       	call   4b33040 <__wt_readunlock>
 4acfa81:	e8 3a 2f 25 03       	call   7d229c0 <pthread_mutex_unlock@plt>
 4acff13:	e8 48 36 06 00       	call   4b33560 <__wt_writeunlock>
 4acff72:	e8 e9 35 06 00       	call   4b33560 <__wt_writeunlock>
 4ad002d:	e8 2e 35 06 00       	call   4b33560 <__wt_writeunlock>
 4ad0111:	e8 aa 28 25 03       	call   7d229c0 <pthread_mutex_unlock@plt>
 4ad01c8:	e8 93 33 06 00       	call   4b33560 <__wt_writeunlock>
 4ad2676:	e8 e5 0e 06 00       	call   4b33560 <__wt_writeunlock>
 4ad2c0a:	e8 51 09 06 00       	call   4b33560 <__wt_writeunlock>
 4ad8000:	e8 5b b5 05 00       	call   4b33560 <__wt_writeunlock>
 4ad9cef:	e8 4c 93 05 00       	call   4b33040 <__wt_readunlock>
 4ada108:	e8 53 94 05 00       	call   4b33560 <__wt_writeunlock>
0000000004ae88c0 <__wt_spin_unlock>:
 4ae88d0:	e8 eb a0 23 03       	call   7d229c0 <pthread_mutex_unlock@plt>
 4ae88d7:	0f 85 fc 2e 01 00    	jne    4afb7d9 <__wt_spin_unlock.cold>
 4aee07d:	e8 de 54 04 00       	call   4b33560 <__wt_writeunlock>
 4aee43c:	e8 7f 45 23 03       	call   7d229c0 <pthread_mutex_unlock@plt>
 4aee4d9:	e8 e2 44 23 03       	call   7d229c0 <pthread_mutex_unlock@plt>
 4aee630:	e8 2b 4f 04 00       	call   4b33560 <__wt_writeunlock>
 4aee688:	e8 d3 4e 04 00       	call   4b33560 <__wt_writeunlock>
 4aee6fc:	e8 bf a1 ff ff       	call   4ae88c0 <__wt_spin_unlock>
 4aee818:	e8 43 4d 04 00       	call   4b33560 <__wt_writeunlock>
 4aeeb65:	e8 f6 49 04 00       	call   4b33560 <__wt_writeunlock>
 4aeee1c:	e8 3f 47 04 00       	call   4b33560 <__wt_writeunlock>
 4aeee40:	e8 7b 9a ff ff       	call   4ae88c0 <__wt_spin_unlock>
 4aef088:	e8 d3 44 04 00       	call   4b33560 <__wt_writeunlock>
 4aef0a9:	e8 12 98 ff ff       	call   4ae88c0 <__wt_spin_unlock>
 4aef1ec:	e8 6f 43 04 00       	call   4b33560 <__wt_writeunlock>
 4aef210:	e8 ab 96 ff ff       	call   4ae88c0 <__wt_spin_unlock>
 4aef845:	e8 76 31 23 03       	call   7d229c0 <pthread_mutex_unlock@plt>
 4aef8d0:	e8 eb 30 23 03       	call   7d229c0 <pthread_mutex_unlock@plt>
 4aef9fd:	e8 be 2f 23 03       	call   7d229c0 <pthread_mutex_unlock@plt>
 4af779f:	e8 1c b2 22 03       	call   7d229c0 <pthread_mutex_unlock@plt>
 4af90c9:	e8 92 a4 03 00       	call   4b33560 <__wt_writeunlock>
 4af9191:	e8 ca a3 03 00       	call   4b33560 <__wt_writeunlock>
 4af91ad:	e8 0e 98 22 03       	call   7d229c0 <pthread_mutex_unlock@plt>
 4afa84f:	e8 6c 81 22 03       	call   7d229c0 <pthread_mutex_unlock@plt>
 4afac16:	e8 a5 7d 22 03       	call   7d229c0 <pthread_mutex_unlock@plt>
 4afad45:	e8 76 db fe ff       	call   4ae88c0 <__wt_spin_unlock>
 4afb46b:	e8 50 75 22 03       	call   7d229c0 <pthread_mutex_unlock@plt>
 4afb5af:	e8 0c 74 22 03       	call   7d229c0 <pthread_mutex_unlock@plt>
0000000004afb7d9 <__wt_spin_unlock.cold>:
 4afb804:	e9 d4 d0 fe ff       	jmp    4ae88dd <__wt_spin_unlock+0x1d>
 4afbd70:	e8 4b cb fe ff       	call   4ae88c0 <__wt_spin_unlock>
 4afbd89:	e8 32 cb fe ff       	call   4ae88c0 <__wt_spin_unlock>
 4afbe53:	e8 68 ca fe ff       	call   4ae88c0 <__wt_spin_unlock>
 4afbfd8:	e8 e3 c8 fe ff       	call   4ae88c0 <__wt_spin_unlock>
 4afc02f:	e8 8c c8 fe ff       	call   4ae88c0 <__wt_spin_unlock>
 4afc07f:	e8 3c c8 fe ff       	call   4ae88c0 <__wt_spin_unlock>
 4afc215:	e8 a6 c6 fe ff       	call   4ae88c0 <__wt_spin_unlock>
 4afc22e:	e8 8d c6 fe ff       	call   4ae88c0 <__wt_spin_unlock>
 4afc2fe:	e8 bd c5 fe ff       	call   4ae88c0 <__wt_spin_unlock>
 4aff9d4:	e8 87 3b 03 00       	call   4b33560 <__wt_writeunlock>
 4b0b6c0:	e8 9b 7e 02 00       	call   4b33560 <__wt_writeunlock>
 4b19dfd:	e8 5e 97 01 00       	call   4b33560 <__wt_writeunlock>
 4b19e89:	e8 32 8b 20 03       	call   7d229c0 <pthread_mutex_unlock@plt>
 4b19f25:	e8 36 96 01 00       	call   4b33560 <__wt_writeunlock>
 4b1d1cd:	e8 ee 57 20 03       	call   7d229c0 <pthread_mutex_unlock@plt>
 4b1e9ce:	e8 8d 4b 01 00       	call   4b33560 <__wt_writeunlock>
 4b1ea32:	e8 09 46 01 00       	call   4b33040 <__wt_readunlock>
 4b1eaea:	e8 71 4a 01 00       	call   4b33560 <__wt_writeunlock>
 4b1eb1c:	e8 1f 45 01 00       	call   4b33040 <__wt_readunlock>
 4b1ec01:	e8 5a 49 01 00       	call   4b33560 <__wt_writeunlock>
 4b1ecac:	e8 0f 3d 20 03       	call   7d229c0 <pthread_mutex_unlock@plt>
 4b1ed05:	e8 36 43 01 00       	call   4b33040 <__wt_readunlock>
0000000004b1f030 <__wt_session_dhandle_readunlock>:
 4b1f037:	e9 04 40 01 00       	jmp    4b33040 <__wt_readunlock>
0000000004b1f040 <__wt_session_dhandle_writeunlock>:
 4b1f056:	e9 05 45 01 00       	jmp    4b33560 <__wt_writeunlock>
 4b1f1c3:	e8 98 43 01 00       	call   4b33560 <__wt_writeunlock>
 4b1f2a9:	e8 92 3d 01 00       	call   4b33040 <__wt_readunlock>
 4b1f301:	e8 5a 42 01 00       	call   4b33560 <__wt_writeunlock>
 4b1f444:	e8 f7 3b 01 00       	call   4b33040 <__wt_readunlock>
 4b1f4cd:	e8 8e 40 01 00       	call   4b33560 <__wt_writeunlock>
 4b1f55a:	e8 61 34 20 03       	call   7d229c0 <pthread_mutex_unlock@plt>
 4b1f5b6:	e8 a5 3f 01 00       	call   4b33560 <__wt_writeunlock>
 4b20fcd:	e8 ee 19 20 03       	call   7d229c0 <pthread_mutex_unlock@plt>
 4b21078:	e8 43 19 20 03       	call   7d229c0 <pthread_mutex_unlock@plt>
 4b2111b:	e8 a0 18 20 03       	call   7d229c0 <pthread_mutex_unlock@plt>
 4b2205c:	e8 df 0f 01 00       	call   4b33040 <__wt_readunlock>
 4b294cf:	e8 ec 94 1f 03       	call   7d229c0 <pthread_mutex_unlock@plt>
 4b294f3:	e8 c8 94 1f 03       	call   7d229c0 <pthread_mutex_unlock@plt>
 4b29543:	e8 78 94 1f 03       	call   7d229c0 <pthread_mutex_unlock@plt>
0000000004b31bd0 <__wt_ext_spin_unlock>:
 4b31be0:	e8 db 0d 1f 03       	call   7d229c0 <pthread_mutex_unlock@plt>
 4b31be7:	0f 85 c7 00 00 00    	jne    4b31cb4 <__wt_ext_spin_unlock.cold>
0000000004b31cb4 <__wt_ext_spin_unlock.cold>:
 4b31cdf:	e9 09 ff ff ff       	jmp    4b31bed <__wt_ext_spin_unlock+0x1d>
0000000004b33040 <__wt_readunlock>:
 4b33069:	75 d9                	jne    4b33044 <__wt_readunlock+0x4>
 4b33070:	75 0c                	jne    4b3307e <__wt_readunlock+0x3e>
 4b3307c:	75 02                	jne    4b33080 <__wt_readunlock+0x40>
0000000004b33560 <__wt_writeunlock>:
 4b33586:	75 0b                	jne    4b33593 <__wt_writeunlock+0x33>
 4b335a0:	75 c5                	jne    4b33567 <__wt_writeunlock+0x7>
 4b335a7:	75 27                	jne    4b335d0 <__wt_writeunlock+0x70>
 4b335b3:	75 0b                	jne    4b335c0 <__wt_writeunlock+0x60>
 4b42a1d:	e8 3e 0b ff ff       	call   4b33560 <__wt_writeunlock>
 4b42c42:	e9 19 09 ff ff       	jmp    4b33560 <__wt_writeunlock>
 4b430a9:	e8 b2 04 ff ff       	call   4b33560 <__wt_writeunlock>
 4b431b6:	e8 a5 03 ff ff       	call   4b33560 <__wt_writeunlock>
 4b43264:	e9 f7 02 ff ff       	jmp    4b33560 <__wt_writeunlock>
 4b44f9c:	e8 1f da 1d 03       	call   7d229c0 <pthread_mutex_unlock@plt>
 4b48060:	e8 5b a9 1d 03       	call   7d229c0 <pthread_mutex_unlock@plt>
 4b481e2:	e8 d9 a7 1d 03       	call   7d229c0 <pthread_mutex_unlock@plt>
 4b482cd:	e8 ee a6 1d 03       	call   7d229c0 <pthread_mutex_unlock@plt>
 4b483fd:	e8 be a5 1d 03       	call   7d229c0 <pthread_mutex_unlock@plt>
 4b48493:	e8 28 a5 1d 03       	call   7d229c0 <pthread_mutex_unlock@plt>
 4b49378:	e8 c3 9c fe ff       	call   4b33040 <__wt_readunlock>
 4b494ab:	e8 90 9b fe ff       	call   4b33040 <__wt_readunlock>
 4b49506:	e8 35 9b fe ff       	call   4b33040 <__wt_readunlock>
 4b4b6b9:	e8 82 79 fe ff       	call   4b33040 <__wt_readunlock>
 4b4b9ac:	e8 8f 76 fe ff       	call   4b33040 <__wt_readunlock>
 4b4babe:	e8 9d 7a fe ff       	call   4b33560 <__wt_writeunlock>
 4b4caaa:	e8 91 65 fe ff       	call   4b33040 <__wt_readunlock>
 4b4d0b4:	e8 87 5f fe ff       	call   4b33040 <__wt_readunlock>
 4b4d14f:	e8 ec 5e fe ff       	call   4b33040 <__wt_readunlock>
 4b51b0a:	e8 31 15 fe ff       	call   4b33040 <__wt_readunlock>
 4b525a6:	e8 b5 0f fe ff       	call   4b33560 <__wt_writeunlock>
 4b52853:	e8 08 0d fe ff       	call   4b33560 <__wt_writeunlock>
 4b528b2:	e8 89 07 fe ff       	call   4b33040 <__wt_readunlock>
 4b54832:	e8 89 e1 1c 03       	call   7d229c0 <pthread_mutex_unlock@plt>
 4b553ea:	e8 d1 d5 1c 03       	call   7d229c0 <pthread_mutex_unlock@plt>
 4b558fb:	e8 c0 d0 1c 03       	call   7d229c0 <pthread_mutex_unlock@plt>
 4b55a03:	e8 b8 cf 1c 03       	call   7d229c0 <pthread_mutex_unlock@plt>
 4b57ea2:	e8 b9 b6 fd ff       	call   4b33560 <__wt_writeunlock>
 4b5bb91:	e9 aa 74 fd ff       	jmp    4b33040 <__wt_readunlock>
 4b5be8a:	e8 b1 71 fd ff       	call   4b33040 <__wt_readunlock>
 4b5c299:	e8 a2 6d fd ff       	call   4b33040 <__wt_readunlock>
 4b5c5a3:	e9 b8 6f fd ff       	jmp    4b33560 <__wt_writeunlock>
 4b5c915:	e8 26 67 fd ff       	call   4b33040 <__wt_readunlock>
 4b5ca6b:	e8 f0 6a fd ff       	call   4b33560 <__wt_writeunlock>
 4b5cae6:	e8 55 65 fd ff       	call   4b33040 <__wt_readunlock>
 4b5caff:	e8 5c 6a fd ff       	call   4b33560 <__wt_writeunlock>
 4b5cb7f:	e8 bc 64 fd ff       	call   4b33040 <__wt_readunlock>
 4b5cbe3:	e8 58 64 fd ff       	call   4b33040 <__wt_readunlock>
 4b5cc00:	e8 3b 64 fd ff       	call   4b33040 <__wt_readunlock>
 4b5cca6:	e8 95 63 fd ff       	call   4b33040 <__wt_readunlock>
 4b5ccf7:	e8 44 63 fd ff       	call   4b33040 <__wt_readunlock>
 4b5d432:	e8 09 5c fd ff       	call   4b33040 <__wt_readunlock>
 4b5d494:	e8 a7 5b fd ff       	call   4b33040 <__wt_readunlock>
 4b5d4c3:	e8 78 5b fd ff       	call   4b33040 <__wt_readunlock>
 4b63cb5:	e8 06 ed 1b 03       	call   7d229c0 <pthread_mutex_unlock@plt>
 4b63e0b:	e8 b0 eb 1b 03       	call   7d229c0 <pthread_mutex_unlock@plt>
 4b63e8c:	e8 2f eb 1b 03       	call   7d229c0 <pthread_mutex_unlock@plt>
 4b63ea2:	e9 19 eb 1b 03       	jmp    7d229c0 <pthread_mutex_unlock@plt>
 4b63f31:	e8 8a ea 1b 03       	call   7d229c0 <pthread_mutex_unlock@plt>
 4b63fa4:	e9 17 ea 1b 03       	jmp    7d229c0 <pthread_mutex_unlock@plt>
 4b64033:	e8 88 e9 1b 03       	call   7d229c0 <pthread_mutex_unlock@plt>
 4b640ea:	e9 d1 e8 1b 03       	jmp    7d229c0 <pthread_mutex_unlock@plt>
 4b641e5:	e8 d6 e7 1b 03       	call   7d229c0 <pthread_mutex_unlock@plt>
 4b64403:	e8 b8 e5 1b 03       	call   7d229c0 <pthread_mutex_unlock@plt>
 4b6440b:	e8 b0 e5 1b 03       	call   7d229c0 <pthread_mutex_unlock@plt>
 4b64573:	e8 48 e4 1b 03       	call   7d229c0 <pthread_mutex_unlock@plt>
 4b647e4:	e8 d7 e1 1b 03       	call   7d229c0 <pthread_mutex_unlock@plt>
 4b64922:	e8 99 e0 1b 03       	call   7d229c0 <pthread_mutex_unlock@plt>
 4b649a3:	e8 18 e0 1b 03       	call   7d229c0 <pthread_mutex_unlock@plt>
 4b649e9:	e8 d2 df 1b 03       	call   7d229c0 <pthread_mutex_unlock@plt>
 4b64b14:	e8 a7 de 1b 03       	call   7d229c0 <pthread_mutex_unlock@plt>
 4b64b56:	e8 65 de 1b 03       	call   7d229c0 <pthread_mutex_unlock@plt>
 4b64b5e:	e8 5d de 1b 03       	call   7d229c0 <pthread_mutex_unlock@plt>
 4b64c2a:	e8 91 dd 1b 03       	call   7d229c0 <pthread_mutex_unlock@plt>
 4b64da9:	e8 12 dc 1b 03       	call   7d229c0 <pthread_mutex_unlock@plt>
 4b64e22:	e9 99 db 1b 03       	jmp    7d229c0 <pthread_mutex_unlock@plt>
 4b64eb1:	e8 0a db 1b 03       	call   7d229c0 <pthread_mutex_unlock@plt>
 4b64f30:	e8 8b da 1b 03       	call   7d229c0 <pthread_mutex_unlock@plt>
 4b64f4e:	e8 3d a4 f0 fe       	call   3a6f390 <std::unique_lock<std::mutex>::unlock()>
 4b64f6c:	e8 1f a4 f0 fe       	call   3a6f390 <std::unique_lock<std::mutex>::unlock()>
 4b65303:	e8 88 a0 f0 fe       	call   3a6f390 <std::unique_lock<std::mutex>::unlock()>
 4b6553b:	e8 80 d4 1b 03       	call   7d229c0 <pthread_mutex_unlock@plt>
 4b656bf:	e8 fc d2 1b 03       	call   7d229c0 <pthread_mutex_unlock@plt>
 4b666b8:	e8 03 c3 1b 03       	call   7d229c0 <pthread_mutex_unlock@plt>
 4b671f3:	e9 c8 b7 1b 03       	jmp    7d229c0 <pthread_mutex_unlock@plt>
 4b69cfa:	e8 c1 8c 1b 03       	call   7d229c0 <pthread_mutex_unlock@plt>
 4b6a787:	e8 34 82 1b 03       	call   7d229c0 <pthread_mutex_unlock@plt>
 4b6a852:	e8 69 81 1b 03       	call   7d229c0 <pthread_mutex_unlock@plt>
 4b6a86d:	e8 4e 81 1b 03       	call   7d229c0 <pthread_mutex_unlock@plt>
 4b6a8f7:	e8 94 4a f0 fe       	call   3a6f390 <std::unique_lock<std::mutex>::unlock()>
 4b6a95e:	e8 2d 4a f0 fe       	call   3a6f390 <std::unique_lock<std::mutex>::unlock()>
 4b6b7f2:	e8 99 3b f0 fe       	call   3a6f390 <std::unique_lock<std::mutex>::unlock()>
 4b6c7c6:	e8 b5 84 61 02       	call   7184c80 <mongo::Lock::GlobalLock::_unlock()>
 4b6c912:	e8 a9 60 1b 03       	call   7d229c0 <pthread_mutex_unlock@plt>
 4b6cad3:	e8 e8 5e 1b 03       	call   7d229c0 <pthread_mutex_unlock@plt>
 4b6cb90:	e8 2b 5e 1b 03       	call   7d229c0 <pthread_mutex_unlock@plt>
 4b6cc97:	e8 24 85 61 02       	call   71851c0 <mongo::Lock::ResourceLock::_unlock()>
 4b6ccaf:	e8 0c 85 61 02       	call   71851c0 <mongo::Lock::ResourceLock::_unlock()>
 4b6cd6c:	e8 4f 5c 1b 03       	call   7d229c0 <pthread_mutex_unlock@plt>
 4b6cd90:	e8 2b 5c 1b 03       	call   7d229c0 <pthread_mutex_unlock@plt>
 4b6d017:	e8 74 23 f0 fe       	call   3a6f390 <std::unique_lock<std::mutex>::unlock()>
 4b6d3f9:	e8 92 1f f0 fe       	call   3a6f390 <std::unique_lock<std::mutex>::unlock()>
 4b6d932:	e8 59 1a f0 fe       	call   3a6f390 <std::unique_lock<std::mutex>::unlock()>
 4b6d953:	e8 38 1a f0 fe       	call   3a6f390 <std::unique_lock<std::mutex>::unlock()>
 4b6d9b1:	e8 da 19 f0 fe       	call   3a6f390 <std::unique_lock<std::mutex>::unlock()>
 4b6df5d:	e8 2e 14 f0 fe       	call   3a6f390 <std::unique_lock<std::mutex>::unlock()>
 4b6e2b1:	e8 da 10 f0 fe       	call   3a6f390 <std::unique_lock<std::mutex>::unlock()>
 4b6e2d3:	e8 b8 10 f0 fe       	call   3a6f390 <std::unique_lock<std::mutex>::unlock()>
 4b6f75b:	e8 60 32 1b 03       	call   7d229c0 <pthread_mutex_unlock@plt>
 4b6f7a2:	e8 39 f1 00 00       	call   4b7e8e0 <mongo::repl::ReplSyncSharedData::unlock()>
 4b6f843:	e8 98 f0 00 00       	call   4b7e8e0 <mongo::repl::ReplSyncSharedData::unlock()>
 4b7038b:	e8 30 26 1b 03       	call   7d229c0 <pthread_mutex_unlock@plt>
 4b71fc9:	e8 12 c9 00 00       	call   4b7e8e0 <mongo::repl::ReplSyncSharedData::unlock()>
 4b72023:	e8 b8 c8 00 00       	call   4b7e8e0 <mongo::repl::ReplSyncSharedData::unlock()>
 4b722b7:	e8 04 07 1b 03       	call   7d229c0 <pthread_mutex_unlock@plt>
 4b7230e:	e8 ad 06 1b 03       	call   7d229c0 <pthread_mutex_unlock@plt>
 4b72381:	e8 3a 06 1b 03       	call   7d229c0 <pthread_mutex_unlock@plt>
 4b726f9:	e8 e2 c1 00 00       	call   4b7e8e0 <mongo::repl::ReplSyncSharedData::unlock()>
 4b72821:	e8 9a 01 1b 03       	call   7d229c0 <pthread_mutex_unlock@plt>
 4b72947:	e8 74 00 1b 03       	call   7d229c0 <pthread_mutex_unlock@plt>
 4b72a75:	e8 46 ff 1a 03       	call   7d229c0 <pthread_mutex_unlock@plt>
 4b72de2:	e8 f9 ba 00 00       	call   4b7e8e0 <mongo::repl::ReplSyncSharedData::unlock()>
 4b72dfa:	e8 e1 ba 00 00       	call   4b7e8e0 <mongo::repl::ReplSyncSharedData::unlock()>
 4b7372e:	e8 ad b1 00 00       	call   4b7e8e0 <mongo::repl::ReplSyncSharedData::unlock()>
 4b73773:	e8 68 b1 00 00       	call   4b7e8e0 <mongo::repl::ReplSyncSharedData::unlock()>
 4b74be8:	e9 d3 dd 1a 03       	jmp    7d229c0 <pthread_mutex_unlock@plt>
 4b74c2b:	e8 90 dd 1a 03       	call   7d229c0 <pthread_mutex_unlock@plt>
 4b74c85:	e9 36 dd 1a 03       	jmp    7d229c0 <pthread_mutex_unlock@plt>
 4b776ba:	e8 01 b3 1a 03       	call   7d229c0 <pthread_mutex_unlock@plt>
 4b799f0:	e8 cb 8f 1a 03       	call   7d229c0 <pthread_mutex_unlock@plt>
 4b79e0c:	e8 af 8b 1a 03       	call   7d229c0 <pthread_mutex_unlock@plt>
 4b7a02e:	e8 4d ac 60 02       	call   7184c80 <mongo::Lock::GlobalLock::_unlock()>
 4b7a080:	e8 3b b1 60 02       	call   71851c0 <mongo::Lock::ResourceLock::_unlock()>
 4b7a0ef:	e8 cc b0 60 02       	call   71851c0 <mongo::Lock::ResourceLock::_unlock()>
 4b7aeaa:	e8 11 7b 1a 03       	call   7d229c0 <pthread_mutex_unlock@plt>
0000000004b7e8e0 <mongo::repl::ReplSyncSharedData::unlock()>:
 4b7e8e4:	e9 d7 40 1a 03       	jmp    7d229c0 <pthread_mutex_unlock@plt>
 4b805b3:	e8 c8 46 60 02       	call   7184c80 <mongo::Lock::GlobalLock::_unlock()>
 4b805f6:	e8 c5 4b 60 02       	call   71851c0 <mongo::Lock::ResourceLock::_unlock()>
 4b80614:	e8 a7 4b 60 02       	call   71851c0 <mongo::Lock::ResourceLock::_unlock()>
 4b81472:	e8 49 15 1a 03       	call   7d229c0 <pthread_mutex_unlock@plt>
 4b814fa:	e8 c1 14 1a 03       	call   7d229c0 <pthread_mutex_unlock@plt>
 4b8239a:	e8 21 06 1a 03       	call   7d229c0 <pthread_mutex_unlock@plt>
 4b824c1:	e9 fa 04 1a 03       	jmp    7d229c0 <pthread_mutex_unlock@plt>
 4b8251d:	e8 9e 04 1a 03       	call   7d229c0 <pthread_mutex_unlock@plt>
 4b825c7:	e9 f4 03 1a 03       	jmp    7d229c0 <pthread_mutex_unlock@plt>
 4b82a94:	e8 27 ff 19 03       	call   7d229c0 <pthread_mutex_unlock@plt>
 4b83087:	e8 34 f9 19 03       	call   7d229c0 <pthread_mutex_unlock@plt>
 4b835d6:	e9 e5 f3 19 03       	jmp    7d229c0 <pthread_mutex_unlock@plt>
 4b83663:	e8 58 f3 19 03       	call   7d229c0 <pthread_mutex_unlock@plt>
 4b89672:	e8 49 93 19 03       	call   7d229c0 <pthread_mutex_unlock@plt>
 4b8a37f:	e8 3c 86 19 03       	call   7d229c0 <pthread_mutex_unlock@plt>
 4b8a55a:	e8 61 84 19 03       	call   7d229c0 <pthread_mutex_unlock@plt>
 4b8a6d5:	e8 e6 82 19 03       	call   7d229c0 <pthread_mutex_unlock@plt>
 4b8a87e:	e8 3d 81 19 03       	call   7d229c0 <pthread_mutex_unlock@plt>
 4b8acce:	e8 bd 46 ee fe       	call   3a6f390 <std::unique_lock<std::mutex>::unlock()>
 4b8b018:	e8 a3 79 19 03       	call   7d229c0 <pthread_mutex_unlock@plt>
 4b8b044:	e8 77 79 19 03       	call   7d229c0 <pthread_mutex_unlock@plt>
 4b8b0c4:	e8 f7 78 19 03       	call   7d229c0 <pthread_mutex_unlock@plt>
 4b8c8de:	e8 ad 2a ee fe       	call   3a6f390 <std::unique_lock<std::mutex>::unlock()>
 4b8c9ac:	e8 0f 60 19 03       	call   7d229c0 <pthread_mutex_unlock@plt>
 4b8f785:	e8 36 32 19 03       	call   7d229c0 <pthread_mutex_unlock@plt>
 4b8f7e0:	e8 db 31 19 03       	call   7d229c0 <pthread_mutex_unlock@plt>
 4b8f851:	e9 6a 31 19 03       	jmp    7d229c0 <pthread_mutex_unlock@plt>
 4b8f870:	e9 4b 31 19 03       	jmp    7d229c0 <pthread_mutex_unlock@plt>
 4b8f893:	e9 28 31 19 03       	jmp    7d229c0 <pthread_mutex_unlock@plt>
 4b8f8cc:	e8 ef 30 19 03       	call   7d229c0 <pthread_mutex_unlock@plt>
 4b8f95b:	e8 60 30 19 03       	call   7d229c0 <pthread_mutex_unlock@plt>
 4b8f971:	e9 4a 30 19 03       	jmp    7d229c0 <pthread_mutex_unlock@plt>
 4b8fa01:	e8 ba 2f 19 03       	call   7d229c0 <pthread_mutex_unlock@plt>
 4b8fa80:	e9 3b 2f 19 03       	jmp    7d229c0 <pthread_mutex_unlock@plt>
 4b8fb03:	e8 b8 2e 19 03       	call   7d229c0 <pthread_mutex_unlock@plt>
 4b8fcee:	e8 cd 2c 19 03       	call   7d229c0 <pthread_mutex_unlock@plt>
 4b8fd49:	e8 72 2c 19 03       	call   7d229c0 <pthread_mutex_unlock@plt>
 4b8fe30:	e9 8b 2b 19 03       	jmp    7d229c0 <pthread_mutex_unlock@plt>
 4b900d2:	e8 e9 28 19 03       	call   7d229c0 <pthread_mutex_unlock@plt>
 4b904c3:	e8 f8 24 19 03       	call   7d229c0 <pthread_mutex_unlock@plt>
 4b905c4:	e8 f7 23 19 03       	call   7d229c0 <pthread_mutex_unlock@plt>
 4b914c1:	e8 ca de ed fe       	call   3a6f390 <std::unique_lock<std::mutex>::unlock()>
 4b91637:	e8 54 dd ed fe       	call   3a6f390 <std::unique_lock<std::mutex>::unlock()>
 4b9164b:	e8 40 dd ed fe       	call   3a6f390 <std::unique_lock<std::mutex>::unlock()>
 4b920ed:	e8 ce 08 19 03       	call   7d229c0 <pthread_mutex_unlock@plt>
 4b92142:	e8 79 08 19 03       	call   7d229c0 <pthread_mutex_unlock@plt>
 4b9217a:	e8 41 08 19 03       	call   7d229c0 <pthread_mutex_unlock@plt>
 4b92cc0:	e8 fb fc 18 03       	call   7d229c0 <pthread_mutex_unlock@plt>
 4b92e6d:	e8 4e fb 18 03       	call   7d229c0 <pthread_mutex_unlock@plt>
 4b92ed8:	e8 e3 fa 18 03       	call   7d229c0 <pthread_mutex_unlock@plt>
 4b93a04:	e8 b7 ef 18 03       	call   7d229c0 <pthread_mutex_unlock@plt>
 4b93fd6:	e8 e5 e9 18 03       	call   7d229c0 <pthread_mutex_unlock@plt>
 4b9447c:	e8 3f e5 18 03       	call   7d229c0 <pthread_mutex_unlock@plt>
 4b945bb:	e8 00 e4 18 03       	call   7d229c0 <pthread_mutex_unlock@plt>
 4b9489b:	e8 f0 aa ed fe       	call   3a6f390 <std::unique_lock<std::mutex>::unlock()>
 4b94c3b:	e8 50 a7 ed fe       	call   3a6f390 <std::unique_lock<std::mutex>::unlock()>
 4b95135:	e9 86 d8 18 03       	jmp    7d229c0 <pthread_mutex_unlock@plt>
 4b958dc:	e8 df d0 18 03       	call   7d229c0 <pthread_mutex_unlock@plt>
 4b95ee7:	e9 d4 ca 18 03       	jmp    7d229c0 <pthread_mutex_unlock@plt>
 4b96583:	e8 38 c4 18 03       	call   7d229c0 <pthread_mutex_unlock@plt>
 4b96acd:	e8 ee be 18 03       	call   7d229c0 <pthread_mutex_unlock@plt>
 4b96e1d:	e8 9e bb 18 03       	call   7d229c0 <pthread_mutex_unlock@plt>
 4b97940:	e9 7b b0 18 03       	jmp    7d229c0 <pthread_mutex_unlock@plt>
 4b97c0f:	e9 ac ad 18 03       	jmp    7d229c0 <pthread_mutex_unlock@plt>
 4b97dfa:	e8 c1 ab 18 03       	call   7d229c0 <pthread_mutex_unlock@plt>
 4b97e76:	e8 45 ab 18 03       	call   7d229c0 <pthread_mutex_unlock@plt>
 4b980af:	e8 0c a9 18 03       	call   7d229c0 <pthread_mutex_unlock@plt>
 4b9812e:	e8 8d a8 18 03       	call   7d229c0 <pthread_mutex_unlock@plt>
 4b98189:	e8 02 72 ed fe       	call   3a6f390 <std::unique_lock<std::mutex>::unlock()>
 4b981b3:	e8 d8 71 ed fe       	call   3a6f390 <std::unique_lock<std::mutex>::unlock()>
 4b982d2:	e8 e9 a6 18 03       	call   7d229c0 <pthread_mutex_unlock@plt>
 4b984c4:	e8 f7 a4 18 03       	call   7d229c0 <pthread_mutex_unlock@plt>
 4b9855a:	e8 61 a4 18 03       	call   7d229c0 <pthread_mutex_unlock@plt>
 4b985ef:	e8 cc a3 18 03       	call   7d229c0 <pthread_mutex_unlock@plt>
 4b986f8:	e8 c3 a2 18 03       	call   7d229c0 <pthread_mutex_unlock@plt>
 4b987b0:	e8 0b a2 18 03       	call   7d229c0 <pthread_mutex_unlock@plt>
 4b9889e:	e8 1d a1 18 03       	call   7d229c0 <pthread_mutex_unlock@plt>
 4b988b6:	e8 05 a1 18 03       	call   7d229c0 <pthread_mutex_unlock@plt>
 4b9976a:	e8 51 92 18 03       	call   7d229c0 <pthread_mutex_unlock@plt>
 4b9b427:	e8 64 3f ed fe       	call   3a6f390 <std::unique_lock<std::mutex>::unlock()>
 4b9be3c:	e8 4f 35 ed fe       	call   3a6f390 <std::unique_lock<std::mutex>::unlock()>
 4bb112a:	e8 91 18 17 03       	call   7d229c0 <pthread_mutex_unlock@plt>
 4bbb14a:	e8 71 78 16 03       	call   7d229c0 <pthread_mutex_unlock@plt>
 4bbcf05:	e8 b6 5a 16 03       	call   7d229c0 <pthread_mutex_unlock@plt>
 4bbf650:	e8 3b fd ea fe       	call   3a6f390 <std::unique_lock<std::mutex>::unlock()>
 4bc1dba:	e8 01 0c 16 03       	call   7d229c0 <pthread_mutex_unlock@plt>
 4bc8083:	e8 38 a9 15 03       	call   7d229c0 <pthread_mutex_unlock@plt>
 4bc8880:	e8 3b a1 15 03       	call   7d229c0 <pthread_mutex_unlock@plt>
 4bca7e5:	e8 d6 81 15 03       	call   7d229c0 <pthread_mutex_unlock@plt>
 4bca936:	e8 85 80 15 03       	call   7d229c0 <pthread_mutex_unlock@plt>
 4bd29ba:	e8 d1 c9 e9 fe       	call   3a6f390 <std::unique_lock<std::mutex>::unlock()>
 4bd2a20:	e8 9b ff 14 03       	call   7d229c0 <pthread_mutex_unlock@plt>
 4bdfc8a:	e8 31 2d 14 03       	call   7d229c0 <pthread_mutex_unlock@plt>
 4be853e:	e8 4d 6e e8 fe       	call   3a6f390 <std::unique_lock<std::mutex>::unlock()>
 4beb265:	e8 26 41 e8 fe       	call   3a6f390 <std::unique_lock<std::mutex>::unlock()>
 4bf04da:	e8 e1 24 13 03       	call   7d229c0 <pthread_mutex_unlock@plt>
 4bf0b8b:	e8 30 1e 13 03       	call   7d229c0 <pthread_mutex_unlock@plt>
 4bf0c08:	e8 b3 1d 13 03       	call   7d229c0 <pthread_mutex_unlock@plt>
 4bf1262:	e8 59 17 13 03       	call   7d229c0 <pthread_mutex_unlock@plt>
 4bf16ba:	e8 01 13 13 03       	call   7d229c0 <pthread_mutex_unlock@plt>
 4bf246e:	e8 1d cf e7 fe       	call   3a6f390 <std::unique_lock<std::mutex>::unlock()>
 4bf2658:	e8 63 03 13 03       	call   7d229c0 <pthread_mutex_unlock@plt>
 4bf284d:	e8 6e 01 13 03       	call   7d229c0 <pthread_mutex_unlock@plt>
 4bf28f5:	e8 c6 00 13 03       	call   7d229c0 <pthread_mutex_unlock@plt>
 4bf34c6:	e8 f5 f4 12 03       	call   7d229c0 <pthread_mutex_unlock@plt>
 4bf3662:	e8 59 f3 12 03       	call   7d229c0 <pthread_mutex_unlock@plt>
 4bf371d:	e8 9e f2 12 03       	call   7d229c0 <pthread_mutex_unlock@plt>
 4bf4458:	e8 63 e5 12 03       	call   7d229c0 <pthread_mutex_unlock@plt>
 4bf4501:	e8 8a ae e7 fe       	call   3a6f390 <std::unique_lock<std::mutex>::unlock()>
 4bf849e:	e9 1d a5 12 03       	jmp    7d229c0 <pthread_mutex_unlock@plt>
 4bf853b:	e9 80 a4 12 03       	jmp    7d229c0 <pthread_mutex_unlock@plt>
 4bf8847:	e9 74 a1 12 03       	jmp    7d229c0 <pthread_mutex_unlock@plt>
 4bf89bb:	e8 00 a0 12 03       	call   7d229c0 <pthread_mutex_unlock@plt>
 4bf8ae4:	e8 d7 9e 12 03       	call   7d229c0 <pthread_mutex_unlock@plt>
 4bf8af8:	e8 c3 9e 12 03       	call   7d229c0 <pthread_mutex_unlock@plt>
 4bf8cd8:	e8 e3 9c 12 03       	call   7d229c0 <pthread_mutex_unlock@plt>
 4bf8cec:	e8 cf 9c 12 03       	call   7d229c0 <pthread_mutex_unlock@plt>
 4c13cf9:	e8 82 0f 57 02       	call   7184c80 <mongo::Lock::GlobalLock::_unlock()>
 4c13ff7:	e8 c4 11 57 02       	call   71851c0 <mongo::Lock::ResourceLock::_unlock()>
 4c1400f:	e8 ac 11 57 02       	call   71851c0 <mongo::Lock::ResourceLock::_unlock()>
 4c23b8a:	e8 31 ee 0f 03       	call   7d229c0 <pthread_mutex_unlock@plt>
 4c27a5f:	e8 5c d7 55 02       	call   71851c0 <mongo::Lock::ResourceLock::_unlock()>
 4c2b674:	e8 47 9b 55 02       	call   71851c0 <mongo::Lock::ResourceLock::_unlock()>
 4c5e9da:	e8 e1 3f 0c 03       	call   7d229c0 <pthread_mutex_unlock@plt>
 4c83976:	e8 05 13 50 02       	call   7184c80 <mongo::Lock::GlobalLock::_unlock()>
 4c83a57:	e8 64 17 50 02       	call   71851c0 <mongo::Lock::ResourceLock::_unlock()>
 4c83a6f:	e8 4c 17 50 02       	call   71851c0 <mongo::Lock::ResourceLock::_unlock()>
 4c864c9:	e8 b2 e7 4f 02       	call   7184c80 <mongo::Lock::GlobalLock::_unlock()>
 4c868f7:	e8 c4 e8 4f 02       	call   71851c0 <mongo::Lock::ResourceLock::_unlock()>
 4c8690c:	e8 af e8 4f 02       	call   71851c0 <mongo::Lock::ResourceLock::_unlock()>
 4c89104:	e8 77 bb 4f 02       	call   7184c80 <mongo::Lock::GlobalLock::_unlock()>
 4c891dd:	e8 9e ba 4f 02       	call   7184c80 <mongo::Lock::GlobalLock::_unlock()>
 4c8924f:	e8 6c bf 4f 02       	call   71851c0 <mongo::Lock::ResourceLock::_unlock()>
 4c89264:	e8 57 bf 4f 02       	call   71851c0 <mongo::Lock::ResourceLock::_unlock()>
 4c892cd:	e8 ee be 4f 02       	call   71851c0 <mongo::Lock::ResourceLock::_unlock()>
 4c892db:	e8 e0 be 4f 02       	call   71851c0 <mongo::Lock::ResourceLock::_unlock()>
 4c8b1be:	e8 bd 9a 4f 02       	call   7184c80 <mongo::Lock::GlobalLock::_unlock()>
 4c8b567:	e8 54 9c 4f 02       	call   71851c0 <mongo::Lock::ResourceLock::_unlock()>
 4c8b57c:	e8 3f 9c 4f 02       	call   71851c0 <mongo::Lock::ResourceLock::_unlock()>
 4c8de54:	e8 27 6e 4f 02       	call   7184c80 <mongo::Lock::GlobalLock::_unlock()>
 4c8df2d:	e8 4e 6d 4f 02       	call   7184c80 <mongo::Lock::GlobalLock::_unlock()>
 4c8df9f:	e8 1c 72 4f 02       	call   71851c0 <mongo::Lock::ResourceLock::_unlock()>
 4c8dfb4:	e8 07 72 4f 02       	call   71851c0 <mongo::Lock::ResourceLock::_unlock()>
 4c8e01d:	e8 9e 71 4f 02       	call   71851c0 <mongo::Lock::ResourceLock::_unlock()>
 4c8e02b:	e8 90 71 4f 02       	call   71851c0 <mongo::Lock::ResourceLock::_unlock()>
 4c9d3f1:	e8 ca 55 08 03       	call   7d229c0 <pthread_mutex_unlock@plt>
 4c9d5ba:	e8 01 54 08 03       	call   7d229c0 <pthread_mutex_unlock@plt>
 4c9d77a:	e8 41 52 08 03       	call   7d229c0 <pthread_mutex_unlock@plt>
 4c9d79d:	e8 1e 52 08 03       	call   7d229c0 <pthread_mutex_unlock@plt>
 4c9eccd:	e8 ee 3c 08 03       	call   7d229c0 <pthread_mutex_unlock@plt>
 4c9f32c:	e8 8f 36 08 03       	call   7d229c0 <pthread_mutex_unlock@plt>
 4ca0074:	e8 47 29 08 03       	call   7d229c0 <pthread_mutex_unlock@plt>
 4ca00bc:	e8 ff 28 08 03       	call   7d229c0 <pthread_mutex_unlock@plt>
 4ca389a:	e8 21 f1 07 03       	call   7d229c0 <pthread_mutex_unlock@plt>
 4cb56da:	e8 e1 d2 06 03       	call   7d229c0 <pthread_mutex_unlock@plt>
 4cb6543:	e8 38 e7 4c 02       	call   7184c80 <mongo::Lock::GlobalLock::_unlock()>
 4cb6a77:	e8 44 e7 4c 02       	call   71851c0 <mongo::Lock::ResourceLock::_unlock()>
 4cb6a8f:	e8 2c e7 4c 02       	call   71851c0 <mongo::Lock::ResourceLock::_unlock()>
 4cb6fe6:	e8 d5 e1 4c 02       	call   71851c0 <mongo::Lock::ResourceLock::_unlock()>
 4cb7457:	e8 64 dd 4c 02       	call   71851c0 <mongo::Lock::ResourceLock::_unlock()>
 4cb7711:	e8 aa da 4c 02       	call   71851c0 <mongo::Lock::ResourceLock::_unlock()>
 4cb77d1:	e8 ea d9 4c 02       	call   71851c0 <mongo::Lock::ResourceLock::_unlock()>
 4cb7f1a:	e8 a1 aa 06 03       	call   7d229c0 <pthread_mutex_unlock@plt>
 4cba81b:	e8 a0 81 06 03       	call   7d229c0 <pthread_mutex_unlock@plt>
 4cba831:	e9 8a 81 06 03       	jmp    7d229c0 <pthread_mutex_unlock@plt>
 4cba8be:	e8 fd 80 06 03       	call   7d229c0 <pthread_mutex_unlock@plt>
 4cbb3be:	e8 fd 75 06 03       	call   7d229c0 <pthread_mutex_unlock@plt>
 4cbb3c6:	e8 f5 75 06 03       	call   7d229c0 <pthread_mutex_unlock@plt>
 4cbb570:	e8 4b 74 06 03       	call   7d229c0 <pthread_mutex_unlock@plt>
 4cbb5fc:	e8 bf 73 06 03       	call   7d229c0 <pthread_mutex_unlock@plt>
 4cbcfff:	e8 8c 23 db fe       	call   3a6f390 <std::unique_lock<std::mutex>::unlock()>
 4cbd48b:	e8 00 1f db fe       	call   3a6f390 <std::unique_lock<std::mutex>::unlock()>
 4cc557a:	e8 41 d4 05 03       	call   7d229c0 <pthread_mutex_unlock@plt>
 4cd07ca:	e8 f1 21 05 03       	call   7d229c0 <pthread_mutex_unlock@plt>
 4cd1477:	e8 44 15 05 03       	call   7d229c0 <pthread_mutex_unlock@plt>
 4d05c5a:	e8 61 cd 01 03       	call   7d229c0 <pthread_mutex_unlock@plt>
 4d17165:	e8 06 0f 00 00       	call   4d18070 <std::unique_lock<mongo::Client>::unlock()>
 4d17a52:	e8 19 06 00 00       	call   4d18070 <std::unique_lock<mongo::Client>::unlock()>
 4d17ae3:	e8 88 05 00 00       	call   4d18070 <std::unique_lock<mongo::Client>::unlock()>
0000000004d18070 <std::unique_lock<mongo::Client>::unlock()>:
 4d18074:	74 11                	je     4d18087 <std::unique_lock<mongo::Client>::unlock()+0x17>
 4d1807c:	74 08                	je     4d18086 <std::unique_lock<mongo::Client>::unlock()+0x16>
 4d3a9e0:	e8 9b a2 44 02       	call   7184c80 <mongo::Lock::GlobalLock::_unlock()>
 4d3aa33:	e8 88 a7 44 02       	call   71851c0 <mongo::Lock::ResourceLock::_unlock()>
 4d3b027:	e8 94 a1 44 02       	call   71851c0 <mongo::Lock::ResourceLock::_unlock()>
 4d3c316:	e8 a5 66 fe 02       	call   7d229c0 <pthread_mutex_unlock@plt>
 4d3c7dc:	e8 df 61 fe 02       	call   7d229c0 <pthread_mutex_unlock@plt>
 4d3ca8d:	e9 2e 5f fe 02       	jmp    7d229c0 <pthread_mutex_unlock@plt>
 4d3cb85:	e8 36 5e fe 02       	call   7d229c0 <pthread_mutex_unlock@plt>
 4d3cc07:	e8 b4 5d fe 02       	call   7d229c0 <pthread_mutex_unlock@plt>
 4d3cc21:	e8 9a 5d fe 02       	call   7d229c0 <pthread_mutex_unlock@plt>
 4d3cc8b:	e8 30 5d fe 02       	call   7d229c0 <pthread_mutex_unlock@plt>
 4d3ccae:	e8 0d 5d fe 02       	call   7d229c0 <pthread_mutex_unlock@plt>
 4d3d15e:	e8 5d 80 44 02       	call   71851c0 <mongo::Lock::ResourceLock::_unlock()>
 4d3d1b1:	e8 0a 58 fe 02       	call   7d229c0 <pthread_mutex_unlock@plt>
 4d3d1c9:	e8 c2 21 d3 fe       	call   3a6f390 <std::unique_lock<std::mutex>::unlock()>
 4d3d242:	e8 79 57 fe 02       	call   7d229c0 <pthread_mutex_unlock@plt>
 4d3d25f:	e8 2c 21 d3 fe       	call   3a6f390 <std::unique_lock<std::mutex>::unlock()>
 4d3d6c6:	e8 f5 52 fe 02       	call   7d229c0 <pthread_mutex_unlock@plt>
 4d3d711:	e8 aa 52 fe 02       	call   7d229c0 <pthread_mutex_unlock@plt>
 4d3d9ec:	e8 9f 19 d3 fe       	call   3a6f390 <std::unique_lock<std::mutex>::unlock()>
 4d3daea:	e8 d1 4e fe 02       	call   7d229c0 <pthread_mutex_unlock@plt>
 4d3dcdd:	e8 de 4c fe 02       	call   7d229c0 <pthread_mutex_unlock@plt>
 4d3de69:	e8 52 73 44 02       	call   71851c0 <mongo::Lock::ResourceLock::_unlock()>
 4d3df54:	e8 67 4a fe 02       	call   7d229c0 <pthread_mutex_unlock@plt>
 4d3e17f:	e8 3c 48 fe 02       	call   7d229c0 <pthread_mutex_unlock@plt>
 4d3e213:	e8 78 11 d3 fe       	call   3a6f390 <std::unique_lock<std::mutex>::unlock()>
 4d3e2ba:	e8 01 47 fe 02       	call   7d229c0 <pthread_mutex_unlock@plt>
 4d3e5a7:	e8 e4 0d d3 fe       	call   3a6f390 <std::unique_lock<std::mutex>::unlock()>
 4d3e619:	e8 a2 43 fe 02       	call   7d229c0 <pthread_mutex_unlock@plt>
 4d3e62d:	e8 5e 0d d3 fe       	call   3a6f390 <std::unique_lock<std::mutex>::unlock()>
 4d3e740:	e8 7b 42 fe 02       	call   7d229c0 <pthread_mutex_unlock@plt>
 4d3e754:	e8 67 42 fe 02       	call   7d229c0 <pthread_mutex_unlock@plt>
 4d3ebd0:	e8 eb 3d fe 02       	call   7d229c0 <pthread_mutex_unlock@plt>
 4d3ec29:	e8 92 3d fe 02       	call   7d229c0 <pthread_mutex_unlock@plt>
 4d3ee06:	e8 b5 3b fe 02       	call   7d229c0 <pthread_mutex_unlock@plt>
 4d3ef22:	e8 99 3a fe 02       	call   7d229c0 <pthread_mutex_unlock@plt>
 4d3f03f:	e8 4c 03 d3 fe       	call   3a6f390 <std::unique_lock<std::mutex>::unlock()>
 4d3f3ac:	e8 df ff d2 fe       	call   3a6f390 <std::unique_lock<std::mutex>::unlock()>
 4d3f3e1:	e8 aa ff d2 fe       	call   3a6f390 <std::unique_lock<std::mutex>::unlock()>
 4d3f3e9:	e8 d2 5d 44 02       	call   71851c0 <mongo::Lock::ResourceLock::_unlock()>
 4d3f51a:	e8 a1 5c 44 02       	call   71851c0 <mongo::Lock::ResourceLock::_unlock()>
 4d3f536:	e8 55 fe d2 fe       	call   3a6f390 <std::unique_lock<std::mutex>::unlock()>
 4d3f58c:	e8 ff fd d2 fe       	call   3a6f390 <std::unique_lock<std::mutex>::unlock()>
 4d3f5a5:	e8 e6 fd d2 fe       	call   3a6f390 <std::unique_lock<std::mutex>::unlock()>
 4d3f60a:	e8 81 fd d2 fe       	call   3a6f390 <std::unique_lock<std::mutex>::unlock()>
 4d3f632:	e8 59 fd d2 fe       	call   3a6f390 <std::unique_lock<std::mutex>::unlock()>
 4d3fb01:	e8 8a f8 d2 fe       	call   3a6f390 <std::unique_lock<std::mutex>::unlock()>
 4d3fb10:	e8 6b 0a 00 00       	call   4d40580 <mongo::SimpleMutex::unlock()>
 4d3fda6:	e8 e5 f5 d2 fe       	call   3a6f390 <std::unique_lock<std::mutex>::unlock()>
 4d3fdb2:	e8 c9 07 00 00       	call   4d40580 <mongo::SimpleMutex::unlock()>
 4d4029e:	e8 ed f0 d2 fe       	call   3a6f390 <std::unique_lock<std::mutex>::unlock()>
0000000004d40580 <mongo::SimpleMutex::unlock()>:
 4d40584:	e8 37 24 fe 02       	call   7d229c0 <pthread_mutex_unlock@plt>
 4d4058b:	75 02                	jne    4d4058f <mongo::SimpleMutex::unlock()+0xf>
 4d40701:	e9 ba 22 fe 02       	jmp    7d229c0 <pthread_mutex_unlock@plt>
 4d40805:	e8 b6 21 fe 02       	call   7d229c0 <pthread_mutex_unlock@plt>
 4d40887:	e8 34 21 fe 02       	call   7d229c0 <pthread_mutex_unlock@plt>
 4d408a1:	e8 1a 21 fe 02       	call   7d229c0 <pthread_mutex_unlock@plt>
 4d4090b:	e8 b0 20 fe 02       	call   7d229c0 <pthread_mutex_unlock@plt>
 4d4092e:	e8 8d 20 fe 02       	call   7d229c0 <pthread_mutex_unlock@plt>
 4d409f7:	e8 94 e9 d2 fe       	call   3a6f390 <std::unique_lock<std::mutex>::unlock()>
 4d5972e:	e8 8d 92 fc 02       	call   7d229c0 <pthread_mutex_unlock@plt>
 4d5eed8:	e8 e3 3a fc 02       	call   7d229c0 <pthread_mutex_unlock@plt>
 4d60fe4:	e8 d7 19 fc 02       	call   7d229c0 <pthread_mutex_unlock@plt>
 4d610d6:	e8 e5 18 fc 02       	call   7d229c0 <pthread_mutex_unlock@plt>
 4d6324e:	e8 2d 1a 42 02       	call   7184c80 <mongo::Lock::GlobalLock::_unlock()>
 4d63290:	e8 2b 1f 42 02       	call   71851c0 <mongo::Lock::ResourceLock::_unlock()>
 4d63344:	e8 77 1e 42 02       	call   71851c0 <mongo::Lock::ResourceLock::_unlock()>
 4d6701a:	e8 a1 b9 fb 02       	call   7d229c0 <pthread_mutex_unlock@plt>
 4d67745:	e8 76 da 41 02       	call   71851c0 <mongo::Lock::ResourceLock::_unlock()>
 4d6a498:	e8 23 ad 41 02       	call   71851c0 <mongo::Lock::ResourceLock::_unlock()>
 4d6d93a:	e8 81 50 fb 02       	call   7d229c0 <pthread_mutex_unlock@plt>
 4d6e0a0:	e9 1b 49 fb 02       	jmp    7d229c0 <pthread_mutex_unlock@plt>
 4d6e402:	e9 b9 45 fb 02       	jmp    7d229c0 <pthread_mutex_unlock@plt>
 4d6f1f3:	e8 98 01 d0 fe       	call   3a6f390 <std::unique_lock<std::mutex>::unlock()>
 4d6f521:	e8 9a 34 fb 02       	call   7d229c0 <pthread_mutex_unlock@plt>
 4d6f658:	e9 63 33 fb 02       	jmp    7d229c0 <pthread_mutex_unlock@plt>
 4d6f9d4:	e8 b7 f9 cf fe       	call   3a6f390 <std::unique_lock<std::mutex>::unlock()>
 4d6fb6a:	e8 51 2e fb 02       	call   7d229c0 <pthread_mutex_unlock@plt>
 4d6fbac:	e8 0f 2e fb 02       	call   7d229c0 <pthread_mutex_unlock@plt>
 4d70450:	e8 6b 25 fb 02       	call   7d229c0 <pthread_mutex_unlock@plt>
 4d70823:	e8 68 eb cf fe       	call   3a6f390 <std::unique_lock<std::mutex>::unlock()>
 4d709bf:	e9 fc 1f fb 02       	jmp    7d229c0 <pthread_mutex_unlock@plt>
 4d7100b:	e9 b0 19 fb 02       	jmp    7d229c0 <pthread_mutex_unlock@plt>
 4d71338:	e8 83 16 fb 02       	call   7d229c0 <pthread_mutex_unlock@plt>
 4d7187f:	e8 0c db cf fe       	call   3a6f390 <std::unique_lock<std::mutex>::unlock()>
 4d718b4:	e8 d7 da cf fe       	call   3a6f390 <std::unique_lock<std::mutex>::unlock()>
 4d71c3e:	e8 4d d7 cf fe       	call   3a6f390 <std::unique_lock<std::mutex>::unlock()>
 4d72a83:	e8 08 c9 cf fe       	call   3a6f390 <std::unique_lock<std::mutex>::unlock()>
 4d72bdf:	e8 ac c7 cf fe       	call   3a6f390 <std::unique_lock<std::mutex>::unlock()>
 4d72e96:	e8 f5 c4 cf fe       	call   3a6f390 <std::unique_lock<std::mutex>::unlock()>
 4d72f7d:	e8 0e c4 cf fe       	call   3a6f390 <std::unique_lock<std::mutex>::unlock()>
 4d73723:	e8 68 bc cf fe       	call   3a6f390 <std::unique_lock<std::mutex>::unlock()>
 4d73760:	e8 2b bc cf fe       	call   3a6f390 <std::unique_lock<std::mutex>::unlock()>
 4d754ce:	e8 bd 9e cf fe       	call   3a6f390 <std::unique_lock<std::mutex>::unlock()>
 4d75e21:	e8 9a cb fa 02       	call   7d229c0 <pthread_mutex_unlock@plt>
 4d76193:	e8 28 c8 fa 02       	call   7d229c0 <pthread_mutex_unlock@plt>
 4d76635:	e8 86 c3 fa 02       	call   7d229c0 <pthread_mutex_unlock@plt>
 4d766ba:	e8 01 c3 fa 02       	call   7d229c0 <pthread_mutex_unlock@plt>
 4d7677f:	e9 3c c2 fa 02       	jmp    7d229c0 <pthread_mutex_unlock@plt>
 4d76788:	e8 33 c2 fa 02       	call   7d229c0 <pthread_mutex_unlock@plt>
 4d768ea:	e9 d1 c0 fa 02       	jmp    7d229c0 <pthread_mutex_unlock@plt>
 4d77893:	e8 28 b1 fa 02       	call   7d229c0 <pthread_mutex_unlock@plt>
 4d77b27:	e8 94 ae fa 02       	call   7d229c0 <pthread_mutex_unlock@plt>
 4d781be:	e8 cd 71 cf fe       	call   3a6f390 <std::unique_lock<std::mutex>::unlock()>
 4d78298:	e8 23 a7 fa 02       	call   7d229c0 <pthread_mutex_unlock@plt>
 4d78311:	e8 7a 70 cf fe       	call   3a6f390 <std::unique_lock<std::mutex>::unlock()>
 4d78396:	e8 25 a6 fa 02       	call   7d229c0 <pthread_mutex_unlock@plt>
 4d7851a:	e8 71 6e cf fe       	call   3a6f390 <std::unique_lock<std::mutex>::unlock()>
 4d78616:	e9 a5 a3 fa 02       	jmp    7d229c0 <pthread_mutex_unlock@plt>
 4d78645:	e8 76 a3 fa 02       	call   7d229c0 <pthread_mutex_unlock@plt>
 4d786f2:	e8 c9 a2 fa 02       	call   7d229c0 <pthread_mutex_unlock@plt>
 4d78771:	e8 1a 6c cf fe       	call   3a6f390 <std::unique_lock<std::mutex>::unlock()>
 4d78888:	e8 03 6b cf fe       	call   3a6f390 <std::unique_lock<std::mutex>::unlock()>
 4d788c7:	e8 c4 6a cf fe       	call   3a6f390 <std::unique_lock<std::mutex>::unlock()>
 4d78a2e:	e8 5d 69 cf fe       	call   3a6f390 <std::unique_lock<std::mutex>::unlock()>
 4d79227:	e8 64 61 cf fe       	call   3a6f390 <std::unique_lock<std::mutex>::unlock()>
 4d7972f:	e8 8c 92 fa 02       	call   7d229c0 <pthread_mutex_unlock@plt>
 4d799a8:	e8 13 90 fa 02       	call   7d229c0 <pthread_mutex_unlock@plt>
 4d79ac3:	e8 f8 8e fa 02       	call   7d229c0 <pthread_mutex_unlock@plt>
 4d806fe:	e9 bd 22 fa 02       	jmp    7d229c0 <pthread_mutex_unlock@plt>
 4d80bbc:	e8 ff 1d fa 02       	call   7d229c0 <pthread_mutex_unlock@plt>
 4d82240:	e8 7b 07 fa 02       	call   7d229c0 <pthread_mutex_unlock@plt>
 4d8554a:	e8 71 d4 f9 02       	call   7d229c0 <pthread_mutex_unlock@plt>
 4dad36f:	e8 4c 56 f7 02       	call   7d229c0 <pthread_mutex_unlock@plt>
 4db3760:	e8 5b f2 f6 02       	call   7d229c0 <pthread_mutex_unlock@plt>
 4db3c41:	e8 7a ed f6 02       	call   7d229c0 <pthread_mutex_unlock@plt>
 4db3f25:	e8 96 ea f6 02       	call   7d229c0 <pthread_mutex_unlock@plt>
 4db422e:	e8 8d e7 f6 02       	call   7d229c0 <pthread_mutex_unlock@plt>
 4db4537:	e8 84 e4 f6 02       	call   7d229c0 <pthread_mutex_unlock@plt>
 4db4847:	e8 74 e1 f6 02       	call   7d229c0 <pthread_mutex_unlock@plt>
 4db4ba1:	e8 1a de f6 02       	call   7d229c0 <pthread_mutex_unlock@plt>
 4db5fd4:	e8 e7 c9 f6 02       	call   7d229c0 <pthread_mutex_unlock@plt>
 4db60a4:	e8 17 c9 f6 02       	call   7d229c0 <pthread_mutex_unlock@plt>
 4db6174:	e8 47 c8 f6 02       	call   7d229c0 <pthread_mutex_unlock@plt>
 4db6244:	e8 77 c7 f6 02       	call   7d229c0 <pthread_mutex_unlock@plt>
 4db64c4:	e8 f7 c4 f6 02       	call   7d229c0 <pthread_mutex_unlock@plt>
 4db7865:	e8 56 b1 f6 02       	call   7d229c0 <pthread_mutex_unlock@plt>
 4db7acf:	e9 ec ae f6 02       	jmp    7d229c0 <pthread_mutex_unlock@plt>
 4db8d70:	e8 4b 9c f6 02       	call   7d229c0 <pthread_mutex_unlock@plt>
 4db8e66:	e8 55 9b f6 02       	call   7d229c0 <pthread_mutex_unlock@plt>
 4db8f0e:	e8 ad 9a f6 02       	call   7d229c0 <pthread_mutex_unlock@plt>
 4db8f6d:	e8 4e 9a f6 02       	call   7d229c0 <pthread_mutex_unlock@plt>
 4db9005:	e8 b6 99 f6 02       	call   7d229c0 <pthread_mutex_unlock@plt>
 4db90af:	e8 0c 99 f6 02       	call   7d229c0 <pthread_mutex_unlock@plt>
 4db914f:	e8 6c 98 f6 02       	call   7d229c0 <pthread_mutex_unlock@plt>
 4db9206:	e8 b5 97 f6 02       	call   7d229c0 <pthread_mutex_unlock@plt>
 4dba5b7:	e8 04 84 f6 02       	call   7d229c0 <pthread_mutex_unlock@plt>
 4dba621:	e8 9a 83 f6 02       	call   7d229c0 <pthread_mutex_unlock@plt>
 4dbe489:	e8 32 45 f6 02       	call   7d229c0 <pthread_mutex_unlock@plt>
 4dbe539:	e8 82 44 f6 02       	call   7d229c0 <pthread_mutex_unlock@plt>
 4dbe57a:	e8 41 44 f6 02       	call   7d229c0 <pthread_mutex_unlock@plt>
 4dbe655:	e8 66 43 f6 02       	call   7d229c0 <pthread_mutex_unlock@plt>
 4dbe663:	e8 58 43 f6 02       	call   7d229c0 <pthread_mutex_unlock@plt>
 4dbe68a:	e8 31 43 f6 02       	call   7d229c0 <pthread_mutex_unlock@plt>
 4dbe6a0:	e9 1b 43 f6 02       	jmp    7d229c0 <pthread_mutex_unlock@plt>
 4dc06f6:	e8 c5 4a 3c 02       	call   71851c0 <mongo::Lock::ResourceLock::_unlock()>
 4dc111a:	e8 a1 40 3c 02       	call   71851c0 <mongo::Lock::ResourceLock::_unlock()>
 4dc1180:	e8 3b 40 3c 02       	call   71851c0 <mongo::Lock::ResourceLock::_unlock()>
 4dc3241:	e8 7a 1f 3c 02       	call   71851c0 <mongo::Lock::ResourceLock::_unlock()>
 4dc4083:	e8 38 e9 f5 02       	call   7d229c0 <pthread_mutex_unlock@plt>
 4dc4093:	e8 28 e9 f5 02       	call   7d229c0 <pthread_mutex_unlock@plt>
 4dc40c0:	e8 fb e8 f5 02       	call   7d229c0 <pthread_mutex_unlock@plt>
 4dc40e9:	e9 d2 e8 f5 02       	jmp    7d229c0 <pthread_mutex_unlock@plt>
 4dc49df:	e8 dc df f5 02       	call   7d229c0 <pthread_mutex_unlock@plt>
 4dc4f26:	e8 95 da f5 02       	call   7d229c0 <pthread_mutex_unlock@plt>
 4dc737d:	e8 0e 80 ca fe       	call   3a6f390 <std::unique_lock<std::mutex>::unlock()>
 4dc796f:	e8 1c 7a ca fe       	call   3a6f390 <std::unique_lock<std::mutex>::unlock()>
 4dc94d3:	e8 e8 bc 3b 02       	call   71851c0 <mongo::Lock::ResourceLock::_unlock()>
 4dc9a4f:	e8 6c b7 3b 02       	call   71851c0 <mongo::Lock::ResourceLock::_unlock()>
 4dc9cf4:	e8 c7 b4 3b 02       	call   71851c0 <mongo::Lock::ResourceLock::_unlock()>
 4dca662:	e8 59 ab 3b 02       	call   71851c0 <mongo::Lock::ResourceLock::_unlock()>
 4dcaa57:	e8 34 49 ca fe       	call   3a6f390 <std::unique_lock<std::mutex>::unlock()>
 4dcb405:	e8 86 3f ca fe       	call   3a6f390 <std::unique_lock<std::mutex>::unlock()>
 4dcb857:	e8 64 99 3b 02       	call   71851c0 <mongo::Lock::ResourceLock::_unlock()>
 4de72ea:	e8 d1 b6 f3 02       	call   7d229c0 <pthread_mutex_unlock@plt>
 4deaaa8:	e8 13 7f f3 02       	call   7d229c0 <pthread_mutex_unlock@plt>
 4deb9bd:	e8 fe 6f f3 02       	call   7d229c0 <pthread_mutex_unlock@plt>
 4ded208:	e8 83 21 c8 fe       	call   3a6f390 <std::unique_lock<std::mutex>::unlock()>
 4ded2e6:	e8 d5 56 f3 02       	call   7d229c0 <pthread_mutex_unlock@plt>
 4e95b54:	e8 17 25 e8 ff       	call   4d18070 <std::unique_lock<mongo::Client>::unlock()>
 4e98002:	e8 69 00 e8 ff       	call   4d18070 <std::unique_lock<mongo::Client>::unlock()>
 4ead2aa:	e8 11 57 e7 02       	call   7d229c0 <pthread_mutex_unlock@plt>
 4ecd9d4:	e9 e7 4f e5 02       	jmp    7d229c0 <pthread_mutex_unlock@plt>
 4eceafa:	e8 c1 3e e5 02       	call   7d229c0 <pthread_mutex_unlock@plt>
 4ecf4f0:	e8 cb 34 e5 02       	call   7d229c0 <pthread_mutex_unlock@plt>
 4ecf705:	e8 b6 32 e5 02       	call   7d229c0 <pthread_mutex_unlock@plt>
 4efbada:	e8 e1 6e e2 02       	call   7d229c0 <pthread_mutex_unlock@plt>
 4f30ee0:	e8 db 1a df 02       	call   7d229c0 <pthread_mutex_unlock@plt>
 4f32041:	e8 7a 09 df 02       	call   7d229c0 <pthread_mutex_unlock@plt>
 4f3ee6a:	e8 51 3b de 02       	call   7d229c0 <pthread_mutex_unlock@plt>
 4f784fa:	e8 c1 a4 da 02       	call   7d229c0 <pthread_mutex_unlock@plt>
 4f78598:	e8 23 a4 da 02       	call   7d229c0 <pthread_mutex_unlock@plt>
 4f7b4f2:	e8 c9 74 da 02       	call   7d229c0 <pthread_mutex_unlock@plt>
 4f7b541:	e8 7a 74 da 02       	call   7d229c0 <pthread_mutex_unlock@plt>
 4f7b85d:	e8 5e 71 da 02       	call   7d229c0 <pthread_mutex_unlock@plt>
 4f7ccde:	e9 dd 5c da 02       	jmp    7d229c0 <pthread_mutex_unlock@plt>
 4f7cd3c:	e9 7f 5c da 02       	jmp    7d229c0 <pthread_mutex_unlock@plt>
 4f7cd7e:	e9 3d 5c da 02       	jmp    7d229c0 <pthread_mutex_unlock@plt>
 4f7cda0:	e9 1b 5c da 02       	jmp    7d229c0 <pthread_mutex_unlock@plt>
 4f7db84:	e9 37 4e da 02       	jmp    7d229c0 <pthread_mutex_unlock@plt>
 4f81ef8:	e8 c3 0a da 02       	call   7d229c0 <pthread_mutex_unlock@plt>
 4f81f7a:	e8 41 0a da 02       	call   7d229c0 <pthread_mutex_unlock@plt>
 4f841d1:	e8 ea e7 d9 02       	call   7d229c0 <pthread_mutex_unlock@plt>
 4f84231:	e8 8a e7 d9 02       	call   7d229c0 <pthread_mutex_unlock@plt>
 4f8427a:	e8 41 e7 d9 02       	call   7d229c0 <pthread_mutex_unlock@plt>
 4f897ee:	e9 cd 91 d9 02       	jmp    7d229c0 <pthread_mutex_unlock@plt>
 4f8d892:	e8 29 51 d9 02       	call   7d229c0 <pthread_mutex_unlock@plt>
 4f8dbab:	e8 10 4e d9 02       	call   7d229c0 <pthread_mutex_unlock@plt>
 4f8dfec:	e8 cf 49 d9 02       	call   7d229c0 <pthread_mutex_unlock@plt>
 4f8e771:	e8 4a 42 d9 02       	call   7d229c0 <pthread_mutex_unlock@plt>
 4f8edc0:	e8 fb 3b d9 02       	call   7d229c0 <pthread_mutex_unlock@plt>
 4f91158:	e8 63 18 d9 02       	call   7d229c0 <pthread_mutex_unlock@plt>
 4f915db:	e8 e0 13 d9 02       	call   7d229c0 <pthread_mutex_unlock@plt>
 4f9176e:	e8 4d 12 d9 02       	call   7d229c0 <pthread_mutex_unlock@plt>
 4f923bf:	e9 fc 05 d9 02       	jmp    7d229c0 <pthread_mutex_unlock@plt>
 4f94497:	e8 24 e5 d8 02       	call   7d229c0 <pthread_mutex_unlock@plt>
 4f94c88:	e8 33 dd d8 02       	call   7d229c0 <pthread_mutex_unlock@plt>
 4f95e4d:	e8 6e cb d8 02       	call   7d229c0 <pthread_mutex_unlock@plt>
 4f96595:	e8 26 c4 d8 02       	call   7d229c0 <pthread_mutex_unlock@plt>
 4f96808:	e8 b3 c1 d8 02       	call   7d229c0 <pthread_mutex_unlock@plt>
 4f96d6f:	e8 4c bc d8 02       	call   7d229c0 <pthread_mutex_unlock@plt>
 4f9716d:	e8 4e b8 d8 02       	call   7d229c0 <pthread_mutex_unlock@plt>
 4fa23ec:	e9 cf 05 d8 02       	jmp    7d229c0 <pthread_mutex_unlock@plt>
 4fa2522:	e9 99 04 d8 02       	jmp    7d229c0 <pthread_mutex_unlock@plt>
 4fa2a5e:	e8 5d ff d7 02       	call   7d229c0 <pthread_mutex_unlock@plt>
 4fa2f20:	e8 9b fa d7 02       	call   7d229c0 <pthread_mutex_unlock@plt>
 4fa3318:	e8 a3 f6 d7 02       	call   7d229c0 <pthread_mutex_unlock@plt>
 4fa3ba2:	e8 19 ee d7 02       	call   7d229c0 <pthread_mutex_unlock@plt>
 4fa41a6:	e8 15 e8 d7 02       	call   7d229c0 <pthread_mutex_unlock@plt>
 4fa41e4:	e9 d7 e7 d7 02       	jmp    7d229c0 <pthread_mutex_unlock@plt>
 4fa507c:	e8 3f d9 d7 02       	call   7d229c0 <pthread_mutex_unlock@plt>
 4fa54e8:	e8 d3 d4 d7 02       	call   7d229c0 <pthread_mutex_unlock@plt>
 4fa6373:	e8 18 90 ac fe       	call   3a6f390 <std::unique_lock<std::mutex>::unlock()>
 4fa6387:	e8 04 90 ac fe       	call   3a6f390 <std::unique_lock<std::mutex>::unlock()>
 4fa6412:	e8 a9 c5 d7 02       	call   7d229c0 <pthread_mutex_unlock@plt>
 4fa6467:	e8 24 8f ac fe       	call   3a6f390 <std::unique_lock<std::mutex>::unlock()>
 4fa64ee:	e8 9d 8e ac fe       	call   3a6f390 <std::unique_lock<std::mutex>::unlock()>
 4fa65b5:	e8 d6 8d ac fe       	call   3a6f390 <std::unique_lock<std::mutex>::unlock()>
 4fa6608:	e8 83 8d ac fe       	call   3a6f390 <std::unique_lock<std::mutex>::unlock()>
 4fa6a97:	e8 24 bf d7 02       	call   7d229c0 <pthread_mutex_unlock@plt>
 4fa6adb:	e8 e0 be d7 02       	call   7d229c0 <pthread_mutex_unlock@plt>
 4fa6c3b:	e8 50 87 ac fe       	call   3a6f390 <std::unique_lock<std::mutex>::unlock()>
 4fa763d:	e8 7e b3 d7 02       	call   7d229c0 <pthread_mutex_unlock@plt>
 4fa7769:	e8 52 b2 d7 02       	call   7d229c0 <pthread_mutex_unlock@plt>
 4fa8d2a:	e8 91 9c d7 02       	call   7d229c0 <pthread_mutex_unlock@plt>
 4fae267:	e8 54 47 d7 02       	call   7d229c0 <pthread_mutex_unlock@plt>
 4fb241a:	e8 a1 05 d7 02       	call   7d229c0 <pthread_mutex_unlock@plt>
 4fb2869:	e8 52 01 d7 02       	call   7d229c0 <pthread_mutex_unlock@plt>
 4fb28f3:	e8 c8 00 d7 02       	call   7d229c0 <pthread_mutex_unlock@plt>
 4fb2999:	e8 22 00 d7 02       	call   7d229c0 <pthread_mutex_unlock@plt>
 4fb2dc0:	e8 fb fb d6 02       	call   7d229c0 <pthread_mutex_unlock@plt>
 4fb2efc:	e8 bf fa d6 02       	call   7d229c0 <pthread_mutex_unlock@plt>
 4fb31ca:	e8 f1 f7 d6 02       	call   7d229c0 <pthread_mutex_unlock@plt>
 4fb3282:	e8 39 f7 d6 02       	call   7d229c0 <pthread_mutex_unlock@plt>
 4fb3457:	e8 64 f5 d6 02       	call   7d229c0 <pthread_mutex_unlock@plt>
 4fb386f:	e8 4c f1 d6 02       	call   7d229c0 <pthread_mutex_unlock@plt>
 4fb3902:	e8 b9 f0 d6 02       	call   7d229c0 <pthread_mutex_unlock@plt>
 4fb3b8f:	e8 2c ee d6 02       	call   7d229c0 <pthread_mutex_unlock@plt>
 4fb3fb6:	e8 05 ea d6 02       	call   7d229c0 <pthread_mutex_unlock@plt>
 4fb3fda:	e8 e1 e9 d6 02       	call   7d229c0 <pthread_mutex_unlock@plt>
 4fb4005:	e8 b6 e9 d6 02       	call   7d229c0 <pthread_mutex_unlock@plt>
 4fb4111:	e9 aa e8 d6 02       	jmp    7d229c0 <pthread_mutex_unlock@plt>
 4fb41ad:	e8 0e e8 d6 02       	call   7d229c0 <pthread_mutex_unlock@plt>
 4fb4242:	e8 79 e7 d6 02       	call   7d229c0 <pthread_mutex_unlock@plt>
 4fb4a79:	e8 42 df d6 02       	call   7d229c0 <pthread_mutex_unlock@plt>
 4fb4aaf:	e8 0c df d6 02       	call   7d229c0 <pthread_mutex_unlock@plt>
 4fb4c59:	e8 62 dd d6 02       	call   7d229c0 <pthread_mutex_unlock@plt>
 4fb4db9:	e8 02 dc d6 02       	call   7d229c0 <pthread_mutex_unlock@plt>
 4fb4fee:	e8 cd d9 d6 02       	call   7d229c0 <pthread_mutex_unlock@plt>
 4fb509a:	e8 21 d9 d6 02       	call   7d229c0 <pthread_mutex_unlock@plt>
 4fb5162:	e8 59 d8 d6 02       	call   7d229c0 <pthread_mutex_unlock@plt>
 4fb53c3:	e8 f8 d5 d6 02       	call   7d229c0 <pthread_mutex_unlock@plt>
 4fb762c:	e8 8f b3 d6 02       	call   7d229c0 <pthread_mutex_unlock@plt>
 4fb8068:	e8 53 a9 d6 02       	call   7d229c0 <pthread_mutex_unlock@plt>
 4fb8a68:	e8 53 9f d6 02       	call   7d229c0 <pthread_mutex_unlock@plt>
 4fb8b75:	e8 46 9e d6 02       	call   7d229c0 <pthread_mutex_unlock@plt>
 4fb8b93:	e8 28 9e d6 02       	call   7d229c0 <pthread_mutex_unlock@plt>
 4fb8bba:	e8 01 9e d6 02       	call   7d229c0 <pthread_mutex_unlock@plt>
 4fb8cb6:	e8 05 9d d6 02       	call   7d229c0 <pthread_mutex_unlock@plt>
 4fb8e07:	e8 84 65 ab fe       	call   3a6f390 <std::unique_lock<std::mutex>::unlock()>
 4fb8f73:	e8 48 9a d6 02       	call   7d229c0 <pthread_mutex_unlock@plt>
 4fb91a8:	e8 13 98 d6 02       	call   7d229c0 <pthread_mutex_unlock@plt>
 4fb921e:	e8 9d 97 d6 02       	call   7d229c0 <pthread_mutex_unlock@plt>
 4fba09b:	e8 f0 52 ab fe       	call   3a6f390 <std::unique_lock<std::mutex>::unlock()>
 4fba115:	e8 76 52 ab fe       	call   3a6f390 <std::unique_lock<std::mutex>::unlock()>
 4fba236:	e8 85 87 d6 02       	call   7d229c0 <pthread_mutex_unlock@plt>
 4fba277:	e8 44 87 d6 02       	call   7d229c0 <pthread_mutex_unlock@plt>
 4fc0b8a:	e8 31 1e d6 02       	call   7d229c0 <pthread_mutex_unlock@plt>
 4fc157d:	e8 3e 14 d6 02       	call   7d229c0 <pthread_mutex_unlock@plt>
 4fc1593:	e8 28 14 d6 02       	call   7d229c0 <pthread_mutex_unlock@plt>
 4fc15c6:	e9 f5 13 d6 02       	jmp    7d229c0 <pthread_mutex_unlock@plt>
 4fc15ce:	e8 ed 13 d6 02       	call   7d229c0 <pthread_mutex_unlock@plt>
 4fc15fa:	e8 c1 13 d6 02       	call   7d229c0 <pthread_mutex_unlock@plt>
 4fc16a3:	e8 18 13 d6 02       	call   7d229c0 <pthread_mutex_unlock@plt>
 4fc22aa:	e8 11 07 d6 02       	call   7d229c0 <pthread_mutex_unlock@plt>
 4fc2366:	e8 55 06 d6 02       	call   7d229c0 <pthread_mutex_unlock@plt>
 4fc238b:	e8 30 06 d6 02       	call   7d229c0 <pthread_mutex_unlock@plt>
 4fc23bc:	e8 ff 05 d6 02       	call   7d229c0 <pthread_mutex_unlock@plt>
 4fc2cf0:	e8 cb fc d5 02       	call   7d229c0 <pthread_mutex_unlock@plt>
 4fc3551:	e8 3a be aa fe       	call   3a6f390 <std::unique_lock<std::mutex>::unlock()>
 4fc37ec:	e8 9f bb aa fe       	call   3a6f390 <std::unique_lock<std::mutex>::unlock()>
 4fcda8b:	e8 30 4f d5 02       	call   7d229c0 <pthread_mutex_unlock@plt>
 4fce7ff:	e8 bc 41 d5 02       	call   7d229c0 <pthread_mutex_unlock@plt>
 4fcf21b:	e8 a0 37 d5 02       	call   7d229c0 <pthread_mutex_unlock@plt>
 4fd1698:	e8 23 13 d5 02       	call   7d229c0 <pthread_mutex_unlock@plt>
 4fd346a:	e8 51 f5 d4 02       	call   7d229c0 <pthread_mutex_unlock@plt>
 4fd9c6a:	e8 51 8d d4 02       	call   7d229c0 <pthread_mutex_unlock@plt>
 4fda6db:	e9 e0 82 d4 02       	jmp    7d229c0 <pthread_mutex_unlock@plt>
 4fe1c31:	e8 8a 0d d4 02       	call   7d229c0 <pthread_mutex_unlock@plt>
 4fe2015:	e8 a6 09 d4 02       	call   7d229c0 <pthread_mutex_unlock@plt>
 4fe330e:	e8 ad f6 d3 02       	call   7d229c0 <pthread_mutex_unlock@plt>
 4fe34c6:	e8 f5 f4 d3 02       	call   7d229c0 <pthread_mutex_unlock@plt>
 4fe8ea5:	e9 16 9b d3 02       	jmp    7d229c0 <pthread_mutex_unlock@plt>
 4fe8ec1:	e8 fa 9a d3 02       	call   7d229c0 <pthread_mutex_unlock@plt>
 4fea3a3:	e8 18 86 d3 02       	call   7d229c0 <pthread_mutex_unlock@plt>
 4fea432:	e8 89 85 d3 02       	call   7d229c0 <pthread_mutex_unlock@plt>
 4fea893:	e8 28 81 d3 02       	call   7d229c0 <pthread_mutex_unlock@plt>
 4fea97f:	e8 3c 80 d3 02       	call   7d229c0 <pthread_mutex_unlock@plt>
 4ff18dd:	e8 de 10 d3 02       	call   7d229c0 <pthread_mutex_unlock@plt>
 4ff1a66:	e8 55 0f d3 02       	call   7d229c0 <pthread_mutex_unlock@plt>
 4ff1cae:	e8 0d 0d d3 02       	call   7d229c0 <pthread_mutex_unlock@plt>
 4ff2056:	e8 65 09 d3 02       	call   7d229c0 <pthread_mutex_unlock@plt>
 4ff2341:	e8 7a 06 d3 02       	call   7d229c0 <pthread_mutex_unlock@plt>
 4ff2560:	e8 5b 04 d3 02       	call   7d229c0 <pthread_mutex_unlock@plt>
 4ff27fa:	e8 c1 01 d3 02       	call   7d229c0 <pthread_mutex_unlock@plt>
 4ff2c26:	e8 95 fd d2 02       	call   7d229c0 <pthread_mutex_unlock@plt>
 4ff2ebc:	e8 ff fa d2 02       	call   7d229c0 <pthread_mutex_unlock@plt>
0000000004ff4162 <mongo::SimpleMutex::unlock() [clone .part.0]>:
 4ff427a:	e8 e3 fe ff ff       	call   4ff4162 <mongo::SimpleMutex::unlock() [clone .part.0]>
 4ff428a:	e8 f1 c2 d4 ff       	call   4d40580 <mongo::SimpleMutex::unlock()>
 4ff4298:	e8 c5 fe ff ff       	call   4ff4162 <mongo::SimpleMutex::unlock() [clone .part.0]>
 4ff42b1:	e8 ca c2 d4 ff       	call   4d40580 <mongo::SimpleMutex::unlock()>
 4ff42db:	e8 82 fe ff ff       	call   4ff4162 <mongo::SimpleMutex::unlock() [clone .part.0]>
 4ff42f7:	e8 84 c2 d4 ff       	call   4d40580 <mongo::SimpleMutex::unlock()>
 4ff43a2:	e8 bb fd ff ff       	call   4ff4162 <mongo::SimpleMutex::unlock() [clone .part.0]>
 4ff43ad:	e8 ce c1 d4 ff       	call   4d40580 <mongo::SimpleMutex::unlock()>
 4ff4433:	e8 48 c1 d4 ff       	call   4d40580 <mongo::SimpleMutex::unlock()>
 4ff4440:	e8 1d fd ff ff       	call   4ff4162 <mongo::SimpleMutex::unlock() [clone .part.0]>
 4ff448f:	e8 ce fc ff ff       	call   4ff4162 <mongo::SimpleMutex::unlock() [clone .part.0]>
 4ff44aa:	e8 d1 c0 d4 ff       	call   4d40580 <mongo::SimpleMutex::unlock()>
 4ff4569:	e8 f4 fb ff ff       	call   4ff4162 <mongo::SimpleMutex::unlock() [clone .part.0]>
 4ff4ab3:	e8 08 df d2 02       	call   7d229c0 <pthread_mutex_unlock@plt>
 4ff4ac0:	e8 9d f6 ff ff       	call   4ff4162 <mongo::SimpleMutex::unlock() [clone .part.0]>
 4ff4cd0:	e8 8d f4 ff ff       	call   4ff4162 <mongo::SimpleMutex::unlock() [clone .part.0]>
 4ff4cd5:	e8 88 f4 ff ff       	call   4ff4162 <mongo::SimpleMutex::unlock() [clone .part.0]>
 4ff66ba:	e8 01 c3 d2 02       	call   7d229c0 <pthread_mutex_unlock@plt>
 4ff9114:	e8 a7 c0 18 02       	call   71851c0 <mongo::Lock::ResourceLock::_unlock()>
 4ffce26:	e8 65 25 a7 fe       	call   3a6f390 <std::unique_lock<std::mutex>::unlock()>
 4ffd236:	e8 55 21 a7 fe       	call   3a6f390 <std::unique_lock<std::mutex>::unlock()>
 4fff1cc:	e8 ef 5f 18 02       	call   71851c0 <mongo::Lock::ResourceLock::_unlock()>
 5000369:	e8 22 f0 a6 fe       	call   3a6f390 <std::unique_lock<std::mutex>::unlock()>
 504e2ba:	e8 01 47 cd 02       	call   7d229c0 <pthread_mutex_unlock@plt>
 504f22d:	e9 8e 37 cd 02       	jmp    7d229c0 <pthread_mutex_unlock@plt>
 504f2cf:	e9 ec 36 cd 02       	jmp    7d229c0 <pthread_mutex_unlock@plt>
 5051b82:	e8 39 0e cd 02       	call   7d229c0 <pthread_mutex_unlock@plt>
 5052e01:	e8 ba fb cc 02       	call   7d229c0 <pthread_mutex_unlock@plt>
 5052faa:	e8 11 fa cc 02       	call   7d229c0 <pthread_mutex_unlock@plt>
 50530d7:	e9 e4 f8 cc 02       	jmp    7d229c0 <pthread_mutex_unlock@plt>
 5053691:	e8 2a f3 cc 02       	call   7d229c0 <pthread_mutex_unlock@plt>
 505ccae:	e8 0d 5d cc 02       	call   7d229c0 <pthread_mutex_unlock@plt>
 505ceb9:	e8 d2 24 a1 fe       	call   3a6f390 <std::unique_lock<std::mutex>::unlock()>
 505d4d6:	e8 e5 54 cc 02       	call   7d229c0 <pthread_mutex_unlock@plt>
 507016b:	e8 e0 2b 89 02       	call   7902d50 <mongo::StorageChangeLock::SharedSpinLock::unlock()>
 507039d:	e8 ae 29 89 02       	call   7902d50 <mongo::StorageChangeLock::SharedSpinLock::unlock()>
 50715db:	e8 d0 06 00 00       	call   5071cb0 <std::unique_lock<mongo::StorageChangeLock::SharedSpinLock>::unlock()>
 5071604:	e8 a7 06 00 00       	call   5071cb0 <std::unique_lock<mongo::StorageChangeLock::SharedSpinLock>::unlock()>
0000000005071cb0 <std::unique_lock<mongo::StorageChangeLock::SharedSpinLock>::unlock()>:
 5071cbd:	74 1a                	je     5071cd9 <std::unique_lock<mongo::StorageChangeLock::SharedSpinLock>::unlock()+0x29>
 5071cc8:	74 09                	je     5071cd3 <std::unique_lock<mongo::StorageChangeLock::SharedSpinLock>::unlock()+0x23>
 5071cca:	e8 81 10 89 02       	call   7902d50 <mongo::StorageChangeLock::SharedSpinLock::unlock()>
 5072da3:	e9 18 fc ca 02       	jmp    7d229c0 <pthread_mutex_unlock@plt>
 5072f43:	e8 78 fa ca 02       	call   7d229c0 <pthread_mutex_unlock@plt>
 5072f53:	e8 68 fa ca 02       	call   7d229c0 <pthread_mutex_unlock@plt>
 5072f76:	e8 45 fa ca 02       	call   7d229c0 <pthread_mutex_unlock@plt>
 50733ab:	e8 10 f6 ca 02       	call   7d229c0 <pthread_mutex_unlock@plt>
 50733c8:	e8 f3 f5 ca 02       	call   7d229c0 <pthread_mutex_unlock@plt>
 507353b:	e8 50 be 9f fe       	call   3a6f390 <std::unique_lock<std::mutex>::unlock()>
 5073550:	e8 3b be 9f fe       	call   3a6f390 <std::unique_lock<std::mutex>::unlock()>
 507356d:	e8 de f7 88 02       	call   7902d50 <mongo::StorageChangeLock::SharedSpinLock::unlock()>
 507e972:	e9 49 40 ca 02       	jmp    7d229c0 <pthread_mutex_unlock@plt>
 507e9a7:	e9 14 40 ca 02       	jmp    7d229c0 <pthread_mutex_unlock@plt>
 507ec32:	e8 89 3d ca 02       	call   7d229c0 <pthread_mutex_unlock@plt>
 507f205:	e8 b6 37 ca 02       	call   7d229c0 <pthread_mutex_unlock@plt>
 507f716:	e8 a5 32 ca 02       	call   7d229c0 <pthread_mutex_unlock@plt>
 507fca9:	e8 12 2d ca 02       	call   7d229c0 <pthread_mutex_unlock@plt>
 5080179:	e8 42 28 ca 02       	call   7d229c0 <pthread_mutex_unlock@plt>
 5080698:	e8 23 23 ca 02       	call   7d229c0 <pthread_mutex_unlock@plt>
 50810ee:	e8 cd 18 ca 02       	call   7d229c0 <pthread_mutex_unlock@plt>
 5081127:	e8 94 18 ca 02       	call   7d229c0 <pthread_mutex_unlock@plt>
 508117e:	e8 3d 18 ca 02       	call   7d229c0 <pthread_mutex_unlock@plt>
 50811f2:	e8 c9 17 ca 02       	call   7d229c0 <pthread_mutex_unlock@plt>
 5082aca:	e8 f1 fe c9 02       	call   7d229c0 <pthread_mutex_unlock@plt>
 5085d26:	e8 65 96 9e fe       	call   3a6f390 <std::unique_lock<std::mutex>::unlock()>
 5086adc:	e8 af 88 9e fe       	call   3a6f390 <std::unique_lock<std::mutex>::unlock()>
 5088b1a:	e8 a1 9e c9 02       	call   7d229c0 <pthread_mutex_unlock@plt>
 50a888a:	e8 31 a1 c7 02       	call   7d229c0 <pthread_mutex_unlock@plt>
 50acadf:	e8 ac 28 9c fe       	call   3a6f390 <std::unique_lock<std::mutex>::unlock()>
 50b086b:	e8 20 eb 9b fe       	call   3a6f390 <std::unique_lock<std::mutex>::unlock()>
 50b6852:	e8 69 c1 c6 02       	call   7d229c0 <pthread_mutex_unlock@plt>
 50b6ede:	e9 dd ba c6 02       	jmp    7d229c0 <pthread_mutex_unlock@plt>
 50b6f44:	e9 77 ba c6 02       	jmp    7d229c0 <pthread_mutex_unlock@plt>
 50b6fa4:	e9 17 ba c6 02       	jmp    7d229c0 <pthread_mutex_unlock@plt>
 50b7a75:	e8 46 af c6 02       	call   7d229c0 <pthread_mutex_unlock@plt>
 50b7d94:	e8 27 ac c6 02       	call   7d229c0 <pthread_mutex_unlock@plt>
 50b7da8:	e8 13 ac c6 02       	call   7d229c0 <pthread_mutex_unlock@plt>
 50b7dbc:	e8 ff ab c6 02       	call   7d229c0 <pthread_mutex_unlock@plt>
 50cda2d:	e9 8e 4f c5 02       	jmp    7d229c0 <pthread_mutex_unlock@plt>
 50cddf4:	e8 c7 4b c5 02       	call   7d229c0 <pthread_mutex_unlock@plt>
 50ce04a:	e8 71 49 c5 02       	call   7d229c0 <pthread_mutex_unlock@plt>
 50d1c83:	e8 f8 2f 0b 02       	call   7184c80 <mongo::Lock::GlobalLock::_unlock()>
 50d1d05:	e8 b6 34 0b 02       	call   71851c0 <mongo::Lock::ResourceLock::_unlock()>
 50d1d14:	e8 a7 34 0b 02       	call   71851c0 <mongo::Lock::ResourceLock::_unlock()>
 50e69a4:	e9 17 c0 c3 02       	jmp    7d229c0 <pthread_mutex_unlock@plt>
 50e6b14:	e9 a7 be c3 02       	jmp    7d229c0 <pthread_mutex_unlock@plt>
 50e6ee0:	e8 db ba c3 02       	call   7d229c0 <pthread_mutex_unlock@plt>
 50ec19d:	e8 de 8a 09 02       	call   7184c80 <mongo::Lock::GlobalLock::_unlock()>
 50ec1d5:	e8 e6 8f 09 02       	call   71851c0 <mongo::Lock::ResourceLock::_unlock()>
 50ec6f5:	e8 c6 8a 09 02       	call   71851c0 <mongo::Lock::ResourceLock::_unlock()>
 50efa7a:	e8 41 2f c3 02       	call   7d229c0 <pthread_mutex_unlock@plt>
 51082b3:	e8 b8 fd c0 ff       	call   4d18070 <std::unique_lock<mongo::Client>::unlock()>
 51093a6:	e8 c5 ec c0 ff       	call   4d18070 <std::unique_lock<mongo::Client>::unlock()>
 5109a4c:	e8 1f e6 c0 ff       	call   4d18070 <std::unique_lock<mongo::Client>::unlock()>
 51143bc:	e8 ff e5 c0 02       	call   7d229c0 <pthread_mutex_unlock@plt>
 51143fd:	e8 be e5 c0 02       	call   7d229c0 <pthread_mutex_unlock@plt>
 51196ba:	e8 01 93 c0 02       	call   7d229c0 <pthread_mutex_unlock@plt>
 511bbe8:	e8 d3 6d c0 02       	call   7d229c0 <pthread_mutex_unlock@plt>
 511d17b:	e8 10 22 95 fe       	call   3a6f390 <std::unique_lock<std::mutex>::unlock()>
 5120e6a:	e8 51 1b c0 02       	call   7d229c0 <pthread_mutex_unlock@plt>
 5121717:	e9 a4 12 c0 02       	jmp    7d229c0 <pthread_mutex_unlock@plt>
 5122546:	e8 75 04 c0 02       	call   7d229c0 <pthread_mutex_unlock@plt>
 5122bb7:	e8 04 fe bf 02       	call   7d229c0 <pthread_mutex_unlock@plt>
 5123215:	e9 a6 f7 bf 02       	jmp    7d229c0 <pthread_mutex_unlock@plt>
 51232ce:	e9 ed f6 bf 02       	jmp    7d229c0 <pthread_mutex_unlock@plt>
 512540a:	e8 b1 d5 bf 02       	call   7d229c0 <pthread_mutex_unlock@plt>
 513d795:	e8 26 52 be 02       	call   7d229c0 <pthread_mutex_unlock@plt>
 513dbc3:	e8 f8 4d be 02       	call   7d229c0 <pthread_mutex_unlock@plt>
 513e8cb:	e8 f0 40 be 02       	call   7d229c0 <pthread_mutex_unlock@plt>
 513ee18:	e8 a3 3b be 02       	call   7d229c0 <pthread_mutex_unlock@plt>
 513ee2c:	e8 8f 3b be 02       	call   7d229c0 <pthread_mutex_unlock@plt>
 513ef00:	e8 bb 3a be 02       	call   7d229c0 <pthread_mutex_unlock@plt>
 515eafe:	e9 bd 3e bc 02       	jmp    7d229c0 <pthread_mutex_unlock@plt>
 515ed55:	e8 66 3c bc 02       	call   7d229c0 <pthread_mutex_unlock@plt>
 515f3f5:	e8 c6 35 bc 02       	call   7d229c0 <pthread_mutex_unlock@plt>
 515f541:	e8 7a 34 bc 02       	call   7d229c0 <pthread_mutex_unlock@plt>
 51656ba:	e8 01 d3 bb 02       	call   7d229c0 <pthread_mutex_unlock@plt>
 516b6bc:	e8 ff 9a 01 02       	call   71851c0 <mongo::Lock::ResourceLock::_unlock()>
 516e163:	e8 58 70 01 02       	call   71851c0 <mongo::Lock::ResourceLock::_unlock()>
 51773ba:	e8 01 b6 ba 02       	call   7d229c0 <pthread_mutex_unlock@plt>
 51793eb:	e8 d0 95 ba 02       	call   7d229c0 <pthread_mutex_unlock@plt>
 5179937:	e8 54 5a 8f fe       	call   3a6f390 <std::unique_lock<std::mutex>::unlock()>
 518d94a:	e8 71 50 b9 02       	call   7d229c0 <pthread_mutex_unlock@plt>
 519628a:	e8 31 c7 b8 02       	call   7d229c0 <pthread_mutex_unlock@plt>
 519bcaa:	e8 11 6d b8 02       	call   7d229c0 <pthread_mutex_unlock@plt>
 519f4a3:	e8 18 5d fe 01       	call   71851c0 <mongo::Lock::ResourceLock::_unlock()>
 51a0777:	e8 14 ec 8c fe       	call   3a6f390 <std::unique_lock<std::mutex>::unlock()>
 51a1f14:	e8 a7 32 fe 01       	call   71851c0 <mongo::Lock::ResourceLock::_unlock()>
 51a2527:	e8 64 ce 8c fe       	call   3a6f390 <std::unique_lock<std::mutex>::unlock()>
 51b6361:	e8 5a c6 b6 02       	call   7d229c0 <pthread_mutex_unlock@plt>
 51b65b5:	e8 06 c4 b6 02       	call   7d229c0 <pthread_mutex_unlock@plt>
 51bd304:	e8 b7 56 b6 02       	call   7d229c0 <pthread_mutex_unlock@plt>
 51bd4fc:	e9 bf 54 b6 02       	jmp    7d229c0 <pthread_mutex_unlock@plt>
 51bd9a5:	e9 16 50 b6 02       	jmp    7d229c0 <pthread_mutex_unlock@plt>
 51bdc73:	e8 48 4d b6 02       	call   7d229c0 <pthread_mutex_unlock@plt>
 51bdf48:	e8 73 4a b6 02       	call   7d229c0 <pthread_mutex_unlock@plt>
 51be166:	e8 55 48 b6 02       	call   7d229c0 <pthread_mutex_unlock@plt>
 51be4d3:	e8 e8 44 b6 02       	call   7d229c0 <pthread_mutex_unlock@plt>
 51bed79:	e8 42 3c b6 02       	call   7d229c0 <pthread_mutex_unlock@plt>
 51bee5b:	e8 60 3b b6 02       	call   7d229c0 <pthread_mutex_unlock@plt>
 51bee75:	e8 46 3b b6 02       	call   7d229c0 <pthread_mutex_unlock@plt>
 51c0c0a:	e8 b1 1d b6 02       	call   7d229c0 <pthread_mutex_unlock@plt>
 51e326d:	e8 4e f7 b3 02       	call   7d229c0 <pthread_mutex_unlock@plt>
 51e32e8:	e8 d3 f6 b3 02       	call   7d229c0 <pthread_mutex_unlock@plt>
 51e54fa:	e8 c1 d4 b3 02       	call   7d229c0 <pthread_mutex_unlock@plt>
 51e5e45:	e9 76 cb b3 02       	jmp    7d229c0 <pthread_mutex_unlock@plt>
 51e5f5b:	e8 60 ca b3 02       	call   7d229c0 <pthread_mutex_unlock@plt>
 51e5fbe:	e8 fd c9 b3 02       	call   7d229c0 <pthread_mutex_unlock@plt>
 51e6011:	e8 aa c9 b3 02       	call   7d229c0 <pthread_mutex_unlock@plt>
 51e6066:	e8 55 c9 b3 02       	call   7d229c0 <pthread_mutex_unlock@plt>
 51e60b1:	e8 0a c9 b3 02       	call   7d229c0 <pthread_mutex_unlock@plt>
 51e6102:	e8 b9 c8 b3 02       	call   7d229c0 <pthread_mutex_unlock@plt>
 51e6151:	e8 6a c8 b3 02       	call   7d229c0 <pthread_mutex_unlock@plt>
 51e61a1:	e8 1a c8 b3 02       	call   7d229c0 <pthread_mutex_unlock@plt>
 51e61fe:	e8 bd c7 b3 02       	call   7d229c0 <pthread_mutex_unlock@plt>
 51e6252:	e8 69 c7 b3 02       	call   7d229c0 <pthread_mutex_unlock@plt>
 51e62a2:	e8 19 c7 b3 02       	call   7d229c0 <pthread_mutex_unlock@plt>
 51e6300:	e9 bb c6 b3 02       	jmp    7d229c0 <pthread_mutex_unlock@plt>
 51e634a:	e9 71 c6 b3 02       	jmp    7d229c0 <pthread_mutex_unlock@plt>
 51e6613:	e9 a8 c3 b3 02       	jmp    7d229c0 <pthread_mutex_unlock@plt>
 51e66d7:	e9 e4 c2 b3 02       	jmp    7d229c0 <pthread_mutex_unlock@plt>
 51e67a6:	e9 15 c2 b3 02       	jmp    7d229c0 <pthread_mutex_unlock@plt>
 51e6871:	e9 4a c1 b3 02       	jmp    7d229c0 <pthread_mutex_unlock@plt>
 51e6968:	e9 53 c0 b3 02       	jmp    7d229c0 <pthread_mutex_unlock@plt>
 51e6a74:	e9 47 bf b3 02       	jmp    7d229c0 <pthread_mutex_unlock@plt>
 51e6bae:	e8 0d be b3 02       	call   7d229c0 <pthread_mutex_unlock@plt>
 51e6da2:	e8 19 bc b3 02       	call   7d229c0 <pthread_mutex_unlock@plt>
 51e707b:	e9 40 b9 b3 02       	jmp    7d229c0 <pthread_mutex_unlock@plt>
 51e75fc:	e9 bf b3 b3 02       	jmp    7d229c0 <pthread_mutex_unlock@plt>
 51e784b:	e9 70 b1 b3 02       	jmp    7d229c0 <pthread_mutex_unlock@plt>
 51e798c:	e9 2f b0 b3 02       	jmp    7d229c0 <pthread_mutex_unlock@plt>
 51e7be1:	e8 da ad b3 02       	call   7d229c0 <pthread_mutex_unlock@plt>
 51e831f:	e9 9c a6 b3 02       	jmp    7d229c0 <pthread_mutex_unlock@plt>
 51e841b:	e9 a0 a5 b3 02       	jmp    7d229c0 <pthread_mutex_unlock@plt>
 51e877c:	e8 3f a2 b3 02       	call   7d229c0 <pthread_mutex_unlock@plt>
 51e8c7d:	e9 3e 9d b3 02       	jmp    7d229c0 <pthread_mutex_unlock@plt>
 51e8e77:	e9 44 9b b3 02       	jmp    7d229c0 <pthread_mutex_unlock@plt>
 51e915e:	e8 5d 98 b3 02       	call   7d229c0 <pthread_mutex_unlock@plt>
 51e9584:	e8 37 94 b3 02       	call   7d229c0 <pthread_mutex_unlock@plt>
 51e98db:	e8 90 e7 b2 ff       	call   4d18070 <std::unique_lock<mongo::Client>::unlock()>
 51e99dd:	e8 de 8f b3 02       	call   7d229c0 <pthread_mutex_unlock@plt>
 51ea246:	e9 75 87 b3 02       	jmp    7d229c0 <pthread_mutex_unlock@plt>
 51ea5fa:	e8 c1 83 b3 02       	call   7d229c0 <pthread_mutex_unlock@plt>
 51ea654:	e8 67 83 b3 02       	call   7d229c0 <pthread_mutex_unlock@plt>
 51ea698:	e8 23 83 b3 02       	call   7d229c0 <pthread_mutex_unlock@plt>
 51ea6be:	e8 fd 82 b3 02       	call   7d229c0 <pthread_mutex_unlock@plt>
 51ea6ec:	e8 cf 82 b3 02       	call   7d229c0 <pthread_mutex_unlock@plt>
 51ea718:	e8 a3 82 b3 02       	call   7d229c0 <pthread_mutex_unlock@plt>
 51ea76d:	e8 4e 82 b3 02       	call   7d229c0 <pthread_mutex_unlock@plt>
 51ea7c1:	e8 fa 81 b3 02       	call   7d229c0 <pthread_mutex_unlock@plt>
 51ea846:	e8 75 81 b3 02       	call   7d229c0 <pthread_mutex_unlock@plt>
 51ea8e0:	e8 db 80 b3 02       	call   7d229c0 <pthread_mutex_unlock@plt>
 51ea922:	e8 99 80 b3 02       	call   7d229c0 <pthread_mutex_unlock@plt>
 51ea952:	e8 69 80 b3 02       	call   7d229c0 <pthread_mutex_unlock@plt>
 51ea9b3:	e8 08 80 b3 02       	call   7d229c0 <pthread_mutex_unlock@plt>
 51eac0a:	e8 b1 7d b3 02       	call   7d229c0 <pthread_mutex_unlock@plt>
 51eac6f:	e8 4c 7d b3 02       	call   7d229c0 <pthread_mutex_unlock@plt>
 51eae06:	e8 b5 7b b3 02       	call   7d229c0 <pthread_mutex_unlock@plt>
 51eaf54:	e8 67 7a b3 02       	call   7d229c0 <pthread_mutex_unlock@plt>
 51eb07f:	e8 3c 79 b3 02       	call   7d229c0 <pthread_mutex_unlock@plt>
 51eb120:	e8 9b 78 b3 02       	call   7d229c0 <pthread_mutex_unlock@plt>
 51eb1fd:	e8 6e ce b2 ff       	call   4d18070 <std::unique_lock<mongo::Client>::unlock()>
 51eb2db:	e8 e0 76 b3 02       	call   7d229c0 <pthread_mutex_unlock@plt>
 51eb30c:	e8 5f cd b2 ff       	call   4d18070 <std::unique_lock<mongo::Client>::unlock()>
 51eb4ae:	e8 0d 75 b3 02       	call   7d229c0 <pthread_mutex_unlock@plt>
 51ec54a:	e8 71 64 b3 02       	call   7d229c0 <pthread_mutex_unlock@plt>
 51ecfb4:	e9 07 5a b3 02       	jmp    7d229c0 <pthread_mutex_unlock@plt>
 51ecfea:	e9 d1 59 b3 02       	jmp    7d229c0 <pthread_mutex_unlock@plt>
 51ed01c:	e8 9f 59 b3 02       	call   7d229c0 <pthread_mutex_unlock@plt>
 51ed060:	e8 5b 59 b3 02       	call   7d229c0 <pthread_mutex_unlock@plt>
 51ed08e:	e9 2d 59 b3 02       	jmp    7d229c0 <pthread_mutex_unlock@plt>
 51ed1fc:	e9 bf 57 b3 02       	jmp    7d229c0 <pthread_mutex_unlock@plt>
 51ed698:	e8 23 53 b3 02       	call   7d229c0 <pthread_mutex_unlock@plt>
 51ed6af:	e8 dc 1c 88 fe       	call   3a6f390 <std::unique_lock<std::mutex>::unlock()>
 51ed952:	e8 69 50 b3 02       	call   7d229c0 <pthread_mutex_unlock@plt>
 51edbb6:	e9 05 4e b3 02       	jmp    7d229c0 <pthread_mutex_unlock@plt>
 51ee0da:	e9 e1 48 b3 02       	jmp    7d229c0 <pthread_mutex_unlock@plt>
 51ee1ad:	e8 0e 48 b3 02       	call   7d229c0 <pthread_mutex_unlock@plt>
 51ee56a:	e8 21 0e 88 fe       	call   3a6f390 <std::unique_lock<std::mutex>::unlock()>
 51eedef:	e8 9c 05 88 fe       	call   3a6f390 <std::unique_lock<std::mutex>::unlock()>
 51ef1ff:	e8 8c 01 88 fe       	call   3a6f390 <std::unique_lock<std::mutex>::unlock()>
 51ef22f:	e9 8c 37 b3 02       	jmp    7d229c0 <pthread_mutex_unlock@plt>
 51f0a3e:	e8 7d 1f b3 02       	call   7d229c0 <pthread_mutex_unlock@plt>
 51f0a73:	e9 48 1f b3 02       	jmp    7d229c0 <pthread_mutex_unlock@plt>
 51f0b52:	e8 69 1e b3 02       	call   7d229c0 <pthread_mutex_unlock@plt>
 51f0fcd:	e8 ee 19 b3 02       	call   7d229c0 <pthread_mutex_unlock@plt>
 51f126d:	e8 1e e1 87 fe       	call   3a6f390 <std::unique_lock<std::mutex>::unlock()>
 51f12db:	e8 b0 e0 87 fe       	call   3a6f390 <std::unique_lock<std::mutex>::unlock()>
 51f13d6:	e8 b5 df 87 fe       	call   3a6f390 <std::unique_lock<std::mutex>::unlock()>
 51f14d8:	e8 b3 de 87 fe       	call   3a6f390 <std::unique_lock<std::mutex>::unlock()>
 51f1576:	e8 15 de 87 fe       	call   3a6f390 <std::unique_lock<std::mutex>::unlock()>
 51f1593:	e8 f8 dd 87 fe       	call   3a6f390 <std::unique_lock<std::mutex>::unlock()>
 51f15ea:	e8 a1 dd 87 fe       	call   3a6f390 <std::unique_lock<std::mutex>::unlock()>
 51f16b6:	e8 d5 dc 87 fe       	call   3a6f390 <std::unique_lock<std::mutex>::unlock()>
 51f171f:	e8 6c dc 87 fe       	call   3a6f390 <std::unique_lock<std::mutex>::unlock()>
 51f1ab2:	e8 d9 d8 87 fe       	call   3a6f390 <std::unique_lock<std::mutex>::unlock()>
 51f1aee:	e8 9d d8 87 fe       	call   3a6f390 <std::unique_lock<std::mutex>::unlock()>
 51fa9b2:	e8 09 80 b2 02       	call   7d229c0 <pthread_mutex_unlock@plt>
 51facde:	e8 dd 7c b2 02       	call   7d229c0 <pthread_mutex_unlock@plt>
 51fb132:	e8 89 78 b2 02       	call   7d229c0 <pthread_mutex_unlock@plt>
 51fb404:	e8 b7 75 b2 02       	call   7d229c0 <pthread_mutex_unlock@plt>
 51fc014:	e8 a7 69 b2 02       	call   7d229c0 <pthread_mutex_unlock@plt>
 51fce6c:	e9 4f 5b b2 02       	jmp    7d229c0 <pthread_mutex_unlock@plt>
 51fcee2:	e9 d9 5a b2 02       	jmp    7d229c0 <pthread_mutex_unlock@plt>
 51fd17a:	e9 41 58 b2 02       	jmp    7d229c0 <pthread_mutex_unlock@plt>
 51fda7e:	e8 3d 4f b2 02       	call   7d229c0 <pthread_mutex_unlock@plt>
 51fe15d:	e8 5e 48 b2 02       	call   7d229c0 <pthread_mutex_unlock@plt>
 51fe3a9:	e8 12 46 b2 02       	call   7d229c0 <pthread_mutex_unlock@plt>
 51feafa:	e8 c1 3e b2 02       	call   7d229c0 <pthread_mutex_unlock@plt>
 51ff4ca:	e8 f1 34 b2 02       	call   7d229c0 <pthread_mutex_unlock@plt>
 5200826:	e8 95 21 b2 02       	call   7d229c0 <pthread_mutex_unlock@plt>
 52035d7:	e8 e4 f3 b1 02       	call   7d229c0 <pthread_mutex_unlock@plt>
 5204665:	e8 56 e3 b1 02       	call   7d229c0 <pthread_mutex_unlock@plt>
 5204b04:	e8 b7 de b1 02       	call   7d229c0 <pthread_mutex_unlock@plt>
 5204b40:	e8 7b de b1 02       	call   7d229c0 <pthread_mutex_unlock@plt>
 5204bb3:	e8 08 de b1 02       	call   7d229c0 <pthread_mutex_unlock@plt>
 5204d3e:	e8 7d dc b1 02       	call   7d229c0 <pthread_mutex_unlock@plt>
 5204e9c:	e8 1f db b1 02       	call   7d229c0 <pthread_mutex_unlock@plt>
 5204ec8:	e8 f3 da b1 02       	call   7d229c0 <pthread_mutex_unlock@plt>
 5204f26:	e8 95 da b1 02       	call   7d229c0 <pthread_mutex_unlock@plt>
 5204fe9:	e8 d2 d9 b1 02       	call   7d229c0 <pthread_mutex_unlock@plt>
 5205014:	e8 a7 d9 b1 02       	call   7d229c0 <pthread_mutex_unlock@plt>
 52050ee:	e8 cd d8 b1 02       	call   7d229c0 <pthread_mutex_unlock@plt>
 5205170:	e8 4b d8 b1 02       	call   7d229c0 <pthread_mutex_unlock@plt>
 52052fb:	e8 c0 d6 b1 02       	call   7d229c0 <pthread_mutex_unlock@plt>
 52058a6:	e8 15 d1 b1 02       	call   7d229c0 <pthread_mutex_unlock@plt>
 5205ea7:	e8 14 cb b1 02       	call   7d229c0 <pthread_mutex_unlock@plt>
 52060f8:	e8 c3 c8 b1 02       	call   7d229c0 <pthread_mutex_unlock@plt>
 52076df:	e9 dc b2 b1 02       	jmp    7d229c0 <pthread_mutex_unlock@plt>
 5209f61:	e8 5a 8a b1 02       	call   7d229c0 <pthread_mutex_unlock@plt>
 520a264:	e8 57 87 b1 02       	call   7d229c0 <pthread_mutex_unlock@plt>
 520a357:	e8 64 86 b1 02       	call   7d229c0 <pthread_mutex_unlock@plt>
 520ac09:	e9 b2 7d b1 02       	jmp    7d229c0 <pthread_mutex_unlock@plt>
 520ad1f:	e8 9c 7c b1 02       	call   7d229c0 <pthread_mutex_unlock@plt>
 520afff:	e8 bc 79 b1 02       	call   7d229c0 <pthread_mutex_unlock@plt>
 520bd6e:	e8 4d 6c b1 02       	call   7d229c0 <pthread_mutex_unlock@plt>
 520bdae:	e8 cd 8e f7 01       	call   7184c80 <mongo::Lock::GlobalLock::_unlock()>
 520bee1:	e8 da 6a b1 02       	call   7d229c0 <pthread_mutex_unlock@plt>
 520c232:	e8 49 8a f7 01       	call   7184c80 <mongo::Lock::GlobalLock::_unlock()>
 520c280:	e8 3b 8f f7 01       	call   71851c0 <mongo::Lock::ResourceLock::_unlock()>
 520c2b2:	e8 09 8f f7 01       	call   71851c0 <mongo::Lock::ResourceLock::_unlock()>
 520c2c3:	e8 f8 8e f7 01       	call   71851c0 <mongo::Lock::ResourceLock::_unlock()>
 520c2d4:	e8 e7 8e f7 01       	call   71851c0 <mongo::Lock::ResourceLock::_unlock()>
 520c4ef:	e8 cc 64 b1 02       	call   7d229c0 <pthread_mutex_unlock@plt>
 520c847:	e8 74 61 b1 02       	call   7d229c0 <pthread_mutex_unlock@plt>
 520cf87:	e8 34 5a b1 02       	call   7d229c0 <pthread_mutex_unlock@plt>
 520d87a:	e8 41 51 b1 02       	call   7d229c0 <pthread_mutex_unlock@plt>
 520d8a6:	e8 15 51 b1 02       	call   7d229c0 <pthread_mutex_unlock@plt>
 520d8ef:	e8 cc 50 b1 02       	call   7d229c0 <pthread_mutex_unlock@plt>
 520db3e:	e8 7d 4e b1 02       	call   7d229c0 <pthread_mutex_unlock@plt>
 520dd9d:	e8 1e 4c b1 02       	call   7d229c0 <pthread_mutex_unlock@plt>
 5210bde:	e9 dd 1d b1 02       	jmp    7d229c0 <pthread_mutex_unlock@plt>
 5210f88:	e9 33 1a b1 02       	jmp    7d229c0 <pthread_mutex_unlock@plt>
 5211149:	e9 72 18 b1 02       	jmp    7d229c0 <pthread_mutex_unlock@plt>
 5211403:	e8 b8 15 b1 02       	call   7d229c0 <pthread_mutex_unlock@plt>
 5211762:	e9 59 12 b1 02       	jmp    7d229c0 <pthread_mutex_unlock@plt>
 5211efd:	e9 be 0a b1 02       	jmp    7d229c0 <pthread_mutex_unlock@plt>
 5211f8c:	e9 2f 0a b1 02       	jmp    7d229c0 <pthread_mutex_unlock@plt>
 521202c:	e8 8f 09 b1 02       	call   7d229c0 <pthread_mutex_unlock@plt>
 52126b2:	e8 09 03 b1 02       	call   7d229c0 <pthread_mutex_unlock@plt>
 5212c3d:	e8 7e fd b0 02       	call   7d229c0 <pthread_mutex_unlock@plt>
 5212f19:	e9 a2 fa b0 02       	jmp    7d229c0 <pthread_mutex_unlock@plt>
 5213379:	e9 42 f6 b0 02       	jmp    7d229c0 <pthread_mutex_unlock@plt>
 521463c:	e9 7f e3 b0 02       	jmp    7d229c0 <pthread_mutex_unlock@plt>
 5214adc:	e9 df de b0 02       	jmp    7d229c0 <pthread_mutex_unlock@plt>
 5214c32:	e8 89 dd b0 02       	call   7d229c0 <pthread_mutex_unlock@plt>
 5214c76:	e8 45 dd b0 02       	call   7d229c0 <pthread_mutex_unlock@plt>
 5214c8e:	e8 2d dd b0 02       	call   7d229c0 <pthread_mutex_unlock@plt>
 5214ceb:	e8 d0 dc b0 02       	call   7d229c0 <pthread_mutex_unlock@plt>
 5214d39:	e8 82 dc b0 02       	call   7d229c0 <pthread_mutex_unlock@plt>
 5214d52:	e8 69 dc b0 02       	call   7d229c0 <pthread_mutex_unlock@plt>
 5214db1:	e8 0a dc b0 02       	call   7d229c0 <pthread_mutex_unlock@plt>
 5214fd6:	e8 e5 d9 b0 02       	call   7d229c0 <pthread_mutex_unlock@plt>
 5215128:	e8 93 d8 b0 02       	call   7d229c0 <pthread_mutex_unlock@plt>
 5215313:	e8 a8 d6 b0 02       	call   7d229c0 <pthread_mutex_unlock@plt>
 5215448:	e8 73 d5 b0 02       	call   7d229c0 <pthread_mutex_unlock@plt>
 52182ca:	e8 f1 a6 b0 02       	call   7d229c0 <pthread_mutex_unlock@plt>
 521d57d:	e8 fe 76 f6 01       	call   7184c80 <mongo::Lock::GlobalLock::_unlock()>
 521d5cb:	e8 f0 7b f6 01       	call   71851c0 <mongo::Lock::ResourceLock::_unlock()>
 521d5df:	e8 dc 7b f6 01       	call   71851c0 <mongo::Lock::ResourceLock::_unlock()>
 5223c5a:	e8 61 ed af 02       	call   7d229c0 <pthread_mutex_unlock@plt>
 52246ee:	e9 cd e2 af 02       	jmp    7d229c0 <pthread_mutex_unlock@plt>
 522493b:	e8 80 e0 af 02       	call   7d229c0 <pthread_mutex_unlock@plt>
 5224b66:	e9 55 de af 02       	jmp    7d229c0 <pthread_mutex_unlock@plt>
 5224c79:	e8 42 dd af 02       	call   7d229c0 <pthread_mutex_unlock@plt>
 5224d93:	e8 28 dc af 02       	call   7d229c0 <pthread_mutex_unlock@plt>
 52253a7:	e9 14 d6 af 02       	jmp    7d229c0 <pthread_mutex_unlock@plt>
 52254f5:	e8 96 9e 84 fe       	call   3a6f390 <std::unique_lock<std::mutex>::unlock()>
 5225764:	e8 27 9c 84 fe       	call   3a6f390 <std::unique_lock<std::mutex>::unlock()>
 522581c:	e8 6f 9b 84 fe       	call   3a6f390 <std::unique_lock<std::mutex>::unlock()>
 5225aec:	e8 cf ce af 02       	call   7d229c0 <pthread_mutex_unlock@plt>
 5225d79:	e8 42 cc af 02       	call   7d229c0 <pthread_mutex_unlock@plt>
 52261a8:	e9 13 c8 af 02       	jmp    7d229c0 <pthread_mutex_unlock@plt>
 52262c0:	e8 fb c6 af 02       	call   7d229c0 <pthread_mutex_unlock@plt>
 52264ed:	e8 9e 8e 84 fe       	call   3a6f390 <std::unique_lock<std::mutex>::unlock()>
 5226503:	e8 88 8e 84 fe       	call   3a6f390 <std::unique_lock<std::mutex>::unlock()>
 52265df:	e8 dc c3 af 02       	call   7d229c0 <pthread_mutex_unlock@plt>
 5226805:	e8 86 8b 84 fe       	call   3a6f390 <std::unique_lock<std::mutex>::unlock()>
 5226813:	e8 78 8b 84 fe       	call   3a6f390 <std::unique_lock<std::mutex>::unlock()>
 52269ea:	e8 d1 bf af 02       	call   7d229c0 <pthread_mutex_unlock@plt>
 5226a4a:	e8 71 bf af 02       	call   7d229c0 <pthread_mutex_unlock@plt>
 5226ae4:	e8 d7 be af 02       	call   7d229c0 <pthread_mutex_unlock@plt>
 5226b42:	e8 79 be af 02       	call   7d229c0 <pthread_mutex_unlock@plt>
 5226bc2:	e9 f9 bd af 02       	jmp    7d229c0 <pthread_mutex_unlock@plt>
 5226bdc:	e8 af 87 84 fe       	call   3a6f390 <std::unique_lock<std::mutex>::unlock()>
 5226bec:	e8 cf bd af 02       	call   7d229c0 <pthread_mutex_unlock@plt>
 5226cb4:	e8 07 bd af 02       	call   7d229c0 <pthread_mutex_unlock@plt>
 5226e03:	e8 b8 bb af 02       	call   7d229c0 <pthread_mutex_unlock@plt>
 5227066:	e8 55 b9 af 02       	call   7d229c0 <pthread_mutex_unlock@plt>
 522717f:	e8 0c 82 84 fe       	call   3a6f390 <std::unique_lock<std::mutex>::unlock()>
 52272bd:	e8 ce 80 84 fe       	call   3a6f390 <std::unique_lock<std::mutex>::unlock()>
 522732a:	e8 91 b6 af 02       	call   7d229c0 <pthread_mutex_unlock@plt>
 522741b:	e8 a0 b5 af 02       	call   7d229c0 <pthread_mutex_unlock@plt>
 522749c:	e8 ef 7e 84 fe       	call   3a6f390 <std::unique_lock<std::mutex>::unlock()>
 5227561:	e8 2a 7e 84 fe       	call   3a6f390 <std::unique_lock<std::mutex>::unlock()>
 5227bbe:	e9 fd ad af 02       	jmp    7d229c0 <pthread_mutex_unlock@plt>
 5228b08:	e8 b3 9e af 02       	call   7d229c0 <pthread_mutex_unlock@plt>
 5229185:	e9 36 98 af 02       	jmp    7d229c0 <pthread_mutex_unlock@plt>
 52294a0:	e9 1b 95 af 02       	jmp    7d229c0 <pthread_mutex_unlock@plt>
 52298f9:	e9 c2 90 af 02       	jmp    7d229c0 <pthread_mutex_unlock@plt>
 522a342:	e8 79 86 af 02       	call   7d229c0 <pthread_mutex_unlock@plt>
 522ac45:	e8 76 7d af 02       	call   7d229c0 <pthread_mutex_unlock@plt>
 522add0:	e8 eb 7b af 02       	call   7d229c0 <pthread_mutex_unlock@plt>
 522ae3c:	e8 7f 7b af 02       	call   7d229c0 <pthread_mutex_unlock@plt>
 522f2ba:	e8 01 37 af 02       	call   7d229c0 <pthread_mutex_unlock@plt>
 5268ddb:	e8 e0 9b ab 02       	call   7d229c0 <pthread_mutex_unlock@plt>
 5268e3f:	e8 7c 9b ab 02       	call   7d229c0 <pthread_mutex_unlock@plt>
 5268ee4:	e8 d7 c2 f1 01       	call   71851c0 <mongo::Lock::ResourceLock::_unlock()>
 5269bd5:	e8 e6 8d ab 02       	call   7d229c0 <pthread_mutex_unlock@plt>
000000000526d232 <mongo::SimpleMutex::unlock() [clone .part.0]>:
 526d2ab:	e8 82 ff ff ff       	call   526d232 <mongo::SimpleMutex::unlock() [clone .part.0]>
 526d2b5:	e8 78 ff ff ff       	call   526d232 <mongo::SimpleMutex::unlock() [clone .part.0]>
 526d4ea:	e8 43 fd ff ff       	call   526d232 <mongo::SimpleMutex::unlock() [clone .part.0]>
 5271eea:	e8 d1 0a ab 02       	call   7d229c0 <pthread_mutex_unlock@plt>
 527dc0a:	e8 b1 4d aa 02       	call   7d229c0 <pthread_mutex_unlock@plt>
 5282287:	e8 04 d1 7e fe       	call   3a6f390 <std::unique_lock<std::mutex>::unlock()>
 5283e3b:	e8 50 b5 7e fe       	call   3a6f390 <std::unique_lock<std::mutex>::unlock()>
 52885fb:	e8 80 c6 ef 01       	call   7184c80 <mongo::Lock::GlobalLock::_unlock()>
 5288640:	e8 7b cb ef 01       	call   71851c0 <mongo::Lock::ResourceLock::_unlock()>
 528864e:	e8 6d cb ef 01       	call   71851c0 <mongo::Lock::ResourceLock::_unlock()>
 52889dd:	e8 9e c2 ef 01       	call   7184c80 <mongo::Lock::GlobalLock::_unlock()>
 5288a0d:	e8 ae c7 ef 01       	call   71851c0 <mongo::Lock::ResourceLock::_unlock()>
 5288a57:	e8 64 c7 ef 01       	call   71851c0 <mongo::Lock::ResourceLock::_unlock()>
 5288ddd:	e8 9e be ef 01       	call   7184c80 <mongo::Lock::GlobalLock::_unlock()>
 5288e0d:	e8 ae c3 ef 01       	call   71851c0 <mongo::Lock::ResourceLock::_unlock()>
 5288e57:	e8 64 c3 ef 01       	call   71851c0 <mongo::Lock::ResourceLock::_unlock()>
 52b3f6c:	e9 4f ea a6 02       	jmp    7d229c0 <pthread_mutex_unlock@plt>
 52b45b0:	e9 0b e4 a6 02       	jmp    7d229c0 <pthread_mutex_unlock@plt>
 52b464e:	e8 6d e3 a6 02       	call   7d229c0 <pthread_mutex_unlock@plt>
 52b56fe:	e9 bd d2 a6 02       	jmp    7d229c0 <pthread_mutex_unlock@plt>
 52b870e:	e8 ad a2 a6 02       	call   7d229c0 <pthread_mutex_unlock@plt>
 52b87ce:	e8 ed a1 a6 02       	call   7d229c0 <pthread_mutex_unlock@plt>
 52b8906:	e8 b5 a0 a6 02       	call   7d229c0 <pthread_mutex_unlock@plt>
 531cd9a:	e8 21 5c a0 02       	call   7d229c0 <pthread_mutex_unlock@plt>
 53286ba:	e8 01 a3 9f 02       	call   7d229c0 <pthread_mutex_unlock@plt>
 532b7aa:	e8 11 72 9f 02       	call   7d229c0 <pthread_mutex_unlock@plt>
 5336f16:	e8 75 84 73 fe       	call   3a6f390 <std::unique_lock<std::mutex>::unlock()>
 5339f5f:	e8 0c e1 9d ff       	call   4d18070 <std::unique_lock<mongo::Client>::unlock()>
 5339fa3:	e8 c8 e0 9d ff       	call   4d18070 <std::unique_lock<mongo::Client>::unlock()>
 533a697:	e8 f4 4c 73 fe       	call   3a6f390 <std::unique_lock<std::mutex>::unlock()>
 533b1f0:	e8 7b ce 9d ff       	call   4d18070 <std::unique_lock<mongo::Client>::unlock()>
 533b540:	e8 2b cb 9d ff       	call   4d18070 <std::unique_lock<mongo::Client>::unlock()>
 53446ec:	e8 9f ac 72 fe       	call   3a6f390 <std::unique_lock<std::mutex>::unlock()>
 5344833:	e8 58 ab 72 fe       	call   3a6f390 <std::unique_lock<std::mutex>::unlock()>
 5344b67:	e8 24 a8 72 fe       	call   3a6f390 <std::unique_lock<std::mutex>::unlock()>
 53450b4:	e8 d7 a2 72 fe       	call   3a6f390 <std::unique_lock<std::mutex>::unlock()>
 53453d3:	e8 b8 9f 72 fe       	call   3a6f390 <std::unique_lock<std::mutex>::unlock()>
 5345699:	e8 22 d3 9d 02       	call   7d229c0 <pthread_mutex_unlock@plt>
 5345caf:	e8 dc 96 72 fe       	call   3a6f390 <std::unique_lock<std::mutex>::unlock()>
 5346010:	e8 7b 93 72 fe       	call   3a6f390 <std::unique_lock<std::mutex>::unlock()>
 5346023:	e8 68 93 72 fe       	call   3a6f390 <std::unique_lock<std::mutex>::unlock()>
 53461c7:	e8 c4 91 72 fe       	call   3a6f390 <std::unique_lock<std::mutex>::unlock()>
 5346820:	e8 6b 8b 72 fe       	call   3a6f390 <std::unique_lock<std::mutex>::unlock()>
 5346d6a:	e8 51 bc 9d 02       	call   7d229c0 <pthread_mutex_unlock@plt>
 5347138:	e8 53 82 72 fe       	call   3a6f390 <std::unique_lock<std::mutex>::unlock()>
 5347787:	e8 34 b2 9d 02       	call   7d229c0 <pthread_mutex_unlock@plt>
 5348b82:	e8 39 9e 9d 02       	call   7d229c0 <pthread_mutex_unlock@plt>
 5348f19:	e8 a2 9a 9d 02       	call   7d229c0 <pthread_mutex_unlock@plt>
 5348f42:	e8 49 64 72 fe       	call   3a6f390 <std::unique_lock<std::mutex>::unlock()>
 5348f4a:	e8 71 9a 9d 02       	call   7d229c0 <pthread_mutex_unlock@plt>
 53491c0:	e8 cb 61 72 fe       	call   3a6f390 <std::unique_lock<std::mutex>::unlock()>
 5349219:	e8 72 61 72 fe       	call   3a6f390 <std::unique_lock<std::mutex>::unlock()>
 53494c9:	e8 c2 5e 72 fe       	call   3a6f390 <std::unique_lock<std::mutex>::unlock()>
 534956a:	e8 21 5e 72 fe       	call   3a6f390 <std::unique_lock<std::mutex>::unlock()>
 53495a7:	e8 e4 5d 72 fe       	call   3a6f390 <std::unique_lock<std::mutex>::unlock()>
 534977d:	e8 0e 5c 72 fe       	call   3a6f390 <std::unique_lock<std::mutex>::unlock()>
 53497ec:	e8 9f 5b 72 fe       	call   3a6f390 <std::unique_lock<std::mutex>::unlock()>
 5349c52:	e8 69 8d 9d 02       	call   7d229c0 <pthread_mutex_unlock@plt>
 5349ccb:	e8 f0 8c 9d 02       	call   7d229c0 <pthread_mutex_unlock@plt>
 5349d02:	e8 b9 8c 9d 02       	call   7d229c0 <pthread_mutex_unlock@plt>
 5349d11:	e8 7a 56 72 fe       	call   3a6f390 <std::unique_lock<std::mutex>::unlock()>
 5349d8a:	e8 31 8c 9d 02       	call   7d229c0 <pthread_mutex_unlock@plt>
 534b04f:	e8 6c 79 9d 02       	call   7d229c0 <pthread_mutex_unlock@plt>
 534b2c6:	e8 f5 76 9d 02       	call   7d229c0 <pthread_mutex_unlock@plt>
 534b3da:	e8 e1 75 9d 02       	call   7d229c0 <pthread_mutex_unlock@plt>
 534b529:	e8 62 3e 72 fe       	call   3a6f390 <std::unique_lock<std::mutex>::unlock()>
 534b6a7:	e8 14 73 9d 02       	call   7d229c0 <pthread_mutex_unlock@plt>
 534cd6f:	e8 4c 5c 9d 02       	call   7d229c0 <pthread_mutex_unlock@plt>
 534ce5a:	e8 31 25 72 fe       	call   3a6f390 <std::unique_lock<std::mutex>::unlock()>
 535597a:	e8 41 d0 9c 02       	call   7d229c0 <pthread_mutex_unlock@plt>
 536577d:	e9 3e d2 9b 02       	jmp    7d229c0 <pthread_mutex_unlock@plt>
 5366073:	e8 48 c9 9b 02       	call   7d229c0 <pthread_mutex_unlock@plt>
 536616f:	e8 4c c8 9b 02       	call   7d229c0 <pthread_mutex_unlock@plt>
 536618c:	e8 2f c8 9b 02       	call   7d229c0 <pthread_mutex_unlock@plt>
 5366320:	e8 9b c6 9b 02       	call   7d229c0 <pthread_mutex_unlock@plt>
 53a16ca:	e8 f1 12 98 02       	call   7d229c0 <pthread_mutex_unlock@plt>
 53a17da:	e8 b1 db 6c fe       	call   3a6f390 <std::unique_lock<std::mutex>::unlock()>
 53a5f87:	e8 04 94 6c fe       	call   3a6f390 <std::unique_lock<std::mutex>::unlock()>
 53a5f97:	e8 f4 93 6c fe       	call   3a6f390 <std::unique_lock<std::mutex>::unlock()>
 53a621a:	e8 71 91 6c fe       	call   3a6f390 <std::unique_lock<std::mutex>::unlock()>
 53a6234:	e8 87 c7 97 02       	call   7d229c0 <pthread_mutex_unlock@plt>
 53a6285:	e8 06 91 6c fe       	call   3a6f390 <std::unique_lock<std::mutex>::unlock()>
 53b70da:	e9 e1 b8 96 02       	jmp    7d229c0 <pthread_mutex_unlock@plt>
 53b7ad6:	e8 e5 ae 96 02       	call   7d229c0 <pthread_mutex_unlock@plt>
 53dbc18:	e8 a3 6d 94 02       	call   7d229c0 <pthread_mutex_unlock@plt>
 53dbcdf:	e8 dc 6c 94 02       	call   7d229c0 <pthread_mutex_unlock@plt>
 53dbde0:	e8 db 6b 94 02       	call   7d229c0 <pthread_mutex_unlock@plt>
 53dbe32:	e8 89 6b 94 02       	call   7d229c0 <pthread_mutex_unlock@plt>
 53ecf9a:	e8 21 5a 93 02       	call   7d229c0 <pthread_mutex_unlock@plt>
 540f31f:	e8 9c 36 91 02       	call   7d229c0 <pthread_mutex_unlock@plt>
 54141c2:	e8 f9 e7 90 02       	call   7d229c0 <pthread_mutex_unlock@plt>
 5435d78:	e8 43 cc 8e 02       	call   7d229c0 <pthread_mutex_unlock@plt>
 543d854:	e8 67 51 8e 02       	call   7d229c0 <pthread_mutex_unlock@plt>
 5484cc4:	e8 c7 a6 5e fe       	call   3a6f390 <std::unique_lock<std::mutex>::unlock()>
 5484d81:	e8 3a dc 89 02       	call   7d229c0 <pthread_mutex_unlock@plt>
 5484dea:	e8 a1 a5 5e fe       	call   3a6f390 <std::unique_lock<std::mutex>::unlock()>
 5484e25:	e8 96 db 89 02       	call   7d229c0 <pthread_mutex_unlock@plt>
 548fc3a:	e8 81 2d 89 02       	call   7d229c0 <pthread_mutex_unlock@plt>
 549525a:	e8 61 d7 88 02       	call   7d229c0 <pthread_mutex_unlock@plt>
 54aee3a:	e8 81 3b 87 02       	call   7d229c0 <pthread_mutex_unlock@plt>
 54b00b8:	e8 03 29 87 02       	call   7d229c0 <pthread_mutex_unlock@plt>
 54b05a2:	e8 e9 ed 5b fe       	call   3a6f390 <std::unique_lock<std::mutex>::unlock()>
 54c0e21:	e9 9a 1b 86 02       	jmp    7d229c0 <pthread_mutex_unlock@plt>
 54c1320:	e8 9b 16 86 02       	call   7d229c0 <pthread_mutex_unlock@plt>
 54c13c1:	e8 fa 15 86 02       	call   7d229c0 <pthread_mutex_unlock@plt>
 54c14d7:	e8 e4 14 86 02       	call   7d229c0 <pthread_mutex_unlock@plt>
 54c1513:	e8 a8 14 86 02       	call   7d229c0 <pthread_mutex_unlock@plt>
 54d1dfc:	e8 bf 0b 85 02       	call   7d229c0 <pthread_mutex_unlock@plt>
 54d1f6c:	e8 1f d4 59 fe       	call   3a6f390 <std::unique_lock<std::mutex>::unlock()>
 54d2022:	e8 69 d3 59 fe       	call   3a6f390 <std::unique_lock<std::mutex>::unlock()>
 55bd02a:	e8 91 59 76 02       	call   7d229c0 <pthread_mutex_unlock@plt>
 55c8a60:	e8 5b 9f 75 02       	call   7d229c0 <pthread_mutex_unlock@plt>
 55c8e6b:	e8 50 9b 75 02       	call   7d229c0 <pthread_mutex_unlock@plt>
 55cff37:	e8 84 2a 75 02       	call   7d229c0 <pthread_mutex_unlock@plt>
 55d05bf:	e8 fc 23 75 02       	call   7d229c0 <pthread_mutex_unlock@plt>
 55d066b:	e8 50 23 75 02       	call   7d229c0 <pthread_mutex_unlock@plt>
 55d0a16:	e9 a5 1f 75 02       	jmp    7d229c0 <pthread_mutex_unlock@plt>
 55d1041:	e9 7a 19 75 02       	jmp    7d229c0 <pthread_mutex_unlock@plt>
 55d1402:	e9 b9 15 75 02       	jmp    7d229c0 <pthread_mutex_unlock@plt>
 55d198c:	e8 2f 10 75 02       	call   7d229c0 <pthread_mutex_unlock@plt>
 55d27d1:	e8 ea 01 75 02       	call   7d229c0 <pthread_mutex_unlock@plt>
 55d2c39:	e8 82 25 bb 01       	call   71851c0 <mongo::Lock::ResourceLock::_unlock()>
 55d2c80:	e8 3b fd 74 02       	call   7d229c0 <pthread_mutex_unlock@plt>
 55d2d6b:	e8 50 fc 74 02       	call   7d229c0 <pthread_mutex_unlock@plt>
 55d3083:	e8 38 f9 74 02       	call   7d229c0 <pthread_mutex_unlock@plt>
 55d318c:	e8 2f f8 74 02       	call   7d229c0 <pthread_mutex_unlock@plt>
 55d3316:	e8 a5 f6 74 02       	call   7d229c0 <pthread_mutex_unlock@plt>
 55d335e:	e8 5d f6 74 02       	call   7d229c0 <pthread_mutex_unlock@plt>
 55d3394:	e8 27 f6 74 02       	call   7d229c0 <pthread_mutex_unlock@plt>
 55d344e:	e8 6d f5 74 02       	call   7d229c0 <pthread_mutex_unlock@plt>
 55d411e:	e8 9d e8 74 02       	call   7d229c0 <pthread_mutex_unlock@plt>
 55d4158:	e8 63 10 bb 01       	call   71851c0 <mongo::Lock::ResourceLock::_unlock()>
 55d428d:	e8 2e e7 74 02       	call   7d229c0 <pthread_mutex_unlock@plt>
 55dcd8a:	e8 31 5c 74 02       	call   7d229c0 <pthread_mutex_unlock@plt>
 55dd2c5:	e8 f6 56 74 02       	call   7d229c0 <pthread_mutex_unlock@plt>
 55dd83d:	e9 7e 51 74 02       	jmp    7d229c0 <pthread_mutex_unlock@plt>
 55ddb23:	e8 98 4e 74 02       	call   7d229c0 <pthread_mutex_unlock@plt>
 55de46a:	e8 51 45 74 02       	call   7d229c0 <pthread_mutex_unlock@plt>
 55de645:	e8 76 43 74 02       	call   7d229c0 <pthread_mutex_unlock@plt>
 55ded99:	e8 22 3c 74 02       	call   7d229c0 <pthread_mutex_unlock@plt>
 55dfc64:	e8 57 2d 74 02       	call   7d229c0 <pthread_mutex_unlock@plt>
 55dfd03:	e8 b8 2c 74 02       	call   7d229c0 <pthread_mutex_unlock@plt>
 55dfdbf:	e8 fc 2b 74 02       	call   7d229c0 <pthread_mutex_unlock@plt>
 55dff0b:	e8 b0 2a 74 02       	call   7d229c0 <pthread_mutex_unlock@plt>
 55dff14:	e8 a7 2a 74 02       	call   7d229c0 <pthread_mutex_unlock@plt>
 55e0009:	e8 b2 29 74 02       	call   7d229c0 <pthread_mutex_unlock@plt>
 55e1a6a:	e8 51 0f 74 02       	call   7d229c0 <pthread_mutex_unlock@plt>
 55e29c0:	e9 fb ff 73 02       	jmp    7d229c0 <pthread_mutex_unlock@plt>
 55e5141:	e8 7a d8 73 02       	call   7d229c0 <pthread_mutex_unlock@plt>
 55e565d:	e8 5e d3 73 02       	call   7d229c0 <pthread_mutex_unlock@plt>
 55e5b1c:	e8 9f ce 73 02       	call   7d229c0 <pthread_mutex_unlock@plt>
 55e7266:	e8 55 b7 73 02       	call   7d229c0 <pthread_mutex_unlock@plt>
 55ea658:	e8 63 83 73 02       	call   7d229c0 <pthread_mutex_unlock@plt>
 55eaa53:	e8 68 7f 73 02       	call   7d229c0 <pthread_mutex_unlock@plt>
 55eb4ff:	e8 8c 3e 48 fe       	call   3a6f390 <std::unique_lock<std::mutex>::unlock()>
 55eb5e5:	e8 d6 73 73 02       	call   7d229c0 <pthread_mutex_unlock@plt>
 55eb833:	e8 88 71 73 02       	call   7d229c0 <pthread_mutex_unlock@plt>
 55ebe84:	e8 37 6b 73 02       	call   7d229c0 <pthread_mutex_unlock@plt>
 55ec0ad:	e8 0e 69 73 02       	call   7d229c0 <pthread_mutex_unlock@plt>
 55f4ed7:	e8 e4 da 72 02       	call   7d229c0 <pthread_mutex_unlock@plt>
 55f4f1d:	e8 9e da 72 02       	call   7d229c0 <pthread_mutex_unlock@plt>
 55f4f55:	e8 66 da 72 02       	call   7d229c0 <pthread_mutex_unlock@plt>
 55f79bc:	e8 ff af 72 02       	call   7d229c0 <pthread_mutex_unlock@plt>
 55f7a42:	e8 79 af 72 02       	call   7d229c0 <pthread_mutex_unlock@plt>
 55f7a8f:	e8 2c af 72 02       	call   7d229c0 <pthread_mutex_unlock@plt>
 55f7c3a:	e8 81 ad 72 02       	call   7d229c0 <pthread_mutex_unlock@plt>
 55f7eb9:	e9 02 ab 72 02       	jmp    7d229c0 <pthread_mutex_unlock@plt>
 55f7fca:	e9 f1 a9 72 02       	jmp    7d229c0 <pthread_mutex_unlock@plt>
 55f8208:	e9 b3 a7 72 02       	jmp    7d229c0 <pthread_mutex_unlock@plt>
 55f8425:	e8 96 a5 72 02       	call   7d229c0 <pthread_mutex_unlock@plt>
 55f897a:	e9 41 a0 72 02       	jmp    7d229c0 <pthread_mutex_unlock@plt>
 55f8b09:	e8 b2 9e 72 02       	call   7d229c0 <pthread_mutex_unlock@plt>
 55f8de5:	e8 d6 9b 72 02       	call   7d229c0 <pthread_mutex_unlock@plt>
 55f8ff7:	e8 c4 99 72 02       	call   7d229c0 <pthread_mutex_unlock@plt>
 55f91e9:	e8 d2 97 72 02       	call   7d229c0 <pthread_mutex_unlock@plt>
 55f9364:	e9 57 96 72 02       	jmp    7d229c0 <pthread_mutex_unlock@plt>
 55f96df:	e8 dc 92 72 02       	call   7d229c0 <pthread_mutex_unlock@plt>
 55f9994:	e8 27 90 72 02       	call   7d229c0 <pthread_mutex_unlock@plt>
 55f9ab7:	e8 04 8f 72 02       	call   7d229c0 <pthread_mutex_unlock@plt>
 55f9ae2:	e8 d9 8e 72 02       	call   7d229c0 <pthread_mutex_unlock@plt>
 55f9af5:	e8 c6 8e 72 02       	call   7d229c0 <pthread_mutex_unlock@plt>
 55f9b08:	e8 b3 8e 72 02       	call   7d229c0 <pthread_mutex_unlock@plt>
 55f9b3f:	e8 7c 8e 72 02       	call   7d229c0 <pthread_mutex_unlock@plt>
 55f9bbf:	e8 fc 8d 72 02       	call   7d229c0 <pthread_mutex_unlock@plt>
 55f9bd2:	e8 e9 8d 72 02       	call   7d229c0 <pthread_mutex_unlock@plt>
 55f9c15:	e8 a6 8d 72 02       	call   7d229c0 <pthread_mutex_unlock@plt>
 55f9c40:	e8 7b 8d 72 02       	call   7d229c0 <pthread_mutex_unlock@plt>
 55f9c53:	e8 68 8d 72 02       	call   7d229c0 <pthread_mutex_unlock@plt>
 55f9c66:	e8 55 8d 72 02       	call   7d229c0 <pthread_mutex_unlock@plt>
 55f9d0a:	e8 b1 8c 72 02       	call   7d229c0 <pthread_mutex_unlock@plt>
 55f9d1d:	e8 9e 8c 72 02       	call   7d229c0 <pthread_mutex_unlock@plt>
 5609c6a:	e8 51 8d 71 02       	call   7d229c0 <pthread_mutex_unlock@plt>
 560b4ee:	e9 cd 74 71 02       	jmp    7d229c0 <pthread_mutex_unlock@plt>
 560b508:	e9 b3 74 71 02       	jmp    7d229c0 <pthread_mutex_unlock@plt>
 560c6a2:	e8 19 63 71 02       	call   7d229c0 <pthread_mutex_unlock@plt>
 560e10a:	e8 b1 48 71 02       	call   7d229c0 <pthread_mutex_unlock@plt>
 5610b56:	e8 65 1e 71 02       	call   7d229c0 <pthread_mutex_unlock@plt>
 5610cca:	e8 f1 1c 71 02       	call   7d229c0 <pthread_mutex_unlock@plt>
 5610d75:	e8 46 1c 71 02       	call   7d229c0 <pthread_mutex_unlock@plt>
 5615d9a:	e8 21 cc 70 02       	call   7d229c0 <pthread_mutex_unlock@plt>
 56163f0:	e8 cb c5 70 02       	call   7d229c0 <pthread_mutex_unlock@plt>
 561641a:	e8 a1 c5 70 02       	call   7d229c0 <pthread_mutex_unlock@plt>
 561786b:	e8 50 b1 70 02       	call   7d229c0 <pthread_mutex_unlock@plt>
 5617af2:	e8 c9 ae 70 02       	call   7d229c0 <pthread_mutex_unlock@plt>
 5617c55:	e8 66 ad 70 02       	call   7d229c0 <pthread_mutex_unlock@plt>
 561810b:	e8 b0 a8 70 02       	call   7d229c0 <pthread_mutex_unlock@plt>
 5618148:	e8 73 a8 70 02       	call   7d229c0 <pthread_mutex_unlock@plt>
 5618416:	e8 a5 a5 70 02       	call   7d229c0 <pthread_mutex_unlock@plt>
 5618634:	e8 57 6d 45 fe       	call   3a6f390 <std::unique_lock<std::mutex>::unlock()>
 561a00a:	e9 b1 89 70 02       	jmp    7d229c0 <pthread_mutex_unlock@plt>
 561a507:	e8 b4 84 70 02       	call   7d229c0 <pthread_mutex_unlock@plt>
 561a50f:	e8 ac 84 70 02       	call   7d229c0 <pthread_mutex_unlock@plt>
 561a5d4:	e9 e7 83 70 02       	jmp    7d229c0 <pthread_mutex_unlock@plt>
 561af1e:	e8 9d 7a 70 02       	call   7d229c0 <pthread_mutex_unlock@plt>
 561af2a:	e8 91 7a 70 02       	call   7d229c0 <pthread_mutex_unlock@plt>
 561b261:	e8 2a 41 45 fe       	call   3a6f390 <std::unique_lock<std::mutex>::unlock()>
 561b8bf:	e8 fc 70 70 02       	call   7d229c0 <pthread_mutex_unlock@plt>
 561ba63:	e8 58 6f 70 02       	call   7d229c0 <pthread_mutex_unlock@plt>
 561f5fa:	e8 c1 33 70 02       	call   7d229c0 <pthread_mutex_unlock@plt>
 562292f:	e8 8c 00 70 02       	call   7d229c0 <pthread_mutex_unlock@plt>
 5622f19:	e8 72 c4 44 fe       	call   3a6f390 <std::unique_lock<std::mutex>::unlock()>
 562757a:	e8 41 b4 6f 02       	call   7d229c0 <pthread_mutex_unlock@plt>
 56278fd:	e9 be b0 6f 02       	jmp    7d229c0 <pthread_mutex_unlock@plt>
 5627982:	e8 39 b0 6f 02       	call   7d229c0 <pthread_mutex_unlock@plt>
 56279e3:	e8 d8 af 6f 02       	call   7d229c0 <pthread_mutex_unlock@plt>
 5627ad0:	e8 eb ae 6f 02       	call   7d229c0 <pthread_mutex_unlock@plt>
 5627ae3:	e8 d8 ae 6f 02       	call   7d229c0 <pthread_mutex_unlock@plt>
 5627b09:	e8 b2 ae 6f 02       	call   7d229c0 <pthread_mutex_unlock@plt>
 5627d4b:	e8 70 ac 6f 02       	call   7d229c0 <pthread_mutex_unlock@plt>
 5627d53:	e8 68 ac 6f 02       	call   7d229c0 <pthread_mutex_unlock@plt>
 5627ed3:	e8 e8 aa 6f 02       	call   7d229c0 <pthread_mutex_unlock@plt>
 5628110:	e8 ab a8 6f 02       	call   7d229c0 <pthread_mutex_unlock@plt>
 56282cc:	e8 ef a6 6f 02       	call   7d229c0 <pthread_mutex_unlock@plt>
 56282d4:	e8 e7 a6 6f 02       	call   7d229c0 <pthread_mutex_unlock@plt>
 562845b:	e8 60 a5 6f 02       	call   7d229c0 <pthread_mutex_unlock@plt>
 5628841:	e8 7a a1 6f 02       	call   7d229c0 <pthread_mutex_unlock@plt>
 5628934:	e8 87 a0 6f 02       	call   7d229c0 <pthread_mutex_unlock@plt>
 562898f:	e8 2c a0 6f 02       	call   7d229c0 <pthread_mutex_unlock@plt>
 5628a39:	e8 82 9f 6f 02       	call   7d229c0 <pthread_mutex_unlock@plt>
 5628b6a:	e8 51 9e 6f 02       	call   7d229c0 <pthread_mutex_unlock@plt>
 5628bc8:	e8 f3 9d 6f 02       	call   7d229c0 <pthread_mutex_unlock@plt>
 5628d3c:	e8 7f 9c 6f 02       	call   7d229c0 <pthread_mutex_unlock@plt>
 5628ece:	e8 ed 9a 6f 02       	call   7d229c0 <pthread_mutex_unlock@plt>
 562910f:	e8 ac 98 6f 02       	call   7d229c0 <pthread_mutex_unlock@plt>
 5629139:	e8 82 98 6f 02       	call   7d229c0 <pthread_mutex_unlock@plt>
 5629213:	e8 a8 97 6f 02       	call   7d229c0 <pthread_mutex_unlock@plt>
 56292c2:	e8 f9 96 6f 02       	call   7d229c0 <pthread_mutex_unlock@plt>
 56293e3:	e8 d8 95 6f 02       	call   7d229c0 <pthread_mutex_unlock@plt>
 562948c:	e8 2f 95 6f 02       	call   7d229c0 <pthread_mutex_unlock@plt>
 5629850:	e8 6b 91 6f 02       	call   7d229c0 <pthread_mutex_unlock@plt>
 5629bfa:	e8 c1 8d 6f 02       	call   7d229c0 <pthread_mutex_unlock@plt>
 5629def:	e8 9c 55 44 fe       	call   3a6f390 <std::unique_lock<std::mutex>::unlock()>
 5629ec2:	e8 c9 54 44 fe       	call   3a6f390 <std::unique_lock<std::mutex>::unlock()>
 5629f38:	e8 53 54 44 fe       	call   3a6f390 <std::unique_lock<std::mutex>::unlock()>
 5629fc9:	e8 c2 53 44 fe       	call   3a6f390 <std::unique_lock<std::mutex>::unlock()>
 562a08e:	e8 fd 52 44 fe       	call   3a6f390 <std::unique_lock<std::mutex>::unlock()>
 562a141:	e8 7a 88 6f 02       	call   7d229c0 <pthread_mutex_unlock@plt>
 562a211:	e8 aa 87 6f 02       	call   7d229c0 <pthread_mutex_unlock@plt>
 562a34b:	e8 70 86 6f 02       	call   7d229c0 <pthread_mutex_unlock@plt>
 562b31a:	e8 a1 76 6f 02       	call   7d229c0 <pthread_mutex_unlock@plt>
 562b64b:	e8 70 73 6f 02       	call   7d229c0 <pthread_mutex_unlock@plt>
 562b7f9:	e8 c2 71 6f 02       	call   7d229c0 <pthread_mutex_unlock@plt>
 562b801:	e8 ba 71 6f 02       	call   7d229c0 <pthread_mutex_unlock@plt>
 562ba43:	e8 78 6f 6f 02       	call   7d229c0 <pthread_mutex_unlock@plt>
 562c100:	e8 bb 68 6f 02       	call   7d229c0 <pthread_mutex_unlock@plt>
 562c62b:	e8 90 63 6f 02       	call   7d229c0 <pthread_mutex_unlock@plt>
 562ca53:	e8 68 5f 6f 02       	call   7d229c0 <pthread_mutex_unlock@plt>
 562cc9b:	e8 20 5d 6f 02       	call   7d229c0 <pthread_mutex_unlock@plt>
 562ce56:	e8 65 5b 6f 02       	call   7d229c0 <pthread_mutex_unlock@plt>
 562ce93:	e8 28 5b 6f 02       	call   7d229c0 <pthread_mutex_unlock@plt>
 562ceb4:	e8 07 5b 6f 02       	call   7d229c0 <pthread_mutex_unlock@plt>
 562d02e:	e8 5d 23 44 fe       	call   3a6f390 <std::unique_lock<std::mutex>::unlock()>
 562d142:	e8 49 22 44 fe       	call   3a6f390 <std::unique_lock<std::mutex>::unlock()>
 562d2d2:	e8 b9 20 44 fe       	call   3a6f390 <std::unique_lock<std::mutex>::unlock()>
 562d5b0:	e8 0b 54 6f 02       	call   7d229c0 <pthread_mutex_unlock@plt>
 562d61d:	e8 9e 53 6f 02       	call   7d229c0 <pthread_mutex_unlock@plt>
 562d79e:	e8 ed 1b 44 fe       	call   3a6f390 <std::unique_lock<std::mutex>::unlock()>
 562e40a:	e8 b1 45 6f 02       	call   7d229c0 <pthread_mutex_unlock@plt>
 562eaa3:	e8 18 3f 6f 02       	call   7d229c0 <pthread_mutex_unlock@plt>
 562f36e:	e8 4d 36 6f 02       	call   7d229c0 <pthread_mutex_unlock@plt>
 562f39c:	e8 ef ff 43 fe       	call   3a6f390 <std::unique_lock<std::mutex>::unlock()>
 5630083:	e8 08 f3 43 fe       	call   3a6f390 <std::unique_lock<std::mutex>::unlock()>
 56300f6:	e8 c5 28 6f 02       	call   7d229c0 <pthread_mutex_unlock@plt>
 5630211:	e8 7a f1 43 fe       	call   3a6f390 <std::unique_lock<std::mutex>::unlock()>
 563027a:	e8 41 27 6f 02       	call   7d229c0 <pthread_mutex_unlock@plt>
 56326c4:	e8 f7 02 6f 02       	call   7d229c0 <pthread_mutex_unlock@plt>
 5632f55:	e8 36 c4 43 fe       	call   3a6f390 <std::unique_lock<std::mutex>::unlock()>
 5634011:	e8 aa e9 6e 02       	call   7d229c0 <pthread_mutex_unlock@plt>
 56353b4:	e8 d7 9f 43 fe       	call   3a6f390 <std::unique_lock<std::mutex>::unlock()>
 563671b:	e8 a0 c2 6e 02       	call   7d229c0 <pthread_mutex_unlock@plt>
 5636a7c:	e8 3f bf 6e 02       	call   7d229c0 <pthread_mutex_unlock@plt>
 563935c:	e8 2f 60 43 fe       	call   3a6f390 <std::unique_lock<std::mutex>::unlock()>
 5639821:	e8 9a 91 6e 02       	call   7d229c0 <pthread_mutex_unlock@plt>
 5639f4e:	e8 3d 54 43 fe       	call   3a6f390 <std::unique_lock<std::mutex>::unlock()>
 563a527:	e8 64 4e 43 fe       	call   3a6f390 <std::unique_lock<std::mutex>::unlock()>
 563b8fb:	e8 c0 70 6e 02       	call   7d229c0 <pthread_mutex_unlock@plt>
 563b997:	e8 24 70 6e 02       	call   7d229c0 <pthread_mutex_unlock@plt>
 563ba51:	e8 6a 6f 6e 02       	call   7d229c0 <pthread_mutex_unlock@plt>
 563bb5c:	e8 2f 38 43 fe       	call   3a6f390 <std::unique_lock<std::mutex>::unlock()>
 563bb74:	e8 17 38 43 fe       	call   3a6f390 <std::unique_lock<std::mutex>::unlock()>
 5648e98:	e8 d3 a3 6d 02       	call   7d23270 <pthread_rwlock_unlock@plt>
 5649223:	e8 48 a0 6d 02       	call   7d23270 <pthread_rwlock_unlock@plt>
 57445a1:	e8 1a e4 5d 02       	call   7d229c0 <pthread_mutex_unlock@plt>
 5744652:	e9 69 e3 5d 02       	jmp    7d229c0 <pthread_mutex_unlock@plt>
 57446a0:	e9 1b e3 5d 02       	jmp    7d229c0 <pthread_mutex_unlock@plt>
 5744765:	e8 56 e2 5d 02       	call   7d229c0 <pthread_mutex_unlock@plt>
 57448bb:	e8 00 e1 5d 02       	call   7d229c0 <pthread_mutex_unlock@plt>
 5745713:	e8 a8 d2 5d 02       	call   7d229c0 <pthread_mutex_unlock@plt>
 57457de:	e8 dd d1 5d 02       	call   7d229c0 <pthread_mutex_unlock@plt>
 5745d1f:	e8 9c cc 5d 02       	call   7d229c0 <pthread_mutex_unlock@plt>
 5746c2b:	e8 90 bd 5d 02       	call   7d229c0 <pthread_mutex_unlock@plt>
 5747da8:	e8 13 ac 5d 02       	call   7d229c0 <pthread_mutex_unlock@plt>
 5747ea0:	e8 1b ab 5d 02       	call   7d229c0 <pthread_mutex_unlock@plt>
 5748e25:	e9 96 9b 5d 02       	jmp    7d229c0 <pthread_mutex_unlock@plt>
 57493a4:	e8 17 96 5d 02       	call   7d229c0 <pthread_mutex_unlock@plt>
 5749d14:	e8 a7 8c 5d 02       	call   7d229c0 <pthread_mutex_unlock@plt>
 574a13f:	e9 7c 88 5d 02       	jmp    7d229c0 <pthread_mutex_unlock@plt>
 574afe8:	e8 d3 79 5d 02       	call   7d229c0 <pthread_mutex_unlock@plt>
 574b01d:	e8 9e 79 5d 02       	call   7d229c0 <pthread_mutex_unlock@plt>
 574b0c3:	e8 f8 78 5d 02       	call   7d229c0 <pthread_mutex_unlock@plt>
 574b664:	e8 57 73 5d 02       	call   7d229c0 <pthread_mutex_unlock@plt>
 574b723:	e8 98 72 5d 02       	call   7d229c0 <pthread_mutex_unlock@plt>
 574b9ac:	e8 0f 70 5d 02       	call   7d229c0 <pthread_mutex_unlock@plt>
 574babe:	e8 fd 6e 5d 02       	call   7d229c0 <pthread_mutex_unlock@plt>
 574bd4a:	e8 71 6c 5d 02       	call   7d229c0 <pthread_mutex_unlock@plt>
 574bd7b:	e8 40 6c 5d 02       	call   7d229c0 <pthread_mutex_unlock@plt>
 576091a:	e8 a1 20 5c 02       	call   7d229c0 <pthread_mutex_unlock@plt>
 5762420:	e8 9b 05 5c 02       	call   7d229c0 <pthread_mutex_unlock@plt>
 5762836:	e8 85 01 5c 02       	call   7d229c0 <pthread_mutex_unlock@plt>
 5762c3b:	e9 80 fd 5b 02       	jmp    7d229c0 <pthread_mutex_unlock@plt>
 5762d02:	e8 b9 fc 5b 02       	call   7d229c0 <pthread_mutex_unlock@plt>
 5762d13:	e8 a8 fc 5b 02       	call   7d229c0 <pthread_mutex_unlock@plt>
 5762d3a:	e8 81 fc 5b 02       	call   7d229c0 <pthread_mutex_unlock@plt>
 5762dba:	e8 01 fc 5b 02       	call   7d229c0 <pthread_mutex_unlock@plt>
 5762dcb:	e8 f0 fb 5b 02       	call   7d229c0 <pthread_mutex_unlock@plt>
 5762df0:	e8 cb fb 5b 02       	call   7d229c0 <pthread_mutex_unlock@plt>
 5763038:	e8 53 c3 30 fe       	call   3a6f390 <std::unique_lock<std::mutex>::unlock()>
 57630b0:	e8 db c2 30 fe       	call   3a6f390 <std::unique_lock<std::mutex>::unlock()>
 57632f8:	e8 c3 f6 5b 02       	call   7d229c0 <pthread_mutex_unlock@plt>
 5785ee0:	e8 db ca 59 02       	call   7d229c0 <pthread_mutex_unlock@plt>
 57867bc:	e9 ff c1 59 02       	jmp    7d229c0 <pthread_mutex_unlock@plt>
 57868db:	e8 e0 c0 59 02       	call   7d229c0 <pthread_mutex_unlock@plt>
 578693d:	e8 7e c0 59 02       	call   7d229c0 <pthread_mutex_unlock@plt>
 579c5ba:	e8 01 64 58 02       	call   7d229c0 <pthread_mutex_unlock@plt>
 57b6f31:	e9 8a ba 56 02       	jmp    7d229c0 <pthread_mutex_unlock@plt>
 57b785e:	e8 5d b1 56 02       	call   7d229c0 <pthread_mutex_unlock@plt>
 57b78cf:	e9 ec b0 56 02       	jmp    7d229c0 <pthread_mutex_unlock@plt>
 57b8624:	e8 97 a3 56 02       	call   7d229c0 <pthread_mutex_unlock@plt>
 57b898d:	e8 2e a0 56 02       	call   7d229c0 <pthread_mutex_unlock@plt>
 57b9960:	e8 5b 90 56 02       	call   7d229c0 <pthread_mutex_unlock@plt>
 57ba0ea:	e8 d1 88 56 02       	call   7d229c0 <pthread_mutex_unlock@plt>
 57ba852:	e8 69 81 56 02       	call   7d229c0 <pthread_mutex_unlock@plt>
 57ba914:	e8 a7 80 56 02       	call   7d229c0 <pthread_mutex_unlock@plt>
 57ba974:	e8 47 80 56 02       	call   7d229c0 <pthread_mutex_unlock@plt>
 57bad40:	e8 7b 7c 56 02       	call   7d229c0 <pthread_mutex_unlock@plt>
 57bae31:	e8 8a 7b 56 02       	call   7d229c0 <pthread_mutex_unlock@plt>
 57baef1:	e8 ca 7a 56 02       	call   7d229c0 <pthread_mutex_unlock@plt>
 57bdd33:	e8 88 4c 56 02       	call   7d229c0 <pthread_mutex_unlock@plt>
 57bdea4:	e8 17 4b 56 02       	call   7d229c0 <pthread_mutex_unlock@plt>
 57c0baa:	e8 11 1e 56 02       	call   7d229c0 <pthread_mutex_unlock@plt>
 57c13d7:	e8 e4 15 56 02       	call   7d229c0 <pthread_mutex_unlock@plt>
 57c1ce0:	e8 8b 63 55 ff       	call   4d18070 <std::unique_lock<mongo::Client>::unlock()>
 57c1f80:	e8 eb 60 55 ff       	call   4d18070 <std::unique_lock<mongo::Client>::unlock()>
 57c226d:	e8 4e 07 56 02       	call   7d229c0 <pthread_mutex_unlock@plt>
 57c25ea:	e9 d1 03 56 02       	jmp    7d229c0 <pthread_mutex_unlock@plt>
 57c26f0:	e8 cb 02 56 02       	call   7d229c0 <pthread_mutex_unlock@plt>
 57c2dd4:	e9 e7 fb 55 02       	jmp    7d229c0 <pthread_mutex_unlock@plt>
 57c324e:	e9 6d f7 55 02       	jmp    7d229c0 <pthread_mutex_unlock@plt>
 57c34f0:	e8 cb f4 55 02       	call   7d229c0 <pthread_mutex_unlock@plt>
 57c3548:	e8 73 f4 55 02       	call   7d229c0 <pthread_mutex_unlock@plt>
 57c3720:	e8 9b f2 55 02       	call   7d229c0 <pthread_mutex_unlock@plt>
 57c39b4:	e9 07 f0 55 02       	jmp    7d229c0 <pthread_mutex_unlock@plt>
 57c504f:	e8 3c a3 2a fe       	call   3a6f390 <std::unique_lock<std::mutex>::unlock()>
 57c524f:	e8 1c 2e 55 ff       	call   4d18070 <std::unique_lock<mongo::Client>::unlock()>
 57c5389:	e8 02 a0 2a fe       	call   3a6f390 <std::unique_lock<std::mutex>::unlock()>
 57c60b7:	e9 04 c9 55 02       	jmp    7d229c0 <pthread_mutex_unlock@plt>
 57c610c:	e8 5f 1f 55 ff       	call   4d18070 <std::unique_lock<mongo::Client>::unlock()>
 57c68ac:	e8 bf 17 55 ff       	call   4d18070 <std::unique_lock<mongo::Client>::unlock()>
 57c690b:	e8 b0 c0 55 02       	call   7d229c0 <pthread_mutex_unlock@plt>
 57c6fb3:	e8 08 ba 55 02       	call   7d229c0 <pthread_mutex_unlock@plt>
 57c713c:	e8 2f 0f 55 ff       	call   4d18070 <std::unique_lock<mongo::Client>::unlock()>
 57c714d:	e8 1e 0f 55 ff       	call   4d18070 <std::unique_lock<mongo::Client>::unlock()>
 57c79f7:	e8 c4 af 55 02       	call   7d229c0 <pthread_mutex_unlock@plt>
 57c7a48:	e8 23 06 55 ff       	call   4d18070 <std::unique_lock<mongo::Client>::unlock()>
 57c7ad6:	e8 95 05 55 ff       	call   4d18070 <std::unique_lock<mongo::Client>::unlock()>
 57c7ade:	e8 dd ae 55 02       	call   7d229c0 <pthread_mutex_unlock@plt>
 57c7b18:	e8 53 05 55 ff       	call   4d18070 <std::unique_lock<mongo::Client>::unlock()>
 57c7b24:	e8 97 ae 55 02       	call   7d229c0 <pthread_mutex_unlock@plt>
 57c7b5e:	e8 0d 05 55 ff       	call   4d18070 <std::unique_lock<mongo::Client>::unlock()>
 57c7cd7:	e8 b4 76 2a fe       	call   3a6f390 <std::unique_lock<std::mutex>::unlock()>
 57c7d7b:	e8 f0 02 55 ff       	call   4d18070 <std::unique_lock<mongo::Client>::unlock()>
 57c7ed0:	e8 bb 74 2a fe       	call   3a6f390 <std::unique_lock<std::mutex>::unlock()>
 57c81ca:	e8 a1 fe 54 ff       	call   4d18070 <std::unique_lock<mongo::Client>::unlock()>
 57c81d2:	e8 e9 a7 55 02       	call   7d229c0 <pthread_mutex_unlock@plt>
 57c821c:	e8 4f fe 54 ff       	call   4d18070 <std::unique_lock<mongo::Client>::unlock()>
 57c8236:	e8 35 fe 54 ff       	call   4d18070 <std::unique_lock<mongo::Client>::unlock()>
 57c824a:	e8 71 a7 55 02       	call   7d229c0 <pthread_mutex_unlock@plt>
 57d999a:	e8 21 90 54 02       	call   7d229c0 <pthread_mutex_unlock@plt>
 57d9dd9:	e8 e2 8b 54 02       	call   7d229c0 <pthread_mutex_unlock@plt>
 57d9e63:	e8 58 8b 54 02       	call   7d229c0 <pthread_mutex_unlock@plt>
 57deb86:	e8 05 08 29 fe       	call   3a6f390 <std::unique_lock<std::mutex>::unlock()>
 57decf3:	e8 98 06 29 fe       	call   3a6f390 <std::unique_lock<std::mutex>::unlock()>
 57e0ee3:	e8 a8 e4 28 fe       	call   3a6f390 <std::unique_lock<std::mutex>::unlock()>
 57e0f2b:	e8 60 e4 28 fe       	call   3a6f390 <std::unique_lock<std::mutex>::unlock()>
 57e8d9b:	e8 f0 65 28 fe       	call   3a6f390 <std::unique_lock<std::mutex>::unlock()>
 57e8e70:	e8 1b 65 28 fe       	call   3a6f390 <std::unique_lock<std::mutex>::unlock()>
 57e95a7:	e8 e4 5d 28 fe       	call   3a6f390 <std::unique_lock<std::mutex>::unlock()>
 57e99f9:	e8 92 59 28 fe       	call   3a6f390 <std::unique_lock<std::mutex>::unlock()>
 57e9a7a:	e8 41 8f 53 02       	call   7d229c0 <pthread_mutex_unlock@plt>
 57e9b25:	e8 96 8e 53 02       	call   7d229c0 <pthread_mutex_unlock@plt>
 57ed3e8:	e8 d3 55 53 02       	call   7d229c0 <pthread_mutex_unlock@plt>
 57ed4c7:	e8 f4 54 53 02       	call   7d229c0 <pthread_mutex_unlock@plt>
 57ed57a:	e8 41 54 53 02       	call   7d229c0 <pthread_mutex_unlock@plt>
 57ed671:	e8 4a 53 53 02       	call   7d229c0 <pthread_mutex_unlock@plt>
 57ed743:	e8 78 52 53 02       	call   7d229c0 <pthread_mutex_unlock@plt>
 57ed7d6:	e9 e5 51 53 02       	jmp    7d229c0 <pthread_mutex_unlock@plt>
 57ed88e:	e8 fd 1a 28 fe       	call   3a6f390 <std::unique_lock<std::mutex>::unlock()>
 57eda10:	e9 ab 4f 53 02       	jmp    7d229c0 <pthread_mutex_unlock@plt>
 57eda36:	e8 85 4f 53 02       	call   7d229c0 <pthread_mutex_unlock@plt>
 580176a:	e8 51 12 52 02       	call   7d229c0 <pthread_mutex_unlock@plt>
 58021f6:	e8 c5 07 52 02       	call   7d229c0 <pthread_mutex_unlock@plt>
 58022a5:	e9 16 07 52 02       	jmp    7d229c0 <pthread_mutex_unlock@plt>
 580232d:	e8 8e 06 52 02       	call   7d229c0 <pthread_mutex_unlock@plt>
 5802381:	e8 3a 06 52 02       	call   7d229c0 <pthread_mutex_unlock@plt>
 580245e:	e8 5d 05 52 02       	call   7d229c0 <pthread_mutex_unlock@plt>
 58024d8:	e8 e3 04 52 02       	call   7d229c0 <pthread_mutex_unlock@plt>
 58025a1:	e8 1a 04 52 02       	call   7d229c0 <pthread_mutex_unlock@plt>
 5802a32:	e8 89 ff 51 02       	call   7d229c0 <pthread_mutex_unlock@plt>
 5802e80:	e8 3b fb 51 02       	call   7d229c0 <pthread_mutex_unlock@plt>
 5803171:	e8 4a f8 51 02       	call   7d229c0 <pthread_mutex_unlock@plt>
 58033e1:	e8 da f5 51 02       	call   7d229c0 <pthread_mutex_unlock@plt>
 580405a:	e8 61 e9 51 02       	call   7d229c0 <pthread_mutex_unlock@plt>
 5804b59:	e8 62 de 51 02       	call   7d229c0 <pthread_mutex_unlock@plt>
 580608a:	e8 31 c9 51 02       	call   7d229c0 <pthread_mutex_unlock@plt>
 5806128:	e8 93 c8 51 02       	call   7d229c0 <pthread_mutex_unlock@plt>
 580618e:	e8 fd 91 26 fe       	call   3a6f390 <std::unique_lock<std::mutex>::unlock()>
 5806238:	e8 83 c7 51 02       	call   7d229c0 <pthread_mutex_unlock@plt>
 58062bc:	e8 ff c6 51 02       	call   7d229c0 <pthread_mutex_unlock@plt>
 5807f3a:	e8 81 aa 51 02       	call   7d229c0 <pthread_mutex_unlock@plt>
 5808b28:	e8 93 9e 51 02       	call   7d229c0 <pthread_mutex_unlock@plt>
 5809507:	e8 b4 94 51 02       	call   7d229c0 <pthread_mutex_unlock@plt>
 580954a:	e8 71 94 51 02       	call   7d229c0 <pthread_mutex_unlock@plt>
 5809586:	e8 35 94 51 02       	call   7d229c0 <pthread_mutex_unlock@plt>
 58095c2:	e8 f9 93 51 02       	call   7d229c0 <pthread_mutex_unlock@plt>
 58095fe:	e8 bd 93 51 02       	call   7d229c0 <pthread_mutex_unlock@plt>
 580963a:	e8 81 93 51 02       	call   7d229c0 <pthread_mutex_unlock@plt>
 5809676:	e8 45 93 51 02       	call   7d229c0 <pthread_mutex_unlock@plt>
 58096ae:	e8 0d 93 51 02       	call   7d229c0 <pthread_mutex_unlock@plt>
 58096de:	e8 dd 92 51 02       	call   7d229c0 <pthread_mutex_unlock@plt>
 5809758:	e8 63 92 51 02       	call   7d229c0 <pthread_mutex_unlock@plt>
 580977d:	e8 3e 92 51 02       	call   7d229c0 <pthread_mutex_unlock@plt>
 58097aa:	e8 11 92 51 02       	call   7d229c0 <pthread_mutex_unlock@plt>
 5809eb8:	e8 03 8b 51 02       	call   7d229c0 <pthread_mutex_unlock@plt>
 5809f31:	e9 8a 8a 51 02       	jmp    7d229c0 <pthread_mutex_unlock@plt>
 5809f6b:	e8 50 8a 51 02       	call   7d229c0 <pthread_mutex_unlock@plt>
 5809f9f:	e8 ec 53 26 fe       	call   3a6f390 <std::unique_lock<std::mutex>::unlock()>
 580a0bb:	e8 00 89 51 02       	call   7d229c0 <pthread_mutex_unlock@plt>
 580a27a:	e8 11 51 26 fe       	call   3a6f390 <std::unique_lock<std::mutex>::unlock()>
 580a2d8:	e8 b3 50 26 fe       	call   3a6f390 <std::unique_lock<std::mutex>::unlock()>
 580a33f:	e8 4c 50 26 fe       	call   3a6f390 <std::unique_lock<std::mutex>::unlock()>
 580a3ef:	e8 9c 4f 26 fe       	call   3a6f390 <std::unique_lock<std::mutex>::unlock()>
 580a4e8:	e8 d3 84 51 02       	call   7d229c0 <pthread_mutex_unlock@plt>
 580a561:	e9 5a 84 51 02       	jmp    7d229c0 <pthread_mutex_unlock@plt>
 580a59b:	e8 20 84 51 02       	call   7d229c0 <pthread_mutex_unlock@plt>
 580a5cf:	e8 bc 4d 26 fe       	call   3a6f390 <std::unique_lock<std::mutex>::unlock()>
 580a708:	e8 b3 82 51 02       	call   7d229c0 <pthread_mutex_unlock@plt>
 580a781:	e9 3a 82 51 02       	jmp    7d229c0 <pthread_mutex_unlock@plt>
 580a7bb:	e8 00 82 51 02       	call   7d229c0 <pthread_mutex_unlock@plt>
 580a7ef:	e8 9c 4b 26 fe       	call   3a6f390 <std::unique_lock<std::mutex>::unlock()>
 580a90e:	e8 ad 80 51 02       	call   7d229c0 <pthread_mutex_unlock@plt>
 580aacb:	e8 f0 7e 51 02       	call   7d229c0 <pthread_mutex_unlock@plt>
 580ab0c:	e8 7f 48 26 fe       	call   3a6f390 <std::unique_lock<std::mutex>::unlock()>
 580ab77:	e8 14 48 26 fe       	call   3a6f390 <std::unique_lock<std::mutex>::unlock()>
 580ac1b:	e8 70 47 26 fe       	call   3a6f390 <std::unique_lock<std::mutex>::unlock()>
 580b5c2:	e8 f9 73 51 02       	call   7d229c0 <pthread_mutex_unlock@plt>
 580b87b:	e8 40 71 51 02       	call   7d229c0 <pthread_mutex_unlock@plt>
 580c482:	e8 39 65 51 02       	call   7d229c0 <pthread_mutex_unlock@plt>
 580c743:	e8 48 2c 26 fe       	call   3a6f390 <std::unique_lock<std::mutex>::unlock()>
 580c7af:	e8 0c 62 51 02       	call   7d229c0 <pthread_mutex_unlock@plt>
 580cbc3:	e8 f8 5d 51 02       	call   7d229c0 <pthread_mutex_unlock@plt>
 580cc00:	e8 bb 5d 51 02       	call   7d229c0 <pthread_mutex_unlock@plt>
 580cdc2:	e8 f9 5b 51 02       	call   7d229c0 <pthread_mutex_unlock@plt>
 580d083:	e8 08 23 26 fe       	call   3a6f390 <std::unique_lock<std::mutex>::unlock()>
 580d0ef:	e8 cc 58 51 02       	call   7d229c0 <pthread_mutex_unlock@plt>
 580d503:	e8 b8 54 51 02       	call   7d229c0 <pthread_mutex_unlock@plt>
 580d540:	e8 7b 54 51 02       	call   7d229c0 <pthread_mutex_unlock@plt>
 580d714:	e8 a7 52 51 02       	call   7d229c0 <pthread_mutex_unlock@plt>
 580d8f6:	e8 95 1a 26 fe       	call   3a6f390 <std::unique_lock<std::mutex>::unlock()>
 580d957:	e8 64 50 51 02       	call   7d229c0 <pthread_mutex_unlock@plt>
 580dde6:	e8 d5 4b 51 02       	call   7d229c0 <pthread_mutex_unlock@plt>
 580dea2:	e8 19 4b 51 02       	call   7d229c0 <pthread_mutex_unlock@plt>
 580dfe0:	e8 db 49 51 02       	call   7d229c0 <pthread_mutex_unlock@plt>
 580e18b:	e8 00 12 26 fe       	call   3a6f390 <std::unique_lock<std::mutex>::unlock()>
 580e1ef:	e8 cc 47 51 02       	call   7d229c0 <pthread_mutex_unlock@plt>
 580e666:	e8 55 43 51 02       	call   7d229c0 <pthread_mutex_unlock@plt>
 580e726:	e8 95 42 51 02       	call   7d229c0 <pthread_mutex_unlock@plt>
 580e854:	e8 67 41 51 02       	call   7d229c0 <pthread_mutex_unlock@plt>
 580ea18:	e8 73 09 26 fe       	call   3a6f390 <std::unique_lock<std::mutex>::unlock()>
 580ea7f:	e8 3c 3f 51 02       	call   7d229c0 <pthread_mutex_unlock@plt>
 580eef6:	e8 c5 3a 51 02       	call   7d229c0 <pthread_mutex_unlock@plt>
 580efb6:	e8 05 3a 51 02       	call   7d229c0 <pthread_mutex_unlock@plt>
 58128a6:	e8 15 01 51 02       	call   7d229c0 <pthread_mutex_unlock@plt>
 5813127:	e8 94 f8 50 02       	call   7d229c0 <pthread_mutex_unlock@plt>
 5822d97:	e8 24 fc 4f 02       	call   7d229c0 <pthread_mutex_unlock@plt>
 5822ea2:	e8 19 fb 4f 02       	call   7d229c0 <pthread_mutex_unlock@plt>
 5823c38:	e8 83 ed 4f 02       	call   7d229c0 <pthread_mutex_unlock@plt>
 58245cf:	e8 ec e3 4f 02       	call   7d229c0 <pthread_mutex_unlock@plt>
 5824945:	e8 76 e0 4f 02       	call   7d229c0 <pthread_mutex_unlock@plt>
 5824a59:	e8 62 df 4f 02       	call   7d229c0 <pthread_mutex_unlock@plt>
 5824b43:	e8 78 de 4f 02       	call   7d229c0 <pthread_mutex_unlock@plt>
 58252f7:	e8 c4 d6 4f 02       	call   7d229c0 <pthread_mutex_unlock@plt>
 5825cca:	e8 f1 cc 4f 02       	call   7d229c0 <pthread_mutex_unlock@plt>
 582609b:	e8 20 c9 4f 02       	call   7d229c0 <pthread_mutex_unlock@plt>
 582632b:	e8 90 c6 4f 02       	call   7d229c0 <pthread_mutex_unlock@plt>
 5826778:	e8 43 c2 4f 02       	call   7d229c0 <pthread_mutex_unlock@plt>
 5827021:	e8 9a b9 4f 02       	call   7d229c0 <pthread_mutex_unlock@plt>
 582707a:	e8 41 b9 4f 02       	call   7d229c0 <pthread_mutex_unlock@plt>
 58273b7:	e8 04 b6 4f 02       	call   7d229c0 <pthread_mutex_unlock@plt>
 58284ec:	e8 cf a4 4f 02       	call   7d229c0 <pthread_mutex_unlock@plt>
 5828731:	e8 8a a2 4f 02       	call   7d229c0 <pthread_mutex_unlock@plt>
 5828968:	e8 53 a0 4f 02       	call   7d229c0 <pthread_mutex_unlock@plt>
 5828d46:	e8 75 9c 4f 02       	call   7d229c0 <pthread_mutex_unlock@plt>
 5828e5e:	e8 5d 9b 4f 02       	call   7d229c0 <pthread_mutex_unlock@plt>
 5828e7a:	e8 41 9b 4f 02       	call   7d229c0 <pthread_mutex_unlock@plt>
 58290fe:	e8 bd 98 4f 02       	call   7d229c0 <pthread_mutex_unlock@plt>
 5829166:	e8 55 98 4f 02       	call   7d229c0 <pthread_mutex_unlock@plt>
 5829245:	e8 76 97 4f 02       	call   7d229c0 <pthread_mutex_unlock@plt>
 5829357:	e8 64 96 4f 02       	call   7d229c0 <pthread_mutex_unlock@plt>
 582961f:	e8 9c 93 4f 02       	call   7d229c0 <pthread_mutex_unlock@plt>
 5829640:	e8 7b 93 4f 02       	call   7d229c0 <pthread_mutex_unlock@plt>
 5829746:	e8 75 92 4f 02       	call   7d229c0 <pthread_mutex_unlock@plt>
 58297c0:	e8 fb 91 4f 02       	call   7d229c0 <pthread_mutex_unlock@plt>
 5829863:	e8 58 91 4f 02       	call   7d229c0 <pthread_mutex_unlock@plt>
 58298fe:	e8 bd 90 4f 02       	call   7d229c0 <pthread_mutex_unlock@plt>
 5829be9:	e8 d2 8d 4f 02       	call   7d229c0 <pthread_mutex_unlock@plt>
 5829f37:	e8 84 8a 4f 02       	call   7d229c0 <pthread_mutex_unlock@plt>
 5829f4b:	e8 70 8a 4f 02       	call   7d229c0 <pthread_mutex_unlock@plt>
 585727a:	e8 41 b7 4c 02       	call   7d229c0 <pthread_mutex_unlock@plt>
 5857881:	e9 3a b1 4c 02       	jmp    7d229c0 <pthread_mutex_unlock@plt>
 58579a4:	e9 17 b0 4c 02       	jmp    7d229c0 <pthread_mutex_unlock@plt>
 5857ae5:	e9 d6 ae 4c 02       	jmp    7d229c0 <pthread_mutex_unlock@plt>
 5857cd4:	e8 e7 ac 4c 02       	call   7d229c0 <pthread_mutex_unlock@plt>
 5857cdc:	e8 df ac 4c 02       	call   7d229c0 <pthread_mutex_unlock@plt>
 5857da0:	e8 1b ac 4c 02       	call   7d229c0 <pthread_mutex_unlock@plt>
 58589a1:	e8 ea 69 21 fe       	call   3a6f390 <std::unique_lock<std::mutex>::unlock()>
 5858cfa:	e8 91 66 21 fe       	call   3a6f390 <std::unique_lock<std::mutex>::unlock()>
 585980b:	e8 70 b4 92 01       	call   7184c80 <mongo::Lock::GlobalLock::_unlock()>
 58598cc:	e8 ef b8 92 01       	call   71851c0 <mongo::Lock::ResourceLock::_unlock()>
 58598e5:	e8 d6 b8 92 01       	call   71851c0 <mongo::Lock::ResourceLock::_unlock()>
 5859ed4:	e8 e7 8a 4c 02       	call   7d229c0 <pthread_mutex_unlock@plt>
 5859edc:	e8 df 8a 4c 02       	call   7d229c0 <pthread_mutex_unlock@plt>
 5859fb5:	e8 06 8a 4c 02       	call   7d229c0 <pthread_mutex_unlock@plt>
 585a21e:	e8 6d 51 21 fe       	call   3a6f390 <std::unique_lock<std::mutex>::unlock()>
 585c896:	e8 f5 2a 21 fe       	call   3a6f390 <std::unique_lock<std::mutex>::unlock()>
 585cb55:	e8 36 28 21 fe       	call   3a6f390 <std::unique_lock<std::mutex>::unlock()>
 585d09a:	e8 f1 22 21 fe       	call   3a6f390 <std::unique_lock<std::mutex>::unlock()>
 585d14a:	e8 41 22 21 fe       	call   3a6f390 <std::unique_lock<std::mutex>::unlock()>
 585d58c:	e8 ff 1d 21 fe       	call   3a6f390 <std::unique_lock<std::mutex>::unlock()>
 585db14:	e8 77 18 21 fe       	call   3a6f390 <std::unique_lock<std::mutex>::unlock()>
 585dcb2:	e8 d9 16 21 fe       	call   3a6f390 <std::unique_lock<std::mutex>::unlock()>
 5971290:	e8 2b 17 3b 02       	call   7d229c0 <pthread_mutex_unlock@plt>
 5976974:	e8 47 c0 3a 02       	call   7d229c0 <pthread_mutex_unlock@plt>
 59de47a:	e8 41 45 34 02       	call   7d229c0 <pthread_mutex_unlock@plt>
 59de9b3:	e8 08 40 34 02       	call   7d229c0 <pthread_mutex_unlock@plt>
 59ded40:	e8 7b 3c 34 02       	call   7d229c0 <pthread_mutex_unlock@plt>
 59dfd41:	e8 7a 2c 34 02       	call   7d229c0 <pthread_mutex_unlock@plt>
 59dff70:	e8 4b 2a 34 02       	call   7d229c0 <pthread_mutex_unlock@plt>
 59e07d8:	e8 e3 21 34 02       	call   7d229c0 <pthread_mutex_unlock@plt>
 59e0998:	e8 23 20 34 02       	call   7d229c0 <pthread_mutex_unlock@plt>
 59e09ce:	e8 ed 1f 34 02       	call   7d229c0 <pthread_mutex_unlock@plt>
 59e0a2c:	e8 8f 1f 34 02       	call   7d229c0 <pthread_mutex_unlock@plt>
 59e0a57:	e8 64 1f 34 02       	call   7d229c0 <pthread_mutex_unlock@plt>
 59e0a7e:	e8 0d e9 08 fe       	call   3a6f390 <std::unique_lock<std::mutex>::unlock()>
 5a5ed19:	e9 a2 3c 2c 02       	jmp    7d229c0 <pthread_mutex_unlock@plt>
 5a5eef1:	e8 ca 3a 2c 02       	call   7d229c0 <pthread_mutex_unlock@plt>
 5a5f112:	e9 a9 38 2c 02       	jmp    7d229c0 <pthread_mutex_unlock@plt>
 5a5f6b7:	e8 04 33 2c 02       	call   7d229c0 <pthread_mutex_unlock@plt>
 5a5fa6f:	e8 4c 2f 2c 02       	call   7d229c0 <pthread_mutex_unlock@plt>
 5a5fc1e:	e8 9d 2d 2c 02       	call   7d229c0 <pthread_mutex_unlock@plt>
 5a5fc3a:	e8 81 2d 2c 02       	call   7d229c0 <pthread_mutex_unlock@plt>
 5a5fcea:	e8 d1 2c 2c 02       	call   7d229c0 <pthread_mutex_unlock@plt>
 5a5fe66:	e8 55 2b 2c 02       	call   7d229c0 <pthread_mutex_unlock@plt>
 5a80ed1:	e8 ea 1a 2a 02       	call   7d229c0 <pthread_mutex_unlock@plt>
 5a81bb9:	e8 02 0e 2a 02       	call   7d229c0 <pthread_mutex_unlock@plt>
 5a81da2:	e8 19 0c 2a 02       	call   7d229c0 <pthread_mutex_unlock@plt>
 5a82059:	e8 62 09 2a 02       	call   7d229c0 <pthread_mutex_unlock@plt>
 5a8289a:	e8 f1 ca fe fd       	call   3a6f390 <std::unique_lock<std::mutex>::unlock()>
 5a828b4:	e8 d7 ca fe fd       	call   3a6f390 <std::unique_lock<std::mutex>::unlock()>
 5a828d4:	e8 e7 00 2a 02       	call   7d229c0 <pthread_mutex_unlock@plt>
 5a829d5:	e8 b6 c9 fe fd       	call   3a6f390 <std::unique_lock<std::mutex>::unlock()>
 5a82f14:	e8 a7 fa 29 02       	call   7d229c0 <pthread_mutex_unlock@plt>
 5a8356b:	e8 20 be fe fd       	call   3a6f390 <std::unique_lock<std::mutex>::unlock()>
 5a99b2d:	e8 8e 8e 28 02       	call   7d229c0 <pthread_mutex_unlock@plt>
 5b4b356:	e9 65 76 1d 02       	jmp    7d229c0 <pthread_mutex_unlock@plt>
 5b4dd2f:	e8 8c 4c 1d 02       	call   7d229c0 <pthread_mutex_unlock@plt>
 5b4de11:	e8 aa 4b 1d 02       	call   7d229c0 <pthread_mutex_unlock@plt>
 5b4deb1:	e8 da 14 f2 fd       	call   3a6f390 <std::unique_lock<std::mutex>::unlock()>
 5b4e7a2:	e8 19 42 1d 02       	call   7d229c0 <pthread_mutex_unlock@plt>
 5b4f662:	e8 29 fd f1 fd       	call   3a6f390 <std::unique_lock<std::mutex>::unlock()>
 5b4f82c:	e8 5f fb f1 fd       	call   3a6f390 <std::unique_lock<std::mutex>::unlock()>
 5b4fcab:	e8 10 2d 1d 02       	call   7d229c0 <pthread_mutex_unlock@plt>
 5b4fda5:	e8 16 2c 1d 02       	call   7d229c0 <pthread_mutex_unlock@plt>
 5b4fe36:	e8 55 f5 f1 fd       	call   3a6f390 <std::unique_lock<std::mutex>::unlock()>
 5c0b950:	e8 6b 70 11 02       	call   7d229c0 <pthread_mutex_unlock@plt>
 5c0e098:	e8 23 49 11 02       	call   7d229c0 <pthread_mutex_unlock@plt>
 5ca8b9a:	e8 21 9e 07 02       	call   7d229c0 <pthread_mutex_unlock@plt>
 5cad10a:	e8 b1 58 07 02       	call   7d229c0 <pthread_mutex_unlock@plt>
 5cb519b:	e8 e0 fa 4c 01       	call   7184c80 <mongo::Lock::GlobalLock::_unlock()>
 5cb5225:	e8 96 ff 4c 01       	call   71851c0 <mongo::Lock::ResourceLock::_unlock()>
 5cb5234:	e8 87 ff 4c 01       	call   71851c0 <mongo::Lock::ResourceLock::_unlock()>
 5cc8ab6:	e8 05 9f 05 02       	call   7d229c0 <pthread_mutex_unlock@plt>
 5cc8bea:	e8 d1 9d 05 02       	call   7d229c0 <pthread_mutex_unlock@plt>
 5cc9372:	e8 49 96 05 02       	call   7d229c0 <pthread_mutex_unlock@plt>
 5cc93ec:	e8 cf 95 05 02       	call   7d229c0 <pthread_mutex_unlock@plt>
 5cce1ce:	e9 ed 47 05 02       	jmp    7d229c0 <pthread_mutex_unlock@plt>
 5cce26c:	e9 4f 47 05 02       	jmp    7d229c0 <pthread_mutex_unlock@plt>
 5cce4d0:	e9 eb 44 05 02       	jmp    7d229c0 <pthread_mutex_unlock@plt>
 5ccf9c2:	e9 f9 2f 05 02       	jmp    7d229c0 <pthread_mutex_unlock@plt>
 5ccfbee:	e9 cd 2d 05 02       	jmp    7d229c0 <pthread_mutex_unlock@plt>
 5ccfce6:	e8 d5 2c 05 02       	call   7d229c0 <pthread_mutex_unlock@plt>
 5cd017b:	e8 40 28 05 02       	call   7d229c0 <pthread_mutex_unlock@plt>
 5cd0386:	e8 35 26 05 02       	call   7d229c0 <pthread_mutex_unlock@plt>
 5cd039a:	e8 21 26 05 02       	call   7d229c0 <pthread_mutex_unlock@plt>
 5cd03c6:	e8 f5 25 05 02       	call   7d229c0 <pthread_mutex_unlock@plt>
 5cd0702:	e8 b9 22 05 02       	call   7d229c0 <pthread_mutex_unlock@plt>
 5cd0716:	e8 a5 22 05 02       	call   7d229c0 <pthread_mutex_unlock@plt>
 5cd0888:	e8 33 21 05 02       	call   7d229c0 <pthread_mutex_unlock@plt>
 5cd08a7:	e8 14 21 05 02       	call   7d229c0 <pthread_mutex_unlock@plt>
 5e4644a:	e8 71 c5 ed 01       	call   7d229c0 <pthread_mutex_unlock@plt>
 5e46843:	e8 78 c1 ed 01       	call   7d229c0 <pthread_mutex_unlock@plt>
 5e471c1:	e8 fa b7 ed 01       	call   7d229c0 <pthread_mutex_unlock@plt>
 5e472af:	e8 dc 80 c2 fd       	call   3a6f390 <std::unique_lock<std::mutex>::unlock()>
 5e4785f:	e8 2c 7b c2 fd       	call   3a6f390 <std::unique_lock<std::mutex>::unlock()>
 5e478d7:	e8 e4 b0 ed 01       	call   7d229c0 <pthread_mutex_unlock@plt>
 5e47aa4:	e8 e7 78 c2 fd       	call   3a6f390 <std::unique_lock<std::mutex>::unlock()>
 5e47b28:	e8 93 ae ed 01       	call   7d229c0 <pthread_mutex_unlock@plt>
 5e47bb1:	e8 0a ae ed 01       	call   7d229c0 <pthread_mutex_unlock@plt>
 5e48440:	e8 7b a5 ed 01       	call   7d229c0 <pthread_mutex_unlock@plt>
 5e485a2:	e8 19 a4 ed 01       	call   7d229c0 <pthread_mutex_unlock@plt>
 5e4864e:	e8 3d 6d c2 fd       	call   3a6f390 <std::unique_lock<std::mutex>::unlock()>
 5e486aa:	e8 11 a3 ed 01       	call   7d229c0 <pthread_mutex_unlock@plt>
 5e49aa1:	e8 1a 8f ed 01       	call   7d229c0 <pthread_mutex_unlock@plt>
 5e4a964:	e8 57 80 ed 01       	call   7d229c0 <pthread_mutex_unlock@plt>
 5e4aa40:	e8 7b 7f ed 01       	call   7d229c0 <pthread_mutex_unlock@plt>
 5e4d847:	e8 44 1b c2 fd       	call   3a6f390 <std::unique_lock<std::mutex>::unlock()>
 5e4dbd5:	e8 e6 4d ed 01       	call   7d229c0 <pthread_mutex_unlock@plt>
 5e4dcd4:	e8 b7 16 c2 fd       	call   3a6f390 <std::unique_lock<std::mutex>::unlock()>
 5e4dd4d:	e8 6e 4c ed 01       	call   7d229c0 <pthread_mutex_unlock@plt>
 5e4e57c:	e8 0f 0e c2 fd       	call   3a6f390 <std::unique_lock<std::mutex>::unlock()>
 5e4eb57:	e8 34 08 c2 fd       	call   3a6f390 <std::unique_lock<std::mutex>::unlock()>
 5e4fd16:	e8 75 f6 c1 fd       	call   3a6f390 <std::unique_lock<std::mutex>::unlock()>
 5e4fe54:	e8 37 f5 c1 fd       	call   3a6f390 <std::unique_lock<std::mutex>::unlock()>
 5e4fed3:	e8 b8 f4 c1 fd       	call   3a6f390 <std::unique_lock<std::mutex>::unlock()>
 5e5045a:	e8 61 25 ed 01       	call   7d229c0 <pthread_mutex_unlock@plt>
 5f921aa:	e8 11 08 d9 01       	call   7d229c0 <pthread_mutex_unlock@plt>
 607a539:	e8 82 84 ca 01       	call   7d229c0 <pthread_mutex_unlock@plt>
 607a6c5:	e8 f6 82 ca 01       	call   7d229c0 <pthread_mutex_unlock@plt>
 607a7e2:	e8 d9 81 ca 01       	call   7d229c0 <pthread_mutex_unlock@plt>
 607a8b2:	e8 09 81 ca 01       	call   7d229c0 <pthread_mutex_unlock@plt>
 607a934:	e8 87 80 ca 01       	call   7d229c0 <pthread_mutex_unlock@plt>
 607a98b:	e8 30 80 ca 01       	call   7d229c0 <pthread_mutex_unlock@plt>
 607aa43:	e8 78 7f ca 01       	call   7d229c0 <pthread_mutex_unlock@plt>
 607aa4b:	e8 70 7f ca 01       	call   7d229c0 <pthread_mutex_unlock@plt>
 607aab3:	e8 08 7f ca 01       	call   7d229c0 <pthread_mutex_unlock@plt>
 607acd3:	e8 e8 7c ca 01       	call   7d229c0 <pthread_mutex_unlock@plt>
 6088f6c:	e8 1f 64 9e fd       	call   3a6f390 <std::unique_lock<std::mutex>::unlock()>
 6088f89:	e8 02 64 9e fd       	call   3a6f390 <std::unique_lock<std::mutex>::unlock()>
 6088f9a:	e8 f1 63 9e fd       	call   3a6f390 <std::unique_lock<std::mutex>::unlock()>
 60d4709:	e8 b2 e2 c4 01       	call   7d229c0 <pthread_mutex_unlock@plt>
 60d86b5:	e8 06 a3 c4 01       	call   7d229c0 <pthread_mutex_unlock@plt>
 60e4b6a:	e8 51 de c3 01       	call   7d229c0 <pthread_mutex_unlock@plt>
 60e5fad:	e8 0e ca c3 01       	call   7d229c0 <pthread_mutex_unlock@plt>
 60e6eda:	e8 e1 ba c3 01       	call   7d229c0 <pthread_mutex_unlock@plt>
 60e8253:	e8 68 cf 09 01       	call   71851c0 <mongo::Lock::ResourceLock::_unlock()>
 60e86a9:	e8 12 cb 09 01       	call   71851c0 <mongo::Lock::ResourceLock::_unlock()>
 60e97f5:	e8 c6 b9 09 01       	call   71851c0 <mongo::Lock::ResourceLock::_unlock()>
 60fc505:	e9 b6 64 c2 01       	jmp    7d229c0 <pthread_mutex_unlock@plt>
 60fc61b:	e8 a0 63 c2 01       	call   7d229c0 <pthread_mutex_unlock@plt>
 60fc996:	e8 25 60 c2 01       	call   7d229c0 <pthread_mutex_unlock@plt>
 60fca34:	e8 87 5f c2 01       	call   7d229c0 <pthread_mutex_unlock@plt>
 60fdf05:	e8 b6 4a c2 01       	call   7d229c0 <pthread_mutex_unlock@plt>
 60fe059:	e8 62 49 c2 01       	call   7d229c0 <pthread_mutex_unlock@plt>
 60fe22d:	e8 8e 47 c2 01       	call   7d229c0 <pthread_mutex_unlock@plt>
 6102404:	e9 b7 05 c2 01       	jmp    7d229c0 <pthread_mutex_unlock@plt>
 6103594:	e8 27 f4 c1 01       	call   7d229c0 <pthread_mutex_unlock@plt>
 610365e:	e8 5d f3 c1 01       	call   7d229c0 <pthread_mutex_unlock@plt>
 61069d8:	e8 e3 bf c1 01       	call   7d229c0 <pthread_mutex_unlock@plt>
 6106cae:	e8 0d bd c1 01       	call   7d229c0 <pthread_mutex_unlock@plt>
 610e317:	e9 a4 46 c1 01       	jmp    7d229c0 <pthread_mutex_unlock@plt>
 610e46d:	e8 4e 45 c1 01       	call   7d229c0 <pthread_mutex_unlock@plt>
 610e890:	e8 2b 41 c1 01       	call   7d229c0 <pthread_mutex_unlock@plt>
 610e976:	e8 45 40 c1 01       	call   7d229c0 <pthread_mutex_unlock@plt>
 612aa48:	e8 73 a7 05 01       	call   71851c0 <mongo::Lock::ResourceLock::_unlock()>
 612ac65:	e8 56 7d bf 01       	call   7d229c0 <pthread_mutex_unlock@plt>
 612b276:	e8 45 77 bf 01       	call   7d229c0 <pthread_mutex_unlock@plt>
 612b31d:	e8 9e 76 bf 01       	call   7d229c0 <pthread_mutex_unlock@plt>
 612ba0a:	e8 b1 6f bf 01       	call   7d229c0 <pthread_mutex_unlock@plt>
 612c33d:	e8 7e 66 bf 01       	call   7d229c0 <pthread_mutex_unlock@plt>
 612c479:	e8 42 8d 05 01       	call   71851c0 <mongo::Lock::ResourceLock::_unlock()>
 612c481:	e8 3a 8d 05 01       	call   71851c0 <mongo::Lock::ResourceLock::_unlock()>
 612ca1a:	e8 a1 5f bf 01       	call   7d229c0 <pthread_mutex_unlock@plt>
 612ca32:	e8 89 5f bf 01       	call   7d229c0 <pthread_mutex_unlock@plt>
 612cc91:	e8 2a 5d bf 01       	call   7d229c0 <pthread_mutex_unlock@plt>
 612eecc:	e8 ef 62 05 01       	call   71851c0 <mongo::Lock::ResourceLock::_unlock()>
 612f556:	e8 65 34 bf 01       	call   7d229c0 <pthread_mutex_unlock@plt>
 6130a5a:	e8 61 1f bf 01       	call   7d229c0 <pthread_mutex_unlock@plt>
 6130f26:	e8 95 42 05 01       	call   71851c0 <mongo::Lock::ResourceLock::_unlock()>
 6130f2e:	e8 8d 42 05 01       	call   71851c0 <mongo::Lock::ResourceLock::_unlock()>
 61310b6:	e8 05 41 05 01       	call   71851c0 <mongo::Lock::ResourceLock::_unlock()>
 61310bf:	e8 fc 40 05 01       	call   71851c0 <mongo::Lock::ResourceLock::_unlock()>
 61310c7:	e8 f4 40 05 01       	call   71851c0 <mongo::Lock::ResourceLock::_unlock()>
 613158e:	e8 2d 3c 05 01       	call   71851c0 <mongo::Lock::ResourceLock::_unlock()>
 6131c66:	e8 55 0d bf 01       	call   7d229c0 <pthread_mutex_unlock@plt>
 6131d6d:	e8 4e 0c bf 01       	call   7d229c0 <pthread_mutex_unlock@plt>
 613268b:	e8 30 2b 05 01       	call   71851c0 <mongo::Lock::ResourceLock::_unlock()>
 613478a:	e8 31 e2 be 01       	call   7d229c0 <pthread_mutex_unlock@plt>
 613e208:	e9 b3 47 be 01       	jmp    7d229c0 <pthread_mutex_unlock@plt>
 613e2db:	e8 e0 46 be 01       	call   7d229c0 <pthread_mutex_unlock@plt>
 613e847:	e9 74 41 be 01       	jmp    7d229c0 <pthread_mutex_unlock@plt>
 614680c:	e8 af c1 bd 01       	call   7d229c0 <pthread_mutex_unlock@plt>
 6146863:	e8 58 c1 bd 01       	call   7d229c0 <pthread_mutex_unlock@plt>
 61468cd:	e8 ee c0 bd 01       	call   7d229c0 <pthread_mutex_unlock@plt>
 614690d:	e8 ae c0 bd 01       	call   7d229c0 <pthread_mutex_unlock@plt>
 6148266:	e8 55 a7 bd 01       	call   7d229c0 <pthread_mutex_unlock@plt>
 6148312:	e8 a9 a6 bd 01       	call   7d229c0 <pthread_mutex_unlock@plt>
 6148f9d:	e8 1e 9a bd 01       	call   7d229c0 <pthread_mutex_unlock@plt>
 6149863:	e8 58 91 bd 01       	call   7d229c0 <pthread_mutex_unlock@plt>
 614bd8c:	e8 2f 6c bd 01       	call   7d229c0 <pthread_mutex_unlock@plt>
 614bda0:	e8 1b 6c bd 01       	call   7d229c0 <pthread_mutex_unlock@plt>
 615283a:	e8 81 01 bd 01       	call   7d229c0 <pthread_mutex_unlock@plt>
 615665e:	e8 5d c3 bc 01       	call   7d229c0 <pthread_mutex_unlock@plt>
 6156906:	e8 b5 c0 bc 01       	call   7d229c0 <pthread_mutex_unlock@plt>
 615692f:	e9 8c c0 bc 01       	jmp    7d229c0 <pthread_mutex_unlock@plt>
 6156be3:	e8 d8 bd bc 01       	call   7d229c0 <pthread_mutex_unlock@plt>
 615754b:	e9 70 b4 bc 01       	jmp    7d229c0 <pthread_mutex_unlock@plt>
 61578c4:	e8 f7 b0 bc 01       	call   7d229c0 <pthread_mutex_unlock@plt>
 6157c3d:	e8 7e ad bc 01       	call   7d229c0 <pthread_mutex_unlock@plt>
 6159d7d:	e8 3e 8c bc 01       	call   7d229c0 <pthread_mutex_unlock@plt>
 615a01a:	e8 a1 89 bc 01       	call   7d229c0 <pthread_mutex_unlock@plt>
 615a274:	e8 17 51 91 fd       	call   3a6f390 <std::unique_lock<std::mutex>::unlock()>
 615a497:	e8 f4 4e 91 fd       	call   3a6f390 <std::unique_lock<std::mutex>::unlock()>
 615a722:	e9 99 82 bc 01       	jmp    7d229c0 <pthread_mutex_unlock@plt>
 615a734:	e8 57 4c 91 fd       	call   3a6f390 <std::unique_lock<std::mutex>::unlock()>
 615ac82:	e8 39 7d bc 01       	call   7d229c0 <pthread_mutex_unlock@plt>
 615b0af:	e8 0c 79 bc 01       	call   7d229c0 <pthread_mutex_unlock@plt>
 615b0f4:	e8 97 42 91 fd       	call   3a6f390 <std::unique_lock<std::mutex>::unlock()>
 615b120:	e8 6b 42 91 fd       	call   3a6f390 <std::unique_lock<std::mutex>::unlock()>
 615b452:	e9 69 75 bc 01       	jmp    7d229c0 <pthread_mutex_unlock@plt>
 615b463:	e8 28 3f 91 fd       	call   3a6f390 <std::unique_lock<std::mutex>::unlock()>
 615c5d9:	e8 e2 63 bc 01       	call   7d229c0 <pthread_mutex_unlock@plt>
 615d63b:	e8 80 53 bc 01       	call   7d229c0 <pthread_mutex_unlock@plt>
 6160e51:	e8 6a 1b bc 01       	call   7d229c0 <pthread_mutex_unlock@plt>
 6160e59:	e8 62 1b bc 01       	call   7d229c0 <pthread_mutex_unlock@plt>
 6160e7a:	e8 41 1b bc 01       	call   7d229c0 <pthread_mutex_unlock@plt>
 6161001:	e8 ba 19 bc 01       	call   7d229c0 <pthread_mutex_unlock@plt>
 6161022:	e8 99 19 bc 01       	call   7d229c0 <pthread_mutex_unlock@plt>
 616104c:	e8 6f 19 bc 01       	call   7d229c0 <pthread_mutex_unlock@plt>
 616135d:	e8 5e 16 bc 01       	call   7d229c0 <pthread_mutex_unlock@plt>
 6161380:	e8 3b 16 bc 01       	call   7d229c0 <pthread_mutex_unlock@plt>
 61613d8:	e8 e3 15 bc 01       	call   7d229c0 <pthread_mutex_unlock@plt>
 6161404:	e8 b7 15 bc 01       	call   7d229c0 <pthread_mutex_unlock@plt>
 616142c:	e8 8f 15 bc 01       	call   7d229c0 <pthread_mutex_unlock@plt>
 616146d:	e8 4e 15 bc 01       	call   7d229c0 <pthread_mutex_unlock@plt>
 61670cc:	e8 bf 82 90 fd       	call   3a6f390 <std::unique_lock<std::mutex>::unlock()>
 616715c:	e8 2f 82 90 fd       	call   3a6f390 <std::unique_lock<std::mutex>::unlock()>
 61671ec:	e8 9f 81 90 fd       	call   3a6f390 <std::unique_lock<std::mutex>::unlock()>
 6169bf3:	e8 c8 8d bb 01       	call   7d229c0 <pthread_mutex_unlock@plt>
 616a09f:	e8 1c 89 bb 01       	call   7d229c0 <pthread_mutex_unlock@plt>
 616ade9:	e8 d2 7b bb 01       	call   7d229c0 <pthread_mutex_unlock@plt>
 616af4f:	e8 6c 7a bb 01       	call   7d229c0 <pthread_mutex_unlock@plt>
 616bc20:	e8 9b 6d bb 01       	call   7d229c0 <pthread_mutex_unlock@plt>
 616c140:	e8 7b 68 bb 01       	call   7d229c0 <pthread_mutex_unlock@plt>
 616df48:	e8 73 4a bb 01       	call   7d229c0 <pthread_mutex_unlock@plt>
 616e031:	e8 8a 49 bb 01       	call   7d229c0 <pthread_mutex_unlock@plt>
 616ef37:	e8 84 3a bb 01       	call   7d229c0 <pthread_mutex_unlock@plt>
 616f023:	e8 98 39 bb 01       	call   7d229c0 <pthread_mutex_unlock@plt>
 616f121:	e8 9a 38 bb 01       	call   7d229c0 <pthread_mutex_unlock@plt>
 616f25c:	e8 5f 37 bb 01       	call   7d229c0 <pthread_mutex_unlock@plt>
 616f826:	e8 95 31 bb 01       	call   7d229c0 <pthread_mutex_unlock@plt>
 616f99c:	e8 1f 30 bb 01       	call   7d229c0 <pthread_mutex_unlock@plt>
 616fb17:	e8 a4 2e bb 01       	call   7d229c0 <pthread_mutex_unlock@plt>
 616fc0e:	e8 ad 2d bb 01       	call   7d229c0 <pthread_mutex_unlock@plt>
 616fc97:	e8 24 2d bb 01       	call   7d229c0 <pthread_mutex_unlock@plt>
 616fd7b:	e8 40 2c bb 01       	call   7d229c0 <pthread_mutex_unlock@plt>
 616fe69:	e8 52 2b bb 01       	call   7d229c0 <pthread_mutex_unlock@plt>
 616ff53:	e8 68 2a bb 01       	call   7d229c0 <pthread_mutex_unlock@plt>
 6170aee:	e8 cd 1e bb 01       	call   7d229c0 <pthread_mutex_unlock@plt>
 6170c64:	e8 57 1d bb 01       	call   7d229c0 <pthread_mutex_unlock@plt>
 617119e:	e8 1d 18 bb 01       	call   7d229c0 <pthread_mutex_unlock@plt>
 6171314:	e8 a7 16 bb 01       	call   7d229c0 <pthread_mutex_unlock@plt>
 617184e:	e8 6d 11 bb 01       	call   7d229c0 <pthread_mutex_unlock@plt>
 61719c4:	e8 f7 0f bb 01       	call   7d229c0 <pthread_mutex_unlock@plt>
 6171cef:	e9 cc 0c bb 01       	jmp    7d229c0 <pthread_mutex_unlock@plt>
 6171e23:	e8 68 d5 8f fd       	call   3a6f390 <std::unique_lock<std::mutex>::unlock()>
 6171e77:	e8 44 0b bb 01       	call   7d229c0 <pthread_mutex_unlock@plt>
 617264c:	e9 6f 03 bb 01       	jmp    7d229c0 <pthread_mutex_unlock@plt>
 6172667:	e8 24 cd 8f fd       	call   3a6f390 <std::unique_lock<std::mutex>::unlock()>
 6172693:	e8 28 03 bb 01       	call   7d229c0 <pthread_mutex_unlock@plt>
 6172fb4:	e8 d7 c3 8f fd       	call   3a6f390 <std::unique_lock<std::mutex>::unlock()>
 617335c:	e9 5f f6 ba 01       	jmp    7d229c0 <pthread_mutex_unlock@plt>
 6173377:	e8 14 c0 8f fd       	call   3a6f390 <std::unique_lock<std::mutex>::unlock()>
 61733a3:	e8 18 f6 ba 01       	call   7d229c0 <pthread_mutex_unlock@plt>
 6173602:	e9 b9 f3 ba 01       	jmp    7d229c0 <pthread_mutex_unlock@plt>
 6173614:	e8 77 bd 8f fd       	call   3a6f390 <std::unique_lock<std::mutex>::unlock()>
 61736b4:	e8 07 f3 ba 01       	call   7d229c0 <pthread_mutex_unlock@plt>
 6173f94:	e8 f7 b3 8f fd       	call   3a6f390 <std::unique_lock<std::mutex>::unlock()>
 617433c:	e9 7f e6 ba 01       	jmp    7d229c0 <pthread_mutex_unlock@plt>
 6174357:	e8 34 b0 8f fd       	call   3a6f390 <std::unique_lock<std::mutex>::unlock()>
 6174383:	e8 38 e6 ba 01       	call   7d229c0 <pthread_mutex_unlock@plt>
 617acd0:	e8 bb 46 8f fd       	call   3a6f390 <std::unique_lock<std::mutex>::unlock()>
 617b260:	e8 5b 77 ba 01       	call   7d229c0 <pthread_mutex_unlock@plt>
 617b3d3:	e8 b8 3f 8f fd       	call   3a6f390 <std::unique_lock<std::mutex>::unlock()>
 617b4d1:	e8 ea 74 ba 01       	call   7d229c0 <pthread_mutex_unlock@plt>
 617be95:	e8 f6 34 8f fd       	call   3a6f390 <std::unique_lock<std::mutex>::unlock()>
 617c577:	e8 14 2e 8f fd       	call   3a6f390 <std::unique_lock<std::mutex>::unlock()>
 617ccf5:	e8 96 26 8f fd       	call   3a6f390 <std::unique_lock<std::mutex>::unlock()>
 617cffa:	e8 91 23 8f fd       	call   3a6f390 <std::unique_lock<std::mutex>::unlock()>
 617d5eb:	e8 a0 1d 8f fd       	call   3a6f390 <std::unique_lock<std::mutex>::unlock()>
 617f8af:	e8 dc fa 8e fd       	call   3a6f390 <std::unique_lock<std::mutex>::unlock()>
 618055d:	e8 2e ee 8e fd       	call   3a6f390 <std::unique_lock<std::mutex>::unlock()>
 6180aa7:	e8 e4 e8 8e fd       	call   3a6f390 <std::unique_lock<std::mutex>::unlock()>
 6181249:	e8 42 e1 8e fd       	call   3a6f390 <std::unique_lock<std::mutex>::unlock()>
 6181535:	e8 56 de 8e fd       	call   3a6f390 <std::unique_lock<std::mutex>::unlock()>
 61819fa:	e8 91 d9 8e fd       	call   3a6f390 <std::unique_lock<std::mutex>::unlock()>
 61834b7:	e8 d4 be 8e fd       	call   3a6f390 <std::unique_lock<std::mutex>::unlock()>
 6184217:	e8 74 b1 8e fd       	call   3a6f390 <std::unique_lock<std::mutex>::unlock()>
 618485f:	e8 2c ab 8e fd       	call   3a6f390 <std::unique_lock<std::mutex>::unlock()>
 6184f59:	e8 32 a4 8e fd       	call   3a6f390 <std::unique_lock<std::mutex>::unlock()>
 618502e:	e8 8d d9 b9 01       	call   7d229c0 <pthread_mutex_unlock@plt>
 618528d:	e8 fe a0 8e fd       	call   3a6f390 <std::unique_lock<std::mutex>::unlock()>
 61857f7:	e8 94 9b 8e fd       	call   3a6f390 <std::unique_lock<std::mutex>::unlock()>
 6185839:	e8 82 d1 b9 01       	call   7d229c0 <pthread_mutex_unlock@plt>
 6187146:	e8 45 82 8e fd       	call   3a6f390 <std::unique_lock<std::mutex>::unlock()>
 618725c:	e8 2f 81 8e fd       	call   3a6f390 <std::unique_lock<std::mutex>::unlock()>
 61872e3:	e8 a8 80 8e fd       	call   3a6f390 <std::unique_lock<std::mutex>::unlock()>
 6187503:	e8 88 7e 8e fd       	call   3a6f390 <std::unique_lock<std::mutex>::unlock()>
 61875c3:	e8 c8 7d 8e fd       	call   3a6f390 <std::unique_lock<std::mutex>::unlock()>
 6187691:	e8 fa 7c 8e fd       	call   3a6f390 <std::unique_lock<std::mutex>::unlock()>
 618ac9a:	e8 21 7d b9 01       	call   7d229c0 <pthread_mutex_unlock@plt>
 618bb8b:	e9 30 6e b9 01       	jmp    7d229c0 <pthread_mutex_unlock@plt>
 6191c55:	e8 36 d7 8d fd       	call   3a6f390 <std::unique_lock<std::mutex>::unlock()>
 6191ded:	e8 ce 0b b9 01       	call   7d229c0 <pthread_mutex_unlock@plt>
 61920ff:	e9 bc 08 b9 01       	jmp    7d229c0 <pthread_mutex_unlock@plt>
 61926a6:	e8 15 03 b9 01       	call   7d229c0 <pthread_mutex_unlock@plt>
 61929ef:	e8 cc ff b8 01       	call   7d229c0 <pthread_mutex_unlock@plt>
 6192a2d:	e8 8e ff b8 01       	call   7d229c0 <pthread_mutex_unlock@plt>
 6194780:	e9 3b e2 b8 01       	jmp    7d229c0 <pthread_mutex_unlock@plt>
 6196f7c:	e8 3f ba b8 01       	call   7d229c0 <pthread_mutex_unlock@plt>
 6197204:	e8 b7 b7 b8 01       	call   7d229c0 <pthread_mutex_unlock@plt>
 619831e:	e8 9d a6 b8 01       	call   7d229c0 <pthread_mutex_unlock@plt>
 619833d:	e8 7e a6 b8 01       	call   7d229c0 <pthread_mutex_unlock@plt>
 6199664:	e8 57 93 b8 01       	call   7d229c0 <pthread_mutex_unlock@plt>
 6199681:	e8 3a 93 b8 01       	call   7d229c0 <pthread_mutex_unlock@plt>
 619a484:	e8 37 85 b8 01       	call   7d229c0 <pthread_mutex_unlock@plt>
 619aa15:	e8 a6 7f b8 01       	call   7d229c0 <pthread_mutex_unlock@plt>
 619aa5e:	e9 5d 7f b8 01       	jmp    7d229c0 <pthread_mutex_unlock@plt>
 619c3a0:	e8 1b 66 b8 01       	call   7d229c0 <pthread_mutex_unlock@plt>
 619d362:	e8 29 20 8d fd       	call   3a6f390 <std::unique_lock<std::mutex>::unlock()>
 619d3f5:	e8 c6 55 b8 01       	call   7d229c0 <pthread_mutex_unlock@plt>
 619d492:	e8 29 55 b8 01       	call   7d229c0 <pthread_mutex_unlock@plt>
 619d5aa:	e8 11 54 b8 01       	call   7d229c0 <pthread_mutex_unlock@plt>
 619d899:	e8 22 51 b8 01       	call   7d229c0 <pthread_mutex_unlock@plt>
 619dd4e:	e8 6d 4c b8 01       	call   7d229c0 <pthread_mutex_unlock@plt>
 619e16c:	e8 4f 48 b8 01       	call   7d229c0 <pthread_mutex_unlock@plt>
 619e344:	e8 77 46 b8 01       	call   7d229c0 <pthread_mutex_unlock@plt>
 619e5b4:	e8 07 44 b8 01       	call   7d229c0 <pthread_mutex_unlock@plt>
 619e668:	e8 53 43 b8 01       	call   7d229c0 <pthread_mutex_unlock@plt>
 61a304c:	e8 3f c3 8c fd       	call   3a6f390 <std::unique_lock<std::mutex>::unlock()>
 61a45f4:	e8 97 ad 8c fd       	call   3a6f390 <std::unique_lock<std::mutex>::unlock()>
 61a4649:	e8 42 ad 8c fd       	call   3a6f390 <std::unique_lock<std::mutex>::unlock()>
 61a478c:	e8 ff ab 8c fd       	call   3a6f390 <std::unique_lock<std::mutex>::unlock()>
 61a4a68:	e8 53 df b7 01       	call   7d229c0 <pthread_mutex_unlock@plt>
 61a514f:	e8 6c d8 b7 01       	call   7d229c0 <pthread_mutex_unlock@plt>
 61a5408:	e8 b3 d5 b7 01       	call   7d229c0 <pthread_mutex_unlock@plt>
 61aabf4:	e8 97 47 8c fd       	call   3a6f390 <std::unique_lock<std::mutex>::unlock()>
 61ab06f:	e8 1c 43 8c fd       	call   3a6f390 <std::unique_lock<std::mutex>::unlock()>
 61ab90a:	e8 81 3a 8c fd       	call   3a6f390 <std::unique_lock<std::mutex>::unlock()>
 61abeef:	e8 9c 34 8c fd       	call   3a6f390 <std::unique_lock<std::mutex>::unlock()>
 61ac5e4:	e8 a7 2d 8c fd       	call   3a6f390 <std::unique_lock<std::mutex>::unlock()>
 61ac6a3:	e8 18 63 b7 01       	call   7d229c0 <pthread_mutex_unlock@plt>
 61ac7e5:	e8 a6 2b 8c fd       	call   3a6f390 <std::unique_lock<std::mutex>::unlock()>
 61ace50:	e8 3b 25 8c fd       	call   3a6f390 <std::unique_lock<std::mutex>::unlock()>
 61aece6:	e8 a5 06 8c fd       	call   3a6f390 <std::unique_lock<std::mutex>::unlock()>
 61aedd1:	e8 ba 05 8c fd       	call   3a6f390 <std::unique_lock<std::mutex>::unlock()>
 61aede3:	e8 a8 05 8c fd       	call   3a6f390 <std::unique_lock<std::mutex>::unlock()>
 61b1902:	e8 b9 10 b7 01       	call   7d229c0 <pthread_mutex_unlock@plt>
 61b19e7:	e9 d4 0f b7 01       	jmp    7d229c0 <pthread_mutex_unlock@plt>
 61b1ec5:	e8 f6 0a b7 01       	call   7d229c0 <pthread_mutex_unlock@plt>
 61b3387:	e8 34 f6 b6 01       	call   7d229c0 <pthread_mutex_unlock@plt>
 61b3506:	e8 b5 f4 b6 01       	call   7d229c0 <pthread_mutex_unlock@plt>
 61b4c3a:	e8 81 dd b6 01       	call   7d229c0 <pthread_mutex_unlock@plt>
 61b521e:	e8 9d d7 b6 01       	call   7d229c0 <pthread_mutex_unlock@plt>
 61b540a:	e9 b1 d5 b6 01       	jmp    7d229c0 <pthread_mutex_unlock@plt>
 61b5473:	e8 18 9f 8b fd       	call   3a6f390 <std::unique_lock<std::mutex>::unlock()>
 61b5813:	e8 78 9b 8b fd       	call   3a6f390 <std::unique_lock<std::mutex>::unlock()>
 61b5883:	e8 08 9b 8b fd       	call   3a6f390 <std::unique_lock<std::mutex>::unlock()>
 61b5b8f:	e8 2c ce b6 01       	call   7d229c0 <pthread_mutex_unlock@plt>
 61b6239:	e8 82 c7 b6 01       	call   7d229c0 <pthread_mutex_unlock@plt>
 61b66f2:	e8 c9 c2 b6 01       	call   7d229c0 <pthread_mutex_unlock@plt>
 61b6803:	e8 b8 c1 b6 01       	call   7d229c0 <pthread_mutex_unlock@plt>
 61b68bd:	e8 fe c0 b6 01       	call   7d229c0 <pthread_mutex_unlock@plt>
 61b69d0:	e8 eb bf b6 01       	call   7d229c0 <pthread_mutex_unlock@plt>
 61b7020:	e8 6b 83 8b fd       	call   3a6f390 <std::unique_lock<std::mutex>::unlock()>
 61b70e2:	e8 a9 82 8b fd       	call   3a6f390 <std::unique_lock<std::mutex>::unlock()>
 61b73f9:	e9 c2 b5 b6 01       	jmp    7d229c0 <pthread_mutex_unlock@plt>
 61b7947:	e8 74 b0 b6 01       	call   7d229c0 <pthread_mutex_unlock@plt>
 61b8a39:	e8 82 9f b6 01       	call   7d229c0 <pthread_mutex_unlock@plt>
 61b8bbe:	e8 fd 9d b6 01       	call   7d229c0 <pthread_mutex_unlock@plt>
 61b8d02:	e8 89 66 8b fd       	call   3a6f390 <std::unique_lock<std::mutex>::unlock()>
 61b8d11:	e8 7a 66 8b fd       	call   3a6f390 <std::unique_lock<std::mutex>::unlock()>
 61b8e39:	e8 52 65 8b fd       	call   3a6f390 <std::unique_lock<std::mutex>::unlock()>
 61b8e48:	e8 43 65 8b fd       	call   3a6f390 <std::unique_lock<std::mutex>::unlock()>
 61b8e9b:	e8 20 9b b6 01       	call   7d229c0 <pthread_mutex_unlock@plt>
 61b9072:	e8 49 99 b6 01       	call   7d229c0 <pthread_mutex_unlock@plt>
 61b90f1:	e8 9a 62 8b fd       	call   3a6f390 <std::unique_lock<std::mutex>::unlock()>
 61b92e9:	e8 a2 60 8b fd       	call   3a6f390 <std::unique_lock<std::mutex>::unlock()>
 61b93ff:	e8 bc 95 b6 01       	call   7d229c0 <pthread_mutex_unlock@plt>
 61b9454:	e8 67 95 b6 01       	call   7d229c0 <pthread_mutex_unlock@plt>
 61c3af0:	e8 cb ee b5 01       	call   7d229c0 <pthread_mutex_unlock@plt>
 61c43a1:	e8 1a e6 b5 01       	call   7d229c0 <pthread_mutex_unlock@plt>
 61c4caa:	e8 11 dd b5 01       	call   7d229c0 <pthread_mutex_unlock@plt>
 61c5f86:	e8 35 ca b5 01       	call   7d229c0 <pthread_mutex_unlock@plt>
 61c5fc4:	e8 f7 c9 b5 01       	call   7d229c0 <pthread_mutex_unlock@plt>
 61c600a:	e8 b1 c9 b5 01       	call   7d229c0 <pthread_mutex_unlock@plt>
 61c618f:	e8 2c c8 b5 01       	call   7d229c0 <pthread_mutex_unlock@plt>
 61c61a3:	e8 18 c8 b5 01       	call   7d229c0 <pthread_mutex_unlock@plt>
 61c6238:	e8 83 c7 b5 01       	call   7d229c0 <pthread_mutex_unlock@plt>
 61c63ff:	e8 bc c5 b5 01       	call   7d229c0 <pthread_mutex_unlock@plt>
 61c67c2:	e8 f9 c1 b5 01       	call   7d229c0 <pthread_mutex_unlock@plt>
 61c67cf:	e8 ec c1 b5 01       	call   7d229c0 <pthread_mutex_unlock@plt>
 61c67e9:	e8 d2 c1 b5 01       	call   7d229c0 <pthread_mutex_unlock@plt>
 61c7649:	e8 72 b3 b5 01       	call   7d229c0 <pthread_mutex_unlock@plt>
 61c8506:	e8 b5 a4 b5 01       	call   7d229c0 <pthread_mutex_unlock@plt>
 61c8a7e:	e8 3d 9f b5 01       	call   7d229c0 <pthread_mutex_unlock@plt>
 61c92cb:	e8 f0 96 b5 01       	call   7d229c0 <pthread_mutex_unlock@plt>
 61c938d:	e8 2e 96 b5 01       	call   7d229c0 <pthread_mutex_unlock@plt>
 61c94c5:	e8 f6 94 b5 01       	call   7d229c0 <pthread_mutex_unlock@plt>
 61c9550:	e8 6b 94 b5 01       	call   7d229c0 <pthread_mutex_unlock@plt>
 61c99ec:	e8 9f 59 8a fd       	call   3a6f390 <std::unique_lock<std::mutex>::unlock()>
 61c9d76:	e8 15 56 8a fd       	call   3a6f390 <std::unique_lock<std::mutex>::unlock()>
 61c9d9b:	e8 f0 55 8a fd       	call   3a6f390 <std::unique_lock<std::mutex>::unlock()>
 62135b6:	e8 05 f4 b0 01       	call   7d229c0 <pthread_mutex_unlock@plt>
 62136ad:	e8 0e f3 b0 01       	call   7d229c0 <pthread_mutex_unlock@plt>
 62136c3:	e9 f8 f2 b0 01       	jmp    7d229c0 <pthread_mutex_unlock@plt>
 6213751:	e8 6a f2 b0 01       	call   7d229c0 <pthread_mutex_unlock@plt>
 6213bfd:	e8 be ed b0 01       	call   7d229c0 <pthread_mutex_unlock@plt>
 6213e6b:	e8 50 eb b0 01       	call   7d229c0 <pthread_mutex_unlock@plt>
 6213f57:	e8 64 ea b0 01       	call   7d229c0 <pthread_mutex_unlock@plt>
 6214187:	e8 34 e8 b0 01       	call   7d229c0 <pthread_mutex_unlock@plt>
 6214201:	e8 ba e7 b0 01       	call   7d229c0 <pthread_mutex_unlock@plt>
 62142f9:	e9 c2 e6 b0 01       	jmp    7d229c0 <pthread_mutex_unlock@plt>
 62146fd:	e8 be e2 b0 01       	call   7d229c0 <pthread_mutex_unlock@plt>
 6214831:	e8 8a e1 b0 01       	call   7d229c0 <pthread_mutex_unlock@plt>
 6214894:	e8 27 e1 b0 01       	call   7d229c0 <pthread_mutex_unlock@plt>
 62157e4:	e8 d7 d1 b0 01       	call   7d229c0 <pthread_mutex_unlock@plt>
 6215853:	e8 38 9b 85 fd       	call   3a6f390 <std::unique_lock<std::mutex>::unlock()>
 621586f:	e8 1c 9b 85 fd       	call   3a6f390 <std::unique_lock<std::mutex>::unlock()>
 6215931:	e8 8a d0 b0 01       	call   7d229c0 <pthread_mutex_unlock@plt>
 62159dd:	e8 de cf b0 01       	call   7d229c0 <pthread_mutex_unlock@plt>
 624b6fc:	e8 bf 72 ad 01       	call   7d229c0 <pthread_mutex_unlock@plt>
 624b75b:	e9 60 72 ad 01       	jmp    7d229c0 <pthread_mutex_unlock@plt>
 626c47a:	e8 41 65 ab 01       	call   7d229c0 <pthread_mutex_unlock@plt>
 6275fef:	e8 7c 20 aa fe       	call   4d18070 <std::unique_lock<mongo::Client>::unlock()>
 6276052:	e8 19 20 aa fe       	call   4d18070 <std::unique_lock<mongo::Client>::unlock()>
 628341a:	e8 a1 f5 a9 01       	call   7d229c0 <pthread_mutex_unlock@plt>
 628be47:	e8 44 35 7e fd       	call   3a6f390 <std::unique_lock<std::mutex>::unlock()>
 62ac8e9:	e8 a2 2a 7c fd       	call   3a6f390 <std::unique_lock<std::mutex>::unlock()>
 62c2f4a:	e8 71 fa a5 01       	call   7d229c0 <pthread_mutex_unlock@plt>
 62c4667:	e8 24 ad 7a fd       	call   3a6f390 <std::unique_lock<std::mutex>::unlock()>
 62c5c14:	e8 57 24 a5 fe       	call   4d18070 <std::unique_lock<mongo::Client>::unlock()>
 62c61ea:	e8 81 1e a5 fe       	call   4d18070 <std::unique_lock<mongo::Client>::unlock()>
 62c83ce:	e8 ed a5 a5 01       	call   7d229c0 <pthread_mutex_unlock@plt>
 62c8546:	e8 45 6e 7a fd       	call   3a6f390 <std::unique_lock<std::mutex>::unlock()>
 62c957d:	e8 0e 5e 7a fd       	call   3a6f390 <std::unique_lock<std::mutex>::unlock()>
 62c9828:	e8 43 e8 a4 fe       	call   4d18070 <std::unique_lock<mongo::Client>::unlock()>
 62c9924:	e8 47 e7 a4 fe       	call   4d18070 <std::unique_lock<mongo::Client>::unlock()>
 62c9946:	e8 25 e7 a4 fe       	call   4d18070 <std::unique_lock<mongo::Client>::unlock()>
 62c9e99:	e8 f2 54 7a fd       	call   3a6f390 <std::unique_lock<std::mutex>::unlock()>
 62c9eb0:	e8 db 54 7a fd       	call   3a6f390 <std::unique_lock<std::mutex>::unlock()>
 62d8aa6:	e8 c5 f5 a3 fe       	call   4d18070 <std::unique_lock<mongo::Client>::unlock()>
 62d8afa:	e8 71 f5 a3 fe       	call   4d18070 <std::unique_lock<mongo::Client>::unlock()>
 62d8bd0:	e8 9b f4 a3 fe       	call   4d18070 <std::unique_lock<mongo::Client>::unlock()>
 631cccb:	e8 f0 5c a0 01       	call   7d229c0 <pthread_mutex_unlock@plt>
 631cd8c:	e8 2f 5c a0 01       	call   7d229c0 <pthread_mutex_unlock@plt>
 631cd9b:	e8 20 5c a0 01       	call   7d229c0 <pthread_mutex_unlock@plt>
 631cdbc:	e8 ff 5b a0 01       	call   7d229c0 <pthread_mutex_unlock@plt>
 631cdd2:	e9 e9 5b a0 01       	jmp    7d229c0 <pthread_mutex_unlock@plt>
 631ce33:	e8 88 5b a0 01       	call   7d229c0 <pthread_mutex_unlock@plt>
 631cf53:	e9 68 5a a0 01       	jmp    7d229c0 <pthread_mutex_unlock@plt>
 631d033:	e9 88 59 a0 01       	jmp    7d229c0 <pthread_mutex_unlock@plt>
 631d0c9:	e9 f2 58 a0 01       	jmp    7d229c0 <pthread_mutex_unlock@plt>
 631d0d3:	e8 e8 58 a0 01       	call   7d229c0 <pthread_mutex_unlock@plt>
 631d0fc:	e9 bf 58 a0 01       	jmp    7d229c0 <pthread_mutex_unlock@plt>
 631d1a0:	e9 1b 58 a0 01       	jmp    7d229c0 <pthread_mutex_unlock@plt>
 631d6fe:	e9 bd 52 a0 01       	jmp    7d229c0 <pthread_mutex_unlock@plt>
 631daa3:	e8 18 4f a0 01       	call   7d229c0 <pthread_mutex_unlock@plt>
 631dac8:	e9 f3 4e a0 01       	jmp    7d229c0 <pthread_mutex_unlock@plt>
 631dc16:	e9 a5 4d a0 01       	jmp    7d229c0 <pthread_mutex_unlock@plt>
 631de1f:	e8 9c 4b a0 01       	call   7d229c0 <pthread_mutex_unlock@plt>
 631de7c:	e8 3f 4b a0 01       	call   7d229c0 <pthread_mutex_unlock@plt>
 631df1b:	e8 a0 4a a0 01       	call   7d229c0 <pthread_mutex_unlock@plt>
 631e024:	e8 97 49 a0 01       	call   7d229c0 <pthread_mutex_unlock@plt>
 631e0ec:	e9 cf 48 a0 01       	jmp    7d229c0 <pthread_mutex_unlock@plt>
 631e256:	e8 65 47 a0 01       	call   7d229c0 <pthread_mutex_unlock@plt>
 631ed05:	e8 b6 3c a0 01       	call   7d229c0 <pthread_mutex_unlock@plt>
 631ed8a:	e9 31 3c a0 01       	jmp    7d229c0 <pthread_mutex_unlock@plt>
 631ee1c:	e8 9f 3b a0 01       	call   7d229c0 <pthread_mutex_unlock@plt>
 631ee33:	e8 88 3b a0 01       	call   7d229c0 <pthread_mutex_unlock@plt>
 631ee54:	e8 67 3b a0 01       	call   7d229c0 <pthread_mutex_unlock@plt>
 631ee9c:	e8 1f 3b a0 01       	call   7d229c0 <pthread_mutex_unlock@plt>
 631f25e:	e9 5d 37 a0 01       	jmp    7d229c0 <pthread_mutex_unlock@plt>
 631f2f4:	e8 c7 36 a0 01       	call   7d229c0 <pthread_mutex_unlock@plt>
 631f330:	e8 8b 36 a0 01       	call   7d229c0 <pthread_mutex_unlock@plt>
 631f350:	e8 6b 36 a0 01       	call   7d229c0 <pthread_mutex_unlock@plt>
 631f3c9:	e8 f2 35 a0 01       	call   7d229c0 <pthread_mutex_unlock@plt>
 631f5f2:	e8 c9 33 a0 01       	call   7d229c0 <pthread_mutex_unlock@plt>
 631f603:	e8 b8 33 a0 01       	call   7d229c0 <pthread_mutex_unlock@plt>
 631f624:	e8 97 33 a0 01       	call   7d229c0 <pthread_mutex_unlock@plt>
 63233a3:	e9 18 f6 9f 01       	jmp    7d229c0 <pthread_mutex_unlock@plt>
 632345a:	e8 61 f5 9f 01       	call   7d229c0 <pthread_mutex_unlock@plt>
 63234da:	e8 e1 f4 9f 01       	call   7d229c0 <pthread_mutex_unlock@plt>
 63235b6:	e8 d5 bd 74 fd       	call   3a6f390 <std::unique_lock<std::mutex>::unlock()>
 63235e8:	e8 d3 f3 9f 01       	call   7d229c0 <pthread_mutex_unlock@plt>
 6323602:	e8 89 bd 74 fd       	call   3a6f390 <std::unique_lock<std::mutex>::unlock()>
 63236bf:	e8 cc bc 74 fd       	call   3a6f390 <std::unique_lock<std::mutex>::unlock()>
 63236d4:	e8 b7 bc 74 fd       	call   3a6f390 <std::unique_lock<std::mutex>::unlock()>
 63237a5:	e8 e6 bb 74 fd       	call   3a6f390 <std::unique_lock<std::mutex>::unlock()>
 63237ba:	e8 d1 bb 74 fd       	call   3a6f390 <std::unique_lock<std::mutex>::unlock()>
 63237cf:	e8 bc bb 74 fd       	call   3a6f390 <std::unique_lock<std::mutex>::unlock()>
 632bbaa:	e8 11 6e 9f 01       	call   7d229c0 <pthread_mutex_unlock@plt>
 632c4e4:	e8 d7 64 9f 01       	call   7d229c0 <pthread_mutex_unlock@plt>
 632c4fa:	e9 c1 64 9f 01       	jmp    7d229c0 <pthread_mutex_unlock@plt>
 632c580:	e8 3b 64 9f 01       	call   7d229c0 <pthread_mutex_unlock@plt>
 632c773:	e8 48 62 9f 01       	call   7d229c0 <pthread_mutex_unlock@plt>
 632c789:	e9 32 62 9f 01       	jmp    7d229c0 <pthread_mutex_unlock@plt>
 632c807:	e8 b4 61 9f 01       	call   7d229c0 <pthread_mutex_unlock@plt>
 632c85d:	e8 5e 61 9f 01       	call   7d229c0 <pthread_mutex_unlock@plt>
 632c8df:	e8 dc 60 9f 01       	call   7d229c0 <pthread_mutex_unlock@plt>
 632c8f5:	e9 c6 60 9f 01       	jmp    7d229c0 <pthread_mutex_unlock@plt>
 632c978:	e8 43 60 9f 01       	call   7d229c0 <pthread_mutex_unlock@plt>
 632c9ce:	e8 ed 5f 9f 01       	call   7d229c0 <pthread_mutex_unlock@plt>
 632d4d8:	e8 e3 54 9f 01       	call   7d229c0 <pthread_mutex_unlock@plt>
 632d8df:	e8 ac 1a 74 fd       	call   3a6f390 <std::unique_lock<std::mutex>::unlock()>
 6567a52:	e8 69 af 7b 01       	call   7d229c0 <pthread_mutex_unlock@plt>
 6567ae9:	e8 d2 ae 7b 01       	call   7d229c0 <pthread_mutex_unlock@plt>
 6567bd1:	e8 ea ad 7b 01       	call   7d229c0 <pthread_mutex_unlock@plt>
 6567c91:	e8 2a ad 7b 01       	call   7d229c0 <pthread_mutex_unlock@plt>
 6568450:	e8 6b a5 7b 01       	call   7d229c0 <pthread_mutex_unlock@plt>
 6568542:	e8 79 a4 7b 01       	call   7d229c0 <pthread_mutex_unlock@plt>
 6568688:	e8 33 a3 7b 01       	call   7d229c0 <pthread_mutex_unlock@plt>
 65686f9:	e8 c2 a2 7b 01       	call   7d229c0 <pthread_mutex_unlock@plt>
 6568800:	e8 bb a1 7b 01       	call   7d229c0 <pthread_mutex_unlock@plt>
 65688de:	e8 ad 6a 50 fd       	call   3a6f390 <std::unique_lock<std::mutex>::unlock()>
 65688f5:	e8 96 6a 50 fd       	call   3a6f390 <std::unique_lock<std::mutex>::unlock()>
 6569a7c:	e8 3f 8f 7b 01       	call   7d229c0 <pthread_mutex_unlock@plt>
 6569b73:	e8 48 8e 7b 01       	call   7d229c0 <pthread_mutex_unlock@plt>
 657590b:	e9 b0 d0 7a 01       	jmp    7d229c0 <pthread_mutex_unlock@plt>
 6575bb9:	e9 02 ce 7a 01       	jmp    7d229c0 <pthread_mutex_unlock@plt>
 6576703:	e9 b8 c2 7a 01       	jmp    7d229c0 <pthread_mutex_unlock@plt>
 65768c1:	e9 fa c0 7a 01       	jmp    7d229c0 <pthread_mutex_unlock@plt>
 6576c0e:	e8 ad bd 7a 01       	call   7d229c0 <pthread_mutex_unlock@plt>
 6576d14:	e8 a7 bc 7a 01       	call   7d229c0 <pthread_mutex_unlock@plt>
 6576d62:	e8 59 bc 7a 01       	call   7d229c0 <pthread_mutex_unlock@plt>
 6576d8e:	e8 2d bc 7a 01       	call   7d229c0 <pthread_mutex_unlock@plt>
 65774b7:	e8 04 b5 7a 01       	call   7d229c0 <pthread_mutex_unlock@plt>
 65774bf:	e8 fc b4 7a 01       	call   7d229c0 <pthread_mutex_unlock@plt>
 657761e:	e8 9d b3 7a 01       	call   7d229c0 <pthread_mutex_unlock@plt>
 6577643:	e8 78 b3 7a 01       	call   7d229c0 <pthread_mutex_unlock@plt>
 6579018:	e8 a3 99 7a 01       	call   7d229c0 <pthread_mutex_unlock@plt>
 6579080:	e8 3b 99 7a 01       	call   7d229c0 <pthread_mutex_unlock@plt>
 65792e2:	e8 d9 96 7a 01       	call   7d229c0 <pthread_mutex_unlock@plt>
 6579351:	e8 6a 96 7a 01       	call   7d229c0 <pthread_mutex_unlock@plt>
 65794ad:	e8 0e 95 7a 01       	call   7d229c0 <pthread_mutex_unlock@plt>
 65795bb:	e8 00 94 7a 01       	call   7d229c0 <pthread_mutex_unlock@plt>
 65796aa:	e8 11 93 7a 01       	call   7d229c0 <pthread_mutex_unlock@plt>
 6579700:	e8 bb 92 7a 01       	call   7d229c0 <pthread_mutex_unlock@plt>
 65797e5:	e9 d6 91 7a 01       	jmp    7d229c0 <pthread_mutex_unlock@plt>
 65798f6:	e8 95 5a 4f fd       	call   3a6f390 <std::unique_lock<std::mutex>::unlock()>
 657991b:	e8 70 5a 4f fd       	call   3a6f390 <std::unique_lock<std::mutex>::unlock()>
 657995c:	e8 2f 5a 4f fd       	call   3a6f390 <std::unique_lock<std::mutex>::unlock()>
 6579a44:	e8 47 59 4f fd       	call   3a6f390 <std::unique_lock<std::mutex>::unlock()>
 657e442:	e8 79 45 7a 01       	call   7d229c0 <pthread_mutex_unlock@plt>
 657e62b:	e9 90 43 7a 01       	jmp    7d229c0 <pthread_mutex_unlock@plt>
 6580ad6:	e8 e5 1e 7a 01       	call   7d229c0 <pthread_mutex_unlock@plt>
 6580b11:	e8 aa 1e 7a 01       	call   7d229c0 <pthread_mutex_unlock@plt>
 6580c4b:	e8 70 1d 7a 01       	call   7d229c0 <pthread_mutex_unlock@plt>
 6580d56:	e8 65 1c 7a 01       	call   7d229c0 <pthread_mutex_unlock@plt>
 6580e3b:	e8 80 1b 7a 01       	call   7d229c0 <pthread_mutex_unlock@plt>
 6580f8a:	e8 31 1a 7a 01       	call   7d229c0 <pthread_mutex_unlock@plt>
 6580fe1:	e8 da 19 7a 01       	call   7d229c0 <pthread_mutex_unlock@plt>
 6581118:	e8 a3 18 7a 01       	call   7d229c0 <pthread_mutex_unlock@plt>
 6581290:	e9 2b 17 7a 01       	jmp    7d229c0 <pthread_mutex_unlock@plt>
 6582cd2:	e8 e9 fc 79 01       	call   7d229c0 <pthread_mutex_unlock@plt>
 6582d6b:	e8 50 fc 79 01       	call   7d229c0 <pthread_mutex_unlock@plt>
 6586b7b:	e8 40 be 79 01       	call   7d229c0 <pthread_mutex_unlock@plt>
 6586cb3:	e8 08 bd 79 01       	call   7d229c0 <pthread_mutex_unlock@plt>
 658a318:	e8 a3 86 79 01       	call   7d229c0 <pthread_mutex_unlock@plt>
 658a3df:	e8 ac 4f 4e fd       	call   3a6f390 <std::unique_lock<std::mutex>::unlock()>
 658a404:	e8 87 4f 4e fd       	call   3a6f390 <std::unique_lock<std::mutex>::unlock()>
 658e4e7:	e8 a4 0e 4e fd       	call   3a6f390 <std::unique_lock<std::mutex>::unlock()>
 65980f0:	e8 cb a8 78 01       	call   7d229c0 <pthread_mutex_unlock@plt>
 65981d5:	e8 e6 a7 78 01       	call   7d229c0 <pthread_mutex_unlock@plt>
 65981e3:	e8 d8 a7 78 01       	call   7d229c0 <pthread_mutex_unlock@plt>
 6598207:	e8 b4 a7 78 01       	call   7d229c0 <pthread_mutex_unlock@plt>
 6598291:	e8 2a a7 78 01       	call   7d229c0 <pthread_mutex_unlock@plt>
 659d359:	e8 62 56 78 01       	call   7d229c0 <pthread_mutex_unlock@plt>
 659d3ad:	e8 0e 56 78 01       	call   7d229c0 <pthread_mutex_unlock@plt>
 659d4fa:	e8 c1 54 78 01       	call   7d229c0 <pthread_mutex_unlock@plt>
 659d5a8:	e8 13 54 78 01       	call   7d229c0 <pthread_mutex_unlock@plt>
 659e23e:	e8 7d 47 78 01       	call   7d229c0 <pthread_mutex_unlock@plt>
 659f71a:	e8 a1 32 78 01       	call   7d229c0 <pthread_mutex_unlock@plt>
 65cb6ca:	e8 f1 72 75 01       	call   7d229c0 <pthread_mutex_unlock@plt>
 65cbdbc:	e8 ff 6b 75 01       	call   7d229c0 <pthread_mutex_unlock@plt>
 65cbe39:	e8 82 6b 75 01       	call   7d229c0 <pthread_mutex_unlock@plt>
 65cbe43:	e8 78 6b 75 01       	call   7d229c0 <pthread_mutex_unlock@plt>
 65cbe6a:	e8 51 6b 75 01       	call   7d229c0 <pthread_mutex_unlock@plt>
 65ccc94:	e8 27 5d 75 01       	call   7d229c0 <pthread_mutex_unlock@plt>
 65cccd6:	e8 e5 5c 75 01       	call   7d229c0 <pthread_mutex_unlock@plt>
 65ccf45:	e8 76 5a 75 01       	call   7d229c0 <pthread_mutex_unlock@plt>
 65ccffc:	e8 bf 59 75 01       	call   7d229c0 <pthread_mutex_unlock@plt>
 65cd013:	e8 a8 59 75 01       	call   7d229c0 <pthread_mutex_unlock@plt>
 65cd030:	e8 8b 59 75 01       	call   7d229c0 <pthread_mutex_unlock@plt>
 65cfc73:	e8 48 2d 75 01       	call   7d229c0 <pthread_mutex_unlock@plt>
 65cfcbf:	e8 fc 2c 75 01       	call   7d229c0 <pthread_mutex_unlock@plt>
 65cfd5d:	e8 5e 2c 75 01       	call   7d229c0 <pthread_mutex_unlock@plt>
 65cfd79:	e8 42 2c 75 01       	call   7d229c0 <pthread_mutex_unlock@plt>
 65cfd8b:	e8 30 2c 75 01       	call   7d229c0 <pthread_mutex_unlock@plt>
 65cfdb6:	e8 05 2c 75 01       	call   7d229c0 <pthread_mutex_unlock@plt>
 65cfe2b:	e8 90 2b 75 01       	call   7d229c0 <pthread_mutex_unlock@plt>
 65d02de:	e8 ad f0 49 fd       	call   3a6f390 <std::unique_lock<std::mutex>::unlock()>
 65d0ba1:	e8 ea e7 49 fd       	call   3a6f390 <std::unique_lock<std::mutex>::unlock()>
 6667350:	e9 fb a6 06 00       	jmp    66d1a50 <mozilla::detail::MutexImpl::unlock()>
 66b66ea:	e8 61 b3 01 00       	call   66d1a50 <mozilla::detail::MutexImpl::unlock()>
 66b6765:	e8 e6 b2 01 00       	call   66d1a50 <mozilla::detail::MutexImpl::unlock()>
 66b67cf:	e8 7c b2 01 00       	call   66d1a50 <mozilla::detail::MutexImpl::unlock()>
 66b688e:	e8 bd b1 01 00       	call   66d1a50 <mozilla::detail::MutexImpl::unlock()>
 66b68bc:	e8 8f b1 01 00       	call   66d1a50 <mozilla::detail::MutexImpl::unlock()>
 66b68cf:	e8 7c b1 01 00       	call   66d1a50 <mozilla::detail::MutexImpl::unlock()>
 66b68e2:	e8 69 b1 01 00       	call   66d1a50 <mozilla::detail::MutexImpl::unlock()>
00000000066d1a50 <mozilla::detail::MutexImpl::unlock()>:
 66d1a59:	e8 62 0f 65 01       	call   7d229c0 <pthread_mutex_unlock@plt>
 66d1a60:	75 06                	jne    66d1a68 <mozilla::detail::MutexImpl::unlock()+0x18>
 66e0dd4:	e8 77 0c ff ff       	call   66d1a50 <mozilla::detail::MutexImpl::unlock()>
00000000066e1310 <js::FutexThread::unlock()>:
 66e1317:	e9 34 07 ff ff       	jmp    66d1a50 <mozilla::detail::MutexImpl::unlock()>
 66e15b9:	e8 92 04 ff ff       	call   66d1a50 <mozilla::detail::MutexImpl::unlock()>
 66e16a6:	e8 a5 03 ff ff       	call   66d1a50 <mozilla::detail::MutexImpl::unlock()>
 66e183f:	e8 0c 02 ff ff       	call   66d1a50 <mozilla::detail::MutexImpl::unlock()>
 66e19ff:	e8 4c 00 ff ff       	call   66d1a50 <mozilla::detail::MutexImpl::unlock()>
 66f7cf9:	e8 52 9d fd ff       	call   66d1a50 <mozilla::detail::MutexImpl::unlock()>
 66f7db1:	e8 9a 9c fd ff       	call   66d1a50 <mozilla::detail::MutexImpl::unlock()>
 66f7de2:	e8 69 9c fd ff       	call   66d1a50 <mozilla::detail::MutexImpl::unlock()>
 66f97d7:	e8 74 82 fd ff       	call   66d1a50 <mozilla::detail::MutexImpl::unlock()>
 67719c1:	e8 8a 00 f6 ff       	call   66d1a50 <mozilla::detail::MutexImpl::unlock()>
 67719fa:	e8 51 00 f6 ff       	call   66d1a50 <mozilla::detail::MutexImpl::unlock()>
 6771a34:	e8 17 00 f6 ff       	call   66d1a50 <mozilla::detail::MutexImpl::unlock()>
 6771a4d:	e8 fe ff f5 ff       	call   66d1a50 <mozilla::detail::MutexImpl::unlock()>
 67a6c8a:	e8 c1 ad f2 ff       	call   66d1a50 <mozilla::detail::MutexImpl::unlock()>
 67a828d:	e8 be 97 f2 ff       	call   66d1a50 <mozilla::detail::MutexImpl::unlock()>
 67a82ea:	e8 61 97 f2 ff       	call   66d1a50 <mozilla::detail::MutexImpl::unlock()>
 67a83d5:	e8 76 96 f2 ff       	call   66d1a50 <mozilla::detail::MutexImpl::unlock()>
 67a85e6:	e8 65 94 f2 ff       	call   66d1a50 <mozilla::detail::MutexImpl::unlock()>
 67a91bc:	e8 8f 88 f2 ff       	call   66d1a50 <mozilla::detail::MutexImpl::unlock()>
 67a928c:	e8 bf 87 f2 ff       	call   66d1a50 <mozilla::detail::MutexImpl::unlock()>
 67a95a3:	e8 a8 84 f2 ff       	call   66d1a50 <mozilla::detail::MutexImpl::unlock()>
 67aa10f:	e8 3c 79 f2 ff       	call   66d1a50 <mozilla::detail::MutexImpl::unlock()>
 67aa294:	e8 b7 77 f2 ff       	call   66d1a50 <mozilla::detail::MutexImpl::unlock()>
 67aa41e:	e8 2d 76 f2 ff       	call   66d1a50 <mozilla::detail::MutexImpl::unlock()>
 67aa6c6:	e8 85 73 f2 ff       	call   66d1a50 <mozilla::detail::MutexImpl::unlock()>
 67aa9b1:	e8 9a 70 f2 ff       	call   66d1a50 <mozilla::detail::MutexImpl::unlock()>
 67aac0c:	e8 3f 6e f2 ff       	call   66d1a50 <mozilla::detail::MutexImpl::unlock()>
 67aac80:	e8 cb 6d f2 ff       	call   66d1a50 <mozilla::detail::MutexImpl::unlock()>
 67aafa7:	e8 a4 6a f2 ff       	call   66d1a50 <mozilla::detail::MutexImpl::unlock()>
 67ab297:	e8 b4 67 f2 ff       	call   66d1a50 <mozilla::detail::MutexImpl::unlock()>
 67abeec:	e8 5f 5b f2 ff       	call   66d1a50 <mozilla::detail::MutexImpl::unlock()>
 67abf13:	e8 38 5b f2 ff       	call   66d1a50 <mozilla::detail::MutexImpl::unlock()>
 67ac468:	e8 e3 55 f2 ff       	call   66d1a50 <mozilla::detail::MutexImpl::unlock()>
 67ad205:	e8 46 48 f2 ff       	call   66d1a50 <mozilla::detail::MutexImpl::unlock()>
 67ad7d5:	e8 76 42 f2 ff       	call   66d1a50 <mozilla::detail::MutexImpl::unlock()>
 67ae0f7:	e8 54 39 f2 ff       	call   66d1a50 <mozilla::detail::MutexImpl::unlock()>
 67ae339:	e8 12 37 f2 ff       	call   66d1a50 <mozilla::detail::MutexImpl::unlock()>
 67af9b9:	e8 92 20 f2 ff       	call   66d1a50 <mozilla::detail::MutexImpl::unlock()>
 67aface:	e8 7d 1f f2 ff       	call   66d1a50 <mozilla::detail::MutexImpl::unlock()>
 67afb55:	e8 f6 1e f2 ff       	call   66d1a50 <mozilla::detail::MutexImpl::unlock()>
 67afd53:	e8 f8 1c f2 ff       	call   66d1a50 <mozilla::detail::MutexImpl::unlock()>
 67b00b3:	e8 98 19 f2 ff       	call   66d1a50 <mozilla::detail::MutexImpl::unlock()>
 67b01c0:	e8 8b 18 f2 ff       	call   66d1a50 <mozilla::detail::MutexImpl::unlock()>
 67b0250:	e8 fb 17 f2 ff       	call   66d1a50 <mozilla::detail::MutexImpl::unlock()>
 67b034a:	e8 01 17 f2 ff       	call   66d1a50 <mozilla::detail::MutexImpl::unlock()>
 67b06da:	e8 71 13 f2 ff       	call   66d1a50 <mozilla::detail::MutexImpl::unlock()>
 67b0bd2:	e8 79 0e f2 ff       	call   66d1a50 <mozilla::detail::MutexImpl::unlock()>
 67b96f9:	e8 52 83 f1 ff       	call   66d1a50 <mozilla::detail::MutexImpl::unlock()>
 67bc6f7:	e8 54 53 f1 ff       	call   66d1a50 <mozilla::detail::MutexImpl::unlock()>
 67bc72c:	e8 1f 53 f1 ff       	call   66d1a50 <mozilla::detail::MutexImpl::unlock()>
 67bc740:	e8 0b 53 f1 ff       	call   66d1a50 <mozilla::detail::MutexImpl::unlock()>
 67bc762:	e8 e9 52 f1 ff       	call   66d1a50 <mozilla::detail::MutexImpl::unlock()>
 67bc7b8:	e8 93 52 f1 ff       	call   66d1a50 <mozilla::detail::MutexImpl::unlock()>
 67bc7cf:	e8 7c 52 f1 ff       	call   66d1a50 <mozilla::detail::MutexImpl::unlock()>
 67bc7e6:	e8 65 52 f1 ff       	call   66d1a50 <mozilla::detail::MutexImpl::unlock()>
 67bc7fb:	e8 50 52 f1 ff       	call   66d1a50 <mozilla::detail::MutexImpl::unlock()>
 67bc80f:	e8 3c 52 f1 ff       	call   66d1a50 <mozilla::detail::MutexImpl::unlock()>
 67bc867:	e8 e4 51 f1 ff       	call   66d1a50 <mozilla::detail::MutexImpl::unlock()>
 67bc949:	e8 02 51 f1 ff       	call   66d1a50 <mozilla::detail::MutexImpl::unlock()>
 67bcab8:	e8 93 4f f1 ff       	call   66d1a50 <mozilla::detail::MutexImpl::unlock()>
 67bcb5d:	e8 ee 4e f1 ff       	call   66d1a50 <mozilla::detail::MutexImpl::unlock()>
 67bcbaf:	e8 9c 4e f1 ff       	call   66d1a50 <mozilla::detail::MutexImpl::unlock()>
 67bcbc7:	e8 84 4e f1 ff       	call   66d1a50 <mozilla::detail::MutexImpl::unlock()>
 67bcbfd:	e8 4e 4e f1 ff       	call   66d1a50 <mozilla::detail::MutexImpl::unlock()>
 67bcf53:	e8 f8 4a f1 ff       	call   66d1a50 <mozilla::detail::MutexImpl::unlock()>
 67bcf67:	e8 e4 4a f1 ff       	call   66d1a50 <mozilla::detail::MutexImpl::unlock()>
 67bcf8a:	e8 c1 4a f1 ff       	call   66d1a50 <mozilla::detail::MutexImpl::unlock()>
 67bd030:	e8 1b 4a f1 ff       	call   66d1a50 <mozilla::detail::MutexImpl::unlock()>
 67bd06b:	e8 e0 49 f1 ff       	call   66d1a50 <mozilla::detail::MutexImpl::unlock()>
 67bd07f:	e8 cc 49 f1 ff       	call   66d1a50 <mozilla::detail::MutexImpl::unlock()>
 67bd09f:	e8 ac 49 f1 ff       	call   66d1a50 <mozilla::detail::MutexImpl::unlock()>
 67bd16f:	e8 dc 48 f1 ff       	call   66d1a50 <mozilla::detail::MutexImpl::unlock()>
 67bd1b1:	e8 9a 48 f1 ff       	call   66d1a50 <mozilla::detail::MutexImpl::unlock()>
 67bdd9a:	e8 b1 3c f1 ff       	call   66d1a50 <mozilla::detail::MutexImpl::unlock()>
00000000067c5130 <js::AtomsTable::unlockAll()>:
 67c514b:	e8 00 c9 f0 ff       	call   66d1a50 <mozilla::detail::MutexImpl::unlock()>
 67c515a:	75 ec                	jne    67c5148 <js::AtomsTable::unlockAll()+0x18>
 67c5843:	e8 08 c2 f0 ff       	call   66d1a50 <mozilla::detail::MutexImpl::unlock()>
 67d2446:	e8 05 f6 ef ff       	call   66d1a50 <mozilla::detail::MutexImpl::unlock()>
 67d2f93:	e8 b8 ea ef ff       	call   66d1a50 <mozilla::detail::MutexImpl::unlock()>
 67d645f:	e8 ec b5 ef ff       	call   66d1a50 <mozilla::detail::MutexImpl::unlock()>
 67da14a:	e8 01 79 ef ff       	call   66d1a50 <mozilla::detail::MutexImpl::unlock()>
 67da692:	e8 b9 73 ef ff       	call   66d1a50 <mozilla::detail::MutexImpl::unlock()>
 67dbdcc:	e8 7f 5c ef ff       	call   66d1a50 <mozilla::detail::MutexImpl::unlock()>
 67dbe7c:	e8 cf 5b ef ff       	call   66d1a50 <mozilla::detail::MutexImpl::unlock()>
 67dffce:	e8 7d 1a ef ff       	call   66d1a50 <mozilla::detail::MutexImpl::unlock()>
 67e0c7a:	e8 d1 0d ef ff       	call   66d1a50 <mozilla::detail::MutexImpl::unlock()>
 67e278f:	e8 bc f2 ee ff       	call   66d1a50 <mozilla::detail::MutexImpl::unlock()>
 67e3a94:	e8 b7 df ee ff       	call   66d1a50 <mozilla::detail::MutexImpl::unlock()>
 67e574f:	e8 fc c2 ee ff       	call   66d1a50 <mozilla::detail::MutexImpl::unlock()>
 67e5b2d:	e8 1e bf ee ff       	call   66d1a50 <mozilla::detail::MutexImpl::unlock()>
 67f2612:	e8 39 f4 ed ff       	call   66d1a50 <mozilla::detail::MutexImpl::unlock()>
 67f2642:	e8 09 f4 ed ff       	call   66d1a50 <mozilla::detail::MutexImpl::unlock()>
 67f2b6d:	e8 de ee ed ff       	call   66d1a50 <mozilla::detail::MutexImpl::unlock()>
 67f2ce9:	e8 62 ed ed ff       	call   66d1a50 <mozilla::detail::MutexImpl::unlock()>
 67f2d69:	e8 e2 ec ed ff       	call   66d1a50 <mozilla::detail::MutexImpl::unlock()>
 67f2d8e:	e8 bd ec ed ff       	call   66d1a50 <mozilla::detail::MutexImpl::unlock()>
 67f2dd8:	e8 73 ec ed ff       	call   66d1a50 <mozilla::detail::MutexImpl::unlock()>
 67f2e7e:	e8 cd eb ed ff       	call   66d1a50 <mozilla::detail::MutexImpl::unlock()>
 67f2ea7:	e8 a4 eb ed ff       	call   66d1a50 <mozilla::detail::MutexImpl::unlock()>
 67f2f93:	e8 b8 ea ed ff       	call   66d1a50 <mozilla::detail::MutexImpl::unlock()>
 67f2fc2:	e8 89 ea ed ff       	call   66d1a50 <mozilla::detail::MutexImpl::unlock()>
 67f3006:	e8 45 ea ed ff       	call   66d1a50 <mozilla::detail::MutexImpl::unlock()>
 67f3044:	e8 07 ea ed ff       	call   66d1a50 <mozilla::detail::MutexImpl::unlock()>
 67f939b:	e8 b0 86 ed ff       	call   66d1a50 <mozilla::detail::MutexImpl::unlock()>
 67f9d7c:	e8 cf 7c ed ff       	call   66d1a50 <mozilla::detail::MutexImpl::unlock()>
 67fb1f5:	e8 56 68 ed ff       	call   66d1a50 <mozilla::detail::MutexImpl::unlock()>
 67fc13e:	e8 0d 59 ed ff       	call   66d1a50 <mozilla::detail::MutexImpl::unlock()>
 67fc86f:	e8 dc 51 ed ff       	call   66d1a50 <mozilla::detail::MutexImpl::unlock()>
 67fdd6a:	e8 e1 3c ed ff       	call   66d1a50 <mozilla::detail::MutexImpl::unlock()>
 67ff0e4:	e8 67 29 ed ff       	call   66d1a50 <mozilla::detail::MutexImpl::unlock()>
 67ff790:	e8 bb 22 ed ff       	call   66d1a50 <mozilla::detail::MutexImpl::unlock()>
 6800bd3:	e8 78 0e ed ff       	call   66d1a50 <mozilla::detail::MutexImpl::unlock()>
 6801247:	e8 04 08 ed ff       	call   66d1a50 <mozilla::detail::MutexImpl::unlock()>
 6802536:	e8 15 f5 ec ff       	call   66d1a50 <mozilla::detail::MutexImpl::unlock()>
 6803762:	e8 e9 e2 ec ff       	call   66d1a50 <mozilla::detail::MutexImpl::unlock()>
 6803797:	e8 b4 e2 ec ff       	call   66d1a50 <mozilla::detail::MutexImpl::unlock()>
 6803df7:	e8 54 dc ec ff       	call   66d1a50 <mozilla::detail::MutexImpl::unlock()>
 68050d6:	e8 75 c9 ec ff       	call   66d1a50 <mozilla::detail::MutexImpl::unlock()>
 68062f1:	e8 5a b7 ec ff       	call   66d1a50 <mozilla::detail::MutexImpl::unlock()>
 680631e:	e8 2d b7 ec ff       	call   66d1a50 <mozilla::detail::MutexImpl::unlock()>
 6857ad3:	e8 78 9f e7 ff       	call   66d1a50 <mozilla::detail::MutexImpl::unlock()>
 685db45:	e8 06 3f e7 ff       	call   66d1a50 <mozilla::detail::MutexImpl::unlock()>
 685e4e3:	e8 68 35 e7 ff       	call   66d1a50 <mozilla::detail::MutexImpl::unlock()>
 685ea4b:	e8 00 30 e7 ff       	call   66d1a50 <mozilla::detail::MutexImpl::unlock()>
 686f646:	e8 05 24 e6 ff       	call   66d1a50 <mozilla::detail::MutexImpl::unlock()>
 68713ae:	e8 9d 06 e6 ff       	call   66d1a50 <mozilla::detail::MutexImpl::unlock()>
 6876ad4:	e8 77 af e5 ff       	call   66d1a50 <mozilla::detail::MutexImpl::unlock()>
 6876f43:	e8 08 ab e5 ff       	call   66d1a50 <mozilla::detail::MutexImpl::unlock()>
 68773de:	e8 6d a6 e5 ff       	call   66d1a50 <mozilla::detail::MutexImpl::unlock()>
 6877854:	e8 f7 a1 e5 ff       	call   66d1a50 <mozilla::detail::MutexImpl::unlock()>
 6883a60:	e8 eb df e4 ff       	call   66d1a50 <mozilla::detail::MutexImpl::unlock()>
 6883ce6:	e8 65 dd e4 ff       	call   66d1a50 <mozilla::detail::MutexImpl::unlock()>
 6883d0b:	e8 40 dd e4 ff       	call   66d1a50 <mozilla::detail::MutexImpl::unlock()>
 6883dfb:	e8 50 dc e4 ff       	call   66d1a50 <mozilla::detail::MutexImpl::unlock()>
 6883f35:	e8 16 db e4 ff       	call   66d1a50 <mozilla::detail::MutexImpl::unlock()>
 6884018:	e8 33 da e4 ff       	call   66d1a50 <mozilla::detail::MutexImpl::unlock()>
 68864ba:	e8 91 b5 e4 ff       	call   66d1a50 <mozilla::detail::MutexImpl::unlock()>
 688655b:	e8 f0 b4 e4 ff       	call   66d1a50 <mozilla::detail::MutexImpl::unlock()>
 688662b:	e8 20 b4 e4 ff       	call   66d1a50 <mozilla::detail::MutexImpl::unlock()>
 68866ec:	e8 5f b3 e4 ff       	call   66d1a50 <mozilla::detail::MutexImpl::unlock()>
 6886759:	e8 f2 b2 e4 ff       	call   66d1a50 <mozilla::detail::MutexImpl::unlock()>
 6887638:	e8 13 a4 e4 ff       	call   66d1a50 <mozilla::detail::MutexImpl::unlock()>
 6887676:	e8 d5 a3 e4 ff       	call   66d1a50 <mozilla::detail::MutexImpl::unlock()>
 688769b:	e8 b0 a3 e4 ff       	call   66d1a50 <mozilla::detail::MutexImpl::unlock()>
 6887c19:	e8 32 9e e4 ff       	call   66d1a50 <mozilla::detail::MutexImpl::unlock()>
 6887c2c:	e8 1f 9e e4 ff       	call   66d1a50 <mozilla::detail::MutexImpl::unlock()>
 6887c40:	e8 0b 9e e4 ff       	call   66d1a50 <mozilla::detail::MutexImpl::unlock()>
 6887c50:	e8 fb 9d e4 ff       	call   66d1a50 <mozilla::detail::MutexImpl::unlock()>
 6887c60:	e8 eb 9d e4 ff       	call   66d1a50 <mozilla::detail::MutexImpl::unlock()>
 68a758b:	e8 c0 a4 e2 ff       	call   66d1a50 <mozilla::detail::MutexImpl::unlock()>
 68a7ba9:	e8 a2 9e e2 ff       	call   66d1a50 <mozilla::detail::MutexImpl::unlock()>
 68a7c1b:	e8 30 9e e2 ff       	call   66d1a50 <mozilla::detail::MutexImpl::unlock()>
 68a7d44:	e8 c7 95 e3 ff       	call   66e1310 <js::FutexThread::unlock()>
 68b4d99:	e8 b2 cc e1 ff       	call   66d1a50 <mozilla::detail::MutexImpl::unlock()>
 68b4e7a:	e8 d1 cb e1 ff       	call   66d1a50 <mozilla::detail::MutexImpl::unlock()>
 68c593e:	e8 0d c1 e0 ff       	call   66d1a50 <mozilla::detail::MutexImpl::unlock()>
 68c5951:	e8 fa c0 e0 ff       	call   66d1a50 <mozilla::detail::MutexImpl::unlock()>
 68c8e8d:	e8 be 8b e0 ff       	call   66d1a50 <mozilla::detail::MutexImpl::unlock()>
 68c8ed2:	e8 79 8b e0 ff       	call   66d1a50 <mozilla::detail::MutexImpl::unlock()>
 68c8f22:	e8 29 8b e0 ff       	call   66d1a50 <mozilla::detail::MutexImpl::unlock()>
 68c8fe0:	e8 6b 8a e0 ff       	call   66d1a50 <mozilla::detail::MutexImpl::unlock()>
 68df017:	e8 34 2a df ff       	call   66d1a50 <mozilla::detail::MutexImpl::unlock()>
 68df0b7:	e8 94 29 df ff       	call   66d1a50 <mozilla::detail::MutexImpl::unlock()>
 68df12c:	e8 1f 29 df ff       	call   66d1a50 <mozilla::detail::MutexImpl::unlock()>
 68df186:	e8 c5 28 df ff       	call   66d1a50 <mozilla::detail::MutexImpl::unlock()>
 68df1d2:	e8 79 28 df ff       	call   66d1a50 <mozilla::detail::MutexImpl::unlock()>
 68e5168:	e8 e3 c8 de ff       	call   66d1a50 <mozilla::detail::MutexImpl::unlock()>
 68e525e:	e8 ed c7 de ff       	call   66d1a50 <mozilla::detail::MutexImpl::unlock()>
 68e5325:	e8 26 c7 de ff       	call   66d1a50 <mozilla::detail::MutexImpl::unlock()>
 68e5644:	e8 07 c4 de ff       	call   66d1a50 <mozilla::detail::MutexImpl::unlock()>
 68e5b68:	e8 e3 be de ff       	call   66d1a50 <mozilla::detail::MutexImpl::unlock()>
 68e5c5e:	e8 ed bd de ff       	call   66d1a50 <mozilla::detail::MutexImpl::unlock()>
 68e5d15:	e8 36 bd de ff       	call   66d1a50 <mozilla::detail::MutexImpl::unlock()>
 68e606a:	e8 e1 b9 de ff       	call   66d1a50 <mozilla::detail::MutexImpl::unlock()>
 68e7cff:	e8 4c 9d de ff       	call   66d1a50 <mozilla::detail::MutexImpl::unlock()>
 68e7d8c:	e8 bf 9c de ff       	call   66d1a50 <mozilla::detail::MutexImpl::unlock()>
 68e7dbf:	e8 8c 9c de ff       	call   66d1a50 <mozilla::detail::MutexImpl::unlock()>
 68e7e39:	e8 12 9c de ff       	call   66d1a50 <mozilla::detail::MutexImpl::unlock()>
 699fd23:	e8 28 1d d3 ff       	call   66d1a50 <mozilla::detail::MutexImpl::unlock()>
 699fec3:	e8 88 1b d3 ff       	call   66d1a50 <mozilla::detail::MutexImpl::unlock()>
 69a9749:	e8 02 83 d2 ff       	call   66d1a50 <mozilla::detail::MutexImpl::unlock()>
 69ae05e:	e8 ed 39 d2 ff       	call   66d1a50 <mozilla::detail::MutexImpl::unlock()>
 69ae0f5:	e8 56 39 d2 ff       	call   66d1a50 <mozilla::detail::MutexImpl::unlock()>
 69ae1d1:	e8 7a 38 d2 ff       	call   66d1a50 <mozilla::detail::MutexImpl::unlock()>
 69c2a05:	e8 46 f0 d0 ff       	call   66d1a50 <mozilla::detail::MutexImpl::unlock()>
 69cbbbc:	e8 8f 5e d0 ff       	call   66d1a50 <mozilla::detail::MutexImpl::unlock()>
 69cbbcf:	e8 7c 5e d0 ff       	call   66d1a50 <mozilla::detail::MutexImpl::unlock()>
 69cbbe2:	e8 69 5e d0 ff       	call   66d1a50 <mozilla::detail::MutexImpl::unlock()>
 69cbbf6:	e8 55 5e d0 ff       	call   66d1a50 <mozilla::detail::MutexImpl::unlock()>
 69cca62:	e8 e9 4f d0 ff       	call   66d1a50 <mozilla::detail::MutexImpl::unlock()>
 6bac0e3:	e8 68 59 b2 ff       	call   66d1a50 <mozilla::detail::MutexImpl::unlock()>
 6bac203:	e8 48 58 b2 ff       	call   66d1a50 <mozilla::detail::MutexImpl::unlock()>
 6bc3df3:	e8 58 dc b0 ff       	call   66d1a50 <mozilla::detail::MutexImpl::unlock()>
 6bc4143:	e8 08 d9 b0 ff       	call   66d1a50 <mozilla::detail::MutexImpl::unlock()>
 6bc54de:	e8 6d c5 b0 ff       	call   66d1a50 <mozilla::detail::MutexImpl::unlock()>
 6bc54f1:	e8 5a c5 b0 ff       	call   66d1a50 <mozilla::detail::MutexImpl::unlock()>
 6bc673d:	e8 0e b3 b0 ff       	call   66d1a50 <mozilla::detail::MutexImpl::unlock()>
 6bcdcb9:	e8 92 3d b0 ff       	call   66d1a50 <mozilla::detail::MutexImpl::unlock()>
 6bce06e:	e8 dd 39 b0 ff       	call   66d1a50 <mozilla::detail::MutexImpl::unlock()>
 6bce123:	e8 28 39 b0 ff       	call   66d1a50 <mozilla::detail::MutexImpl::unlock()>
 6bce4c1:	e8 8a 35 b0 ff       	call   66d1a50 <mozilla::detail::MutexImpl::unlock()>
 6bd4513:	e8 38 d5 af ff       	call   66d1a50 <mozilla::detail::MutexImpl::unlock()>
 6c23a1b:	e8 30 e0 aa ff       	call   66d1a50 <mozilla::detail::MutexImpl::unlock()>
 6c23bc1:	e8 8a de aa ff       	call   66d1a50 <mozilla::detail::MutexImpl::unlock()>
 6c23c31:	e8 1a de aa ff       	call   66d1a50 <mozilla::detail::MutexImpl::unlock()>
 6c51e39:	e8 12 fc a7 ff       	call   66d1a50 <mozilla::detail::MutexImpl::unlock()>
 6c547fb:	e8 50 d2 a7 ff       	call   66d1a50 <mozilla::detail::MutexImpl::unlock()>
 6c5499c:	e8 af d0 a7 ff       	call   66d1a50 <mozilla::detail::MutexImpl::unlock()>
 6c549f9:	e8 52 d0 a7 ff       	call   66d1a50 <mozilla::detail::MutexImpl::unlock()>
 6c56a84:	e8 c7 af a7 ff       	call   66d1a50 <mozilla::detail::MutexImpl::unlock()>
 6c57328:	e8 23 a7 a7 ff       	call   66d1a50 <mozilla::detail::MutexImpl::unlock()>
 6c573d8:	e8 73 a6 a7 ff       	call   66d1a50 <mozilla::detail::MutexImpl::unlock()>
 6c57513:	e8 38 a5 a7 ff       	call   66d1a50 <mozilla::detail::MutexImpl::unlock()>
 6c58128:	e8 23 99 a7 ff       	call   66d1a50 <mozilla::detail::MutexImpl::unlock()>
 6c58415:	e8 36 96 a7 ff       	call   66d1a50 <mozilla::detail::MutexImpl::unlock()>
 6c58994:	e8 b7 90 a7 ff       	call   66d1a50 <mozilla::detail::MutexImpl::unlock()>
 6c589e4:	e8 67 90 a7 ff       	call   66d1a50 <mozilla::detail::MutexImpl::unlock()>
 6c597a7:	e8 a4 82 a7 ff       	call   66d1a50 <mozilla::detail::MutexImpl::unlock()>
 6c59845:	e8 06 82 a7 ff       	call   66d1a50 <mozilla::detail::MutexImpl::unlock()>
 6c598ac:	e8 9f 81 a7 ff       	call   66d1a50 <mozilla::detail::MutexImpl::unlock()>
 6c5b186:	e8 c5 68 a7 ff       	call   66d1a50 <mozilla::detail::MutexImpl::unlock()>
 6c5b4af:	e8 9c 65 a7 ff       	call   66d1a50 <mozilla::detail::MutexImpl::unlock()>
 6c5b4ed:	e8 5e 65 a7 ff       	call   66d1a50 <mozilla::detail::MutexImpl::unlock()>
 6c5b538:	e8 13 65 a7 ff       	call   66d1a50 <mozilla::detail::MutexImpl::unlock()>
 6c5bd20:	e8 2b 5d a7 ff       	call   66d1a50 <mozilla::detail::MutexImpl::unlock()>
 6c5c7eb:	e8 60 52 a7 ff       	call   66d1a50 <mozilla::detail::MutexImpl::unlock()>
 6c5c825:	e8 26 52 a7 ff       	call   66d1a50 <mozilla::detail::MutexImpl::unlock()>
 6c5c868:	e8 e3 51 a7 ff       	call   66d1a50 <mozilla::detail::MutexImpl::unlock()>
 6c5d715:	e8 36 43 a7 ff       	call   66d1a50 <mozilla::detail::MutexImpl::unlock()>
 6c5d94c:	e8 ff 40 a7 ff       	call   66d1a50 <mozilla::detail::MutexImpl::unlock()>
 6c5da7d:	e8 ce 3f a7 ff       	call   66d1a50 <mozilla::detail::MutexImpl::unlock()>
 6c5db2c:	e8 1f 3f a7 ff       	call   66d1a50 <mozilla::detail::MutexImpl::unlock()>
 6c5dba1:	e8 aa 3e a7 ff       	call   66d1a50 <mozilla::detail::MutexImpl::unlock()>
 6c5dcc5:	e8 86 3d a7 ff       	call   66d1a50 <mozilla::detail::MutexImpl::unlock()>
 6c5dfa4:	e8 a7 3a a7 ff       	call   66d1a50 <mozilla::detail::MutexImpl::unlock()>
 6c5e011:	e8 3a 3a a7 ff       	call   66d1a50 <mozilla::detail::MutexImpl::unlock()>
 6c5e2e4:	e8 67 37 a7 ff       	call   66d1a50 <mozilla::detail::MutexImpl::unlock()>
 6c5e9cc:	e8 7f 30 a7 ff       	call   66d1a50 <mozilla::detail::MutexImpl::unlock()>
 6c5ea97:	e8 b4 2f a7 ff       	call   66d1a50 <mozilla::detail::MutexImpl::unlock()>
 6c5eb44:	e8 07 2f a7 ff       	call   66d1a50 <mozilla::detail::MutexImpl::unlock()>
 6c5ef98:	e8 b3 2a a7 ff       	call   66d1a50 <mozilla::detail::MutexImpl::unlock()>
 6c5efab:	e8 a0 2a a7 ff       	call   66d1a50 <mozilla::detail::MutexImpl::unlock()>
 6c5fa47:	e8 04 20 a7 ff       	call   66d1a50 <mozilla::detail::MutexImpl::unlock()>
 6c5ff11:	e8 3a 1b a7 ff       	call   66d1a50 <mozilla::detail::MutexImpl::unlock()>
 6c5ff81:	e8 ca 1a a7 ff       	call   66d1a50 <mozilla::detail::MutexImpl::unlock()>
 6c60001:	e8 4a 1a a7 ff       	call   66d1a50 <mozilla::detail::MutexImpl::unlock()>
 6c60084:	e8 c7 19 a7 ff       	call   66d1a50 <mozilla::detail::MutexImpl::unlock()>
 6c607a0:	e8 ab 12 a7 ff       	call   66d1a50 <mozilla::detail::MutexImpl::unlock()>
 6c60d99:	e8 b2 0c a7 ff       	call   66d1a50 <mozilla::detail::MutexImpl::unlock()>
 6c60dc9:	e8 82 0c a7 ff       	call   66d1a50 <mozilla::detail::MutexImpl::unlock()>
 6c60e57:	e8 f4 0b a7 ff       	call   66d1a50 <mozilla::detail::MutexImpl::unlock()>
 6c60ec1:	e8 8a 0b a7 ff       	call   66d1a50 <mozilla::detail::MutexImpl::unlock()>
 6c6100b:	e8 40 0a a7 ff       	call   66d1a50 <mozilla::detail::MutexImpl::unlock()>
 6c61259:	e8 f2 07 a7 ff       	call   66d1a50 <mozilla::detail::MutexImpl::unlock()>
 6c6127e:	e8 cd 07 a7 ff       	call   66d1a50 <mozilla::detail::MutexImpl::unlock()>
 6c612c7:	e8 84 07 a7 ff       	call   66d1a50 <mozilla::detail::MutexImpl::unlock()>
 6c619e5:	e8 66 00 a7 ff       	call   66d1a50 <mozilla::detail::MutexImpl::unlock()>
 6c61a15:	e8 36 00 a7 ff       	call   66d1a50 <mozilla::detail::MutexImpl::unlock()>
 6c61ab1:	e8 9a ff a6 ff       	call   66d1a50 <mozilla::detail::MutexImpl::unlock()>
 6c61ad6:	e8 75 ff a6 ff       	call   66d1a50 <mozilla::detail::MutexImpl::unlock()>
 6c61b91:	e8 ba fe a6 ff       	call   66d1a50 <mozilla::detail::MutexImpl::unlock()>
 6c61beb:	e8 60 fe a6 ff       	call   66d1a50 <mozilla::detail::MutexImpl::unlock()>
 6c61d3b:	e8 10 fd a6 ff       	call   66d1a50 <mozilla::detail::MutexImpl::unlock()>
 6c61dd6:	e8 75 fc a6 ff       	call   66d1a50 <mozilla::detail::MutexImpl::unlock()>
 6c61f4e:	e8 fd fa a6 ff       	call   66d1a50 <mozilla::detail::MutexImpl::unlock()>
 6c61f7c:	e8 cf fa a6 ff       	call   66d1a50 <mozilla::detail::MutexImpl::unlock()>
 6c6202b:	e8 20 fa a6 ff       	call   66d1a50 <mozilla::detail::MutexImpl::unlock()>
 6c6206f:	e8 dc f9 a6 ff       	call   66d1a50 <mozilla::detail::MutexImpl::unlock()>
 6c6219d:	e8 ae f8 a6 ff       	call   66d1a50 <mozilla::detail::MutexImpl::unlock()>
 6c622c5:	e8 86 f7 a6 ff       	call   66d1a50 <mozilla::detail::MutexImpl::unlock()>
 6c62edb:	e8 70 eb a6 ff       	call   66d1a50 <mozilla::detail::MutexImpl::unlock()>
 6c6332c:	e8 1f e7 a6 ff       	call   66d1a50 <mozilla::detail::MutexImpl::unlock()>
 6c664c7:	e8 84 b5 a6 ff       	call   66d1a50 <mozilla::detail::MutexImpl::unlock()>
 6c665ac:	e8 9f b4 a6 ff       	call   66d1a50 <mozilla::detail::MutexImpl::unlock()>
 6c67651:	e8 fa a3 a6 ff       	call   66d1a50 <mozilla::detail::MutexImpl::unlock()>
 6c677d7:	e8 74 a2 a6 ff       	call   66d1a50 <mozilla::detail::MutexImpl::unlock()>
 6c67b2a:	e8 21 9f a6 ff       	call   66d1a50 <mozilla::detail::MutexImpl::unlock()>
 6c67c05:	e8 46 9e a6 ff       	call   66d1a50 <mozilla::detail::MutexImpl::unlock()>
 6c680ff:	e8 4c 99 a6 ff       	call   66d1a50 <mozilla::detail::MutexImpl::unlock()>
 6c6836b:	e8 e0 96 a6 ff       	call   66d1a50 <mozilla::detail::MutexImpl::unlock()>
 6c6837c:	e8 cf 96 a6 ff       	call   66d1a50 <mozilla::detail::MutexImpl::unlock()>
 6c68411:	e8 3a 96 a6 ff       	call   66d1a50 <mozilla::detail::MutexImpl::unlock()>
 6c68c71:	e8 da 8d a6 ff       	call   66d1a50 <mozilla::detail::MutexImpl::unlock()>
 6c6c293:	e8 b8 57 a6 ff       	call   66d1a50 <mozilla::detail::MutexImpl::unlock()>
 6c6c2a4:	e8 a7 57 a6 ff       	call   66d1a50 <mozilla::detail::MutexImpl::unlock()>
 6c6c354:	e8 f7 56 a6 ff       	call   66d1a50 <mozilla::detail::MutexImpl::unlock()>
 6c6f38b:	e8 c0 26 a6 ff       	call   66d1a50 <mozilla::detail::MutexImpl::unlock()>
 6c6f3b5:	e8 96 26 a6 ff       	call   66d1a50 <mozilla::detail::MutexImpl::unlock()>
 6c6f5fc:	e8 4f 24 a6 ff       	call   66d1a50 <mozilla::detail::MutexImpl::unlock()>
 6c700a9:	e8 a2 19 a6 ff       	call   66d1a50 <mozilla::detail::MutexImpl::unlock()>
 6c7016b:	e8 e0 18 a6 ff       	call   66d1a50 <mozilla::detail::MutexImpl::unlock()>
 6c734aa:	e8 a1 e5 a5 ff       	call   66d1a50 <mozilla::detail::MutexImpl::unlock()>
 6c734d8:	e8 73 e5 a5 ff       	call   66d1a50 <mozilla::detail::MutexImpl::unlock()>
 6c7609c:	e8 af b9 a5 ff       	call   66d1a50 <mozilla::detail::MutexImpl::unlock()>
 6c7632f:	e8 1c b7 a5 ff       	call   66d1a50 <mozilla::detail::MutexImpl::unlock()>
 6c7676b:	e8 e0 b2 a5 ff       	call   66d1a50 <mozilla::detail::MutexImpl::unlock()>
 6c77526:	e8 25 a5 a5 ff       	call   66d1a50 <mozilla::detail::MutexImpl::unlock()>
 6c77586:	e8 c5 a4 a5 ff       	call   66d1a50 <mozilla::detail::MutexImpl::unlock()>
 6c775f1:	e8 5a a4 a5 ff       	call   66d1a50 <mozilla::detail::MutexImpl::unlock()>
 6c777bd:	e8 8e a2 a5 ff       	call   66d1a50 <mozilla::detail::MutexImpl::unlock()>
 6c7788d:	e8 be a1 a5 ff       	call   66d1a50 <mozilla::detail::MutexImpl::unlock()>
 6c778b4:	e8 97 a1 a5 ff       	call   66d1a50 <mozilla::detail::MutexImpl::unlock()>
 6c77912:	e8 39 a1 a5 ff       	call   66d1a50 <mozilla::detail::MutexImpl::unlock()>
 6c77926:	e8 25 a1 a5 ff       	call   66d1a50 <mozilla::detail::MutexImpl::unlock()>
 6c77c72:	e8 d9 9d a5 ff       	call   66d1a50 <mozilla::detail::MutexImpl::unlock()>
 6c77c8b:	e8 c0 9d a5 ff       	call   66d1a50 <mozilla::detail::MutexImpl::unlock()>
 6c77cc7:	e8 84 9d a5 ff       	call   66d1a50 <mozilla::detail::MutexImpl::unlock()>
 6c77cdb:	e8 70 9d a5 ff       	call   66d1a50 <mozilla::detail::MutexImpl::unlock()>
 6c77cef:	e8 5c 9d a5 ff       	call   66d1a50 <mozilla::detail::MutexImpl::unlock()>
 6c77d27:	e8 24 9d a5 ff       	call   66d1a50 <mozilla::detail::MutexImpl::unlock()>
 6c77d41:	e8 0a 9d a5 ff       	call   66d1a50 <mozilla::detail::MutexImpl::unlock()>
 6c77d7f:	e8 cc 9c a5 ff       	call   66d1a50 <mozilla::detail::MutexImpl::unlock()>
 6c77dac:	e8 9f 9c a5 ff       	call   66d1a50 <mozilla::detail::MutexImpl::unlock()>
 6c77dde:	e8 6d 9c a5 ff       	call   66d1a50 <mozilla::detail::MutexImpl::unlock()>
 6c77e95:	e8 b6 9b a5 ff       	call   66d1a50 <mozilla::detail::MutexImpl::unlock()>
 6c77ea9:	e8 a2 9b a5 ff       	call   66d1a50 <mozilla::detail::MutexImpl::unlock()>
 6c77ebd:	e8 8e 9b a5 ff       	call   66d1a50 <mozilla::detail::MutexImpl::unlock()>
 6c77ed1:	e8 7a 9b a5 ff       	call   66d1a50 <mozilla::detail::MutexImpl::unlock()>
 6c77f31:	e8 1a 9b a5 ff       	call   66d1a50 <mozilla::detail::MutexImpl::unlock()>
 6c77f7b:	e8 d0 9a a5 ff       	call   66d1a50 <mozilla::detail::MutexImpl::unlock()>
 6c77f8f:	e8 bc 9a a5 ff       	call   66d1a50 <mozilla::detail::MutexImpl::unlock()>
 6c77fb7:	e8 94 9a a5 ff       	call   66d1a50 <mozilla::detail::MutexImpl::unlock()>
 6c77ff9:	e8 52 9a a5 ff       	call   66d1a50 <mozilla::detail::MutexImpl::unlock()>
 6c7803c:	e8 0f 9a a5 ff       	call   66d1a50 <mozilla::detail::MutexImpl::unlock()>
 6c78050:	e8 fb 99 a5 ff       	call   66d1a50 <mozilla::detail::MutexImpl::unlock()>
 6c780c3:	e8 88 99 a5 ff       	call   66d1a50 <mozilla::detail::MutexImpl::unlock()>
 6c780d7:	e8 74 99 a5 ff       	call   66d1a50 <mozilla::detail::MutexImpl::unlock()>
 6c780eb:	e8 60 99 a5 ff       	call   66d1a50 <mozilla::detail::MutexImpl::unlock()>
 6c78107:	e8 44 99 a5 ff       	call   66d1a50 <mozilla::detail::MutexImpl::unlock()>
 6c7811b:	e8 30 99 a5 ff       	call   66d1a50 <mozilla::detail::MutexImpl::unlock()>
 6c78154:	e8 f7 98 a5 ff       	call   66d1a50 <mozilla::detail::MutexImpl::unlock()>
 6c7818f:	e8 bc 98 a5 ff       	call   66d1a50 <mozilla::detail::MutexImpl::unlock()>
 6c781c1:	e8 8a 98 a5 ff       	call   66d1a50 <mozilla::detail::MutexImpl::unlock()>
 6c782fd:	e8 4e 97 a5 ff       	call   66d1a50 <mozilla::detail::MutexImpl::unlock()>
 6c785a9:	e8 a2 94 a5 ff       	call   66d1a50 <mozilla::detail::MutexImpl::unlock()>
 6c78675:	e8 d6 93 a5 ff       	call   66d1a50 <mozilla::detail::MutexImpl::unlock()>
 6c787cf:	e8 7c 92 a5 ff       	call   66d1a50 <mozilla::detail::MutexImpl::unlock()>
 6c78b72:	e8 d9 8e a5 ff       	call   66d1a50 <mozilla::detail::MutexImpl::unlock()>
 6c78cd7:	e8 74 8d a5 ff       	call   66d1a50 <mozilla::detail::MutexImpl::unlock()>
 6c78d09:	e8 42 8d a5 ff       	call   66d1a50 <mozilla::detail::MutexImpl::unlock()>
 6c78d56:	e8 f5 8c a5 ff       	call   66d1a50 <mozilla::detail::MutexImpl::unlock()>
 6c79576:	e8 d5 84 a5 ff       	call   66d1a50 <mozilla::detail::MutexImpl::unlock()>
 6c7a42a:	e8 21 76 a5 ff       	call   66d1a50 <mozilla::detail::MutexImpl::unlock()>
 6c7a458:	e8 f3 75 a5 ff       	call   66d1a50 <mozilla::detail::MutexImpl::unlock()>
 6c7afef:	e8 5c 6a a5 ff       	call   66d1a50 <mozilla::detail::MutexImpl::unlock()>
 6c7b075:	e8 d6 69 a5 ff       	call   66d1a50 <mozilla::detail::MutexImpl::unlock()>
 6c7b0c5:	e8 86 69 a5 ff       	call   66d1a50 <mozilla::detail::MutexImpl::unlock()>
 6c7b13f:	e8 0c 69 a5 ff       	call   66d1a50 <mozilla::detail::MutexImpl::unlock()>
 6c7b197:	e8 b4 68 a5 ff       	call   66d1a50 <mozilla::detail::MutexImpl::unlock()>
 6c7b1fb:	e8 50 68 a5 ff       	call   66d1a50 <mozilla::detail::MutexImpl::unlock()>
 6c7b22c:	e8 1f 68 a5 ff       	call   66d1a50 <mozilla::detail::MutexImpl::unlock()>
 6c7b4e4:	e8 67 65 a5 ff       	call   66d1a50 <mozilla::detail::MutexImpl::unlock()>
 6c7b505:	e8 46 65 a5 ff       	call   66d1a50 <mozilla::detail::MutexImpl::unlock()>
 6c8bf89:	e8 c2 5a a4 ff       	call   66d1a50 <mozilla::detail::MutexImpl::unlock()>
 6c8bfd3:	e8 78 5a a4 ff       	call   66d1a50 <mozilla::detail::MutexImpl::unlock()>
 6c8bff4:	e8 57 5a a4 ff       	call   66d1a50 <mozilla::detail::MutexImpl::unlock()>
 6c8e43f:	e8 0c 36 a4 ff       	call   66d1a50 <mozilla::detail::MutexImpl::unlock()>
 6c909ad:	e8 9e 10 a4 ff       	call   66d1a50 <mozilla::detail::MutexImpl::unlock()>
 6c909e7:	e8 64 10 a4 ff       	call   66d1a50 <mozilla::detail::MutexImpl::unlock()>
 6c909fc:	e8 4f 10 a4 ff       	call   66d1a50 <mozilla::detail::MutexImpl::unlock()>
 6c90a14:	e8 37 10 a4 ff       	call   66d1a50 <mozilla::detail::MutexImpl::unlock()>
 6c911c3:	e8 88 08 a4 ff       	call   66d1a50 <mozilla::detail::MutexImpl::unlock()>
 6c912d8:	e8 73 07 a4 ff       	call   66d1a50 <mozilla::detail::MutexImpl::unlock()>
 6c9172d:	e8 1e 03 a4 ff       	call   66d1a50 <mozilla::detail::MutexImpl::unlock()>
 6c91753:	e8 f8 02 a4 ff       	call   66d1a50 <mozilla::detail::MutexImpl::unlock()>
 6c91764:	e8 e7 02 a4 ff       	call   66d1a50 <mozilla::detail::MutexImpl::unlock()>
 6c9177c:	e8 cf 02 a4 ff       	call   66d1a50 <mozilla::detail::MutexImpl::unlock()>
 6c91916:	e8 35 01 a4 ff       	call   66d1a50 <mozilla::detail::MutexImpl::unlock()>
 6c9cac4:	e8 87 4f a3 ff       	call   66d1a50 <mozilla::detail::MutexImpl::unlock()>
 6c9ce17:	e8 34 4c a3 ff       	call   66d1a50 <mozilla::detail::MutexImpl::unlock()>
 6c9ce69:	e8 e2 4b a3 ff       	call   66d1a50 <mozilla::detail::MutexImpl::unlock()>
 6c9ce83:	e8 c8 4b a3 ff       	call   66d1a50 <mozilla::detail::MutexImpl::unlock()>
 6c9ceaf:	e8 9c 4b a3 ff       	call   66d1a50 <mozilla::detail::MutexImpl::unlock()>
 6cb9534:	e8 17 85 a1 ff       	call   66d1a50 <mozilla::detail::MutexImpl::unlock()>
 6cb9d81:	e8 ca 7c a1 ff       	call   66d1a50 <mozilla::detail::MutexImpl::unlock()>
 6cba16d:	e8 de 78 a1 ff       	call   66d1a50 <mozilla::detail::MutexImpl::unlock()>
 6cc635a:	e8 f1 b6 a0 ff       	call   66d1a50 <mozilla::detail::MutexImpl::unlock()>
 6cc70f6:	e8 55 a9 a0 ff       	call   66d1a50 <mozilla::detail::MutexImpl::unlock()>
 6cdc4a8:	e8 a3 55 9f ff       	call   66d1a50 <mozilla::detail::MutexImpl::unlock()>
 6ce15f1:	e8 5a 04 9f ff       	call   66d1a50 <mozilla::detail::MutexImpl::unlock()>
 6ce1963:	e8 e8 00 9f ff       	call   66d1a50 <mozilla::detail::MutexImpl::unlock()>
 6cef1de:	e8 6d 28 9e ff       	call   66d1a50 <mozilla::detail::MutexImpl::unlock()>
 6d09106:	e8 45 89 9c ff       	call   66d1a50 <mozilla::detail::MutexImpl::unlock()>
 6d0967f:	e8 cc 83 9c ff       	call   66d1a50 <mozilla::detail::MutexImpl::unlock()>
 6d09a15:	e8 36 80 9c ff       	call   66d1a50 <mozilla::detail::MutexImpl::unlock()>
 6d0adaa:	e8 a1 6c 9c ff       	call   66d1a50 <mozilla::detail::MutexImpl::unlock()>
 6d3565b:	e8 f0 c3 99 ff       	call   66d1a50 <mozilla::detail::MutexImpl::unlock()>
 6d3566b:	e8 e0 c3 99 ff       	call   66d1a50 <mozilla::detail::MutexImpl::unlock()>
 6d35818:	e8 33 c2 99 ff       	call   66d1a50 <mozilla::detail::MutexImpl::unlock()>
 6d358a6:	e8 a5 c1 99 ff       	call   66d1a50 <mozilla::detail::MutexImpl::unlock()>
 6d35979:	e8 d2 c0 99 ff       	call   66d1a50 <mozilla::detail::MutexImpl::unlock()>
 6d35a1b:	e8 30 c0 99 ff       	call   66d1a50 <mozilla::detail::MutexImpl::unlock()>
 6d35b09:	e8 42 bf 99 ff       	call   66d1a50 <mozilla::detail::MutexImpl::unlock()>
 6d35bb7:	e8 94 be 99 ff       	call   66d1a50 <mozilla::detail::MutexImpl::unlock()>
 6d35bcb:	e8 80 be 99 ff       	call   66d1a50 <mozilla::detail::MutexImpl::unlock()>
 6d3627f:	e8 cc b7 99 ff       	call   66d1a50 <mozilla::detail::MutexImpl::unlock()>
 6d362b7:	e8 94 b7 99 ff       	call   66d1a50 <mozilla::detail::MutexImpl::unlock()>
 6d362f6:	e8 55 b7 99 ff       	call   66d1a50 <mozilla::detail::MutexImpl::unlock()>
 6d3633c:	e8 0f b7 99 ff       	call   66d1a50 <mozilla::detail::MutexImpl::unlock()>
 6d3e8eb:	e8 60 31 99 ff       	call   66d1a50 <mozilla::detail::MutexImpl::unlock()>
 6d3e964:	e8 e7 30 99 ff       	call   66d1a50 <mozilla::detail::MutexImpl::unlock()>
 6d449d9:	e8 72 d0 98 ff       	call   66d1a50 <mozilla::detail::MutexImpl::unlock()>
 6d49e3b:	e8 10 7c 98 ff       	call   66d1a50 <mozilla::detail::MutexImpl::unlock()>
 6d49e47:	e8 04 7c 98 ff       	call   66d1a50 <mozilla::detail::MutexImpl::unlock()>
 6d49e90:	e8 bb 7b 98 ff       	call   66d1a50 <mozilla::detail::MutexImpl::unlock()>
 6d49e9c:	e8 af 7b 98 ff       	call   66d1a50 <mozilla::detail::MutexImpl::unlock()>
 6d4ca19:	e8 32 50 98 ff       	call   66d1a50 <mozilla::detail::MutexImpl::unlock()>
 6d4ca4f:	e8 fc 4f 98 ff       	call   66d1a50 <mozilla::detail::MutexImpl::unlock()>
 6d65e29:	e8 22 bc 96 ff       	call   66d1a50 <mozilla::detail::MutexImpl::unlock()>
 6d664b9:	e8 92 b5 96 ff       	call   66d1a50 <mozilla::detail::MutexImpl::unlock()>
 6d664c1:	e8 8a b5 96 ff       	call   66d1a50 <mozilla::detail::MutexImpl::unlock()>
 6d66957:	e8 f4 b0 96 ff       	call   66d1a50 <mozilla::detail::MutexImpl::unlock()>
 6d6695f:	e8 ec b0 96 ff       	call   66d1a50 <mozilla::detail::MutexImpl::unlock()>
 6d6f58d:	e8 be 24 96 ff       	call   66d1a50 <mozilla::detail::MutexImpl::unlock()>
 6d70261:	e8 ea 17 96 ff       	call   66d1a50 <mozilla::detail::MutexImpl::unlock()>
 6d750f3:	e8 58 c9 95 ff       	call   66d1a50 <mozilla::detail::MutexImpl::unlock()>
 6d75458:	e8 f3 c5 95 ff       	call   66d1a50 <mozilla::detail::MutexImpl::unlock()>
 6d7c249:	e8 02 58 95 ff       	call   66d1a50 <mozilla::detail::MutexImpl::unlock()>
 6d7c65b:	e8 f0 53 95 ff       	call   66d1a50 <mozilla::detail::MutexImpl::unlock()>
 6d7c667:	e8 e4 53 95 ff       	call   66d1a50 <mozilla::detail::MutexImpl::unlock()>
 6d7c912:	e8 39 51 95 ff       	call   66d1a50 <mozilla::detail::MutexImpl::unlock()>
 6d7e6d8:	e8 73 33 95 ff       	call   66d1a50 <mozilla::detail::MutexImpl::unlock()>
 6d7e6e0:	e8 6b 33 95 ff       	call   66d1a50 <mozilla::detail::MutexImpl::unlock()>
 6d7eff0:	e8 5b 2a 95 ff       	call   66d1a50 <mozilla::detail::MutexImpl::unlock()>
 6d803b4:	e8 97 16 95 ff       	call   66d1a50 <mozilla::detail::MutexImpl::unlock()>
 6d803e4:	e8 67 16 95 ff       	call   66d1a50 <mozilla::detail::MutexImpl::unlock()>
 6d80456:	e8 f5 15 95 ff       	call   66d1a50 <mozilla::detail::MutexImpl::unlock()>
 6d80472:	e8 d9 15 95 ff       	call   66d1a50 <mozilla::detail::MutexImpl::unlock()>
 6d80492:	e8 b9 15 95 ff       	call   66d1a50 <mozilla::detail::MutexImpl::unlock()>
 6d804b0:	e8 9b 15 95 ff       	call   66d1a50 <mozilla::detail::MutexImpl::unlock()>
 6d804c3:	e8 88 15 95 ff       	call   66d1a50 <mozilla::detail::MutexImpl::unlock()>
 6d804e8:	e8 63 15 95 ff       	call   66d1a50 <mozilla::detail::MutexImpl::unlock()>
 6d80525:	e8 26 15 95 ff       	call   66d1a50 <mozilla::detail::MutexImpl::unlock()>
 6d80558:	e8 f3 14 95 ff       	call   66d1a50 <mozilla::detail::MutexImpl::unlock()>
 6d805ce:	e8 7d 14 95 ff       	call   66d1a50 <mozilla::detail::MutexImpl::unlock()>
 6d805eb:	e8 60 14 95 ff       	call   66d1a50 <mozilla::detail::MutexImpl::unlock()>
 6d8060e:	e8 3d 14 95 ff       	call   66d1a50 <mozilla::detail::MutexImpl::unlock()>
 6d8062c:	e8 1f 14 95 ff       	call   66d1a50 <mozilla::detail::MutexImpl::unlock()>
 6d8063f:	e8 0c 14 95 ff       	call   66d1a50 <mozilla::detail::MutexImpl::unlock()>
 6d80664:	e8 e7 13 95 ff       	call   66d1a50 <mozilla::detail::MutexImpl::unlock()>
 6d81731:	e8 1a 03 95 ff       	call   66d1a50 <mozilla::detail::MutexImpl::unlock()>
 6d8328e:	e8 bd e7 94 ff       	call   66d1a50 <mozilla::detail::MutexImpl::unlock()>
 6d834b4:	e8 97 e5 94 ff       	call   66d1a50 <mozilla::detail::MutexImpl::unlock()>
 6d8357c:	e8 cf e4 94 ff       	call   66d1a50 <mozilla::detail::MutexImpl::unlock()>
 6d835a4:	e8 a7 e4 94 ff       	call   66d1a50 <mozilla::detail::MutexImpl::unlock()>
 6d83615:	e8 36 e4 94 ff       	call   66d1a50 <mozilla::detail::MutexImpl::unlock()>
 6d8363d:	e8 0e e4 94 ff       	call   66d1a50 <mozilla::detail::MutexImpl::unlock()>
 6d836b5:	e8 96 e3 94 ff       	call   66d1a50 <mozilla::detail::MutexImpl::unlock()>
 6d836f0:	e8 5b e3 94 ff       	call   66d1a50 <mozilla::detail::MutexImpl::unlock()>
 6d8374c:	e8 ff e2 94 ff       	call   66d1a50 <mozilla::detail::MutexImpl::unlock()>
 6d83769:	e8 e2 e2 94 ff       	call   66d1a50 <mozilla::detail::MutexImpl::unlock()>
 6d8378c:	e8 bf e2 94 ff       	call   66d1a50 <mozilla::detail::MutexImpl::unlock()>
 6d837bf:	e8 8c e2 94 ff       	call   66d1a50 <mozilla::detail::MutexImpl::unlock()>
 6d837f8:	e8 53 e2 94 ff       	call   66d1a50 <mozilla::detail::MutexImpl::unlock()>
 6d8380b:	e8 40 e2 94 ff       	call   66d1a50 <mozilla::detail::MutexImpl::unlock()>
 6d8381e:	e8 2d e2 94 ff       	call   66d1a50 <mozilla::detail::MutexImpl::unlock()>
 6d83831:	e8 1a e2 94 ff       	call   66d1a50 <mozilla::detail::MutexImpl::unlock()>
 6d83c3c:	e8 0f de 94 ff       	call   66d1a50 <mozilla::detail::MutexImpl::unlock()>
 6d83cc0:	e8 8b dd 94 ff       	call   66d1a50 <mozilla::detail::MutexImpl::unlock()>
 6d85e88:	e8 c3 bb 94 ff       	call   66d1a50 <mozilla::detail::MutexImpl::unlock()>
 6d85f8b:	e8 c0 ba 94 ff       	call   66d1a50 <mozilla::detail::MutexImpl::unlock()>
 6d86071:	e8 da b9 94 ff       	call   66d1a50 <mozilla::detail::MutexImpl::unlock()>
 6d86094:	e8 b7 b9 94 ff       	call   66d1a50 <mozilla::detail::MutexImpl::unlock()>
 6d86109:	e8 42 b9 94 ff       	call   66d1a50 <mozilla::detail::MutexImpl::unlock()>
 6d861a4:	e8 a7 b8 94 ff       	call   66d1a50 <mozilla::detail::MutexImpl::unlock()>
 6d861b1:	e8 9a b8 94 ff       	call   66d1a50 <mozilla::detail::MutexImpl::unlock()>
 6d8757c:	e8 cf a4 94 ff       	call   66d1a50 <mozilla::detail::MutexImpl::unlock()>
 6d87678:	e8 d3 a3 94 ff       	call   66d1a50 <mozilla::detail::MutexImpl::unlock()>
 6d8f5c0:	e8 8b 24 94 ff       	call   66d1a50 <mozilla::detail::MutexImpl::unlock()>
 6d8f613:	e8 38 24 94 ff       	call   66d1a50 <mozilla::detail::MutexImpl::unlock()>
 6d8f8d8:	e8 73 21 94 ff       	call   66d1a50 <mozilla::detail::MutexImpl::unlock()>
 6d8f94b:	e8 00 21 94 ff       	call   66d1a50 <mozilla::detail::MutexImpl::unlock()>
 6d8fa4d:	e8 fe 1f 94 ff       	call   66d1a50 <mozilla::detail::MutexImpl::unlock()>
 6d8fa73:	e8 d8 1f 94 ff       	call   66d1a50 <mozilla::detail::MutexImpl::unlock()>
 6d8fadf:	e8 6c 1f 94 ff       	call   66d1a50 <mozilla::detail::MutexImpl::unlock()>
 6d8fb1a:	e8 31 1f 94 ff       	call   66d1a50 <mozilla::detail::MutexImpl::unlock()>
 6d8fb38:	e8 13 1f 94 ff       	call   66d1a50 <mozilla::detail::MutexImpl::unlock()>
 6d8fb5b:	e8 f0 1e 94 ff       	call   66d1a50 <mozilla::detail::MutexImpl::unlock()>
 6d903ce:	e8 7d 16 94 ff       	call   66d1a50 <mozilla::detail::MutexImpl::unlock()>
 6d90a4a:	e8 01 10 94 ff       	call   66d1a50 <mozilla::detail::MutexImpl::unlock()>
 6d92ce0:	e8 6b ed 93 ff       	call   66d1a50 <mozilla::detail::MutexImpl::unlock()>
 6d92d5a:	e8 f1 ec 93 ff       	call   66d1a50 <mozilla::detail::MutexImpl::unlock()>
 6d93972:	e8 d9 e0 93 ff       	call   66d1a50 <mozilla::detail::MutexImpl::unlock()>
 6d99bd0:	e8 7b 7e 93 ff       	call   66d1a50 <mozilla::detail::MutexImpl::unlock()>
 6d99be3:	e8 68 7e 93 ff       	call   66d1a50 <mozilla::detail::MutexImpl::unlock()>
 6d99d0a:	e8 41 7d 93 ff       	call   66d1a50 <mozilla::detail::MutexImpl::unlock()>
 6d99dc7:	e8 84 7c 93 ff       	call   66d1a50 <mozilla::detail::MutexImpl::unlock()>
 6d99e6f:	e8 dc 7b 93 ff       	call   66d1a50 <mozilla::detail::MutexImpl::unlock()>
 6ed9356:	e8 65 96 e4 00       	call   7d229c0 <pthread_mutex_unlock@plt>
 6ed9cd0:	e9 eb 8c e4 00       	jmp    7d229c0 <pthread_mutex_unlock@plt>
 6ede1f8:	e8 c3 47 e4 00       	call   7d229c0 <pthread_mutex_unlock@plt>
 6edf012:	e8 a9 39 e4 00       	call   7d229c0 <pthread_mutex_unlock@plt>
 6edf1b4:	e8 07 38 e4 00       	call   7d229c0 <pthread_mutex_unlock@plt>
 6edf89e:	e8 1d 31 e4 00       	call   7d229c0 <pthread_mutex_unlock@plt>
 6eea71c:	e8 9f 82 e3 00       	call   7d229c0 <pthread_mutex_unlock@plt>
 6eeaeb4:	e8 07 7b e3 00       	call   7d229c0 <pthread_mutex_unlock@plt>
 6eedcd2:	e9 e9 4c e3 00       	jmp    7d229c0 <pthread_mutex_unlock@plt>
 6eedce3:	e8 d8 4c e3 00       	call   7d229c0 <pthread_mutex_unlock@plt>
 6eedd12:	e9 a9 4c e3 00       	jmp    7d229c0 <pthread_mutex_unlock@plt>
 6eedd8f:	e9 2c 4c e3 00       	jmp    7d229c0 <pthread_mutex_unlock@plt>
 6eede1b:	e8 a0 4b e3 00       	call   7d229c0 <pthread_mutex_unlock@plt>
 6eedebe:	e8 fd 4a e3 00       	call   7d229c0 <pthread_mutex_unlock@plt>
 6eedf7a:	e8 41 4a e3 00       	call   7d229c0 <pthread_mutex_unlock@plt>
 6eedf9a:	e9 21 4a e3 00       	jmp    7d229c0 <pthread_mutex_unlock@plt>
 6eee4d1:	e8 ea 44 e3 00       	call   7d229c0 <pthread_mutex_unlock@plt>
 6eee531:	e8 8a 44 e3 00       	call   7d229c0 <pthread_mutex_unlock@plt>
 6eee701:	e8 ba 42 e3 00       	call   7d229c0 <pthread_mutex_unlock@plt>
 6eee781:	e8 3a 42 e3 00       	call   7d229c0 <pthread_mutex_unlock@plt>
 6eef2c0:	e9 fb 36 e3 00       	jmp    7d229c0 <pthread_mutex_unlock@plt>
 6eef816:	e8 a5 31 e3 00       	call   7d229c0 <pthread_mutex_unlock@plt>
 6eef9c1:	e8 fa 2f e3 00       	call   7d229c0 <pthread_mutex_unlock@plt>
 6eefb47:	e8 74 2e e3 00       	call   7d229c0 <pthread_mutex_unlock@plt>
 6ef025e:	e8 5d 27 e3 00       	call   7d229c0 <pthread_mutex_unlock@plt>
 6ef03c6:	e9 f5 25 e3 00       	jmp    7d229c0 <pthread_mutex_unlock@plt>
 6ef0d27:	e8 94 1c e3 00       	call   7d229c0 <pthread_mutex_unlock@plt>
 6ef0e57:	e9 64 1b e3 00       	jmp    7d229c0 <pthread_mutex_unlock@plt>
 6ef0f5d:	e9 5e 1a e3 00       	jmp    7d229c0 <pthread_mutex_unlock@plt>
 6ef1173:	e9 48 18 e3 00       	jmp    7d229c0 <pthread_mutex_unlock@plt>
 6ef1c8e:	e8 2d 0d e3 00       	call   7d229c0 <pthread_mutex_unlock@plt>
 6ef1ee0:	e8 db 0a e3 00       	call   7d229c0 <pthread_mutex_unlock@plt>
 6ef2129:	e8 92 08 e3 00       	call   7d229c0 <pthread_mutex_unlock@plt>
 6ef266a:	e8 51 03 e3 00       	call   7d229c0 <pthread_mutex_unlock@plt>
 6ef2715:	e9 a6 02 e3 00       	jmp    7d229c0 <pthread_mutex_unlock@plt>
 6ef2733:	e8 88 02 e3 00       	call   7d229c0 <pthread_mutex_unlock@plt>
 6ef2a19:	e9 a2 ff e2 00       	jmp    7d229c0 <pthread_mutex_unlock@plt>
 6ef2efd:	e8 be fa e2 00       	call   7d229c0 <pthread_mutex_unlock@plt>
 6ef2f40:	e8 7b fa e2 00       	call   7d229c0 <pthread_mutex_unlock@plt>
 6ef3340:	e8 7b f6 e2 00       	call   7d229c0 <pthread_mutex_unlock@plt>
 6ef3419:	e8 a2 f5 e2 00       	call   7d229c0 <pthread_mutex_unlock@plt>
 6ef3f0a:	e8 b1 ea e2 00       	call   7d229c0 <pthread_mutex_unlock@plt>
 6ef3fe7:	e8 d4 e9 e2 00       	call   7d229c0 <pthread_mutex_unlock@plt>
 6ef46ca:	e8 f1 e2 e2 00       	call   7d229c0 <pthread_mutex_unlock@plt>
 6ef47a3:	e8 18 e2 e2 00       	call   7d229c0 <pthread_mutex_unlock@plt>
 6ef4db9:	e8 d2 a5 b7 fc       	call   3a6f390 <std::unique_lock<std::mutex>::unlock()>
 6ef4e8f:	e8 fc a4 b7 fc       	call   3a6f390 <std::unique_lock<std::mutex>::unlock()>
 6ef4fb2:	e8 09 da e2 00       	call   7d229c0 <pthread_mutex_unlock@plt>
 6ef4fc6:	e8 f5 d9 e2 00       	call   7d229c0 <pthread_mutex_unlock@plt>
 6ef4fda:	e8 e1 d9 e2 00       	call   7d229c0 <pthread_mutex_unlock@plt>
 6ef4fee:	e8 cd d9 e2 00       	call   7d229c0 <pthread_mutex_unlock@plt>
 6ef50c8:	e8 f3 d8 e2 00       	call   7d229c0 <pthread_mutex_unlock@plt>
 6ef5218:	e8 a3 d7 e2 00       	call   7d229c0 <pthread_mutex_unlock@plt>
 6ef5238:	e8 83 d7 e2 00       	call   7d229c0 <pthread_mutex_unlock@plt>
 6ef525c:	e8 5f d7 e2 00       	call   7d229c0 <pthread_mutex_unlock@plt>
 6ef53e3:	e8 d8 d5 e2 00       	call   7d229c0 <pthread_mutex_unlock@plt>
 6ef5436:	e8 85 d5 e2 00       	call   7d229c0 <pthread_mutex_unlock@plt>
 6ef54ae:	e8 0d d5 e2 00       	call   7d229c0 <pthread_mutex_unlock@plt>
 6ef54dc:	e8 df d4 e2 00       	call   7d229c0 <pthread_mutex_unlock@plt>
 6ef54f8:	e8 c3 d4 e2 00       	call   7d229c0 <pthread_mutex_unlock@plt>
 6ef5528:	e8 93 d4 e2 00       	call   7d229c0 <pthread_mutex_unlock@plt>
 6ef5567:	e8 24 9e b7 fc       	call   3a6f390 <std::unique_lock<std::mutex>::unlock()>
 6ef5771:	e8 1a 9c b7 fc       	call   3a6f390 <std::unique_lock<std::mutex>::unlock()>
 6ef58de:	e8 ad 9a b7 fc       	call   3a6f390 <std::unique_lock<std::mutex>::unlock()>
 6ef72da:	e8 e1 b6 e2 00       	call   7d229c0 <pthread_mutex_unlock@plt>
 6ef761d:	e9 9e b3 e2 00       	jmp    7d229c0 <pthread_mutex_unlock@plt>
 6ef7695:	e9 26 b3 e2 00       	jmp    7d229c0 <pthread_mutex_unlock@plt>
 6ef78ab:	e8 10 b1 e2 00       	call   7d229c0 <pthread_mutex_unlock@plt>
 6efb0a4:	e8 17 79 e2 00       	call   7d229c0 <pthread_mutex_unlock@plt>
 6efb596:	e8 25 74 e2 00       	call   7d229c0 <pthread_mutex_unlock@plt>
 6efd30c:	e8 af 56 e2 00       	call   7d229c0 <pthread_mutex_unlock@plt>
 6efd320:	e8 9b 56 e2 00       	call   7d229c0 <pthread_mutex_unlock@plt>
 6efe1e0:	e8 db 47 e2 00       	call   7d229c0 <pthread_mutex_unlock@plt>
 6efff9a:	e8 21 2a e2 00       	call   7d229c0 <pthread_mutex_unlock@plt>
 6f0d735:	e8 86 52 e1 00       	call   7d229c0 <pthread_mutex_unlock@plt>
 6f0d854:	e9 67 51 e1 00       	jmp    7d229c0 <pthread_mutex_unlock@plt>
 6f0dce3:	e8 d8 4c e1 00       	call   7d229c0 <pthread_mutex_unlock@plt>
 6f0de4e:	e9 6d 4b e1 00       	jmp    7d229c0 <pthread_mutex_unlock@plt>
 6f0dff2:	e8 c9 49 e1 00       	call   7d229c0 <pthread_mutex_unlock@plt>
 6f0e4c3:	e8 f8 44 e1 00       	call   7d229c0 <pthread_mutex_unlock@plt>
 6f0e79a:	e8 21 42 e1 00       	call   7d229c0 <pthread_mutex_unlock@plt>
 6f0eb9d:	e8 1e 3e e1 00       	call   7d229c0 <pthread_mutex_unlock@plt>
 6f0ef83:	e8 38 3a e1 00       	call   7d229c0 <pthread_mutex_unlock@plt>
 6f0f14b:	e9 70 38 e1 00       	jmp    7d229c0 <pthread_mutex_unlock@plt>
 6f0f20a:	e8 b1 37 e1 00       	call   7d229c0 <pthread_mutex_unlock@plt>
 6f0f7a3:	e8 18 32 e1 00       	call   7d229c0 <pthread_mutex_unlock@plt>
 6f0fa7a:	e8 41 2f e1 00       	call   7d229c0 <pthread_mutex_unlock@plt>
 6f0fdf8:	e8 c3 2b e1 00       	call   7d229c0 <pthread_mutex_unlock@plt>
 6f0fef2:	e8 c9 2a e1 00       	call   7d229c0 <pthread_mutex_unlock@plt>
 6f0ff30:	e8 8b 2a e1 00       	call   7d229c0 <pthread_mutex_unlock@plt>
 6f141df:	e8 dc e7 e0 00       	call   7d229c0 <pthread_mutex_unlock@plt>
 6f14241:	e8 7a e7 e0 00       	call   7d229c0 <pthread_mutex_unlock@plt>
 6f142d0:	e8 eb e6 e0 00       	call   7d229c0 <pthread_mutex_unlock@plt>
 6f1449d:	e8 1e e5 e0 00       	call   7d229c0 <pthread_mutex_unlock@plt>
 6f14624:	e8 97 e3 e0 00       	call   7d229c0 <pthread_mutex_unlock@plt>
 6f14810:	e8 ab e1 e0 00       	call   7d229c0 <pthread_mutex_unlock@plt>
 6f14c18:	e8 a3 dd e0 00       	call   7d229c0 <pthread_mutex_unlock@plt>
 6f14eab:	e8 10 db e0 00       	call   7d229c0 <pthread_mutex_unlock@plt>
 6f1508f:	e9 2c d9 e0 00       	jmp    7d229c0 <pthread_mutex_unlock@plt>
 6f15717:	e8 a4 d2 e0 00       	call   7d229c0 <pthread_mutex_unlock@plt>
 6f15ceb:	e9 d0 cc e0 00       	jmp    7d229c0 <pthread_mutex_unlock@plt>
 6f15fb3:	e8 08 ca e0 00       	call   7d229c0 <pthread_mutex_unlock@plt>
 6f16a93:	e8 28 bf e0 00       	call   7d229c0 <pthread_mutex_unlock@plt>
 6f16e29:	e9 92 bb e0 00       	jmp    7d229c0 <pthread_mutex_unlock@plt>
 6f177c5:	e8 f6 b1 e0 00       	call   7d229c0 <pthread_mutex_unlock@plt>
 6f18795:	e8 26 a2 e0 00       	call   7d229c0 <pthread_mutex_unlock@plt>
 6f187e8:	e8 d3 a1 e0 00       	call   7d229c0 <pthread_mutex_unlock@plt>
 6f1880b:	e8 b0 a1 e0 00       	call   7d229c0 <pthread_mutex_unlock@plt>
 6f18890:	e8 2b a1 e0 00       	call   7d229c0 <pthread_mutex_unlock@plt>
 6f188c1:	e8 fa a0 e0 00       	call   7d229c0 <pthread_mutex_unlock@plt>
 6f18909:	e8 b2 a0 e0 00       	call   7d229c0 <pthread_mutex_unlock@plt>
 6f19178:	e8 43 98 e0 00       	call   7d229c0 <pthread_mutex_unlock@plt>
 6f19197:	e8 24 98 e0 00       	call   7d229c0 <pthread_mutex_unlock@plt>
 6f19350:	e8 6b 96 e0 00       	call   7d229c0 <pthread_mutex_unlock@plt>
 6f1b9e5:	e8 d6 6f e0 00       	call   7d229c0 <pthread_mutex_unlock@plt>
 6f1bb66:	e8 55 6e e0 00       	call   7d229c0 <pthread_mutex_unlock@plt>
 6f1bdf6:	e9 c5 6b e0 00       	jmp    7d229c0 <pthread_mutex_unlock@plt>
 6f1bec8:	e9 f3 6a e0 00       	jmp    7d229c0 <pthread_mutex_unlock@plt>
 6f1c059:	e8 62 69 e0 00       	call   7d229c0 <pthread_mutex_unlock@plt>
 6f1c06e:	e8 4d 69 e0 00       	call   7d229c0 <pthread_mutex_unlock@plt>
 6f1c0ce:	e8 ed 68 e0 00       	call   7d229c0 <pthread_mutex_unlock@plt>
 6f1c0e2:	e8 d9 68 e0 00       	call   7d229c0 <pthread_mutex_unlock@plt>
 6f1c39a:	e8 21 66 e0 00       	call   7d229c0 <pthread_mutex_unlock@plt>
 6f1ca58:	e8 63 5f e0 00       	call   7d229c0 <pthread_mutex_unlock@plt>
 6f1cab3:	e9 08 5f e0 00       	jmp    7d229c0 <pthread_mutex_unlock@plt>
 6f223d3:	e8 e8 05 e0 00       	call   7d229c0 <pthread_mutex_unlock@plt>
 6f22653:	e9 68 03 e0 00       	jmp    7d229c0 <pthread_mutex_unlock@plt>
 6f23091:	e9 2a f9 df 00       	jmp    7d229c0 <pthread_mutex_unlock@plt>
 6f23ab7:	e9 04 ef df 00       	jmp    7d229c0 <pthread_mutex_unlock@plt>
 6f2476c:	e8 4f e2 df 00       	call   7d229c0 <pthread_mutex_unlock@plt>
 6f25ef3:	e9 c8 ca df 00       	jmp    7d229c0 <pthread_mutex_unlock@plt>
 6f26610:	e8 7b 8d b4 fc       	call   3a6f390 <std::unique_lock<std::mutex>::unlock()>
 6f26666:	e8 25 8d b4 fc       	call   3a6f390 <std::unique_lock<std::mutex>::unlock()>
 6f26987:	e8 04 8a b4 fc       	call   3a6f390 <std::unique_lock<std::mutex>::unlock()>
 6f26aec:	e8 9f 88 b4 fc       	call   3a6f390 <std::unique_lock<std::mutex>::unlock()>
 6f26b46:	e8 45 88 b4 fc       	call   3a6f390 <std::unique_lock<std::mutex>::unlock()>
 6f2745e:	e8 5d b5 df 00       	call   7d229c0 <pthread_mutex_unlock@plt>
 6f28208:	e8 b3 a7 df 00       	call   7d229c0 <pthread_mutex_unlock@plt>
 6f28248:	e8 73 a7 df 00       	call   7d229c0 <pthread_mutex_unlock@plt>
 6f28355:	e8 66 a6 df 00       	call   7d229c0 <pthread_mutex_unlock@plt>
 6f2839a:	e8 21 a6 df 00       	call   7d229c0 <pthread_mutex_unlock@plt>
 6f289ca:	e8 f1 9f df 00       	call   7d229c0 <pthread_mutex_unlock@plt>
 6f28bc3:	e8 f8 9d df 00       	call   7d229c0 <pthread_mutex_unlock@plt>
 6f28c9d:	e8 ee 66 b4 fc       	call   3a6f390 <std::unique_lock<std::mutex>::unlock()>
 6f2c1f5:	e9 c6 67 df 00       	jmp    7d229c0 <pthread_mutex_unlock@plt>
 6f2c258:	e8 63 67 df 00       	call   7d229c0 <pthread_mutex_unlock@plt>
 6f2c385:	e9 36 66 df 00       	jmp    7d229c0 <pthread_mutex_unlock@plt>
 6f2e5d5:	e8 e6 43 df 00       	call   7d229c0 <pthread_mutex_unlock@plt>
 6f2e7c0:	e9 fb 41 df 00       	jmp    7d229c0 <pthread_mutex_unlock@plt>
 6f2e931:	e9 8a 40 df 00       	jmp    7d229c0 <pthread_mutex_unlock@plt>
 6f2f20e:	e8 ad 37 df 00       	call   7d229c0 <pthread_mutex_unlock@plt>
 6f2f222:	e8 99 37 df 00       	call   7d229c0 <pthread_mutex_unlock@plt>
 6f2f3a2:	e8 19 36 df 00       	call   7d229c0 <pthread_mutex_unlock@plt>
 6f30de8:	e9 d3 1b df 00       	jmp    7d229c0 <pthread_mutex_unlock@plt>
 6f30e8b:	e8 30 1b df 00       	call   7d229c0 <pthread_mutex_unlock@plt>
 6f30f35:	e9 86 1a df 00       	jmp    7d229c0 <pthread_mutex_unlock@plt>
 6f32a92:	e9 29 ff de 00       	jmp    7d229c0 <pthread_mutex_unlock@plt>
 6f32c63:	e9 58 fd de 00       	jmp    7d229c0 <pthread_mutex_unlock@plt>
 6f333a0:	e9 1b f6 de 00       	jmp    7d229c0 <pthread_mutex_unlock@plt>
 6f334c8:	e9 f3 f4 de 00       	jmp    7d229c0 <pthread_mutex_unlock@plt>
 6f33702:	e8 b9 f2 de 00       	call   7d229c0 <pthread_mutex_unlock@plt>
 6f3397b:	e9 40 f0 de 00       	jmp    7d229c0 <pthread_mutex_unlock@plt>
 6f33d67:	e9 54 ec de 00       	jmp    7d229c0 <pthread_mutex_unlock@plt>
 6f33e01:	e8 ba eb de 00       	call   7d229c0 <pthread_mutex_unlock@plt>
 6f34445:	e8 76 e5 de 00       	call   7d229c0 <pthread_mutex_unlock@plt>
 6f347b3:	e9 08 e2 de 00       	jmp    7d229c0 <pthread_mutex_unlock@plt>
 6f34b76:	e9 45 de de 00       	jmp    7d229c0 <pthread_mutex_unlock@plt>
 6f35e18:	e8 a3 cb de 00       	call   7d229c0 <pthread_mutex_unlock@plt>
 6f36224:	e8 97 c7 de 00       	call   7d229c0 <pthread_mutex_unlock@plt>
 6f36254:	e8 67 c7 de 00       	call   7d229c0 <pthread_mutex_unlock@plt>
 6f363ce:	e8 ed c5 de 00       	call   7d229c0 <pthread_mutex_unlock@plt>
 6f36434:	e8 87 c5 de 00       	call   7d229c0 <pthread_mutex_unlock@plt>
 6f36485:	e8 36 c5 de 00       	call   7d229c0 <pthread_mutex_unlock@plt>
 6f364e5:	e8 d6 c4 de 00       	call   7d229c0 <pthread_mutex_unlock@plt>
 6f36566:	e8 55 c4 de 00       	call   7d229c0 <pthread_mutex_unlock@plt>
 6f3658a:	e8 31 c4 de 00       	call   7d229c0 <pthread_mutex_unlock@plt>
 6f366f4:	e8 c7 c2 de 00       	call   7d229c0 <pthread_mutex_unlock@plt>
 6f38666:	e9 55 a3 de 00       	jmp    7d229c0 <pthread_mutex_unlock@plt>
 6f38bbb:	e8 00 9e de 00       	call   7d229c0 <pthread_mutex_unlock@plt>
 6f38c93:	e8 28 9d de 00       	call   7d229c0 <pthread_mutex_unlock@plt>
 6f39543:	e8 78 94 de 00       	call   7d229c0 <pthread_mutex_unlock@plt>
 6f3a632:	e9 89 83 de 00       	jmp    7d229c0 <pthread_mutex_unlock@plt>
 6f3a9c4:	e8 f7 7f de 00       	call   7d229c0 <pthread_mutex_unlock@plt>
 6f3aaa4:	e8 17 7f de 00       	call   7d229c0 <pthread_mutex_unlock@plt>
 6f3b290:	e9 2b 77 de 00       	jmp    7d229c0 <pthread_mutex_unlock@plt>
 6f3bdad:	e9 0e 6c de 00       	jmp    7d229c0 <pthread_mutex_unlock@plt>
 6f3bfea:	e8 d1 69 de 00       	call   7d229c0 <pthread_mutex_unlock@plt>
 6f3c1b7:	e8 04 68 de 00       	call   7d229c0 <pthread_mutex_unlock@plt>
 6f3c3e0:	e8 db 65 de 00       	call   7d229c0 <pthread_mutex_unlock@plt>
 6f3c422:	e8 99 65 de 00       	call   7d229c0 <pthread_mutex_unlock@plt>
 6f3c6d0:	e8 eb 62 de 00       	call   7d229c0 <pthread_mutex_unlock@plt>
 6f3c734:	e8 87 62 de 00       	call   7d229c0 <pthread_mutex_unlock@plt>
 6f3e220:	e8 9b 47 de 00       	call   7d229c0 <pthread_mutex_unlock@plt>
 6f3e5cd:	e8 ee 43 de 00       	call   7d229c0 <pthread_mutex_unlock@plt>
 6f3f196:	e8 25 38 de 00       	call   7d229c0 <pthread_mutex_unlock@plt>
 6f3f1c7:	e8 f4 37 de 00       	call   7d229c0 <pthread_mutex_unlock@plt>
 6f3fc9e:	e8 1d 2d de 00       	call   7d229c0 <pthread_mutex_unlock@plt>
 6f3ffaa:	e8 11 2a de 00       	call   7d229c0 <pthread_mutex_unlock@plt>
 6f40003:	e8 b8 29 de 00       	call   7d229c0 <pthread_mutex_unlock@plt>
 6f40505:	e9 b6 24 de 00       	jmp    7d229c0 <pthread_mutex_unlock@plt>
 6f412db:	e8 b0 e0 b2 fc       	call   3a6f390 <std::unique_lock<std::mutex>::unlock()>
 6f41793:	e8 f8 db b2 fc       	call   3a6f390 <std::unique_lock<std::mutex>::unlock()>
 6f4207d:	e8 3e 09 de 00       	call   7d229c0 <pthread_mutex_unlock@plt>
 6f420d3:	e8 b8 d2 b2 fc       	call   3a6f390 <std::unique_lock<std::mutex>::unlock()>
 6f4211c:	e8 6f d2 b2 fc       	call   3a6f390 <std::unique_lock<std::mutex>::unlock()>
 6f422d1:	e8 ea 06 de 00       	call   7d229c0 <pthread_mutex_unlock@plt>
 6f42370:	e8 4b 06 de 00       	call   7d229c0 <pthread_mutex_unlock@plt>
 6f424ae:	e8 0d 05 de 00       	call   7d229c0 <pthread_mutex_unlock@plt>
 6f427bb:	e8 00 02 de 00       	call   7d229c0 <pthread_mutex_unlock@plt>
 6f428ee:	e8 9d ca b2 fc       	call   3a6f390 <std::unique_lock<std::mutex>::unlock()>
 6f42c6b:	e8 20 c7 b2 fc       	call   3a6f390 <std::unique_lock<std::mutex>::unlock()>
 6f42d43:	e8 48 c6 b2 fc       	call   3a6f390 <std::unique_lock<std::mutex>::unlock()>
 6f42e43:	e8 48 c5 b2 fc       	call   3a6f390 <std::unique_lock<std::mutex>::unlock()>
 6f42ee3:	e8 a8 c4 b2 fc       	call   3a6f390 <std::unique_lock<std::mutex>::unlock()>
 6f42f73:	e8 18 c4 b2 fc       	call   3a6f390 <std::unique_lock<std::mutex>::unlock()>
 6f43078:	e8 13 c3 b2 fc       	call   3a6f390 <std::unique_lock<std::mutex>::unlock()>
 6f430ab:	e8 e0 c2 b2 fc       	call   3a6f390 <std::unique_lock<std::mutex>::unlock()>
 6f43134:	e8 57 c2 b2 fc       	call   3a6f390 <std::unique_lock<std::mutex>::unlock()>
 6f431f8:	e8 93 c1 b2 fc       	call   3a6f390 <std::unique_lock<std::mutex>::unlock()>
 6f43215:	e8 76 c1 b2 fc       	call   3a6f390 <std::unique_lock<std::mutex>::unlock()>
 6f43223:	e8 68 c1 b2 fc       	call   3a6f390 <std::unique_lock<std::mutex>::unlock()>
 6f43253:	e8 38 c1 b2 fc       	call   3a6f390 <std::unique_lock<std::mutex>::unlock()>
 6f43350:	e8 3b c0 b2 fc       	call   3a6f390 <std::unique_lock<std::mutex>::unlock()>
 6f43468:	e8 23 bf b2 fc       	call   3a6f390 <std::unique_lock<std::mutex>::unlock()>
 6f4347b:	e8 10 bf b2 fc       	call   3a6f390 <std::unique_lock<std::mutex>::unlock()>
 6f434a0:	e8 eb be b2 fc       	call   3a6f390 <std::unique_lock<std::mutex>::unlock()>
 6f434b3:	e8 d8 be b2 fc       	call   3a6f390 <std::unique_lock<std::mutex>::unlock()>
 6f43633:	e8 58 bd b2 fc       	call   3a6f390 <std::unique_lock<std::mutex>::unlock()>
 6f43641:	e8 4a bd b2 fc       	call   3a6f390 <std::unique_lock<std::mutex>::unlock()>
 6f43d31:	e8 8a ec dd 00       	call   7d229c0 <pthread_mutex_unlock@plt>
 6f44582:	e8 09 ae b2 fc       	call   3a6f390 <std::unique_lock<std::mutex>::unlock()>
 6f4485d:	e8 5e e1 dd 00       	call   7d229c0 <pthread_mutex_unlock@plt>
 6f448bb:	e8 d0 aa b2 fc       	call   3a6f390 <std::unique_lock<std::mutex>::unlock()>
 6f448f8:	e8 93 aa b2 fc       	call   3a6f390 <std::unique_lock<std::mutex>::unlock()>
 6f44aad:	e8 0e df dd 00       	call   7d229c0 <pthread_mutex_unlock@plt>
 6f44deb:	e8 d0 db dd 00       	call   7d229c0 <pthread_mutex_unlock@plt>
 6f44e8e:	e8 fd a4 b2 fc       	call   3a6f390 <std::unique_lock<std::mutex>::unlock()>
 6f45033:	e8 58 a3 b2 fc       	call   3a6f390 <std::unique_lock<std::mutex>::unlock()>
 6f451bb:	e8 d0 a1 b2 fc       	call   3a6f390 <std::unique_lock<std::mutex>::unlock()>
 6f451cb:	e8 c0 a1 b2 fc       	call   3a6f390 <std::unique_lock<std::mutex>::unlock()>
 6f4586e:	e8 4d d1 dd 00       	call   7d229c0 <pthread_mutex_unlock@plt>
 6f45b3f:	e8 4c 98 b2 fc       	call   3a6f390 <std::unique_lock<std::mutex>::unlock()>
 6f45c4f:	e8 3c 97 b2 fc       	call   3a6f390 <std::unique_lock<std::mutex>::unlock()>
 6f45d58:	e8 33 96 b2 fc       	call   3a6f390 <std::unique_lock<std::mutex>::unlock()>
 6f45e08:	e8 83 95 b2 fc       	call   3a6f390 <std::unique_lock<std::mutex>::unlock()>
 6f45f7b:	e8 10 94 b2 fc       	call   3a6f390 <std::unique_lock<std::mutex>::unlock()>
 6f45fd3:	e8 b8 93 b2 fc       	call   3a6f390 <std::unique_lock<std::mutex>::unlock()>
 6f463aa:	e8 e1 8f b2 fc       	call   3a6f390 <std::unique_lock<std::mutex>::unlock()>
 6f4644a:	e8 41 8f b2 fc       	call   3a6f390 <std::unique_lock<std::mutex>::unlock()>
 6f46b2b:	e8 60 88 b2 fc       	call   3a6f390 <std::unique_lock<std::mutex>::unlock()>
 6f46deb:	e8 a0 85 b2 fc       	call   3a6f390 <std::unique_lock<std::mutex>::unlock()>
 6f46ef4:	e8 97 84 b2 fc       	call   3a6f390 <std::unique_lock<std::mutex>::unlock()>
 6f47263:	e8 28 81 b2 fc       	call   3a6f390 <std::unique_lock<std::mutex>::unlock()>
 6f47293:	e8 f8 80 b2 fc       	call   3a6f390 <std::unique_lock<std::mutex>::unlock()>
 6f47522:	e8 69 7e b2 fc       	call   3a6f390 <std::unique_lock<std::mutex>::unlock()>
 6f476ce:	e8 bd 7c b2 fc       	call   3a6f390 <std::unique_lock<std::mutex>::unlock()>
 6f47cb0:	e8 0b ad dd 00       	call   7d229c0 <pthread_mutex_unlock@plt>
 6f47d6b:	e8 20 76 b2 fc       	call   3a6f390 <std::unique_lock<std::mutex>::unlock()>
 6f47da9:	e8 e2 75 b2 fc       	call   3a6f390 <std::unique_lock<std::mutex>::unlock()>
 6f47e9f:	e8 ec 74 b2 fc       	call   3a6f390 <std::unique_lock<std::mutex>::unlock()>
 6f47ebb:	e8 d0 74 b2 fc       	call   3a6f390 <std::unique_lock<std::mutex>::unlock()>
 6f48154:	e8 37 72 b2 fc       	call   3a6f390 <std::unique_lock<std::mutex>::unlock()>
 6f481a2:	e8 e9 71 b2 fc       	call   3a6f390 <std::unique_lock<std::mutex>::unlock()>
 6f481c0:	e8 cb 71 b2 fc       	call   3a6f390 <std::unique_lock<std::mutex>::unlock()>
 6f481de:	e8 ad 71 b2 fc       	call   3a6f390 <std::unique_lock<std::mutex>::unlock()>
 6f481fc:	e8 8f 71 b2 fc       	call   3a6f390 <std::unique_lock<std::mutex>::unlock()>
 6f48228:	e8 63 71 b2 fc       	call   3a6f390 <std::unique_lock<std::mutex>::unlock()>
 6f48236:	e8 55 71 b2 fc       	call   3a6f390 <std::unique_lock<std::mutex>::unlock()>
 6f482fc:	e8 8f 70 b2 fc       	call   3a6f390 <std::unique_lock<std::mutex>::unlock()>
 6f4838e:	e8 fd 6f b2 fc       	call   3a6f390 <std::unique_lock<std::mutex>::unlock()>
 6f483bf:	e8 fc a5 dd 00       	call   7d229c0 <pthread_mutex_unlock@plt>
 6f4850e:	e8 7d 6e b2 fc       	call   3a6f390 <std::unique_lock<std::mutex>::unlock()>
 6f48678:	e8 13 6d b2 fc       	call   3a6f390 <std::unique_lock<std::mutex>::unlock()>
 6f48859:	e8 62 a1 dd 00       	call   7d229c0 <pthread_mutex_unlock@plt>
 6f48995:	e8 f6 69 b2 fc       	call   3a6f390 <std::unique_lock<std::mutex>::unlock()>
 6f489db:	e8 b0 69 b2 fc       	call   3a6f390 <std::unique_lock<std::mutex>::unlock()>
 6f489f2:	e8 99 69 b2 fc       	call   3a6f390 <std::unique_lock<std::mutex>::unlock()>
 6f48a0a:	e8 81 69 b2 fc       	call   3a6f390 <std::unique_lock<std::mutex>::unlock()>
 6f48a79:	e8 12 69 b2 fc       	call   3a6f390 <std::unique_lock<std::mutex>::unlock()>
 6f48cc6:	e8 c5 66 b2 fc       	call   3a6f390 <std::unique_lock<std::mutex>::unlock()>
 6f48dee:	e8 9d 65 b2 fc       	call   3a6f390 <std::unique_lock<std::mutex>::unlock()>
 6f48e08:	e8 83 65 b2 fc       	call   3a6f390 <std::unique_lock<std::mutex>::unlock()>
 6f48e30:	e8 5b 65 b2 fc       	call   3a6f390 <std::unique_lock<std::mutex>::unlock()>
 6f48eb9:	e8 d2 64 b2 fc       	call   3a6f390 <std::unique_lock<std::mutex>::unlock()>
 6f48f79:	e8 12 64 b2 fc       	call   3a6f390 <std::unique_lock<std::mutex>::unlock()>
 6f49041:	e8 4a 63 b2 fc       	call   3a6f390 <std::unique_lock<std::mutex>::unlock()>
 6f4a2d4:	e8 e7 86 dd 00       	call   7d229c0 <pthread_mutex_unlock@plt>
 6f4a8a7:	e8 14 81 dd 00       	call   7d229c0 <pthread_mutex_unlock@plt>
 6f4aa5c:	e8 5f 7f dd 00       	call   7d229c0 <pthread_mutex_unlock@plt>
 6f4aa69:	e8 52 7f dd 00       	call   7d229c0 <pthread_mutex_unlock@plt>
 6f4aa8a:	e8 31 7f dd 00       	call   7d229c0 <pthread_mutex_unlock@plt>
 6f4ab64:	e8 57 7e dd 00       	call   7d229c0 <pthread_mutex_unlock@plt>
 6f4ac4d:	e9 6e 7d dd 00       	jmp    7d229c0 <pthread_mutex_unlock@plt>
 6f4ad13:	e8 a8 7c dd 00       	call   7d229c0 <pthread_mutex_unlock@plt>
 6f4ad29:	e8 92 7c dd 00       	call   7d229c0 <pthread_mutex_unlock@plt>
 6f4ae1a:	e9 a1 7b dd 00       	jmp    7d229c0 <pthread_mutex_unlock@plt>
 6f4af9c:	e9 1f 7a dd 00       	jmp    7d229c0 <pthread_mutex_unlock@plt>
 6f4b030:	e8 8b 79 dd 00       	call   7d229c0 <pthread_mutex_unlock@plt>
 6f4b122:	e9 99 78 dd 00       	jmp    7d229c0 <pthread_mutex_unlock@plt>
 6f4b174:	e8 47 78 dd 00       	call   7d229c0 <pthread_mutex_unlock@plt>
 6f4b1a7:	e9 14 78 dd 00       	jmp    7d229c0 <pthread_mutex_unlock@plt>
 6f4b413:	e8 a8 75 dd 00       	call   7d229c0 <pthread_mutex_unlock@plt>
 6f4b47f:	e8 0c 3f b2 fc       	call   3a6f390 <std::unique_lock<std::mutex>::unlock()>
 6f4b498:	e8 f3 3e b2 fc       	call   3a6f390 <std::unique_lock<std::mutex>::unlock()>
 6f4b5a8:	e8 e3 3d b2 fc       	call   3a6f390 <std::unique_lock<std::mutex>::unlock()>
 6f4b5d1:	e8 ba 3d b2 fc       	call   3a6f390 <std::unique_lock<std::mutex>::unlock()>
 6f4b769:	e8 22 3c b2 fc       	call   3a6f390 <std::unique_lock<std::mutex>::unlock()>
 6f4b78d:	e8 fe 3b b2 fc       	call   3a6f390 <std::unique_lock<std::mutex>::unlock()>
 6f4ea1f:	e9 9c 3f dd 00       	jmp    7d229c0 <pthread_mutex_unlock@plt>
 6f55389:	e9 32 d6 dc 00       	jmp    7d229c0 <pthread_mutex_unlock@plt>
 6f574ed:	e9 ce b4 dc 00       	jmp    7d229c0 <pthread_mutex_unlock@plt>
 6f5970c:	e8 af 92 dc 00       	call   7d229c0 <pthread_mutex_unlock@plt>
 6f59b9a:	e8 21 8e dc 00       	call   7d229c0 <pthread_mutex_unlock@plt>
 6f5f07b:	e8 40 39 dc 00       	call   7d229c0 <pthread_mutex_unlock@plt>
 6f5f588:	e8 33 34 dc 00       	call   7d229c0 <pthread_mutex_unlock@plt>
 6f5fd16:	e8 a5 2c dc 00       	call   7d229c0 <pthread_mutex_unlock@plt>
 6f5fd5b:	e8 60 2c dc 00       	call   7d229c0 <pthread_mutex_unlock@plt>
 6f5fe30:	e8 8b 2b dc 00       	call   7d229c0 <pthread_mutex_unlock@plt>
 6f6003a:	e8 81 29 dc 00       	call   7d229c0 <pthread_mutex_unlock@plt>
 6f60417:	e8 a4 25 dc 00       	call   7d229c0 <pthread_mutex_unlock@plt>
 6f6043a:	e9 81 25 dc 00       	jmp    7d229c0 <pthread_mutex_unlock@plt>
 6f60502:	e9 b9 24 dc 00       	jmp    7d229c0 <pthread_mutex_unlock@plt>
 6f60591:	e8 2a 24 dc 00       	call   7d229c0 <pthread_mutex_unlock@plt>
 6f605a3:	e8 18 24 dc 00       	call   7d229c0 <pthread_mutex_unlock@plt>
 6f605ca:	e8 f1 23 dc 00       	call   7d229c0 <pthread_mutex_unlock@plt>
 6f60f42:	e8 79 1a dc 00       	call   7d229c0 <pthread_mutex_unlock@plt>
 6f62b0b:	e8 b0 fe db 00       	call   7d229c0 <pthread_mutex_unlock@plt>
 6f6336a:	e8 51 f6 db 00       	call   7d229c0 <pthread_mutex_unlock@plt>
 6f633b3:	e8 08 f6 db 00       	call   7d229c0 <pthread_mutex_unlock@plt>
 6f634b3:	e8 08 f5 db 00       	call   7d229c0 <pthread_mutex_unlock@plt>
 6f6353c:	e8 4f be b0 fc       	call   3a6f390 <std::unique_lock<std::mutex>::unlock()>
 6f64165:	e8 26 b2 b0 fc       	call   3a6f390 <std::unique_lock<std::mutex>::unlock()>
 6f641d8:	e8 b3 b1 b0 fc       	call   3a6f390 <std::unique_lock<std::mutex>::unlock()>
 6f652a5:	e8 16 d7 db 00       	call   7d229c0 <pthread_mutex_unlock@plt>
 6f65319:	e8 a2 d6 db 00       	call   7d229c0 <pthread_mutex_unlock@plt>
 6f65369:	e8 22 a0 b0 fc       	call   3a6f390 <std::unique_lock<std::mutex>::unlock()>
 6f67b3e:	e8 7d ae db 00       	call   7d229c0 <pthread_mutex_unlock@plt>
 6f6a4f6:	e8 c5 84 db 00       	call   7d229c0 <pthread_mutex_unlock@plt>
 6f6acc0:	e8 fb 7c db 00       	call   7d229c0 <pthread_mutex_unlock@plt>
 6f6d855:	e9 66 51 db 00       	jmp    7d229c0 <pthread_mutex_unlock@plt>
 6f6d94d:	e8 6e 50 db 00       	call   7d229c0 <pthread_mutex_unlock@plt>
 6f6dafd:	e8 be 4e db 00       	call   7d229c0 <pthread_mutex_unlock@plt>
 6f6de8c:	e8 2f 4b db 00       	call   7d229c0 <pthread_mutex_unlock@plt>
 6f6dee3:	e8 a8 14 b0 fc       	call   3a6f390 <std::unique_lock<std::mutex>::unlock()>
 6f6e094:	e8 f7 12 b0 fc       	call   3a6f390 <std::unique_lock<std::mutex>::unlock()>
 6f6e2d4:	e8 e7 46 db 00       	call   7d229c0 <pthread_mutex_unlock@plt>
 6f6e4f3:	e9 c8 44 db 00       	jmp    7d229c0 <pthread_mutex_unlock@plt>
 6f6e6f2:	e8 99 0c b0 fc       	call   3a6f390 <std::unique_lock<std::mutex>::unlock()>
 6f6e91f:	e8 6c 0a b0 fc       	call   3a6f390 <std::unique_lock<std::mutex>::unlock()>
 6f7128d:	e8 2e 17 db 00       	call   7d229c0 <pthread_mutex_unlock@plt>
 6f725e0:	e9 db 03 db 00       	jmp    7d229c0 <pthread_mutex_unlock@plt>
 6f72b41:	e8 7a fe da 00       	call   7d229c0 <pthread_mutex_unlock@plt>
 6f72d48:	e8 73 fc da 00       	call   7d229c0 <pthread_mutex_unlock@plt>
 6f72e03:	e8 b8 fb da 00       	call   7d229c0 <pthread_mutex_unlock@plt>
 6f732c1:	e8 fa f6 da 00       	call   7d229c0 <pthread_mutex_unlock@plt>
 6f740eb:	e8 a0 b2 af fc       	call   3a6f390 <std::unique_lock<std::mutex>::unlock()>
 6f74e14:	e8 a7 db da 00       	call   7d229c0 <pthread_mutex_unlock@plt>
 6f74f5a:	e8 61 da da 00       	call   7d229c0 <pthread_mutex_unlock@plt>
 6f75839:	e8 82 d1 da 00       	call   7d229c0 <pthread_mutex_unlock@plt>
 6f79f76:	e8 45 8a da 00       	call   7d229c0 <pthread_mutex_unlock@plt>
 6f7a2f3:	e9 c8 86 da 00       	jmp    7d229c0 <pthread_mutex_unlock@plt>
 6f7a44f:	e8 6c 85 da 00       	call   7d229c0 <pthread_mutex_unlock@plt>
 6f7a5cd:	e8 ee 83 da 00       	call   7d229c0 <pthread_mutex_unlock@plt>
 6f7a650:	e8 6b 83 da 00       	call   7d229c0 <pthread_mutex_unlock@plt>
 6f7b181:	e8 3a 78 da 00       	call   7d229c0 <pthread_mutex_unlock@plt>
 6f7c2bd:	e8 fe 66 da 00       	call   7d229c0 <pthread_mutex_unlock@plt>
 6f7c2c8:	e8 f3 66 da 00       	call   7d229c0 <pthread_mutex_unlock@plt>
 6f7c640:	e8 7b 63 da 00       	call   7d229c0 <pthread_mutex_unlock@plt>
 6f7c7f5:	e8 96 2b af fc       	call   3a6f390 <std::unique_lock<std::mutex>::unlock()>
 6f7c819:	e8 72 2b af fc       	call   3a6f390 <std::unique_lock<std::mutex>::unlock()>
 6f7c8c3:	e8 c8 2a af fc       	call   3a6f390 <std::unique_lock<std::mutex>::unlock()>
 6f7c8e9:	e8 a2 2a af fc       	call   3a6f390 <std::unique_lock<std::mutex>::unlock()>
 6f7c931:	e8 5a 2a af fc       	call   3a6f390 <std::unique_lock<std::mutex>::unlock()>
 6f7c977:	e8 14 2a af fc       	call   3a6f390 <std::unique_lock<std::mutex>::unlock()>
 6f7da81:	e8 3a 4f da 00       	call   7d229c0 <pthread_mutex_unlock@plt>
 6f7db0b:	e8 b0 4e da 00       	call   7d229c0 <pthread_mutex_unlock@plt>
 6f7db39:	e8 82 4e da 00       	call   7d229c0 <pthread_mutex_unlock@plt>
 6f7db91:	e8 2a 4e da 00       	call   7d229c0 <pthread_mutex_unlock@plt>
 6f7dc05:	e8 86 17 af fc       	call   3a6f390 <std::unique_lock<std::mutex>::unlock()>
 6f7dc38:	e8 83 4d da 00       	call   7d229c0 <pthread_mutex_unlock@plt>
 6f7dcd7:	e8 b4 16 af fc       	call   3a6f390 <std::unique_lock<std::mutex>::unlock()>
 6f7de10:	e8 7b 15 af fc       	call   3a6f390 <std::unique_lock<std::mutex>::unlock()>
 6f7ebdf:	e8 ac 07 af fc       	call   3a6f390 <std::unique_lock<std::mutex>::unlock()>
 6f7f216:	e8 a5 37 da 00       	call   7d229c0 <pthread_mutex_unlock@plt>
 6f7f3ec:	e8 cf 35 da 00       	call   7d229c0 <pthread_mutex_unlock@plt>
 6f7fa6f:	e8 4c 2f da 00       	call   7d229c0 <pthread_mutex_unlock@plt>
 6f7facd:	e8 ee 2e da 00       	call   7d229c0 <pthread_mutex_unlock@plt>
 6f7fd27:	e8 94 2c da 00       	call   7d229c0 <pthread_mutex_unlock@plt>
 6f87eff:	e9 bc aa d9 00       	jmp    7d229c0 <pthread_mutex_unlock@plt>
 6f87f70:	e9 4b aa d9 00       	jmp    7d229c0 <pthread_mutex_unlock@plt>
 6f87fe0:	e9 db a9 d9 00       	jmp    7d229c0 <pthread_mutex_unlock@plt>
 6f8893b:	e8 80 a0 d9 00       	call   7d229c0 <pthread_mutex_unlock@plt>
 6f89000:	e8 bb 99 d9 00       	call   7d229c0 <pthread_mutex_unlock@plt>
 6f89014:	e8 a7 99 d9 00       	call   7d229c0 <pthread_mutex_unlock@plt>
 6f89028:	e8 93 99 d9 00       	call   7d229c0 <pthread_mutex_unlock@plt>
 6f89208:	e8 b3 97 d9 00       	call   7d229c0 <pthread_mutex_unlock@plt>
 6f8946a:	e8 51 95 d9 00       	call   7d229c0 <pthread_mutex_unlock@plt>
 6f894bd:	e8 fe 94 d9 00       	call   7d229c0 <pthread_mutex_unlock@plt>
 6f8a16c:	e8 4f 88 d9 00       	call   7d229c0 <pthread_mutex_unlock@plt>
 6f8a65a:	e8 61 83 d9 00       	call   7d229c0 <pthread_mutex_unlock@plt>
 6f8aa0e:	e8 ad 7f d9 00       	call   7d229c0 <pthread_mutex_unlock@plt>
 6f8aa6f:	e8 1c 49 ae fc       	call   3a6f390 <std::unique_lock<std::mutex>::unlock()>
 6f8ac02:	e8 b9 7d d9 00       	call   7d229c0 <pthread_mutex_unlock@plt>
 6f8ac94:	e9 27 7d d9 00       	jmp    7d229c0 <pthread_mutex_unlock@plt>
 6f8b0d4:	e8 e7 78 d9 00       	call   7d229c0 <pthread_mutex_unlock@plt>
 6f8b15c:	e8 2f 42 ae fc       	call   3a6f390 <std::unique_lock<std::mutex>::unlock()>
 6f8b32f:	e8 8c 76 d9 00       	call   7d229c0 <pthread_mutex_unlock@plt>
 6f8b3b4:	e8 d7 3f ae fc       	call   3a6f390 <std::unique_lock<std::mutex>::unlock()>
 6f8b5a4:	e8 17 74 d9 00       	call   7d229c0 <pthread_mutex_unlock@plt>
 6f8b622:	e8 99 73 d9 00       	call   7d229c0 <pthread_mutex_unlock@plt>
 6f8b991:	e8 2a 70 d9 00       	call   7d229c0 <pthread_mutex_unlock@plt>
 6f8badb:	e8 b0 38 ae fc       	call   3a6f390 <std::unique_lock<std::mutex>::unlock()>
 6f8be93:	e8 f8 34 ae fc       	call   3a6f390 <std::unique_lock<std::mutex>::unlock()>
 6f8c113:	e8 78 32 ae fc       	call   3a6f390 <std::unique_lock<std::mutex>::unlock()>
 6f8c543:	e8 48 2e ae fc       	call   3a6f390 <std::unique_lock<std::mutex>::unlock()>
 6f8c574:	e8 47 64 d9 00       	call   7d229c0 <pthread_mutex_unlock@plt>
 6f8c6db:	e8 b0 2c ae fc       	call   3a6f390 <std::unique_lock<std::mutex>::unlock()>
 6f8c70c:	e8 af 62 d9 00       	call   7d229c0 <pthread_mutex_unlock@plt>
 6f8c9fd:	e9 be 5f d9 00       	jmp    7d229c0 <pthread_mutex_unlock@plt>
 6f8ce6c:	e8 1f 25 ae fc       	call   3a6f390 <std::unique_lock<std::mutex>::unlock()>
 6f8d93f:	e8 4c 1a ae fc       	call   3a6f390 <std::unique_lock<std::mutex>::unlock()>
 6f8dc84:	e8 37 4d d9 00       	call   7d229c0 <pthread_mutex_unlock@plt>
 6f8df33:	e8 58 14 ae fc       	call   3a6f390 <std::unique_lock<std::mutex>::unlock()>
 6f8e1f4:	e9 c7 47 d9 00       	jmp    7d229c0 <pthread_mutex_unlock@plt>
 6f8e3e4:	e9 d7 45 d9 00       	jmp    7d229c0 <pthread_mutex_unlock@plt>
 6f8e52a:	e9 91 44 d9 00       	jmp    7d229c0 <pthread_mutex_unlock@plt>
 6f8e6c3:	e8 c8 0c ae fc       	call   3a6f390 <std::unique_lock<std::mutex>::unlock()>
 6f8e768:	e8 23 0c ae fc       	call   3a6f390 <std::unique_lock<std::mutex>::unlock()>
 6f8ea40:	e8 4b 09 ae fc       	call   3a6f390 <std::unique_lock<std::mutex>::unlock()>
 6f8eaae:	e8 dd 08 ae fc       	call   3a6f390 <std::unique_lock<std::mutex>::unlock()>
 6f8eca8:	e8 e3 06 ae fc       	call   3a6f390 <std::unique_lock<std::mutex>::unlock()>
 6f8eccc:	e8 bf 06 ae fc       	call   3a6f390 <std::unique_lock<std::mutex>::unlock()>
 6f8ed53:	e8 38 06 ae fc       	call   3a6f390 <std::unique_lock<std::mutex>::unlock()>
 6f8ee7c:	e8 0f 05 ae fc       	call   3a6f390 <std::unique_lock<std::mutex>::unlock()>
 6f8efa0:	e8 eb 03 ae fc       	call   3a6f390 <std::unique_lock<std::mutex>::unlock()>
 6f8f02f:	e8 5c 03 ae fc       	call   3a6f390 <std::unique_lock<std::mutex>::unlock()>
 6f8f258:	e8 33 01 ae fc       	call   3a6f390 <std::unique_lock<std::mutex>::unlock()>
 6f8f7a7:	e8 e4 fb ad fc       	call   3a6f390 <std::unique_lock<std::mutex>::unlock()>
 6f8f7c0:	e8 cb fb ad fc       	call   3a6f390 <std::unique_lock<std::mutex>::unlock()>
 6f8f7f8:	e8 93 fb ad fc       	call   3a6f390 <std::unique_lock<std::mutex>::unlock()>
 6f9214a:	e8 71 08 d9 00       	call   7d229c0 <pthread_mutex_unlock@plt>
 6f99744:	e9 77 92 d8 00       	jmp    7d229c0 <pthread_mutex_unlock@plt>
 6f999fc:	e8 bf 8f d8 00       	call   7d229c0 <pthread_mutex_unlock@plt>
 6f9a619:	e8 72 4d ad fc       	call   3a6f390 <std::unique_lock<std::mutex>::unlock()>
 6fa4f8a:	e8 31 da d7 00       	call   7d229c0 <pthread_mutex_unlock@plt>
 6faf378:	e8 43 36 d7 00       	call   7d229c0 <pthread_mutex_unlock@plt>
 6fafab3:	e8 08 2f d7 00       	call   7d229c0 <pthread_mutex_unlock@plt>
 6fb1ea6:	e8 15 0b d7 00       	call   7d229c0 <pthread_mutex_unlock@plt>
 6fb2640:	e8 7b 03 d7 00       	call   7d229c0 <pthread_mutex_unlock@plt>
 6fb2e60:	e9 5b fb d6 00       	jmp    7d229c0 <pthread_mutex_unlock@plt>
 6fb2fea:	e8 d1 f9 d6 00       	call   7d229c0 <pthread_mutex_unlock@plt>
 6fb4086:	e8 35 e9 d6 00       	call   7d229c0 <pthread_mutex_unlock@plt>
 6fb4820:	e8 9b e1 d6 00       	call   7d229c0 <pthread_mutex_unlock@plt>
 6fb648f:	e8 2c c5 d6 00       	call   7d229c0 <pthread_mutex_unlock@plt>
 6fb6c87:	e8 34 bd d6 00       	call   7d229c0 <pthread_mutex_unlock@plt>
 6fbb713:	e8 a8 72 d6 00       	call   7d229c0 <pthread_mutex_unlock@plt>
 6fbbf09:	e8 b2 6a d6 00       	call   7d229c0 <pthread_mutex_unlock@plt>
 6fbd795:	e8 26 52 d6 00       	call   7d229c0 <pthread_mutex_unlock@plt>
 6fbdf9f:	e8 1c 4a d6 00       	call   7d229c0 <pthread_mutex_unlock@plt>
 6fc00a3:	e8 18 29 d6 00       	call   7d229c0 <pthread_mutex_unlock@plt>
 6fc08a9:	e8 12 21 d6 00       	call   7d229c0 <pthread_mutex_unlock@plt>
 6fc120a:	e8 b1 17 d6 00       	call   7d229c0 <pthread_mutex_unlock@plt>
 6fc1d45:	e9 76 0c d6 00       	jmp    7d229c0 <pthread_mutex_unlock@plt>
 6fc1dcf:	e8 bc d5 aa fc       	call   3a6f390 <std::unique_lock<std::mutex>::unlock()>
 6fc1df3:	e8 c8 0b d6 00       	call   7d229c0 <pthread_mutex_unlock@plt>
 6fc1e4b:	e8 70 0b d6 00       	call   7d229c0 <pthread_mutex_unlock@plt>
 6fc1e84:	e8 07 d5 aa fc       	call   3a6f390 <std::unique_lock<std::mutex>::unlock()>
 6fc1ea6:	e8 e5 d4 aa fc       	call   3a6f390 <std::unique_lock<std::mutex>::unlock()>
 6fc427a:	e9 41 e7 d5 00       	jmp    7d229c0 <pthread_mutex_unlock@plt>
 6fc4cd1:	e8 ea dc d5 00       	call   7d229c0 <pthread_mutex_unlock@plt>
 6fc54db:	e8 e0 d4 d5 00       	call   7d229c0 <pthread_mutex_unlock@plt>
 6fc6bd1:	e8 ba 87 aa fc       	call   3a6f390 <std::unique_lock<std::mutex>::unlock()>
 6fc6d39:	e8 52 86 aa fc       	call   3a6f390 <std::unique_lock<std::mutex>::unlock()>
 6fc6ebb:	e8 d0 84 aa fc       	call   3a6f390 <std::unique_lock<std::mutex>::unlock()>
 6fc8c54:	e8 67 9d d5 00       	call   7d229c0 <pthread_mutex_unlock@plt>
 6fc8ea1:	e8 ea 64 aa fc       	call   3a6f390 <std::unique_lock<std::mutex>::unlock()>
 6fc8ee1:	e8 aa 64 aa fc       	call   3a6f390 <std::unique_lock<std::mutex>::unlock()>
 6fc9ba5:	e8 16 8e d5 00       	call   7d229c0 <pthread_mutex_unlock@plt>
 6fca1a0:	e8 1b 88 d5 00       	call   7d229c0 <pthread_mutex_unlock@plt>
 6fca937:	e8 54 4a aa fc       	call   3a6f390 <std::unique_lock<std::mutex>::unlock()>
 6fcb67c:	e8 3f 73 d5 00       	call   7d229c0 <pthread_mutex_unlock@plt>
 6fd22a4:	e8 17 07 d5 00       	call   7d229c0 <pthread_mutex_unlock@plt>
 6fd22ce:	e8 bd d0 a9 fc       	call   3a6f390 <std::unique_lock<std::mutex>::unlock()>
 6fd27b8:	e8 03 02 d5 00       	call   7d229c0 <pthread_mutex_unlock@plt>
 6fd2b83:	e8 08 c8 a9 fc       	call   3a6f390 <std::unique_lock<std::mutex>::unlock()>
 6fd2e99:	e8 22 fb d4 00       	call   7d229c0 <pthread_mutex_unlock@plt>
 6fd2f02:	e8 b9 fa d4 00       	call   7d229c0 <pthread_mutex_unlock@plt>
 6fd3047:	e8 44 c3 a9 fc       	call   3a6f390 <std::unique_lock<std::mutex>::unlock()>
 6fd3072:	e8 19 c3 a9 fc       	call   3a6f390 <std::unique_lock<std::mutex>::unlock()>
 6fd3555:	e8 36 be a9 fc       	call   3a6f390 <std::unique_lock<std::mutex>::unlock()>
 6fd3cd9:	e8 e2 ec d4 00       	call   7d229c0 <pthread_mutex_unlock@plt>
 6fd6cef:	e8 cc bc d4 00       	call   7d229c0 <pthread_mutex_unlock@plt>
 6fd6fda:	e8 e1 b9 d4 00       	call   7d229c0 <pthread_mutex_unlock@plt>
 6fd7017:	e8 74 83 a9 fc       	call   3a6f390 <std::unique_lock<std::mutex>::unlock()>
 6fd704d:	e8 3e 83 a9 fc       	call   3a6f390 <std::unique_lock<std::mutex>::unlock()>
 6fd70f7:	e8 c4 b8 d4 00       	call   7d229c0 <pthread_mutex_unlock@plt>
 6fd8ac0:	e8 fb 9e d4 00       	call   7d229c0 <pthread_mutex_unlock@plt>
 6fd8c0a:	e8 b1 9d d4 00       	call   7d229c0 <pthread_mutex_unlock@plt>
 6fd8ca5:	e8 16 9d d4 00       	call   7d229c0 <pthread_mutex_unlock@plt>
 6fd8da0:	e8 1b 9c d4 00       	call   7d229c0 <pthread_mutex_unlock@plt>
 6fd8efa:	e8 c1 9a d4 00       	call   7d229c0 <pthread_mutex_unlock@plt>
 6fd8f95:	e8 26 9a d4 00       	call   7d229c0 <pthread_mutex_unlock@plt>
 6fe0ddd:	e8 de 1b d4 00       	call   7d229c0 <pthread_mutex_unlock@plt>
 6fe10d4:	e8 e7 18 d4 00       	call   7d229c0 <pthread_mutex_unlock@plt>
 6fe122c:	e9 8f 17 d4 00       	jmp    7d229c0 <pthread_mutex_unlock@plt>
 6fe1380:	e8 0b e0 a8 fc       	call   3a6f390 <std::unique_lock<std::mutex>::unlock()>
 6fe1add:	e8 de 0e d4 00       	call   7d229c0 <pthread_mutex_unlock@plt>
 6fe3400:	e9 bb f5 d3 00       	jmp    7d229c0 <pthread_mutex_unlock@plt>
 6fe358a:	e8 31 f4 d3 00       	call   7d229c0 <pthread_mutex_unlock@plt>
 6fe3681:	e8 3a f3 d3 00       	call   7d229c0 <pthread_mutex_unlock@plt>
 6fe38b8:	e8 03 f1 d3 00       	call   7d229c0 <pthread_mutex_unlock@plt>
 6fe3a55:	e8 36 b9 a8 fc       	call   3a6f390 <std::unique_lock<std::mutex>::unlock()>
 6fe3afc:	e8 8f b8 a8 fc       	call   3a6f390 <std::unique_lock<std::mutex>::unlock()>
 6fe5914:	e8 a7 d0 d3 00       	call   7d229c0 <pthread_mutex_unlock@plt>
 6ff12ea:	e8 d1 16 d3 00       	call   7d229c0 <pthread_mutex_unlock@plt>
 6ff7116:	e8 a5 b8 d2 00       	call   7d229c0 <pthread_mutex_unlock@plt>
 6ffa4df:	e8 ac 4e a7 fc       	call   3a6f390 <std::unique_lock<std::mutex>::unlock()>
 6ffc139:	e8 82 68 d2 00       	call   7d229c0 <pthread_mutex_unlock@plt>
 6ffc866:	e8 25 2b a7 fc       	call   3a6f390 <std::unique_lock<std::mutex>::unlock()>
 7000f48:	e9 73 1a d2 00       	jmp    7d229c0 <pthread_mutex_unlock@plt>
 700227c:	e8 3f 07 d2 00       	call   7d229c0 <pthread_mutex_unlock@plt>
 7002466:	e9 55 05 d2 00       	jmp    7d229c0 <pthread_mutex_unlock@plt>
 7002848:	e9 73 01 d2 00       	jmp    7d229c0 <pthread_mutex_unlock@plt>
 7003936:	e8 85 f0 d1 00       	call   7d229c0 <pthread_mutex_unlock@plt>
 7005f35:	e9 86 ca d1 00       	jmp    7d229c0 <pthread_mutex_unlock@plt>
 7005ff5:	e9 c6 c9 d1 00       	jmp    7d229c0 <pthread_mutex_unlock@plt>
 7006a5e:	e9 5d bf d1 00       	jmp    7d229c0 <pthread_mutex_unlock@plt>
 7006ea8:	e9 13 bb d1 00       	jmp    7d229c0 <pthread_mutex_unlock@plt>
 7007381:	e8 3a b6 d1 00       	call   7d229c0 <pthread_mutex_unlock@plt>
 70077cf:	e9 ec b1 d1 00       	jmp    7d229c0 <pthread_mutex_unlock@plt>
 7007914:	e9 a7 b0 d1 00       	jmp    7d229c0 <pthread_mutex_unlock@plt>
 7008b49:	e9 72 9e d1 00       	jmp    7d229c0 <pthread_mutex_unlock@plt>
 7009093:	e8 28 99 d1 00       	call   7d229c0 <pthread_mutex_unlock@plt>
 70094a0:	e8 1b 95 d1 00       	call   7d229c0 <pthread_mutex_unlock@plt>
 70094c1:	e8 fa 94 d1 00       	call   7d229c0 <pthread_mutex_unlock@plt>
 700962a:	e8 91 93 d1 00       	call   7d229c0 <pthread_mutex_unlock@plt>
 7009b65:	e8 56 8e d1 00       	call   7d229c0 <pthread_mutex_unlock@plt>
 700a0e6:	e8 d5 88 d1 00       	call   7d229c0 <pthread_mutex_unlock@plt>
 700a10c:	e8 af 88 d1 00       	call   7d229c0 <pthread_mutex_unlock@plt>
 700a2c9:	e8 f2 86 d1 00       	call   7d229c0 <pthread_mutex_unlock@plt>
 700a316:	e8 a5 86 d1 00       	call   7d229c0 <pthread_mutex_unlock@plt>
 700a3a7:	e8 14 86 d1 00       	call   7d229c0 <pthread_mutex_unlock@plt>
 700a3d9:	e8 e2 85 d1 00       	call   7d229c0 <pthread_mutex_unlock@plt>
 700a3fd:	e8 be 85 d1 00       	call   7d229c0 <pthread_mutex_unlock@plt>
 700a48e:	e9 2d 85 d1 00       	jmp    7d229c0 <pthread_mutex_unlock@plt>
 700a4b2:	e8 09 85 d1 00       	call   7d229c0 <pthread_mutex_unlock@plt>
 700a50d:	e8 ae 84 d1 00       	call   7d229c0 <pthread_mutex_unlock@plt>
 700a8aa:	e8 11 81 d1 00       	call   7d229c0 <pthread_mutex_unlock@plt>
 700ac92:	e8 29 7d d1 00       	call   7d229c0 <pthread_mutex_unlock@plt>
 700b017:	e9 a4 79 d1 00       	jmp    7d229c0 <pthread_mutex_unlock@plt>
 700b754:	e8 67 72 d1 00       	call   7d229c0 <pthread_mutex_unlock@plt>
 700b8bf:	e8 fc 70 d1 00       	call   7d229c0 <pthread_mutex_unlock@plt>
 7010447:	e8 74 25 d1 00       	call   7d229c0 <pthread_mutex_unlock@plt>
 7010528:	e8 93 24 d1 00       	call   7d229c0 <pthread_mutex_unlock@plt>
 701096f:	e9 4c 20 d1 00       	jmp    7d229c0 <pthread_mutex_unlock@plt>
 7010aa9:	e9 12 1f d1 00       	jmp    7d229c0 <pthread_mutex_unlock@plt>
 7010b89:	e9 32 1e d1 00       	jmp    7d229c0 <pthread_mutex_unlock@plt>
 7010c7f:	e9 3c 1d d1 00       	jmp    7d229c0 <pthread_mutex_unlock@plt>
 7010d5b:	e9 60 1c d1 00       	jmp    7d229c0 <pthread_mutex_unlock@plt>
 7010e48:	e8 73 1b d1 00       	call   7d229c0 <pthread_mutex_unlock@plt>
 7010e5c:	e8 5f 1b d1 00       	call   7d229c0 <pthread_mutex_unlock@plt>
 7010e70:	e8 4b 1b d1 00       	call   7d229c0 <pthread_mutex_unlock@plt>
 7010e84:	e8 37 1b d1 00       	call   7d229c0 <pthread_mutex_unlock@plt>
 702aaa2:	e9 19 7f cf 00       	jmp    7d229c0 <pthread_mutex_unlock@plt>
 702b1d9:	e8 e2 77 cf 00       	call   7d229c0 <pthread_mutex_unlock@plt>
 702b7a3:	e8 18 72 cf 00       	call   7d229c0 <pthread_mutex_unlock@plt>
 702b9af:	e8 0c 70 cf 00       	call   7d229c0 <pthread_mutex_unlock@plt>
 702bd54:	e9 67 6c cf 00       	jmp    7d229c0 <pthread_mutex_unlock@plt>
 702c531:	e8 8a 64 cf 00       	call   7d229c0 <pthread_mutex_unlock@plt>
 702cfd4:	e8 e7 59 cf 00       	call   7d229c0 <pthread_mutex_unlock@plt>
 702dad9:	e8 e2 4e cf 00       	call   7d229c0 <pthread_mutex_unlock@plt>
 702def9:	e8 c2 4a cf 00       	call   7d229c0 <pthread_mutex_unlock@plt>
 702e241:	e8 7a 47 cf 00       	call   7d229c0 <pthread_mutex_unlock@plt>
 702e561:	e8 5a 44 cf 00       	call   7d229c0 <pthread_mutex_unlock@plt>
 702e8a1:	e8 1a 41 cf 00       	call   7d229c0 <pthread_mutex_unlock@plt>
 702ebb9:	e8 02 3e cf 00       	call   7d229c0 <pthread_mutex_unlock@plt>
 702ee99:	e8 22 3b cf 00       	call   7d229c0 <pthread_mutex_unlock@plt>
 702f060:	e8 5b 39 cf 00       	call   7d229c0 <pthread_mutex_unlock@plt>
 702f0d6:	e8 e5 38 cf 00       	call   7d229c0 <pthread_mutex_unlock@plt>
 702f2c4:	e8 f7 36 cf 00       	call   7d229c0 <pthread_mutex_unlock@plt>
 702f302:	e8 b9 36 cf 00       	call   7d229c0 <pthread_mutex_unlock@plt>
 702f33c:	e8 7f 36 cf 00       	call   7d229c0 <pthread_mutex_unlock@plt>
 702f37a:	e8 41 36 cf 00       	call   7d229c0 <pthread_mutex_unlock@plt>
 702f3b4:	e8 07 36 cf 00       	call   7d229c0 <pthread_mutex_unlock@plt>
 702f3f2:	e8 c9 35 cf 00       	call   7d229c0 <pthread_mutex_unlock@plt>
 702f42c:	e8 8f 35 cf 00       	call   7d229c0 <pthread_mutex_unlock@plt>
 7038454:	e8 67 a5 ce 00       	call   7d229c0 <pthread_mutex_unlock@plt>
 70384ef:	e8 cc a4 ce 00       	call   7d229c0 <pthread_mutex_unlock@plt>
 70394f2:	e8 c9 94 ce 00       	call   7d229c0 <pthread_mutex_unlock@plt>
 7039fbf:	e8 fc 89 ce 00       	call   7d229c0 <pthread_mutex_unlock@plt>
 703a39f:	e9 1c 86 ce 00       	jmp    7d229c0 <pthread_mutex_unlock@plt>
 703a6aa:	e8 11 83 ce 00       	call   7d229c0 <pthread_mutex_unlock@plt>
 703aa73:	e8 48 7f ce 00       	call   7d229c0 <pthread_mutex_unlock@plt>
 703aaf8:	e8 c3 7e ce 00       	call   7d229c0 <pthread_mutex_unlock@plt>
 7043a8a:	e8 31 ef cd 00       	call   7d229c0 <pthread_mutex_unlock@plt>
 70f31b2:	e8 09 f8 c2 00       	call   7d229c0 <pthread_mutex_unlock@plt>
 70f375c:	e8 5f f2 c2 00       	call   7d229c0 <pthread_mutex_unlock@plt>
 70f3b99:	e8 22 ee c2 00       	call   7d229c0 <pthread_mutex_unlock@plt>
 70f609c:	e8 1f c9 c2 00       	call   7d229c0 <pthread_mutex_unlock@plt>
 710871a:	e8 a1 a2 c1 00       	call   7d229c0 <pthread_mutex_unlock@plt>
 710c8af:	e8 0c 61 c1 00       	call   7d229c0 <pthread_mutex_unlock@plt>
 710cc60:	e8 5b 5d c1 00       	call   7d229c0 <pthread_mutex_unlock@plt>
 710d7cc:	e8 ef 51 c1 00       	call   7d229c0 <pthread_mutex_unlock@plt>
 710e8fc:	e8 8f 0a 96 fc       	call   3a6f390 <std::unique_lock<std::mutex>::unlock()>
 710eb91:	e8 fa 07 96 fc       	call   3a6f390 <std::unique_lock<std::mutex>::unlock()>
 710ed2b:	e8 60 06 96 fc       	call   3a6f390 <std::unique_lock<std::mutex>::unlock()>
 710f049:	e8 72 39 c1 00       	call   7d229c0 <pthread_mutex_unlock@plt>
 7117d59:	e8 62 ac c0 00       	call   7d229c0 <pthread_mutex_unlock@plt>
 7117e41:	e8 7a ab c0 00       	call   7d229c0 <pthread_mutex_unlock@plt>
 7117eab:	e8 50 00 00 00       	call   7117f00 <std::unique_lock<mongo::SimpleMutex>::unlock()>
 7117eef:	e8 0c 00 00 00       	call   7117f00 <std::unique_lock<mongo::SimpleMutex>::unlock()>
0000000007117f00 <std::unique_lock<mongo::SimpleMutex>::unlock()>:
 7117f0d:	74 1e                	je     7117f2d <std::unique_lock<mongo::SimpleMutex>::unlock()+0x2d>
 7117f18:	74 0d                	je     7117f27 <std::unique_lock<mongo::SimpleMutex>::unlock()+0x27>
 7117f1a:	e8 a1 aa c0 00       	call   7d229c0 <pthread_mutex_unlock@plt>
 7117f21:	75 14                	jne    7117f37 <std::unique_lock<mongo::SimpleMutex>::unlock()+0x37>
 7117fda:	e8 e1 a9 c0 00       	call   7d229c0 <pthread_mutex_unlock@plt>
 711807f:	e9 3c a9 c0 00       	jmp    7d229c0 <pthread_mutex_unlock@plt>
 711919a:	e8 21 98 c0 00       	call   7d229c0 <pthread_mutex_unlock@plt>
 7134e4e:	e8 6d db be 00       	call   7d229c0 <pthread_mutex_unlock@plt>
 7141934:	e8 87 10 be 00       	call   7d229c0 <pthread_mutex_unlock@plt>
 7162bee:	e8 cd fd bb 00       	call   7d229c0 <pthread_mutex_unlock@plt>
 7162e79:	e8 42 fb bb 00       	call   7d229c0 <pthread_mutex_unlock@plt>
 716429c:	e8 1f e7 bb 00       	call   7d229c0 <pthread_mutex_unlock@plt>
 7164756:	e8 65 e2 bb 00       	call   7d229c0 <pthread_mutex_unlock@plt>
 71648a1:	e8 1a e1 bb 00       	call   7d229c0 <pthread_mutex_unlock@plt>
 7165231:	e8 8a d7 bb 00       	call   7d229c0 <pthread_mutex_unlock@plt>
 71652c9:	e9 f2 d6 bb 00       	jmp    7d229c0 <pthread_mutex_unlock@plt>
 71652ec:	e9 cf d6 bb 00       	jmp    7d229c0 <pthread_mutex_unlock@plt>
 7165376:	e9 45 d6 bb 00       	jmp    7d229c0 <pthread_mutex_unlock@plt>
 716574e:	e9 6d d2 bb 00       	jmp    7d229c0 <pthread_mutex_unlock@plt>
 716591f:	e8 9c d0 bb 00       	call   7d229c0 <pthread_mutex_unlock@plt>
 7166cda:	e8 e1 bc bb 00       	call   7d229c0 <pthread_mutex_unlock@plt>
 716725b:	e8 60 b7 bb 00       	call   7d229c0 <pthread_mutex_unlock@plt>
 7167288:	e8 33 b7 bb 00       	call   7d229c0 <pthread_mutex_unlock@plt>
 7167bae:	e8 0d ae bb 00       	call   7d229c0 <pthread_mutex_unlock@plt>
 7167c95:	e9 26 ad bb 00       	jmp    7d229c0 <pthread_mutex_unlock@plt>
 7167f84:	e8 37 aa bb 00       	call   7d229c0 <pthread_mutex_unlock@plt>
 71683e9:	e9 d2 a5 bb 00       	jmp    7d229c0 <pthread_mutex_unlock@plt>
 71689fe:	e8 bd 9f bb 00       	call   7d229c0 <pthread_mutex_unlock@plt>
 7168a44:	e8 77 9f bb 00       	call   7d229c0 <pthread_mutex_unlock@plt>
 7168af2:	e8 c9 9e bb 00       	call   7d229c0 <pthread_mutex_unlock@plt>
 7168c3d:	e8 7e 9d bb 00       	call   7d229c0 <pthread_mutex_unlock@plt>
 7169638:	e8 83 93 bb 00       	call   7d229c0 <pthread_mutex_unlock@plt>
 7169643:	e8 78 93 bb 00       	call   7d229c0 <pthread_mutex_unlock@plt>
 716966b:	e8 50 93 bb 00       	call   7d229c0 <pthread_mutex_unlock@plt>
 7169a3f:	e9 7c 8f bb 00       	jmp    7d229c0 <pthread_mutex_unlock@plt>
 7169dd0:	e8 eb 8b bb 00       	call   7d229c0 <pthread_mutex_unlock@plt>
 716a688:	e8 33 83 bb 00       	call   7d229c0 <pthread_mutex_unlock@plt>
 716afad:	e8 0e 7a bb 00       	call   7d229c0 <pthread_mutex_unlock@plt>
 716b2bb:	e8 00 77 bb 00       	call   7d229c0 <pthread_mutex_unlock@plt>
 716b3dd:	e8 de 75 bb 00       	call   7d229c0 <pthread_mutex_unlock@plt>
 716b631:	e8 5a 3d 90 fc       	call   3a6f390 <std::unique_lock<std::mutex>::unlock()>
 716b701:	e8 8a 3c 90 fc       	call   3a6f390 <std::unique_lock<std::mutex>::unlock()>
 716b75e:	e8 5d 72 bb 00       	call   7d229c0 <pthread_mutex_unlock@plt>
 716b91d:	e8 6e 3a 90 fc       	call   3a6f390 <std::unique_lock<std::mutex>::unlock()>
 716b957:	e8 34 3a 90 fc       	call   3a6f390 <std::unique_lock<std::mutex>::unlock()>
 716bbcb:	e8 f0 6d bb 00       	call   7d229c0 <pthread_mutex_unlock@plt>
 716bc17:	e8 a4 6d bb 00       	call   7d229c0 <pthread_mutex_unlock@plt>
 716bc34:	e8 87 6d bb 00       	call   7d229c0 <pthread_mutex_unlock@plt>
 716bdd7:	e8 b4 35 90 fc       	call   3a6f390 <std::unique_lock<std::mutex>::unlock()>
 716be97:	e8 f4 34 90 fc       	call   3a6f390 <std::unique_lock<std::mutex>::unlock()>
 716bedb:	e8 b0 34 90 fc       	call   3a6f390 <std::unique_lock<std::mutex>::unlock()>
 716bff6:	e8 c5 69 bb 00       	call   7d229c0 <pthread_mutex_unlock@plt>
 716c05d:	e8 5e 69 bb 00       	call   7d229c0 <pthread_mutex_unlock@plt>
 716d3a3:	e8 18 56 bb 00       	call   7d229c0 <pthread_mutex_unlock@plt>
 716e2f5:	e8 c6 46 bb 00       	call   7d229c0 <pthread_mutex_unlock@plt>
 716e303:	e8 b8 46 bb 00       	call   7d229c0 <pthread_mutex_unlock@plt>
 716e328:	e8 93 46 bb 00       	call   7d229c0 <pthread_mutex_unlock@plt>
 716e34d:	e9 6e 46 bb 00       	jmp    7d229c0 <pthread_mutex_unlock@plt>
 716e74f:	e8 6c 42 bb 00       	call   7d229c0 <pthread_mutex_unlock@plt>
 716e7d2:	e8 e9 41 bb 00       	call   7d229c0 <pthread_mutex_unlock@plt>
 716e82e:	e8 8d 41 bb 00       	call   7d229c0 <pthread_mutex_unlock@plt>
 716e976:	e8 45 40 bb 00       	call   7d229c0 <pthread_mutex_unlock@plt>
 716eb26:	e8 95 3e bb 00       	call   7d229c0 <pthread_mutex_unlock@plt>
 716ebb0:	e8 0b 3e bb 00       	call   7d229c0 <pthread_mutex_unlock@plt>
 716eee1:	e8 da 3a bb 00       	call   7d229c0 <pthread_mutex_unlock@plt>
 716f111:	e8 aa 38 bb 00       	call   7d229c0 <pthread_mutex_unlock@plt>
 716f6d2:	e8 e9 32 bb 00       	call   7d229c0 <pthread_mutex_unlock@plt>
 716f75e:	e8 5d 32 bb 00       	call   7d229c0 <pthread_mutex_unlock@plt>
 716f890:	e8 2b 31 bb 00       	call   7d229c0 <pthread_mutex_unlock@plt>
 716f9c3:	e8 f8 2f bb 00       	call   7d229c0 <pthread_mutex_unlock@plt>
 716f9fc:	e8 bf 2f bb 00       	call   7d229c0 <pthread_mutex_unlock@plt>
 716fb03:	e9 b8 2e bb 00       	jmp    7d229c0 <pthread_mutex_unlock@plt>
 716fe75:	e8 46 2b bb 00       	call   7d229c0 <pthread_mutex_unlock@plt>
 717005c:	e8 2f f3 8f fc       	call   3a6f390 <std::unique_lock<std::mutex>::unlock()>
 7170082:	e8 09 f3 8f fc       	call   3a6f390 <std::unique_lock<std::mutex>::unlock()>
 717019c:	e8 ef f1 8f fc       	call   3a6f390 <std::unique_lock<std::mutex>::unlock()>
 717023d:	e8 7e 27 bb 00       	call   7d229c0 <pthread_mutex_unlock@plt>
 7170274:	e8 47 27 bb 00       	call   7d229c0 <pthread_mutex_unlock@plt>
 7170289:	e8 02 f1 8f fc       	call   3a6f390 <std::unique_lock<std::mutex>::unlock()>
 71702e2:	e8 d9 26 bb 00       	call   7d229c0 <pthread_mutex_unlock@plt>
 717141b:	e8 a0 15 bb 00       	call   7d229c0 <pthread_mutex_unlock@plt>
 7171b1b:	e8 a0 0e bb 00       	call   7d229c0 <pthread_mutex_unlock@plt>
 7171c5e:	e9 5d 0d bb 00       	jmp    7d229c0 <pthread_mutex_unlock@plt>
 7171ca5:	e8 16 0d bb 00       	call   7d229c0 <pthread_mutex_unlock@plt>
 7171d31:	e8 8a 0c bb 00       	call   7d229c0 <pthread_mutex_unlock@plt>
 7172738:	e8 83 02 bb 00       	call   7d229c0 <pthread_mutex_unlock@plt>
 7173095:	e8 26 f9 ba 00       	call   7d229c0 <pthread_mutex_unlock@plt>
 71730b8:	e8 03 f9 ba 00       	call   7d229c0 <pthread_mutex_unlock@plt>
 71730c0:	e8 fb f8 ba 00       	call   7d229c0 <pthread_mutex_unlock@plt>
 7173232:	e8 59 c1 8f fc       	call   3a6f390 <std::unique_lock<std::mutex>::unlock()>
 71738aa:	e8 11 f1 ba 00       	call   7d229c0 <pthread_mutex_unlock@plt>
 71738f8:	e8 c3 f0 ba 00       	call   7d229c0 <pthread_mutex_unlock@plt>
 7173ac3:	e8 c8 b8 8f fc       	call   3a6f390 <std::unique_lock<std::mutex>::unlock()>
 717adca:	e8 f1 7b ba 00       	call   7d229c0 <pthread_mutex_unlock@plt>
 717ae0c:	e8 af 7b ba 00       	call   7d229c0 <pthread_mutex_unlock@plt>
 717aecf:	e8 ec 7a ba 00       	call   7d229c0 <pthread_mutex_unlock@plt>
 717af0c:	e8 af 7a ba 00       	call   7d229c0 <pthread_mutex_unlock@plt>
 717af55:	e8 66 7a ba 00       	call   7d229c0 <pthread_mutex_unlock@plt>
 717b24f:	e8 6c 77 ba 00       	call   7d229c0 <pthread_mutex_unlock@plt>
 717b2e8:	e8 d3 76 ba 00       	call   7d229c0 <pthread_mutex_unlock@plt>
 717c7d7:	e8 e4 61 ba 00       	call   7d229c0 <pthread_mutex_unlock@plt>
 717cf78:	e8 43 5a ba 00       	call   7d229c0 <pthread_mutex_unlock@plt>
 717d158:	e8 63 58 ba 00       	call   7d229c0 <pthread_mutex_unlock@plt>
00000000071844a0 <mongo::Lock::ResourceLock::_unlock() [clone .part.0]>:
 71844b2:	74 24                	je     71844d8 <mongo::Lock::ResourceLock::_unlock() [clone .part.0]+0x38>
 7184ab7:	e8 04 df b9 00       	call   7d229c0 <pthread_mutex_unlock@plt>
0000000007184c80 <mongo::Lock::GlobalLock::_unlock()>:
 7184ddd:	e8 be f6 ff ff       	call   71844a0 <mongo::Lock::ResourceLock::_unlock() [clone .part.0]>
 7184dfb:	e8 a0 f6 ff ff       	call   71844a0 <mongo::Lock::ResourceLock::_unlock() [clone .part.0]>
 71850ce:	e8 cd f3 ff ff       	call   71844a0 <mongo::Lock::ResourceLock::_unlock() [clone .part.0]>
 7185105:	e8 96 f3 ff ff       	call   71844a0 <mongo::Lock::ResourceLock::_unlock() [clone .part.0]>
00000000071851c0 <mongo::Lock::ResourceLock::_unlock()>:
 71851c5:	75 39                	jne    7185200 <mongo::Lock::ResourceLock::_unlock()+0x40>
 71851d9:	74 2d                	je     7185208 <mongo::Lock::ResourceLock::_unlock()+0x48>
 7185803:	e8 b8 d1 b9 00       	call   7d229c0 <pthread_mutex_unlock@plt>
 7185a01:	e8 9a ea ff ff       	call   71844a0 <mongo::Lock::ResourceLock::_unlock() [clone .part.0]>
 7185a2c:	e8 8f cf b9 00       	call   7d229c0 <pthread_mutex_unlock@plt>
 7185cc6:	e8 f5 cc b9 00       	call   7d229c0 <pthread_mutex_unlock@plt>
 7186ba3:	e8 18 be b9 00       	call   7d229c0 <pthread_mutex_unlock@plt>
 718705a:	e8 61 b9 b9 00       	call   7d229c0 <pthread_mutex_unlock@plt>
 71873ed:	e8 ce b5 b9 00       	call   7d229c0 <pthread_mutex_unlock@plt>
 7187a6c:	e8 4f af b9 00       	call   7d229c0 <pthread_mutex_unlock@plt>
0000000007187ac0 <mongo::LockManager::unlock(mongo::LockRequest*)>:
 7187ae3:	0f 84 09 47 00 00    	je     718c1f2 <mongo::LockManager::unlock(mongo::LockRequest*) [clone .cold]+0x9a>
 7187afd:	0f 85 f5 00 00 00    	jne    7187bf8 <mongo::LockManager::unlock(mongo::LockRequest*)+0x138>
 7187b0a:	0f 84 ff 46 00 00    	je     718c20f <mongo::LockManager::unlock(mongo::LockRequest*) [clone .cold]+0xb7>
 7187b2c:	0f 85 d8 46 00 00    	jne    718c20a <mongo::LockManager::unlock(mongo::LockRequest*) [clone .cold]+0xb2>
 7187b38:	0f 84 92 01 00 00    	je     7187cd0 <mongo::LockManager::unlock(mongo::LockRequest*)+0x210>
 7187b41:	0f 84 89 02 00 00    	je     7187dd0 <mongo::LockManager::unlock(mongo::LockRequest*)+0x310>
 7187b4a:	0f 85 d7 46 00 00    	jne    718c227 <mongo::LockManager::unlock(mongo::LockRequest*) [clone .cold]+0xcf>
 7187b55:	0f 84 36 47 00 00    	je     718c291 <mongo::LockManager::unlock(mongo::LockRequest*) [clone .cold]+0x139>
 7187b62:	0f 84 f0 45 00 00    	je     718c158 <mongo::LockManager::unlock(mongo::LockRequest*) [clone .cold]>
 7187b83:	0f 84 03 47 00 00    	je     718c28c <mongo::LockManager::unlock(mongo::LockRequest*) [clone .cold]+0x134>
 7187b91:	0f 84 11 03 00 00    	je     7187ea8 <mongo::LockManager::unlock(mongo::LockRequest*)+0x3e8>
 7187bc2:	e8 f9 ad b9 00       	call   7d229c0 <pthread_mutex_unlock@plt>
 7187bc9:	0f 85 70 46 00 00    	jne    718c23f <mongo::LockManager::unlock(mongo::LockRequest*) [clone .cold]+0xe7>
 7187bdc:	0f 85 c7 03 00 00    	jne    7187fa9 <mongo::LockManager::unlock(mongo::LockRequest*)+0x4e9>
 7187c1d:	0f 85 e7 45 00 00    	jne    718c20a <mongo::LockManager::unlock(mongo::LockRequest*) [clone .cold]+0xb2>
 7187c2e:	0f 85 75 46 00 00    	jne    718c2a9 <mongo::LockManager::unlock(mongo::LockRequest*) [clone .cold]+0x151>
 7187c37:	0f 84 c3 02 00 00    	je     7187f00 <mongo::LockManager::unlock(mongo::LockRequest*)+0x440>
 7187c44:	0f 84 86 02 00 00    	je     7187ed0 <mongo::LockManager::unlock(mongo::LockRequest*)+0x410>
 7187c51:	0f 84 f9 02 00 00    	je     7187f50 <mongo::LockManager::unlock(mongo::LockRequest*)+0x490>
 7187c5b:	0f 85 74 45 00 00    	jne    718c1d5 <mongo::LockManager::unlock(mongo::LockRequest*) [clone .cold]+0x7d>
 7187c70:	0f 84 ca 02 00 00    	je     7187f40 <mongo::LockManager::unlock(mongo::LockRequest*)+0x480>
 7187c7a:	0f 85 3d 45 00 00    	jne    718c1bd <mongo::LockManager::unlock(mongo::LockRequest*) [clone .cold]+0x65>
 7187cad:	0f 85 dd 02 00 00    	jne    7187f90 <mongo::LockManager::unlock(mongo::LockRequest*)+0x4d0>
 7187cb6:	e8 05 ad b9 00       	call   7d229c0 <pthread_mutex_unlock@plt>
 7187cbd:	0f 84 0c ff ff ff    	je     7187bcf <mongo::LockManager::unlock(mongo::LockRequest*)+0x10f>
 7187cc3:	e9 c0 44 00 00       	jmp    718c188 <mongo::LockManager::unlock(mongo::LockRequest*) [clone .cold]+0x30>
 7187cda:	0f 85 df fe ff ff    	jne    7187bbf <mongo::LockManager::unlock(mongo::LockRequest*)+0xff>
 7187cec:	0f 84 7e 02 00 00    	je     7187f70 <mongo::LockManager::unlock(mongo::LockRequest*)+0x4b0>
 7187cf6:	0f 85 d9 44 00 00    	jne    718c1d5 <mongo::LockManager::unlock(mongo::LockRequest*) [clone .cold]+0x7d>
 7187d0b:	0f 84 4f 02 00 00    	je     7187f60 <mongo::LockManager::unlock(mongo::LockRequest*)+0x4a0>
 7187d15:	0f 85 a2 44 00 00    	jne    718c1bd <mongo::LockManager::unlock(mongo::LockRequest*) [clone .cold]+0x65>
 7187d4d:	0f 85 4d 02 00 00    	jne    7187fa0 <mongo::LockManager::unlock(mongo::LockRequest*)+0x4e0>
 7187d61:	0f 84 25 45 00 00    	je     718c28c <mongo::LockManager::unlock(mongo::LockRequest*) [clone .cold]+0x134>
 7187d6f:	75 21                	jne    7187d92 <mongo::LockManager::unlock(mongo::LockRequest*)+0x2d2>
 7187d83:	0f 85 1c 44 00 00    	jne    718c1a5 <mongo::LockManager::unlock(mongo::LockRequest*) [clone .cold]+0x4d>
 7187d96:	0f 84 4c 01 00 00    	je     7187ee8 <mongo::LockManager::unlock(mongo::LockRequest*)+0x428>
 7187da3:	0f 84 e4 43 00 00    	je     718c18d <mongo::LockManager::unlock(mongo::LockRequest*) [clone .cold]+0x35>
 7187db4:	0f 85 2e 01 00 00    	jne    7187ee8 <mongo::LockManager::unlock(mongo::LockRequest*)+0x428>
 7187dbc:	0f 84 26 01 00 00    	je     7187ee8 <mongo::LockManager::unlock(mongo::LockRequest*)+0x428>
 7187dc2:	e9 82 44 00 00       	jmp    718c249 <mongo::LockManager::unlock(mongo::LockRequest*) [clone .cold]+0xf1>
 7187dd5:	0f 85 ff 43 00 00    	jne    718c1da <mongo::LockManager::unlock(mongo::LockRequest*) [clone .cold]+0x82>
 7187de7:	0f 84 43 01 00 00    	je     7187f30 <mongo::LockManager::unlock(mongo::LockRequest*)+0x470>
 7187df1:	0f 85 de 43 00 00    	jne    718c1d5 <mongo::LockManager::unlock(mongo::LockRequest*) [clone .cold]+0x7d>
 7187e06:	0f 84 0c 01 00 00    	je     7187f18 <mongo::LockManager::unlock(mongo::LockRequest*)+0x458>
 7187e10:	0f 85 a7 43 00 00    	jne    718c1bd <mongo::LockManager::unlock(mongo::LockRequest*) [clone .cold]+0x65>
 7187e46:	0f 85 34 01 00 00    	jne    7187f80 <mongo::LockManager::unlock(mongo::LockRequest*)+0x4c0>
 7187e5d:	0f 84 0d 43 00 00    	je     718c170 <mongo::LockManager::unlock(mongo::LockRequest*) [clone .cold]+0x18>
 7187e6a:	75 21                	jne    7187e8d <mongo::LockManager::unlock(mongo::LockRequest*)+0x3cd>
 7187e7e:	0f 85 dd 43 00 00    	jne    718c261 <mongo::LockManager::unlock(mongo::LockRequest*) [clone .cold]+0x109>
 7187e9d:	e9 14 fd ff ff       	jmp    7187bb6 <mongo::LockManager::unlock(mongo::LockRequest*)+0xf6>
 7187eba:	0f 85 e5 42 00 00    	jne    718c1a5 <mongo::LockManager::unlock(mongo::LockRequest*) [clone .cold]+0x4d>
 7187ec9:	e9 c9 fc ff ff       	jmp    7187b97 <mongo::LockManager::unlock(mongo::LockRequest*)+0xd7>
 7187ed3:	e8 e8 aa b9 00       	call   7d229c0 <pthread_mutex_unlock@plt>
 7187eda:	0f 84 23 fc ff ff    	je     7187b03 <mongo::LockManager::unlock(mongo::LockRequest*)+0x43>
 7187ee0:	e9 5f 43 00 00       	jmp    718c244 <mongo::LockManager::unlock(mongo::LockRequest*) [clone .cold]+0xec>
 7187ef4:	e9 ac fc ff ff       	jmp    7187ba5 <mongo::LockManager::unlock(mongo::LockRequest*)+0xe5>
 7187f07:	0f 84 30 fd ff ff    	je     7187c3d <mongo::LockManager::unlock(mongo::LockRequest*)+0x17d>
 7187f10:	e9 9e fd ff ff       	jmp    7187cb3 <mongo::LockManager::unlock(mongo::LockRequest*)+0x1f3>
 7187f21:	e9 f8 fe ff ff       	jmp    7187e1e <mongo::LockManager::unlock(mongo::LockRequest*)+0x35e>
 7187f39:	e9 c1 fe ff ff       	jmp    7187dff <mongo::LockManager::unlock(mongo::LockRequest*)+0x33f>
 7187f48:	e9 3b fd ff ff       	jmp    7187c88 <mongo::LockManager::unlock(mongo::LockRequest*)+0x1c8>
 7187f57:	e9 0d fd ff ff       	jmp    7187c69 <mongo::LockManager::unlock(mongo::LockRequest*)+0x1a9>
 7187f69:	e9 b5 fd ff ff       	jmp    7187d23 <mongo::LockManager::unlock(mongo::LockRequest*)+0x263>
 7187f79:	e9 86 fd ff ff       	jmp    7187d04 <mongo::LockManager::unlock(mongo::LockRequest*)+0x244>
 7187fb1:	e9 c3 42 00 00       	jmp    718c279 <mongo::LockManager::unlock(mongo::LockRequest*) [clone .cold]+0x121>
 7187fb9:	e9 03 43 00 00       	jmp    718c2c1 <mongo::LockManager::unlock(mongo::LockRequest*) [clone .cold]+0x169>
 7188046:	e8 75 a9 b9 00       	call   7d229c0 <pthread_mutex_unlock@plt>
 718a074:	e8 47 89 b9 00       	call   7d229c0 <pthread_mutex_unlock@plt>
 718af6b:	e8 50 7a b9 00       	call   7d229c0 <pthread_mutex_unlock@plt>
 718b877:	e8 44 71 b9 00       	call   7d229c0 <pthread_mutex_unlock@plt>
 718b893:	e8 28 71 b9 00       	call   7d229c0 <pthread_mutex_unlock@plt>
 718b922:	e8 99 70 b9 00       	call   7d229c0 <pthread_mutex_unlock@plt>
 718ba44:	e8 77 6f b9 00       	call   7d229c0 <pthread_mutex_unlock@plt>
000000000718baaa <mongo::SimpleMutex::unlock() [clone .part.0]>:
 718bc2d:	e8 78 fe ff ff       	call   718baaa <mongo::SimpleMutex::unlock() [clone .part.0]>
 718bc80:	e8 fb 48 bb fd       	call   4d40580 <mongo::SimpleMutex::unlock()>
 718be5d:	e8 48 fc ff ff       	call   718baaa <mongo::SimpleMutex::unlock() [clone .part.0]>
 718be68:	e8 13 47 bb fd       	call   4d40580 <mongo::SimpleMutex::unlock()>
 718bf23:	e8 82 fb ff ff       	call   718baaa <mongo::SimpleMutex::unlock() [clone .part.0]>
 718bf2e:	e8 4d 46 bb fd       	call   4d40580 <mongo::SimpleMutex::unlock()>
 718c122:	e8 83 f9 ff ff       	call   718baaa <mongo::SimpleMutex::unlock() [clone .part.0]>
 718c14a:	e8 31 44 bb fd       	call   4d40580 <mongo::SimpleMutex::unlock()>
000000000718c158 <mongo::LockManager::unlock(mongo::LockRequest*) [clone .cold]>:
 718c188:	e8 1d f9 ff ff       	call   718baaa <mongo::SimpleMutex::unlock() [clone .part.0]>
 718c23f:	e8 66 f8 ff ff       	call   718baaa <mongo::SimpleMutex::unlock() [clone .part.0]>
 718c244:	e8 61 f8 ff ff       	call   718baaa <mongo::SimpleMutex::unlock() [clone .part.0]>
 718c27f:	e8 fc 42 bb fd       	call   4d40580 <mongo::SimpleMutex::unlock()>
 718c2c7:	e8 b4 42 bb fd       	call   4d40580 <mongo::SimpleMutex::unlock()>
 718c2d9:	e8 cc f7 ff ff       	call   718baaa <mongo::SimpleMutex::unlock() [clone .part.0]>
 718c357:	e8 24 42 bb fd       	call   4d40580 <mongo::SimpleMutex::unlock()>
 718c376:	e8 2f f7 ff ff       	call   718baaa <mongo::SimpleMutex::unlock() [clone .part.0]>
 718c4e3:	e8 d8 64 b9 00       	call   7d229c0 <pthread_mutex_unlock@plt>
 718c5be:	e8 bd 3f bb fd       	call   4d40580 <mongo::SimpleMutex::unlock()>
 718c5c6:	e8 b5 3f bb fd       	call   4d40580 <mongo::SimpleMutex::unlock()>
 718c60b:	e8 9a f4 ff ff       	call   718baaa <mongo::SimpleMutex::unlock() [clone .part.0]>
 718c65d:	e8 48 f4 ff ff       	call   718baaa <mongo::SimpleMutex::unlock() [clone .part.0]>
 718c662:	e8 43 f4 ff ff       	call   718baaa <mongo::SimpleMutex::unlock() [clone .part.0]>
 718c6cc:	e8 d9 f3 ff ff       	call   718baaa <mongo::SimpleMutex::unlock() [clone .part.0]>
 718f2aa:	e8 11 37 b9 00       	call   7d229c0 <pthread_mutex_unlock@plt>
 718f57c:	e8 3f 34 b9 00       	call   7d229c0 <pthread_mutex_unlock@plt>
 718f592:	e9 29 34 b9 00       	jmp    7d229c0 <pthread_mutex_unlock@plt>
 718f621:	e8 9a 33 b9 00       	call   7d229c0 <pthread_mutex_unlock@plt>
0000000007191370 <mongo::LockerImpl::_unlockImpl(mongo::FastMapNoAlloc<mongo::ResourceId, mongo::LockRequest>::IteratorImpl<mongo::FastMapNoAlloc<mongo::ResourceId, mongo::LockRequest>, mongo::LockRequest, std::_Deque_iterator<mongo::FastMapNoAlloc<mongo::ResourceId, mongo::LockRequest>::PreallocEntry, mongo::FastMapNoAlloc<mongo::ResourceId, mongo::LockRequest>::PreallocEntry&, mongo::FastMapNoAlloc<mongo::ResourceId, mongo::LockRequest>::PreallocEntry*> >*)>:
 7191385:	0f 84 5d 5b 00 00    	je     7196ee8 <mongo::LockerImpl::_unlockImpl(mongo::FastMapNoAlloc<mongo::ResourceId, mongo::LockRequest>::IteratorImpl<mongo::FastMapNoAlloc<mongo::ResourceId, mongo::LockRequest>, mongo::LockRequest, std::_Deque_iterator<mongo::FastMapNoAlloc<mongo::ResourceId, mongo::LockRequest>::PreallocEntry, mongo::FastMapNoAlloc<mongo::ResourceId, mongo::LockRequest>::PreallocEntry&, mongo::FastMapNoAlloc<mongo::ResourceId, mongo::LockRequest>::PreallocEntry*> >*) [clone .cold]+0x52>
 71913a1:	0f 84 ef 5a 00 00    	je     7196e96 <mongo::LockerImpl::_unlockImpl(mongo::FastMapNoAlloc<mongo::ResourceId, mongo::LockRequest>::IteratorImpl<mongo::FastMapNoAlloc<mongo::ResourceId, mongo::LockRequest>, mongo::LockRequest, std::_Deque_iterator<mongo::FastMapNoAlloc<mongo::ResourceId, mongo::LockRequest>::PreallocEntry, mongo::FastMapNoAlloc<mongo::ResourceId, mongo::LockRequest>::PreallocEntry&, mongo::FastMapNoAlloc<mongo::ResourceId, mongo::LockRequest>::PreallocEntry*> >*) [clone .cold]>
 71913ab:	e8 10 67 ff ff       	call   7187ac0 <mongo::LockManager::unlock(mongo::LockRequest*)>
 71913b2:	0f 84 ee 00 00 00    	je     71914a6 <mongo::LockerImpl::_unlockImpl(mongo::FastMapNoAlloc<mongo::ResourceId, mongo::LockRequest>::IteratorImpl<mongo::FastMapNoAlloc<mongo::ResourceId, mongo::LockRequest>, mongo::LockRequest, std::_Deque_iterator<mongo::FastMapNoAlloc<mongo::ResourceId, mongo::LockRequest>::PreallocEntry, mongo::FastMapNoAlloc<mongo::ResourceId, mongo::LockRequest>::PreallocEntry&, mongo::FastMapNoAlloc<mongo::ResourceId, mongo::LockRequest>::PreallocEntry*> >*)+0x136>
 71913c3:	0f 84 24 5b 00 00    	je     7196eed <mongo::LockerImpl::_unlockImpl(mongo::FastMapNoAlloc<mongo::ResourceId, mongo::LockRequest>::IteratorImpl<mongo::FastMapNoAlloc<mongo::ResourceId, mongo::LockRequest>, mongo::LockRequest, std::_Deque_iterator<mongo::FastMapNoAlloc<mongo::ResourceId, mongo::LockRequest>::PreallocEntry, mongo::FastMapNoAlloc<mongo::ResourceId, mongo::LockRequest>::PreallocEntry&, mongo::FastMapNoAlloc<mongo::ResourceId, mongo::LockRequest>::PreallocEntry*> >*) [clone .cold]+0x57>
 71913d4:	75 2c                	jne    7191402 <mongo::LockerImpl::_unlockImpl(mongo::FastMapNoAlloc<mongo::ResourceId, mongo::LockRequest>::IteratorImpl<mongo::FastMapNoAlloc<mongo::ResourceId, mongo::LockRequest>, mongo::LockRequest, std::_Deque_iterator<mongo::FastMapNoAlloc<mongo::ResourceId, mongo::LockRequest>::PreallocEntry, mongo::FastMapNoAlloc<mongo::ResourceId, mongo::LockRequest>::PreallocEntry&, mongo::FastMapNoAlloc<mongo::ResourceId, mongo::LockRequest>::PreallocEntry*> >*)+0x92>
 71913e0:	0f 84 ea 5a 00 00    	je     7196ed0 <mongo::LockerImpl::_unlockImpl(mongo::FastMapNoAlloc<mongo::ResourceId, mongo::LockRequest>::IteratorImpl<mongo::FastMapNoAlloc<mongo::ResourceId, mongo::LockRequest>, mongo::LockRequest, std::_Deque_iterator<mongo::FastMapNoAlloc<mongo::ResourceId, mongo::LockRequest>::PreallocEntry, mongo::FastMapNoAlloc<mongo::ResourceId, mongo::LockRequest>::PreallocEntry&, mongo::FastMapNoAlloc<mongo::ResourceId, mongo::LockRequest>::PreallocEntry*> >*) [clone .cold]+0x3a>
 71913f0:	0f 85 ba 00 00 00    	jne    71914b0 <mongo::LockerImpl::_unlockImpl(mongo::FastMapNoAlloc<mongo::ResourceId, mongo::LockRequest>::IteratorImpl<mongo::FastMapNoAlloc<mongo::ResourceId, mongo::LockRequest>, mongo::LockRequest, std::_Deque_iterator<mongo::FastMapNoAlloc<mongo::ResourceId, mongo::LockRequest>::PreallocEntry, mongo::FastMapNoAlloc<mongo::ResourceId, mongo::LockRequest>::PreallocEntry&, mongo::FastMapNoAlloc<mongo::ResourceId, mongo::LockRequest>::PreallocEntry*> >*)+0x140>
 7191410:	0f 85 aa 00 00 00    	jne    71914c0 <mongo::LockerImpl::_unlockImpl(mongo::FastMapNoAlloc<mongo::ResourceId, mongo::LockRequest>::IteratorImpl<mongo::FastMapNoAlloc<mongo::ResourceId, mongo::LockRequest>, mongo::LockRequest, std::_Deque_iterator<mongo::FastMapNoAlloc<mongo::ResourceId, mongo::LockRequest>::PreallocEntry, mongo::FastMapNoAlloc<mongo::ResourceId, mongo::LockRequest>::PreallocEntry&, mongo::FastMapNoAlloc<mongo::ResourceId, mongo::LockRequest>::PreallocEntry*> >*)+0x150>
 7191421:	0f 84 74 5a 00 00    	je     7196e9b <mongo::LockerImpl::_unlockImpl(mongo::FastMapNoAlloc<mongo::ResourceId, mongo::LockRequest>::IteratorImpl<mongo::FastMapNoAlloc<mongo::ResourceId, mongo::LockRequest>, mongo::LockRequest, std::_Deque_iterator<mongo::FastMapNoAlloc<mongo::ResourceId, mongo::LockRequest>::PreallocEntry, mongo::FastMapNoAlloc<mongo::ResourceId, mongo::LockRequest>::PreallocEntry&, mongo::FastMapNoAlloc<mongo::ResourceId, mongo::LockRequest>::PreallocEntry*> >*) [clone .cold]+0x5>
 719142c:	0f 84 86 5a 00 00    	je     7196eb8 <mongo::LockerImpl::_unlockImpl(mongo::FastMapNoAlloc<mongo::ResourceId, mongo::LockRequest>::IteratorImpl<mongo::FastMapNoAlloc<mongo::ResourceId, mongo::LockRequest>, mongo::LockRequest, std::_Deque_iterator<mongo::FastMapNoAlloc<mongo::ResourceId, mongo::LockRequest>::PreallocEntry, mongo::FastMapNoAlloc<mongo::ResourceId, mongo::LockRequest>::PreallocEntry&, mongo::FastMapNoAlloc<mongo::ResourceId, mongo::LockRequest>::PreallocEntry*> >*) [clone .cold]+0x22>
 719144b:	75 19                	jne    7191466 <mongo::LockerImpl::_unlockImpl(mongo::FastMapNoAlloc<mongo::ResourceId, mongo::LockRequest>::IteratorImpl<mongo::FastMapNoAlloc<mongo::ResourceId, mongo::LockRequest>, mongo::LockRequest, std::_Deque_iterator<mongo::FastMapNoAlloc<mongo::ResourceId, mongo::LockRequest>::PreallocEntry, mongo::FastMapNoAlloc<mongo::ResourceId, mongo::LockRequest>::PreallocEntry&, mongo::FastMapNoAlloc<mongo::ResourceId, mongo::LockRequest>::PreallocEntry*> >*)+0xf6>
 719144d:	e9 61 5a 00 00       	jmp    7196eb3 <mongo::LockerImpl::_unlockImpl(mongo::FastMapNoAlloc<mongo::ResourceId, mongo::LockRequest>::IteratorImpl<mongo::FastMapNoAlloc<mongo::ResourceId, mongo::LockRequest>, mongo::LockRequest, std::_Deque_iterator<mongo::FastMapNoAlloc<mongo::ResourceId, mongo::LockRequest>::PreallocEntry, mongo::FastMapNoAlloc<mongo::ResourceId, mongo::LockRequest>::PreallocEntry&, mongo::FastMapNoAlloc<mongo::ResourceId, mongo::LockRequest>::PreallocEntry*> >*) [clone .cold]+0x1d>
 719145b:	74 43                	je     71914a0 <mongo::LockerImpl::_unlockImpl(mongo::FastMapNoAlloc<mongo::ResourceId, mongo::LockRequest>::IteratorImpl<mongo::FastMapNoAlloc<mongo::ResourceId, mongo::LockRequest>, mongo::LockRequest, std::_Deque_iterator<mongo::FastMapNoAlloc<mongo::ResourceId, mongo::LockRequest>::PreallocEntry, mongo::FastMapNoAlloc<mongo::ResourceId, mongo::LockRequest>::PreallocEntry&, mongo::FastMapNoAlloc<mongo::ResourceId, mongo::LockRequest>::PreallocEntry*> >*)+0x130>
 7191460:	75 3e                	jne    71914a0 <mongo::LockerImpl::_unlockImpl(mongo::FastMapNoAlloc<mongo::ResourceId, mongo::LockRequest>::IteratorImpl<mongo::FastMapNoAlloc<mongo::ResourceId, mongo::LockRequest>, mongo::LockRequest, std::_Deque_iterator<mongo::FastMapNoAlloc<mongo::ResourceId, mongo::LockRequest>::PreallocEntry, mongo::FastMapNoAlloc<mongo::ResourceId, mongo::LockRequest>::PreallocEntry&, mongo::FastMapNoAlloc<mongo::ResourceId, mongo::LockRequest>::PreallocEntry*> >*)+0x130>
 7191472:	75 e4                	jne    7191458 <mongo::LockerImpl::_unlockImpl(mongo::FastMapNoAlloc<mongo::ResourceId, mongo::LockRequest>::IteratorImpl<mongo::FastMapNoAlloc<mongo::ResourceId, mongo::LockRequest>, mongo::LockRequest, std::_Deque_iterator<mongo::FastMapNoAlloc<mongo::ResourceId, mongo::LockRequest>::PreallocEntry, mongo::FastMapNoAlloc<mongo::ResourceId, mongo::LockRequest>::PreallocEntry&, mongo::FastMapNoAlloc<mongo::ResourceId, mongo::LockRequest>::PreallocEntry*> >*)+0xe8>
 719149a:	75 c1                	jne    719145d <mongo::LockerImpl::_unlockImpl(mongo::FastMapNoAlloc<mongo::ResourceId, mongo::LockRequest>::IteratorImpl<mongo::FastMapNoAlloc<mongo::ResourceId, mongo::LockRequest>, mongo::LockRequest, std::_Deque_iterator<mongo::FastMapNoAlloc<mongo::ResourceId, mongo::LockRequest>::PreallocEntry, mongo::FastMapNoAlloc<mongo::ResourceId, mongo::LockRequest>::PreallocEntry&, mongo::FastMapNoAlloc<mongo::ResourceId, mongo::LockRequest>::PreallocEntry*> >*)+0xed>
 71914b8:	e9 39 ff ff ff       	jmp    71913f6 <mongo::LockerImpl::_unlockImpl(mongo::FastMapNoAlloc<mongo::ResourceId, mongo::LockRequest>::IteratorImpl<mongo::FastMapNoAlloc<mongo::ResourceId, mongo::LockRequest>, mongo::LockRequest, std::_Deque_iterator<mongo::FastMapNoAlloc<mongo::ResourceId, mongo::LockRequest>::PreallocEntry, mongo::FastMapNoAlloc<mongo::ResourceId, mongo::LockRequest>::PreallocEntry&, mongo::FastMapNoAlloc<mongo::ResourceId, mongo::LockRequest>::PreallocEntry*> >*)+0x86>
 71914ca:	e9 47 ff ff ff       	jmp    7191416 <mongo::LockerImpl::_unlockImpl(mongo::FastMapNoAlloc<mongo::ResourceId, mongo::LockRequest>::IteratorImpl<mongo::FastMapNoAlloc<mongo::ResourceId, mongo::LockRequest>, mongo::LockRequest, std::_Deque_iterator<mongo::FastMapNoAlloc<mongo::ResourceId, mongo::LockRequest>::PreallocEntry, mongo::FastMapNoAlloc<mongo::ResourceId, mongo::LockRequest>::PreallocEntry&, mongo::FastMapNoAlloc<mongo::ResourceId, mongo::LockRequest>::PreallocEntry*> >*)+0xa6>
00000000071914d0 <mongo::LockerImpl::unlockGlobal()>:
 7191506:	0f 84 94 00 00 00    	je     71915a0 <mongo::LockerImpl::unlockGlobal()+0xd0>
 7191520:	0f 85 77 01 00 00    	jne    719169d <mongo::LockerImpl::unlockGlobal()+0x1cd>
 719152f:	0f 8f bd 59 00 00    	jg     7196ef2 <mongo::LockerImpl::unlockGlobal() [clone .cold]>
 7191579:	74 25                	je     71915a0 <mongo::LockerImpl::unlockGlobal()+0xd0>
 7191582:	75 5c                	jne    71915e0 <mongo::LockerImpl::unlockGlobal()+0x110>
 719158b:	74 3b                	je     71915c8 <mongo::LockerImpl::unlockGlobal()+0xf8>
 7191596:	75 e3                	jne    719157b <mongo::LockerImpl::unlockGlobal()+0xab>
 71915ad:	0f 85 fc 00 00 00    	jne    71916af <mongo::LockerImpl::unlockGlobal()+0x1df>
 71915dd:	eb 91                	jmp    7191570 <mongo::LockerImpl::unlockGlobal()+0xa0>
 71915e3:	74 0c                	je     71915f1 <mongo::LockerImpl::unlockGlobal()+0x121>
 71915f4:	74 04                	je     71915fa <mongo::LockerImpl::unlockGlobal()+0x12a>
 719160e:	75 60                	jne    7191670 <mongo::LockerImpl::unlockGlobal()+0x1a0>
 719161e:	eb 0a                	jmp    719162a <mongo::LockerImpl::unlockGlobal()+0x15a>
 7191623:	74 2b                	je     7191650 <mongo::LockerImpl::unlockGlobal()+0x180>
 7191628:	75 26                	jne    7191650 <mongo::LockerImpl::unlockGlobal()+0x180>
 7191631:	75 ed                	jne    7191620 <mongo::LockerImpl::unlockGlobal()+0x150>
 719164b:	75 d8                	jne    7191625 <mongo::LockerImpl::unlockGlobal()+0x155>
 7191657:	74 2e                	je     7191687 <mongo::LockerImpl::unlockGlobal()+0x1b7>
 7191665:	eb 20                	jmp    7191687 <mongo::LockerImpl::unlockGlobal()+0x1b7>
 7191676:	e8 f5 fc ff ff       	call   7191370 <mongo::LockerImpl::_unlockImpl(mongo::FastMapNoAlloc<mongo::ResourceId, mongo::LockRequest>::IteratorImpl<mongo::FastMapNoAlloc<mongo::ResourceId, mongo::LockRequest>, mongo::LockRequest, std::_Deque_iterator<mongo::FastMapNoAlloc<mongo::ResourceId, mongo::LockRequest>::PreallocEntry, mongo::FastMapNoAlloc<mongo::ResourceId, mongo::LockRequest>::PreallocEntry&, mongo::FastMapNoAlloc<mongo::ResourceId, mongo::LockRequest>::PreallocEntry*> >*)>
 719167d:	0f 84 87 58 00 00    	je     7196f0a <mongo::LockerImpl::unlockGlobal() [clone .cold]+0x18>
 7191692:	0f 85 68 ff ff ff    	jne    7191600 <mongo::LockerImpl::unlockGlobal()+0x130>
 7191698:	e9 03 ff ff ff       	jmp    71915a0 <mongo::LockerImpl::unlockGlobal()+0xd0>
 71916a4:	0f 84 8b fe ff ff    	je     7191535 <mongo::LockerImpl::unlockGlobal()+0x65>
 71916aa:	e9 43 58 00 00       	jmp    7196ef2 <mongo::LockerImpl::unlockGlobal() [clone .cold]>
00000000071916c0 <mongo::LockerImpl::unlock(mongo::ResourceId)>:
 719171f:	0f 84 cb 00 00 00    	je     71917f0 <mongo::LockerImpl::unlock(mongo::ResourceId)+0x130>
 7191728:	74 06                	je     7191730 <mongo::LockerImpl::unlock(mongo::ResourceId)+0x70>
 719172e:	74 30                	je     7191760 <mongo::LockerImpl::unlock(mongo::ResourceId)+0xa0>
 719173c:	75 de                	jne    719171c <mongo::LockerImpl::unlock(mongo::ResourceId)+0x5c>
 7191756:	eb c1                	jmp    7191719 <mongo::LockerImpl::unlock(mongo::ResourceId)+0x59>
 7191763:	74 0c                	je     7191771 <mongo::LockerImpl::unlock(mongo::ResourceId)+0xb1>
 7191773:	74 04                	je     7191779 <mongo::LockerImpl::unlock(mongo::ResourceId)+0xb9>
 719178e:	0f 85 a4 00 00 00    	jne    7191838 <mongo::LockerImpl::unlock(mongo::ResourceId)+0x178>
 719179e:	7e 70                	jle    7191810 <mongo::LockerImpl::unlock(mongo::ResourceId)+0x150>
 71917b1:	74 5d                	je     7191810 <mongo::LockerImpl::unlock(mongo::ResourceId)+0x150>
 71917b7:	77 67                	ja     7191820 <mongo::LockerImpl::unlock(mongo::ResourceId)+0x160>
 71917be:	75 09                	jne    71917c9 <mongo::LockerImpl::unlock(mongo::ResourceId)+0x109>
 71917d7:	0f 84 75 57 00 00    	je     7196f52 <mongo::LockerImpl::unlock(mongo::ResourceId) [clone .cold]+0x30>
 71917e0:	0f 87 54 57 00 00    	ja     7196f3a <mongo::LockerImpl::unlock(mongo::ResourceId) [clone .cold]+0x18>
 71917ff:	75 53                	jne    7191854 <mongo::LockerImpl::unlock(mongo::ResourceId)+0x194>
 7191817:	e8 54 fb ff ff       	call   7191370 <mongo::LockerImpl::_unlockImpl(mongo::FastMapNoAlloc<mongo::ResourceId, mongo::LockRequest>::IteratorImpl<mongo::FastMapNoAlloc<mongo::ResourceId, mongo::LockRequest>, mongo::LockRequest, std::_Deque_iterator<mongo::FastMapNoAlloc<mongo::ResourceId, mongo::LockRequest>::PreallocEntry, mongo::FastMapNoAlloc<mongo::ResourceId, mongo::LockRequest>::PreallocEntry&, mongo::FastMapNoAlloc<mongo::ResourceId, mongo::LockRequest>::PreallocEntry*> >*)>
 719181c:	eb d4                	jmp    71917f2 <mongo::LockerImpl::unlock(mongo::ResourceId)+0x132>
 7191827:	e8 44 fb ff ff       	call   7191370 <mongo::LockerImpl::_unlockImpl(mongo::FastMapNoAlloc<mongo::ResourceId, mongo::LockRequest>::IteratorImpl<mongo::FastMapNoAlloc<mongo::ResourceId, mongo::LockRequest>, mongo::LockRequest, std::_Deque_iterator<mongo::FastMapNoAlloc<mongo::ResourceId, mongo::LockRequest>::PreallocEntry, mongo::FastMapNoAlloc<mongo::ResourceId, mongo::LockRequest>::PreallocEntry&, mongo::FastMapNoAlloc<mongo::ResourceId, mongo::LockRequest>::PreallocEntry*> >*)>
 719182e:	74 c0                	je     71917f0 <mongo::LockerImpl::unlock(mongo::ResourceId)+0x130>
 7191830:	e9 ed 56 00 00       	jmp    7196f22 <mongo::LockerImpl::unlock(mongo::ResourceId) [clone .cold]>
 719183f:	74 cf                	je     7191810 <mongo::LockerImpl::unlock(mongo::ResourceId)+0x150>
 7191849:	0f 85 51 ff ff ff    	jne    71917a0 <mongo::LockerImpl::unlock(mongo::ResourceId)+0xe0>
 719184f:	e9 fe 56 00 00       	jmp    7196f52 <mongo::LockerImpl::unlock(mongo::ResourceId) [clone .cold]+0x30>
0000000007191860 <mongo::LockerImpl::unlockRSTLforPrepare()>:
 71918c2:	0f 84 80 00 00 00    	je     7191948 <mongo::LockerImpl::unlockRSTLforPrepare()+0xe8>
 71918cb:	74 06                	je     71918d3 <mongo::LockerImpl::unlockRSTLforPrepare()+0x73>
 71918d1:	74 2d                	je     7191900 <mongo::LockerImpl::unlockRSTLforPrepare()+0xa0>
 71918df:	75 de                	jne    71918bf <mongo::LockerImpl::unlockRSTLforPrepare()+0x5f>
 71918f9:	eb c1                	jmp    71918bc <mongo::LockerImpl::unlockRSTLforPrepare()+0x5c>
 7191903:	74 0c                	je     7191911 <mongo::LockerImpl::unlockRSTLforPrepare()+0xb1>
 7191913:	74 04                	je     7191919 <mongo::LockerImpl::unlockRSTLforPrepare()+0xb9>
 719191e:	75 30                	jne    7191950 <mongo::LockerImpl::unlockRSTLforPrepare()+0xf0>
 719192e:	e8 3d fa ff ff       	call   7191370 <mongo::LockerImpl::_unlockImpl(mongo::FastMapNoAlloc<mongo::ResourceId, mongo::LockRequest>::IteratorImpl<mongo::FastMapNoAlloc<mongo::ResourceId, mongo::LockRequest>, mongo::LockRequest, std::_Deque_iterator<mongo::FastMapNoAlloc<mongo::ResourceId, mongo::LockRequest>::PreallocEntry, mongo::FastMapNoAlloc<mongo::ResourceId, mongo::LockRequest>::PreallocEntry&, mongo::FastMapNoAlloc<mongo::ResourceId, mongo::LockRequest>::PreallocEntry*> >*)>
 7191940:	75 28                	jne    719196a <mongo::LockerImpl::unlockRSTLforPrepare()+0x10a>
 719194a:	eb e7                	jmp    7191933 <mongo::LockerImpl::unlockRSTLforPrepare()+0xd3>
 7191963:	75 bb                	jne    7191920 <mongo::LockerImpl::unlockRSTLforPrepare()+0xc0>
 7191965:	e9 ee 55 00 00       	jmp    7196f58 <mongo::LockerImpl::unlockRSTLforPrepare() [clone .cold]>
 7191d2b:	e8 90 0c b9 00       	call   7d229c0 <pthread_mutex_unlock@plt>
 7192682:	e8 39 03 b9 00       	call   7d229c0 <pthread_mutex_unlock@plt>
 71926cf:	e8 ec 02 b9 00       	call   7d229c0 <pthread_mutex_unlock@plt>
 71927de:	e8 dd 01 b9 00       	call   7d229c0 <pthread_mutex_unlock@plt>
 7192887:	e8 04 cb 8d fc       	call   3a6f390 <std::unique_lock<std::mutex>::unlock()>
 71951e9:	e8 82 c1 ff ff       	call   7191370 <mongo::LockerImpl::_unlockImpl(mongo::FastMapNoAlloc<mongo::ResourceId, mongo::LockRequest>::IteratorImpl<mongo::FastMapNoAlloc<mongo::ResourceId, mongo::LockRequest>, mongo::LockRequest, std::_Deque_iterator<mongo::FastMapNoAlloc<mongo::ResourceId, mongo::LockRequest>::PreallocEntry, mongo::FastMapNoAlloc<mongo::ResourceId, mongo::LockRequest>::PreallocEntry&, mongo::FastMapNoAlloc<mongo::ResourceId, mongo::LockRequest>::PreallocEntry*> >*)>
0000000007196ac0 <mongo::SpinLock::unlock()>:
0000000007196e96 <mongo::LockerImpl::_unlockImpl(mongo::FastMapNoAlloc<mongo::ResourceId, mongo::LockRequest>::IteratorImpl<mongo::FastMapNoAlloc<mongo::ResourceId, mongo::LockRequest>, mongo::LockRequest, std::_Deque_iterator<mongo::FastMapNoAlloc<mongo::ResourceId, mongo::LockRequest>::PreallocEntry, mongo::FastMapNoAlloc<mongo::ResourceId, mongo::LockRequest>::PreallocEntry&, mongo::FastMapNoAlloc<mongo::ResourceId, mongo::LockRequest>::PreallocEntry*> >*) [clone .cold]>:
0000000007196ef2 <mongo::LockerImpl::unlockGlobal() [clone .cold]>:
0000000007196f22 <mongo::LockerImpl::unlock(mongo::ResourceId) [clone .cold]>:
0000000007196f58 <mongo::LockerImpl::unlockRSTLforPrepare() [clone .cold]>:
 7196f80:	e8 0b 84 8d fc       	call   3a6f390 <std::unique_lock<std::mutex>::unlock()>
 7197240:	e8 4b 81 8d fc       	call   3a6f390 <std::unique_lock<std::mutex>::unlock()>
 719726e:	e8 1d 81 8d fc       	call   3a6f390 <std::unique_lock<std::mutex>::unlock()>
 719753e:	e8 2d 9e ff ff       	call   7191370 <mongo::LockerImpl::_unlockImpl(mongo::FastMapNoAlloc<mongo::ResourceId, mongo::LockRequest>::IteratorImpl<mongo::FastMapNoAlloc<mongo::ResourceId, mongo::LockRequest>, mongo::LockRequest, std::_Deque_iterator<mongo::FastMapNoAlloc<mongo::ResourceId, mongo::LockRequest>::PreallocEntry, mongo::FastMapNoAlloc<mongo::ResourceId, mongo::LockRequest>::PreallocEntry&, mongo::FastMapNoAlloc<mongo::ResourceId, mongo::LockRequest>::PreallocEntry*> >*)>
 7197559:	e8 62 f5 ff ff       	call   7196ac0 <mongo::SpinLock::unlock()>
 71978d8:	e8 e3 f1 ff ff       	call   7196ac0 <mongo::SpinLock::unlock()>
 7197ce1:	e8 da ed ff ff       	call   7196ac0 <mongo::SpinLock::unlock()>
000000000719c320 <mongo::repl::ReplicationStateTransitionLockGuard::_unlock()>:
 719c326:	74 60                	je     719c388 <mongo::repl::ReplicationStateTransitionLockGuard::_unlock()+0x68>
 719c344:	74 2a                	je     719c370 <mongo::repl::ReplicationStateTransitionLockGuard::_unlock()+0x50>
 719c378:	0f 85 56 01 00 00    	jne    719c4d4 <mongo::repl::ReplicationStateTransitionLockGuard::_unlock() [clone .cold]>
 719c381:	eb c3                	jmp    719c346 <mongo::repl::ReplicationStateTransitionLockGuard::_unlock()+0x26>
000000000719c4d4 <mongo::repl::ReplicationStateTransitionLockGuard::_unlock() [clone .cold]>:
 719c4fa:	e8 21 fe ff ff       	call   719c320 <mongo::repl::ReplicationStateTransitionLockGuard::_unlock()>
 719d346:	e9 75 56 b8 00       	jmp    7d229c0 <pthread_mutex_unlock@plt>
 719d5c0:	e9 fb 53 b8 00       	jmp    7d229c0 <pthread_mutex_unlock@plt>
 719d6d1:	e9 ea 52 b8 00       	jmp    7d229c0 <pthread_mutex_unlock@plt>
 719d7b1:	e8 0a 52 b8 00       	call   7d229c0 <pthread_mutex_unlock@plt>
 719dbc4:	e9 f7 4d b8 00       	jmp    7d229c0 <pthread_mutex_unlock@plt>
 719de88:	e8 33 4b b8 00       	call   7d229c0 <pthread_mutex_unlock@plt>
 719deb4:	e8 07 4b b8 00       	call   7d229c0 <pthread_mutex_unlock@plt>
 719df32:	e8 89 4a b8 00       	call   7d229c0 <pthread_mutex_unlock@plt>
 71a9e46:	e8 75 8b b7 00       	call   7d229c0 <pthread_mutex_unlock@plt>
 71aa0cd:	e8 ee 88 b7 00       	call   7d229c0 <pthread_mutex_unlock@plt>
 71aa149:	e8 72 88 b7 00       	call   7d229c0 <pthread_mutex_unlock@plt>
 71aa9f4:	e8 c7 7f b7 00       	call   7d229c0 <pthread_mutex_unlock@plt>
 71aaa4c:	e8 6f 7f b7 00       	call   7d229c0 <pthread_mutex_unlock@plt>
 71aac5f:	e9 5c 7d b7 00       	jmp    7d229c0 <pthread_mutex_unlock@plt>
 71aacea:	e8 d1 7c b7 00       	call   7d229c0 <pthread_mutex_unlock@plt>
 71ac8c0:	e8 fb 60 b7 00       	call   7d229c0 <pthread_mutex_unlock@plt>
 71accba:	e8 d1 26 8c fc       	call   3a6f390 <std::unique_lock<std::mutex>::unlock()>
 71afe3a:	e8 81 2b b7 00       	call   7d229c0 <pthread_mutex_unlock@plt>
 71b0ecf:	e8 ec 1a b7 00       	call   7d229c0 <pthread_mutex_unlock@plt>
 71b0efb:	e9 c0 1a b7 00       	jmp    7d229c0 <pthread_mutex_unlock@plt>
 71b103a:	e8 81 19 b7 00       	call   7d229c0 <pthread_mutex_unlock@plt>
 71b1218:	e8 a3 17 b7 00       	call   7d229c0 <pthread_mutex_unlock@plt>
 71b1244:	e9 77 17 b7 00       	jmp    7d229c0 <pthread_mutex_unlock@plt>
 71b137a:	e8 41 16 b7 00       	call   7d229c0 <pthread_mutex_unlock@plt>
 71b1456:	e8 65 15 b7 00       	call   7d229c0 <pthread_mutex_unlock@plt>
 71b1e6a:	e8 51 0b b7 00       	call   7d229c0 <pthread_mutex_unlock@plt>
 71b1e97:	e8 f4 d4 8b fc       	call   3a6f390 <std::unique_lock<std::mutex>::unlock()>
 71bea08:	e9 b3 3f b6 00       	jmp    7d229c0 <pthread_mutex_unlock@plt>
 71bebfb:	e9 c0 3d b6 00       	jmp    7d229c0 <pthread_mutex_unlock@plt>
 71bed2f:	e8 8c 3c b6 00       	call   7d229c0 <pthread_mutex_unlock@plt>
 71bee67:	e9 54 3b b6 00       	jmp    7d229c0 <pthread_mutex_unlock@plt>
 71beff8:	e8 c3 39 b6 00       	call   7d229c0 <pthread_mutex_unlock@plt>
 71bf00c:	e8 af 39 b6 00       	call   7d229c0 <pthread_mutex_unlock@plt>
 71bf055:	e8 66 39 b6 00       	call   7d229c0 <pthread_mutex_unlock@plt>
 71da73a:	e8 81 82 b4 00       	call   7d229c0 <pthread_mutex_unlock@plt>
 7461fa7:	e8 14 0a 8c 00       	call   7d229c0 <pthread_mutex_unlock@plt>
 746208e:	e8 2d 09 8c 00       	call   7d229c0 <pthread_mutex_unlock@plt>
 74625ab:	e9 10 04 8c 00       	jmp    7d229c0 <pthread_mutex_unlock@plt>
 74626fb:	e9 c0 02 8c 00       	jmp    7d229c0 <pthread_mutex_unlock@plt>
 7462cdb:	e9 e0 fc 8b 00       	jmp    7d229c0 <pthread_mutex_unlock@plt>
 7462eb0:	e9 0b fb 8b 00       	jmp    7d229c0 <pthread_mutex_unlock@plt>
 7463053:	e8 68 f9 8b 00       	call   7d229c0 <pthread_mutex_unlock@plt>
 74630bc:	e8 ff f8 8b 00       	call   7d229c0 <pthread_mutex_unlock@plt>
 74630d0:	e8 eb f8 8b 00       	call   7d229c0 <pthread_mutex_unlock@plt>
 74630fc:	e8 bf f8 8b 00       	call   7d229c0 <pthread_mutex_unlock@plt>
 7463154:	e8 67 f8 8b 00       	call   7d229c0 <pthread_mutex_unlock@plt>
 751ba33:	e8 88 6f 80 00       	call   7d229c0 <pthread_mutex_unlock@plt>
 751bfec:	e8 cf 69 80 00       	call   7d229c0 <pthread_mutex_unlock@plt>
 7523b64:	e8 57 ee 7f 00       	call   7d229c0 <pthread_mutex_unlock@plt>
 7523d2c:	e8 8f ec 7f 00       	call   7d229c0 <pthread_mutex_unlock@plt>
 7524a84:	e8 37 df 7f 00       	call   7d229c0 <pthread_mutex_unlock@plt>
 7524ac1:	e8 fa de 7f 00       	call   7d229c0 <pthread_mutex_unlock@plt>
 7524b6a:	e8 51 de 7f 00       	call   7d229c0 <pthread_mutex_unlock@plt>
 7524d3d:	e8 7e dc 7f 00       	call   7d229c0 <pthread_mutex_unlock@plt>
 7524da1:	e8 1a dc 7f 00       	call   7d229c0 <pthread_mutex_unlock@plt>
 75260fe:	e8 bd c8 7f 00       	call   7d229c0 <pthread_mutex_unlock@plt>
 7526243:	e8 78 c7 7f 00       	call   7d229c0 <pthread_mutex_unlock@plt>
 7526ec6:	e8 f5 ba 7f 00       	call   7d229c0 <pthread_mutex_unlock@plt>
 7526f1a:	e8 a1 ba 7f 00       	call   7d229c0 <pthread_mutex_unlock@plt>
 7527322:	e8 99 b6 7f 00       	call   7d229c0 <pthread_mutex_unlock@plt>
 752788f:	e8 2c b1 7f 00       	call   7d229c0 <pthread_mutex_unlock@plt>
 7527ab8:	e8 03 af 7f 00       	call   7d229c0 <pthread_mutex_unlock@plt>
 75356ee:	e8 cd d2 7e 00       	call   7d229c0 <pthread_mutex_unlock@plt>
 7535a83:	e8 38 cf 7e 00       	call   7d229c0 <pthread_mutex_unlock@plt>
 753800f:	e8 ac a9 7e 00       	call   7d229c0 <pthread_mutex_unlock@plt>
 75380c2:	e8 f9 a8 7e 00       	call   7d229c0 <pthread_mutex_unlock@plt>
 75381df:	e8 dc a7 7e 00       	call   7d229c0 <pthread_mutex_unlock@plt>
 7538292:	e8 29 a7 7e 00       	call   7d229c0 <pthread_mutex_unlock@plt>
 7538c94:	e9 27 9d 7e 00       	jmp    7d229c0 <pthread_mutex_unlock@plt>
 7538e40:	e8 7b 9b 7e 00       	call   7d229c0 <pthread_mutex_unlock@plt>
 753a4d4:	e9 e7 84 7e 00       	jmp    7d229c0 <pthread_mutex_unlock@plt>
 753a680:	e8 3b 83 7e 00       	call   7d229c0 <pthread_mutex_unlock@plt>
 7552156:	e8 65 08 7d 00       	call   7d229c0 <pthread_mutex_unlock@plt>
 75521d0:	e8 eb 07 7d 00       	call   7d229c0 <pthread_mutex_unlock@plt>
 7552336:	e8 85 06 7d 00       	call   7d229c0 <pthread_mutex_unlock@plt>
 7553212:	e8 a9 f7 7c 00       	call   7d229c0 <pthread_mutex_unlock@plt>
 7553323:	e8 98 f6 7c 00       	call   7d229c0 <pthread_mutex_unlock@plt>
 755344f:	e8 6c f5 7c 00       	call   7d229c0 <pthread_mutex_unlock@plt>
 7553521:	e8 9a f4 7c 00       	call   7d229c0 <pthread_mutex_unlock@plt>
 755366a:	e9 51 f3 7c 00       	jmp    7d229c0 <pthread_mutex_unlock@plt>
 75547c9:	e9 f2 e1 7c 00       	jmp    7d229c0 <pthread_mutex_unlock@plt>
 75548c9:	e9 f2 e0 7c 00       	jmp    7d229c0 <pthread_mutex_unlock@plt>
 7555139:	e8 82 d8 7c 00       	call   7d229c0 <pthread_mutex_unlock@plt>
 75577a5:	e9 16 b2 7c 00       	jmp    7d229c0 <pthread_mutex_unlock@plt>
 7558325:	e8 96 a6 7c 00       	call   7d229c0 <pthread_mutex_unlock@plt>
 7558628:	e9 93 a3 7c 00       	jmp    7d229c0 <pthread_mutex_unlock@plt>
 7558696:	e9 25 a3 7c 00       	jmp    7d229c0 <pthread_mutex_unlock@plt>
 755878e:	e9 2d a2 7c 00       	jmp    7d229c0 <pthread_mutex_unlock@plt>
 7558904:	e8 b7 a0 7c 00       	call   7d229c0 <pthread_mutex_unlock@plt>
 7558937:	e8 84 a0 7c 00       	call   7d229c0 <pthread_mutex_unlock@plt>
 7558b93:	e8 28 9e 7c 00       	call   7d229c0 <pthread_mutex_unlock@plt>
 7558cf2:	e8 c9 9c 7c 00       	call   7d229c0 <pthread_mutex_unlock@plt>
 75594fa:	e8 c1 94 7c 00       	call   7d229c0 <pthread_mutex_unlock@plt>
 7559516:	e8 a5 94 7c 00       	call   7d229c0 <pthread_mutex_unlock@plt>
 755976c:	e8 4f 92 7c 00       	call   7d229c0 <pthread_mutex_unlock@plt>
 7559780:	e8 3b 92 7c 00       	call   7d229c0 <pthread_mutex_unlock@plt>
 7559914:	e8 a7 90 7c 00       	call   7d229c0 <pthread_mutex_unlock@plt>
 7559f03:	e8 b8 8a 7c 00       	call   7d229c0 <pthread_mutex_unlock@plt>
 755a06e:	e8 4d 89 7c 00       	call   7d229c0 <pthread_mutex_unlock@plt>
 755a0b2:	e8 09 89 7c 00       	call   7d229c0 <pthread_mutex_unlock@plt>
 755a0c6:	e8 f5 88 7c 00       	call   7d229c0 <pthread_mutex_unlock@plt>
 755a0f2:	e8 c9 88 7c 00       	call   7d229c0 <pthread_mutex_unlock@plt>
 755a248:	e8 73 87 7c 00       	call   7d229c0 <pthread_mutex_unlock@plt>
 755a284:	e8 37 87 7c 00       	call   7d229c0 <pthread_mutex_unlock@plt>
 75746ea:	e8 d1 e2 7a 00       	call   7d229c0 <pthread_mutex_unlock@plt>
 7575a70:	e8 4b cf 7a 00       	call   7d229c0 <pthread_mutex_unlock@plt>
 7575dee:	e8 cd cb 7a 00       	call   7d229c0 <pthread_mutex_unlock@plt>
 7632273:	e9 48 07 6f 00       	jmp    7d229c0 <pthread_mutex_unlock@plt>
 7632559:	e8 62 04 6f 00       	call   7d229c0 <pthread_mutex_unlock@plt>
 7632bee:	e8 cd fd 6e 00       	call   7d229c0 <pthread_mutex_unlock@plt>
 7632e66:	e8 55 fb 6e 00       	call   7d229c0 <pthread_mutex_unlock@plt>
 7633323:	e8 98 f6 6e 00       	call   7d229c0 <pthread_mutex_unlock@plt>
 76337c6:	e8 f5 f1 6e 00       	call   7d229c0 <pthread_mutex_unlock@plt>
 7633912:	e8 a9 f0 6e 00       	call   7d229c0 <pthread_mutex_unlock@plt>
 7633cbd:	e9 fe ec 6e 00       	jmp    7d229c0 <pthread_mutex_unlock@plt>
 7634424:	e8 97 e5 6e 00       	call   7d229c0 <pthread_mutex_unlock@plt>
 76349de:	e8 dd df 6e 00       	call   7d229c0 <pthread_mutex_unlock@plt>
 7634a78:	e8 43 df 6e 00       	call   7d229c0 <pthread_mutex_unlock@plt>
 7634ada:	e8 e1 de 6e 00       	call   7d229c0 <pthread_mutex_unlock@plt>
 7634c40:	e8 7b dd 6e 00       	call   7d229c0 <pthread_mutex_unlock@plt>
 7634cab:	e8 10 dd 6e 00       	call   7d229c0 <pthread_mutex_unlock@plt>
 763677a:	e8 41 c2 6e 00       	call   7d229c0 <pthread_mutex_unlock@plt>
 76372c9:	e8 f2 b6 6e 00       	call   7d229c0 <pthread_mutex_unlock@plt>
 76372d1:	e8 ea b6 6e 00       	call   7d229c0 <pthread_mutex_unlock@plt>
 7637371:	e8 4a b6 6e 00       	call   7d229c0 <pthread_mutex_unlock@plt>
 7637391:	e9 2a b6 6e 00       	jmp    7d229c0 <pthread_mutex_unlock@plt>
 763741a:	e8 a1 b5 6e 00       	call   7d229c0 <pthread_mutex_unlock@plt>
 763796c:	e9 4f b0 6e 00       	jmp    7d229c0 <pthread_mutex_unlock@plt>
 7637bb0:	e8 0b ae 6e 00       	call   7d229c0 <pthread_mutex_unlock@plt>
 7637bb8:	e8 03 ae 6e 00       	call   7d229c0 <pthread_mutex_unlock@plt>
 7637c61:	e8 5a ad 6e 00       	call   7d229c0 <pthread_mutex_unlock@plt>
 7637c81:	e9 3a ad 6e 00       	jmp    7d229c0 <pthread_mutex_unlock@plt>
 7637cdb:	e8 e0 ac 6e 00       	call   7d229c0 <pthread_mutex_unlock@plt>
 7638b0d:	e8 ae 9e 6e 00       	call   7d229c0 <pthread_mutex_unlock@plt>
 7638b36:	e9 85 9e 6e 00       	jmp    7d229c0 <pthread_mutex_unlock@plt>
 7638bc1:	e8 fa 9d 6e 00       	call   7d229c0 <pthread_mutex_unlock@plt>
 763954c:	e8 6f 94 6e 00       	call   7d229c0 <pthread_mutex_unlock@plt>
 7639573:	e8 48 94 6e 00       	call   7d229c0 <pthread_mutex_unlock@plt>
 76396ee:	e8 cd 92 6e 00       	call   7d229c0 <pthread_mutex_unlock@plt>
 763970d:	e8 ae 92 6e 00       	call   7d229c0 <pthread_mutex_unlock@plt>
 763ae7c:	e8 3f 7b 6e 00       	call   7d229c0 <pthread_mutex_unlock@plt>
 763b0c0:	e8 fb 78 6e 00       	call   7d229c0 <pthread_mutex_unlock@plt>
 763b0c8:	e8 f3 78 6e 00       	call   7d229c0 <pthread_mutex_unlock@plt>
 763b5e0:	e8 db 73 6e 00       	call   7d229c0 <pthread_mutex_unlock@plt>
 763b6e4:	e8 d7 72 6e 00       	call   7d229c0 <pthread_mutex_unlock@plt>
 763ba07:	e8 b4 6f 6e 00       	call   7d229c0 <pthread_mutex_unlock@plt>
 763bad9:	e8 e2 6e 6e 00       	call   7d229c0 <pthread_mutex_unlock@plt>
 763c39c:	e8 1f 66 6e 00       	call   7d229c0 <pthread_mutex_unlock@plt>
 763c5d2:	e8 e9 63 6e 00       	call   7d229c0 <pthread_mutex_unlock@plt>
 763c75a:	e8 31 2c 43 fc       	call   3a6f390 <std::unique_lock<std::mutex>::unlock()>
 763c7fb:	e8 c0 61 6e 00       	call   7d229c0 <pthread_mutex_unlock@plt>
 763cfaf:	e8 dc 23 43 fc       	call   3a6f390 <std::unique_lock<std::mutex>::unlock()>
 763d05f:	e8 2c 23 43 fc       	call   3a6f390 <std::unique_lock<std::mutex>::unlock()>
 763f4c6:	e8 f5 34 6e 00       	call   7d229c0 <pthread_mutex_unlock@plt>
 763f74c:	e8 6f 32 6e 00       	call   7d229c0 <pthread_mutex_unlock@plt>
 7640b80:	e9 3b 1e 6e 00       	jmp    7d229c0 <pthread_mutex_unlock@plt>
 7640e07:	e8 b4 1b 6e 00       	call   7d229c0 <pthread_mutex_unlock@plt>
 7640e55:	e8 66 1b 6e 00       	call   7d229c0 <pthread_mutex_unlock@plt>
 7641493:	e9 28 15 6e 00       	jmp    7d229c0 <pthread_mutex_unlock@plt>
 764188d:	e9 2e 11 6e 00       	jmp    7d229c0 <pthread_mutex_unlock@plt>
 7641a34:	e8 87 0f 6e 00       	call   7d229c0 <pthread_mutex_unlock@plt>
 7641cb8:	e8 03 0d 6e 00       	call   7d229c0 <pthread_mutex_unlock@plt>
 7641da7:	e8 14 0c 6e 00       	call   7d229c0 <pthread_mutex_unlock@plt>
 7641e57:	e8 64 0b 6e 00       	call   7d229c0 <pthread_mutex_unlock@plt>
 7641e99:	e8 22 0b 6e 00       	call   7d229c0 <pthread_mutex_unlock@plt>
 764322f:	e8 8c f7 6d 00       	call   7d229c0 <pthread_mutex_unlock@plt>
 76432cc:	e9 ef f6 6d 00       	jmp    7d229c0 <pthread_mutex_unlock@plt>
 7643370:	e8 4b f6 6d 00       	call   7d229c0 <pthread_mutex_unlock@plt>
 7643c80:	e8 3b ed 6d 00       	call   7d229c0 <pthread_mutex_unlock@plt>
 7643eb8:	e8 03 eb 6d 00       	call   7d229c0 <pthread_mutex_unlock@plt>
 7643f05:	e9 b6 ea 6d 00       	jmp    7d229c0 <pthread_mutex_unlock@plt>
 7643f58:	e9 63 ea 6d 00       	jmp    7d229c0 <pthread_mutex_unlock@plt>
 7644107:	e9 b4 e8 6d 00       	jmp    7d229c0 <pthread_mutex_unlock@plt>
 76441e2:	e8 d9 e7 6d 00       	call   7d229c0 <pthread_mutex_unlock@plt>
 76445ab:	e8 10 e4 6d 00       	call   7d229c0 <pthread_mutex_unlock@plt>
 76446f3:	e8 c8 e2 6d 00       	call   7d229c0 <pthread_mutex_unlock@plt>
 7652554:	e9 67 04 6d 00       	jmp    7d229c0 <pthread_mutex_unlock@plt>
 76528b6:	e9 05 01 6d 00       	jmp    7d229c0 <pthread_mutex_unlock@plt>
 7652ac5:	e9 f6 fe 6c 00       	jmp    7d229c0 <pthread_mutex_unlock@plt>
 7652e0f:	e8 ac fb 6c 00       	call   7d229c0 <pthread_mutex_unlock@plt>
 7652e98:	e8 23 fb 6c 00       	call   7d229c0 <pthread_mutex_unlock@plt>
 7654159:	e8 62 e8 6c 00       	call   7d229c0 <pthread_mutex_unlock@plt>
 7657e91:	e8 2a ab 6c 00       	call   7d229c0 <pthread_mutex_unlock@plt>
 7658088:	e8 03 73 41 fc       	call   3a6f390 <std::unique_lock<std::mutex>::unlock()>
 76588b0:	e8 0b a1 6c 00       	call   7d229c0 <pthread_mutex_unlock@plt>
 765897a:	e8 41 a0 6c 00       	call   7d229c0 <pthread_mutex_unlock@plt>
 76589c7:	e8 f4 9f 6c 00       	call   7d229c0 <pthread_mutex_unlock@plt>
 765a229:	e8 62 51 41 fc       	call   3a6f390 <std::unique_lock<std::mutex>::unlock()>
 765a29a:	e8 21 87 6c 00       	call   7d229c0 <pthread_mutex_unlock@plt>
 765a39b:	e8 20 86 6c 00       	call   7d229c0 <pthread_mutex_unlock@plt>
 765a3ce:	e8 ed 85 6c 00       	call   7d229c0 <pthread_mutex_unlock@plt>
 765a607:	e9 b4 83 6c 00       	jmp    7d229c0 <pthread_mutex_unlock@plt>
 765cb89:	e8 02 28 41 fc       	call   3a6f390 <std::unique_lock<std::mutex>::unlock()>
 765cbc5:	e8 c6 27 41 fc       	call   3a6f390 <std::unique_lock<std::mutex>::unlock()>
 765cda6:	e8 15 5c 6c 00       	call   7d229c0 <pthread_mutex_unlock@plt>
 765cdcf:	e8 bc 25 41 fc       	call   3a6f390 <std::unique_lock<std::mutex>::unlock()>
 765ce06:	e8 85 25 41 fc       	call   3a6f390 <std::unique_lock<std::mutex>::unlock()>
 76685f2:	e9 c9 a3 6b 00       	jmp    7d229c0 <pthread_mutex_unlock@plt>
 7668618:	e9 a3 a3 6b 00       	jmp    7d229c0 <pthread_mutex_unlock@plt>
 7668a9a:	e8 21 9f 6b 00       	call   7d229c0 <pthread_mutex_unlock@plt>
 7669cbc:	e9 ff 8c 6b 00       	jmp    7d229c0 <pthread_mutex_unlock@plt>
 766be9e:	e8 1d 6b 6b 00       	call   7d229c0 <pthread_mutex_unlock@plt>
 766bf10:	e8 ab 6a 6b 00       	call   7d229c0 <pthread_mutex_unlock@plt>
 766d866:	e8 55 51 6b 00       	call   7d229c0 <pthread_mutex_unlock@plt>
 766d9b2:	e8 09 50 6b 00       	call   7d229c0 <pthread_mutex_unlock@plt>
 766da5d:	e8 5e 4f 6b 00       	call   7d229c0 <pthread_mutex_unlock@plt>
 766e0ab:	e8 10 49 6b 00       	call   7d229c0 <pthread_mutex_unlock@plt>
 766e1d4:	e8 e7 47 6b 00       	call   7d229c0 <pthread_mutex_unlock@plt>
 766e303:	e8 b8 46 6b 00       	call   7d229c0 <pthread_mutex_unlock@plt>
 766e36c:	e8 1f 10 40 fc       	call   3a6f390 <std::unique_lock<std::mutex>::unlock()>
 766e783:	e8 38 42 6b 00       	call   7d229c0 <pthread_mutex_unlock@plt>
 7671bb3:	e8 08 0e 6b 00       	call   7d229c0 <pthread_mutex_unlock@plt>
 76726af:	e8 dc cc 3f fc       	call   3a6f390 <std::unique_lock<std::mutex>::unlock()>
 7672aba:	e8 01 ff 6a 00       	call   7d229c0 <pthread_mutex_unlock@plt>
 7672f17:	e8 74 c4 3f fc       	call   3a6f390 <std::unique_lock<std::mutex>::unlock()>
 7673057:	e8 34 c3 3f fc       	call   3a6f390 <std::unique_lock<std::mutex>::unlock()>
 7673217:	e8 74 c1 3f fc       	call   3a6f390 <std::unique_lock<std::mutex>::unlock()>
 767345f:	e8 5c f5 6a 00       	call   7d229c0 <pthread_mutex_unlock@plt>
 7673477:	e8 14 bf 3f fc       	call   3a6f390 <std::unique_lock<std::mutex>::unlock()>
 767374e:	e8 6d f2 6a 00       	call   7d229c0 <pthread_mutex_unlock@plt>
 76737c7:	e8 f4 f1 6a 00       	call   7d229c0 <pthread_mutex_unlock@plt>
 7674794:	e8 f7 ab 3f fc       	call   3a6f390 <std::unique_lock<std::mutex>::unlock()>
 767481d:	e8 9e e1 6a 00       	call   7d229c0 <pthread_mutex_unlock@plt>
 7674bcf:	e8 ec dd 6a 00       	call   7d229c0 <pthread_mutex_unlock@plt>
 7674c2c:	e8 8f dd 6a 00       	call   7d229c0 <pthread_mutex_unlock@plt>
 7674d2d:	e8 5e a6 3f fc       	call   3a6f390 <std::unique_lock<std::mutex>::unlock()>
 7674d7f:	e8 3c dc 6a 00       	call   7d229c0 <pthread_mutex_unlock@plt>
 7675e9c:	e8 ef 94 3f fc       	call   3a6f390 <std::unique_lock<std::mutex>::unlock()>
 7675f12:	e8 79 94 3f fc       	call   3a6f390 <std::unique_lock<std::mutex>::unlock()>
 76763e5:	e8 d6 c5 6a 00       	call   7d229c0 <pthread_mutex_unlock@plt>
 7676610:	e8 ab c3 6a 00       	call   7d229c0 <pthread_mutex_unlock@plt>
 76787d0:	e8 bb 6b 3f fc       	call   3a6f390 <std::unique_lock<std::mutex>::unlock()>
 767884a:	e8 41 6b 3f fc       	call   3a6f390 <std::unique_lock<std::mutex>::unlock()>
 767aeaa:	e8 11 7b 6a 00       	call   7d229c0 <pthread_mutex_unlock@plt>
 767b3f3:	e8 c8 75 6a 00       	call   7d229c0 <pthread_mutex_unlock@plt>
 767b6ca:	e8 f1 72 6a 00       	call   7d229c0 <pthread_mutex_unlock@plt>
 767c0e6:	e8 d5 68 6a 00       	call   7d229c0 <pthread_mutex_unlock@plt>
 768549c:	e8 ef 9e 3e fc       	call   3a6f390 <std::unique_lock<std::mutex>::unlock()>
 76857be:	e8 cd 9b 3e fc       	call   3a6f390 <std::unique_lock<std::mutex>::unlock()>
 768b16e:	e8 4d 78 69 00       	call   7d229c0 <pthread_mutex_unlock@plt>
 768b247:	e8 74 77 69 00       	call   7d229c0 <pthread_mutex_unlock@plt>
 768bb28:	e8 93 6e 69 00       	call   7d229c0 <pthread_mutex_unlock@plt>
 768bb8a:	e8 31 6e 69 00       	call   7d229c0 <pthread_mutex_unlock@plt>
 768c73e:	e8 7d 62 69 00       	call   7d229c0 <pthread_mutex_unlock@plt>
 768c7e2:	e8 d9 61 69 00       	call   7d229c0 <pthread_mutex_unlock@plt>
 768c9d8:	e8 e3 5f 69 00       	call   7d229c0 <pthread_mutex_unlock@plt>
 768ceaf:	e8 dc 24 3e fc       	call   3a6f390 <std::unique_lock<std::mutex>::unlock()>
 768cec2:	e8 f9 5a 69 00       	call   7d229c0 <pthread_mutex_unlock@plt>
 768d6f0:	e8 9b 1c 3e fc       	call   3a6f390 <std::unique_lock<std::mutex>::unlock()>
 768d710:	e8 ab 52 69 00       	call   7d229c0 <pthread_mutex_unlock@plt>
 768e7da:	e8 e1 41 69 00       	call   7d229c0 <pthread_mutex_unlock@plt>
 768e847:	e8 74 41 69 00       	call   7d229c0 <pthread_mutex_unlock@plt>
 768e85b:	e8 60 41 69 00       	call   7d229c0 <pthread_mutex_unlock@plt>
 768eb28:	e8 93 3e 69 00       	call   7d229c0 <pthread_mutex_unlock@plt>
 769209e:	e8 1d 09 69 00       	call   7d229c0 <pthread_mutex_unlock@plt>
 76921aa:	e8 11 08 69 00       	call   7d229c0 <pthread_mutex_unlock@plt>
 7692255:	e8 66 07 69 00       	call   7d229c0 <pthread_mutex_unlock@plt>
 76929d6:	e8 e5 ff 68 00       	call   7d229c0 <pthread_mutex_unlock@plt>
 7692b32:	e8 89 fe 68 00       	call   7d229c0 <pthread_mutex_unlock@plt>
 7692bd5:	e8 e6 fd 68 00       	call   7d229c0 <pthread_mutex_unlock@plt>
 7696ece:	e8 ed ba 68 00       	call   7d229c0 <pthread_mutex_unlock@plt>
 76970ca:	e8 f1 b8 68 00       	call   7d229c0 <pthread_mutex_unlock@plt>
 76971ff:	e8 bc b7 68 00       	call   7d229c0 <pthread_mutex_unlock@plt>
 76a7880:	e8 3b b1 67 00       	call   7d229c0 <pthread_mutex_unlock@plt>
 76a7c58:	e8 63 ad 67 00       	call   7d229c0 <pthread_mutex_unlock@plt>
 76a7d49:	e8 72 ac 67 00       	call   7d229c0 <pthread_mutex_unlock@plt>
 76a7d8b:	e8 30 ac 67 00       	call   7d229c0 <pthread_mutex_unlock@plt>
 76a7e0e:	e9 ad ab 67 00       	jmp    7d229c0 <pthread_mutex_unlock@plt>
 76a82f7:	e8 c4 a6 67 00       	call   7d229c0 <pthread_mutex_unlock@plt>
 76a834a:	e9 71 a6 67 00       	jmp    7d229c0 <pthread_mutex_unlock@plt>
 76a8c17:	e8 a4 9d 67 00       	call   7d229c0 <pthread_mutex_unlock@plt>
 76a9bd9:	e9 e2 8d 67 00       	jmp    7d229c0 <pthread_mutex_unlock@plt>
 76a9bef:	e8 cc 8d 67 00       	call   7d229c0 <pthread_mutex_unlock@plt>
 76a9d7c:	e9 3f 8c 67 00       	jmp    7d229c0 <pthread_mutex_unlock@plt>
 76a9e16:	e9 a5 8b 67 00       	jmp    7d229c0 <pthread_mutex_unlock@plt>
 76a9ebe:	e9 fd 8a 67 00       	jmp    7d229c0 <pthread_mutex_unlock@plt>
 76aa2de:	e8 dd 86 67 00       	call   7d229c0 <pthread_mutex_unlock@plt>
 76aa315:	e8 a6 86 67 00       	call   7d229c0 <pthread_mutex_unlock@plt>
 76aad4a:	e9 71 7c 67 00       	jmp    7d229c0 <pthread_mutex_unlock@plt>
 76ab1b7:	e8 04 78 67 00       	call   7d229c0 <pthread_mutex_unlock@plt>
 76ab20a:	e9 b1 77 67 00       	jmp    7d229c0 <pthread_mutex_unlock@plt>
00000000076ab380 <asio::detail::scheduler::wake_one_thread_and_unlock(asio::detail::conditionally_enabled_mutex::scoped_lock&)>:
 76ab3a5:	0f 85 7d 00 00 00    	jne    76ab428 <asio::detail::scheduler::wake_one_thread_and_unlock(asio::detail::conditionally_enabled_mutex::scoped_lock&)+0xa8>
 76ab3b2:	75 36                	jne    76ab3ea <asio::detail::scheduler::wake_one_thread_and_unlock(asio::detail::conditionally_enabled_mutex::scoped_lock&)+0x6a>
 76ab3be:	74 2a                	je     76ab3ea <asio::detail::scheduler::wake_one_thread_and_unlock(asio::detail::conditionally_enabled_mutex::scoped_lock&)+0x6a>
 76ab3f0:	75 1e                	jne    76ab410 <asio::detail::scheduler::wake_one_thread_and_unlock(asio::detail::conditionally_enabled_mutex::scoped_lock&)+0x90>
 76ab3ff:	0f 85 96 00 00 00    	jne    76ab49b <asio::detail::scheduler::wake_one_thread_and_unlock(asio::detail::conditionally_enabled_mutex::scoped_lock&)+0x11b>
 76ab418:	75 66                	jne    76ab480 <asio::detail::scheduler::wake_one_thread_and_unlock(asio::detail::conditionally_enabled_mutex::scoped_lock&)+0x100>
 76ab420:	eb d0                	jmp    76ab3f2 <asio::detail::scheduler::wake_one_thread_and_unlock(asio::detail::conditionally_enabled_mutex::scoped_lock&)+0x72>
 76ab43e:	0f 84 67 ff ff ff    	je     76ab3ab <asio::detail::scheduler::wake_one_thread_and_unlock(asio::detail::conditionally_enabled_mutex::scoped_lock&)+0x2b>
 76ab448:	74 0f                	je     76ab459 <asio::detail::scheduler::wake_one_thread_and_unlock(asio::detail::conditionally_enabled_mutex::scoped_lock&)+0xd9>
 76ab451:	75 3d                	jne    76ab490 <asio::detail::scheduler::wake_one_thread_and_unlock(asio::detail::conditionally_enabled_mutex::scoped_lock&)+0x110>
 76ab466:	75 33                	jne    76ab49b <asio::detail::scheduler::wake_one_thread_and_unlock(asio::detail::conditionally_enabled_mutex::scoped_lock&)+0x11b>
 76ab484:	e8 37 75 67 00       	call   7d229c0 <pthread_mutex_unlock@plt>
 76ab489:	eb 8f                	jmp    76ab41a <asio::detail::scheduler::wake_one_thread_and_unlock(asio::detail::conditionally_enabled_mutex::scoped_lock&)+0x9a>
 76ab494:	e8 27 75 67 00       	call   7d229c0 <pthread_mutex_unlock@plt>
 76ab499:	eb b8                	jmp    76ab453 <asio::detail::scheduler::wake_one_thread_and_unlock(asio::detail::conditionally_enabled_mutex::scoped_lock&)+0xd3>
 76ab568:	e8 13 fe ff ff       	call   76ab380 <asio::detail::scheduler::wake_one_thread_and_unlock(asio::detail::conditionally_enabled_mutex::scoped_lock&)>
 76ab5d9:	e9 e2 73 67 00       	jmp    7d229c0 <pthread_mutex_unlock@plt>
 76ab72a:	e9 91 72 67 00       	jmp    7d229c0 <pthread_mutex_unlock@plt>
 76ab8cd:	e8 ee 70 67 00       	call   7d229c0 <pthread_mutex_unlock@plt>
 76abaa5:	e8 16 6f 67 00       	call   7d229c0 <pthread_mutex_unlock@plt>
 76abba6:	e8 d5 f7 ff ff       	call   76ab380 <asio::detail::scheduler::wake_one_thread_and_unlock(asio::detail::conditionally_enabled_mutex::scoped_lock&)>
 76abc29:	e9 92 6d 67 00       	jmp    7d229c0 <pthread_mutex_unlock@plt>
 76abcd7:	e8 a4 f6 ff ff       	call   76ab380 <asio::detail::scheduler::wake_one_thread_and_unlock(asio::detail::conditionally_enabled_mutex::scoped_lock&)>
 76abd31:	e9 8a 6c 67 00       	jmp    7d229c0 <pthread_mutex_unlock@plt>
 76abe47:	e8 34 f5 ff ff       	call   76ab380 <asio::detail::scheduler::wake_one_thread_and_unlock(asio::detail::conditionally_enabled_mutex::scoped_lock&)>
 76abe71:	e9 4a 6b 67 00       	jmp    7d229c0 <pthread_mutex_unlock@plt>
 76ac0dd:	e9 de 68 67 00       	jmp    7d229c0 <pthread_mutex_unlock@plt>
 76ac0e6:	e8 d5 68 67 00       	call   7d229c0 <pthread_mutex_unlock@plt>
 76ac433:	e9 88 65 67 00       	jmp    7d229c0 <pthread_mutex_unlock@plt>
 76ac43f:	e8 7c 65 67 00       	call   7d229c0 <pthread_mutex_unlock@plt>
 76ac942:	e8 79 60 67 00       	call   7d229c0 <pthread_mutex_unlock@plt>
 76ac9bc:	e8 ff 5f 67 00       	call   7d229c0 <pthread_mutex_unlock@plt>
 76ac9ca:	e8 f1 5f 67 00       	call   7d229c0 <pthread_mutex_unlock@plt>
 76acda0:	e8 1b 5c 67 00       	call   7d229c0 <pthread_mutex_unlock@plt>
 76aceba:	e8 c1 e4 ff ff       	call   76ab380 <asio::detail::scheduler::wake_one_thread_and_unlock(asio::detail::conditionally_enabled_mutex::scoped_lock&)>
 76aced0:	e8 eb 5a 67 00       	call   7d229c0 <pthread_mutex_unlock@plt>
 76acefe:	e8 bd 5a 67 00       	call   7d229c0 <pthread_mutex_unlock@plt>
 76ad114:	e8 67 e2 ff ff       	call   76ab380 <asio::detail::scheduler::wake_one_thread_and_unlock(asio::detail::conditionally_enabled_mutex::scoped_lock&)>
 76ad3e0:	e8 db 55 67 00       	call   7d229c0 <pthread_mutex_unlock@plt>
 76ad530:	e8 8b 54 67 00       	call   7d229c0 <pthread_mutex_unlock@plt>
 76ad5bd:	e8 fe 53 67 00       	call   7d229c0 <pthread_mutex_unlock@plt>
 76ad5f4:	e8 c7 53 67 00       	call   7d229c0 <pthread_mutex_unlock@plt>
 76ad60a:	e8 b1 53 67 00       	call   7d229c0 <pthread_mutex_unlock@plt>
 76ad970:	e8 4b 50 67 00       	call   7d229c0 <pthread_mutex_unlock@plt>
 76ad98a:	e8 f1 d9 ff ff       	call   76ab380 <asio::detail::scheduler::wake_one_thread_and_unlock(asio::detail::conditionally_enabled_mutex::scoped_lock&)>
 76ada2c:	e8 8f 4f 67 00       	call   7d229c0 <pthread_mutex_unlock@plt>
 76ada6e:	e8 4d 4f 67 00       	call   7d229c0 <pthread_mutex_unlock@plt>
 76adc30:	e8 8b 4d 67 00       	call   7d229c0 <pthread_mutex_unlock@plt>
 76adc5d:	e8 5e 4d 67 00       	call   7d229c0 <pthread_mutex_unlock@plt>
 76addb4:	e8 c7 d5 ff ff       	call   76ab380 <asio::detail::scheduler::wake_one_thread_and_unlock(asio::detail::conditionally_enabled_mutex::scoped_lock&)>
 76ade15:	e9 a6 4b 67 00       	jmp    7d229c0 <pthread_mutex_unlock@plt>
 76ae112:	e9 a9 48 67 00       	jmp    7d229c0 <pthread_mutex_unlock@plt>
 76ae225:	e8 96 47 67 00       	call   7d229c0 <pthread_mutex_unlock@plt>
 76ae3db:	e8 e0 45 67 00       	call   7d229c0 <pthread_mutex_unlock@plt>
 76ae580:	e8 3b 44 67 00       	call   7d229c0 <pthread_mutex_unlock@plt>
 76ae780:	e8 3b 42 67 00       	call   7d229c0 <pthread_mutex_unlock@plt>
 76ae8a4:	e8 17 41 67 00       	call   7d229c0 <pthread_mutex_unlock@plt>
 76aebf3:	e9 c8 3d 67 00       	jmp    7d229c0 <pthread_mutex_unlock@plt>
 76aec57:	e8 64 3d 67 00       	call   7d229c0 <pthread_mutex_unlock@plt>
 76aecf6:	e9 c5 3c 67 00       	jmp    7d229c0 <pthread_mutex_unlock@plt>
 76aef78:	e9 43 3a 67 00       	jmp    7d229c0 <pthread_mutex_unlock@plt>
 76aefa3:	e9 18 3a 67 00       	jmp    7d229c0 <pthread_mutex_unlock@plt>
 76aefc2:	e9 f9 39 67 00       	jmp    7d229c0 <pthread_mutex_unlock@plt>
 76b2353:	e8 68 06 67 00       	call   7d229c0 <pthread_mutex_unlock@plt>
 76b24c4:	e8 f7 04 67 00       	call   7d229c0 <pthread_mutex_unlock@plt>
 76b24fa:	e8 c1 04 67 00       	call   7d229c0 <pthread_mutex_unlock@plt>
 76b252e:	e8 8d 04 67 00       	call   7d229c0 <pthread_mutex_unlock@plt>
 76b2696:	e8 25 03 67 00       	call   7d229c0 <pthread_mutex_unlock@plt>
 76b26d4:	e8 e7 02 67 00       	call   7d229c0 <pthread_mutex_unlock@plt>
 76b2741:	e8 7a 02 67 00       	call   7d229c0 <pthread_mutex_unlock@plt>
 76b27b3:	e9 08 02 67 00       	jmp    7d229c0 <pthread_mutex_unlock@plt>
 76b27db:	e8 e0 01 67 00       	call   7d229c0 <pthread_mutex_unlock@plt>
 76b5260:	e8 5b d7 66 00       	call   7d229c0 <pthread_mutex_unlock@plt>
 76b5463:	e8 58 d5 66 00       	call   7d229c0 <pthread_mutex_unlock@plt>
 76b563b:	e8 80 d3 66 00       	call   7d229c0 <pthread_mutex_unlock@plt>
 76b581b:	e8 a0 d1 66 00       	call   7d229c0 <pthread_mutex_unlock@plt>
 76b5afb:	e8 c0 ce 66 00       	call   7d229c0 <pthread_mutex_unlock@plt>
 76b5d6b:	e8 50 cc 66 00       	call   7d229c0 <pthread_mutex_unlock@plt>
 76b77cb:	e8 f0 b1 66 00       	call   7d229c0 <pthread_mutex_unlock@plt>
 76b7888:	e9 33 b1 66 00       	jmp    7d229c0 <pthread_mutex_unlock@plt>
 76b88fa:	e8 c1 a0 66 00       	call   7d229c0 <pthread_mutex_unlock@plt>
 76b8c11:	e8 aa 9d 66 00       	call   7d229c0 <pthread_mutex_unlock@plt>
 76b8c7c:	e9 3f 9d 66 00       	jmp    7d229c0 <pthread_mutex_unlock@plt>
 76b8cec:	e9 cf 9c 66 00       	jmp    7d229c0 <pthread_mutex_unlock@plt>
 76b9e69:	e9 52 8b 66 00       	jmp    7d229c0 <pthread_mutex_unlock@plt>
 76ba0f7:	e8 c4 88 66 00       	call   7d229c0 <pthread_mutex_unlock@plt>
 76ba2dd:	e8 de 86 66 00       	call   7d229c0 <pthread_mutex_unlock@plt>
 76ba947:	e8 74 80 66 00       	call   7d229c0 <pthread_mutex_unlock@plt>
 76baa04:	e9 b7 7f 66 00       	jmp    7d229c0 <pthread_mutex_unlock@plt>
 76baa2a:	e8 91 7f 66 00       	call   7d229c0 <pthread_mutex_unlock@plt>
 76baad1:	e8 ea 7e 66 00       	call   7d229c0 <pthread_mutex_unlock@plt>
 76bab97:	e8 24 7e 66 00       	call   7d229c0 <pthread_mutex_unlock@plt>
 76bad32:	e8 89 7c 66 00       	call   7d229c0 <pthread_mutex_unlock@plt>
 76bb079:	e8 42 79 66 00       	call   7d229c0 <pthread_mutex_unlock@plt>
 76bb59b:	e8 20 74 66 00       	call   7d229c0 <pthread_mutex_unlock@plt>
 76bb5b5:	e8 06 74 66 00       	call   7d229c0 <pthread_mutex_unlock@plt>
 76bb602:	e8 b9 73 66 00       	call   7d229c0 <pthread_mutex_unlock@plt>
 76bb668:	e8 53 73 66 00       	call   7d229c0 <pthread_mutex_unlock@plt>
 76bb6b5:	e8 06 73 66 00       	call   7d229c0 <pthread_mutex_unlock@plt>
 76bb756:	e8 65 72 66 00       	call   7d229c0 <pthread_mutex_unlock@plt>
 76bb80c:	e8 af 71 66 00       	call   7d229c0 <pthread_mutex_unlock@plt>
 76bb85a:	e8 61 71 66 00       	call   7d229c0 <pthread_mutex_unlock@plt>
 76bb86e:	e8 4d 71 66 00       	call   7d229c0 <pthread_mutex_unlock@plt>
 76bbacd:	e8 ee 6e 66 00       	call   7d229c0 <pthread_mutex_unlock@plt>
 76bbb15:	e8 a6 6e 66 00       	call   7d229c0 <pthread_mutex_unlock@plt>
 76bbb5d:	e8 5e 6e 66 00       	call   7d229c0 <pthread_mutex_unlock@plt>
 76bbba5:	e8 16 6e 66 00       	call   7d229c0 <pthread_mutex_unlock@plt>
 76bbbed:	e8 ce 6d 66 00       	call   7d229c0 <pthread_mutex_unlock@plt>
 76bbd5e:	e8 5d 6c 66 00       	call   7d229c0 <pthread_mutex_unlock@plt>
 76bbef9:	e8 c2 6a 66 00       	call   7d229c0 <pthread_mutex_unlock@plt>
 76bbf3a:	e8 81 6a 66 00       	call   7d229c0 <pthread_mutex_unlock@plt>
 76bc120:	e8 9b 68 66 00       	call   7d229c0 <pthread_mutex_unlock@plt>
 76bc14a:	e8 71 68 66 00       	call   7d229c0 <pthread_mutex_unlock@plt>
 76bc1b5:	e8 06 68 66 00       	call   7d229c0 <pthread_mutex_unlock@plt>
 76bc20e:	e8 ad 67 66 00       	call   7d229c0 <pthread_mutex_unlock@plt>
 76bc232:	e8 89 67 66 00       	call   7d229c0 <pthread_mutex_unlock@plt>
 770a597:	e8 14 32 08 00       	call   778d7b0 <umtx_unlock>
 770a5ae:	e8 fd 31 08 00       	call   778d7b0 <umtx_unlock>
 771325c:	e8 4f a5 07 00       	call   778d7b0 <umtx_unlock>
 7713302:	e8 a9 a4 07 00       	call   778d7b0 <umtx_unlock>
 771332e:	e8 7d a4 07 00       	call   778d7b0 <umtx_unlock>
 77204e8:	e8 c3 d2 06 00       	call   778d7b0 <umtx_unlock>
 772079b:	e8 10 d0 06 00       	call   778d7b0 <umtx_unlock>
 77207af:	e8 fc cf 06 00       	call   778d7b0 <umtx_unlock>
 7720998:	e8 13 ce 06 00       	call   778d7b0 <umtx_unlock>
 77211eb:	e8 c0 c5 06 00       	call   778d7b0 <umtx_unlock>
 772121c:	e8 8f c5 06 00       	call   778d7b0 <umtx_unlock>
 7721a93:	e8 18 bd 06 00       	call   778d7b0 <umtx_unlock>
 7721c0a:	e8 a1 bb 06 00       	call   778d7b0 <umtx_unlock>
 7721c5b:	e8 50 bb 06 00       	call   778d7b0 <umtx_unlock>
 7721c9c:	e8 0f bb 06 00       	call   778d7b0 <umtx_unlock>
 7721d70:	e8 3b ba 06 00       	call   778d7b0 <umtx_unlock>
 77221fd:	e8 ae b5 06 00       	call   778d7b0 <umtx_unlock>
 7722212:	e8 99 b5 06 00       	call   778d7b0 <umtx_unlock>
 7724e1e:	e8 8d 89 06 00       	call   778d7b0 <umtx_unlock>
 7724e58:	e8 53 89 06 00       	call   778d7b0 <umtx_unlock>
 772512a:	e8 81 86 06 00       	call   778d7b0 <umtx_unlock>
 7725278:	e8 33 85 06 00       	call   778d7b0 <umtx_unlock>
 77252a0:	e8 0b 85 06 00       	call   778d7b0 <umtx_unlock>
 7726249:	e8 62 75 06 00       	call   778d7b0 <umtx_unlock>
 7726270:	e8 3b 75 06 00       	call   778d7b0 <umtx_unlock>
 77263de:	e8 cd 73 06 00       	call   778d7b0 <umtx_unlock>
 7726418:	e8 93 73 06 00       	call   778d7b0 <umtx_unlock>
 77279aa:	e8 01 5e 06 00       	call   778d7b0 <umtx_unlock>
 772a4a8:	e8 03 33 06 00       	call   778d7b0 <umtx_unlock>
 772a714:	e8 97 30 06 00       	call   778d7b0 <umtx_unlock>
 772a840:	e8 6b 2f 06 00       	call   778d7b0 <umtx_unlock>
 7738dbc:	e8 ef 49 05 00       	call   778d7b0 <umtx_unlock>
 7738f9f:	e8 0c 48 05 00       	call   778d7b0 <umtx_unlock>
 773a1f0:	e8 bb 35 05 00       	call   778d7b0 <umtx_unlock>
 773a8e5:	e8 c6 2e 05 00       	call   778d7b0 <umtx_unlock>
 773a91e:	e8 8d 2e 05 00       	call   778d7b0 <umtx_unlock>
 773a938:	e8 73 2e 05 00       	call   778d7b0 <umtx_unlock>
 773abd8:	e8 d3 2b 05 00       	call   778d7b0 <umtx_unlock>
 773abf8:	e8 b3 2b 05 00       	call   778d7b0 <umtx_unlock>
 773ac55:	e8 56 2b 05 00       	call   778d7b0 <umtx_unlock>
 773ac6b:	e8 40 2b 05 00       	call   778d7b0 <umtx_unlock>
 773b40a:	e8 a1 23 05 00       	call   778d7b0 <umtx_unlock>
 773b718:	e8 93 20 05 00       	call   778d7b0 <umtx_unlock>
 773bef7:	e8 b4 18 05 00       	call   778d7b0 <umtx_unlock>
 773c034:	e8 77 17 05 00       	call   778d7b0 <umtx_unlock>
 773c108:	e8 a3 16 05 00       	call   778d7b0 <umtx_unlock>
 773c428:	e8 83 13 05 00       	call   778d7b0 <umtx_unlock>
 773c70d:	e8 9e 10 05 00       	call   778d7b0 <umtx_unlock>
 773c72a:	e8 81 10 05 00       	call   778d7b0 <umtx_unlock>
 773c9c0:	e8 eb 0d 05 00       	call   778d7b0 <umtx_unlock>
 773ca3e:	e8 6d 0d 05 00       	call   778d7b0 <umtx_unlock>
 773ca6e:	e8 3d 0d 05 00       	call   778d7b0 <umtx_unlock>
 773cb12:	e8 99 0c 05 00       	call   778d7b0 <umtx_unlock>
 773cbc1:	e8 ea 0b 05 00       	call   778d7b0 <umtx_unlock>
 773cbdc:	e8 cf 0b 05 00       	call   778d7b0 <umtx_unlock>
 773cc37:	e8 74 0b 05 00       	call   778d7b0 <umtx_unlock>
 773dd05:	e8 a6 fa 04 00       	call   778d7b0 <umtx_unlock>
 773e2e0:	e8 cb f4 04 00       	call   778d7b0 <umtx_unlock>
 773e714:	e8 97 f0 04 00       	call   778d7b0 <umtx_unlock>
 773e7dd:	e8 ce ef 04 00       	call   778d7b0 <umtx_unlock>
 773e82b:	e8 80 ef 04 00       	call   778d7b0 <umtx_unlock>
 773e8f2:	e8 b9 ee 04 00       	call   778d7b0 <umtx_unlock>
 773e913:	e8 98 ee 04 00       	call   778d7b0 <umtx_unlock>
 773e9bd:	e8 ee ed 04 00       	call   778d7b0 <umtx_unlock>
 773ea10:	e8 9b ed 04 00       	call   778d7b0 <umtx_unlock>
 773ea28:	e8 83 ed 04 00       	call   778d7b0 <umtx_unlock>
 773ea48:	e8 63 ed 04 00       	call   778d7b0 <umtx_unlock>
 773ea5c:	e8 4f ed 04 00       	call   778d7b0 <umtx_unlock>
 775354f:	e8 5c a2 03 00       	call   778d7b0 <umtx_unlock>
 77535fd:	e8 ae a1 03 00       	call   778d7b0 <umtx_unlock>
 775cc2f:	e9 7c 0b 03 00       	jmp    778d7b0 <umtx_unlock>
 775cc7a:	e9 31 0b 03 00       	jmp    778d7b0 <umtx_unlock>
 775ce3f:	e8 6c 09 03 00       	call   778d7b0 <umtx_unlock>
 775d176:	e8 35 06 03 00       	call   778d7b0 <umtx_unlock>
 775d3b2:	e8 f9 03 03 00       	call   778d7b0 <umtx_unlock>
 775d828:	e8 83 ff 02 00       	call   778d7b0 <umtx_unlock>
 7772a59:	e8 52 ad 01 00       	call   778d7b0 <umtx_unlock>
 7772c1e:	e8 8d ab 01 00       	call   778d7b0 <umtx_unlock>
 7772dbf:	e8 ec a9 01 00       	call   778d7b0 <umtx_unlock>
 777ca82:	e8 29 0d 01 00       	call   778d7b0 <umtx_unlock>
 777caae:	e8 fd 0c 01 00       	call   778d7b0 <umtx_unlock>
 777cad2:	e8 d9 0c 01 00       	call   778d7b0 <umtx_unlock>
 777cb42:	e8 69 0c 01 00       	call   778d7b0 <umtx_unlock>
 777cf0c:	e8 9f 08 01 00       	call   778d7b0 <umtx_unlock>
 777cfc5:	e8 e6 07 01 00       	call   778d7b0 <umtx_unlock>
 777d42b:	e8 80 03 01 00       	call   778d7b0 <umtx_unlock>
 777d570:	e8 3b 02 01 00       	call   778d7b0 <umtx_unlock>
 777d5b4:	e8 f7 01 01 00       	call   778d7b0 <umtx_unlock>
 777d871:	e8 3a ff 00 00       	call   778d7b0 <umtx_unlock>
 777d922:	e8 89 fe 00 00       	call   778d7b0 <umtx_unlock>
000000000778d7b0 <umtx_unlock>:
 778d7be:	e9 fd 51 59 00       	jmp    7d229c0 <pthread_mutex_unlock@plt>
 778d85b:	e8 60 51 59 00       	call   7d229c0 <pthread_mutex_unlock@plt>
 778d87f:	e8 3c 51 59 00       	call   7d229c0 <pthread_mutex_unlock@plt>
 778d8d8:	e9 e3 50 59 00       	jmp    7d229c0 <pthread_mutex_unlock@plt>
 7790f8d:	e8 1e c8 ff ff       	call   778d7b0 <umtx_unlock>
 7790fe1:	e8 ca c7 ff ff       	call   778d7b0 <umtx_unlock>
 7791026:	e8 85 c7 ff ff       	call   778d7b0 <umtx_unlock>
 779106a:	e8 41 c7 ff ff       	call   778d7b0 <umtx_unlock>
 7791394:	e8 17 c4 ff ff       	call   778d7b0 <umtx_unlock>
 7791581:	e8 2a c2 ff ff       	call   778d7b0 <umtx_unlock>
 77915d9:	e8 d2 c1 ff ff       	call   778d7b0 <umtx_unlock>
 77915f6:	e8 b5 c1 ff ff       	call   778d7b0 <umtx_unlock>
 7791879:	e8 32 bf ff ff       	call   778d7b0 <umtx_unlock>
 7791896:	e8 15 bf ff ff       	call   778d7b0 <umtx_unlock>
 7791a50:	e8 5b bd ff ff       	call   778d7b0 <umtx_unlock>
 7791af4:	e8 b7 bc ff ff       	call   778d7b0 <umtx_unlock>
 7791bff:	e8 ac bb ff ff       	call   778d7b0 <umtx_unlock>
 7791c3a:	e8 71 bb ff ff       	call   778d7b0 <umtx_unlock>
 7791c4e:	e8 5d bb ff ff       	call   778d7b0 <umtx_unlock>
 7791c62:	e8 49 bb ff ff       	call   778d7b0 <umtx_unlock>
 7791c76:	e8 35 bb ff ff       	call   778d7b0 <umtx_unlock>
 7791c8a:	e8 21 bb ff ff       	call   778d7b0 <umtx_unlock>
 7791cae:	e8 fd ba ff ff       	call   778d7b0 <umtx_unlock>
 7791cbe:	e8 ed ba ff ff       	call   778d7b0 <umtx_unlock>
 7791cd2:	e8 d9 ba ff ff       	call   778d7b0 <umtx_unlock>
 77a6971:	e8 3a 6e fe ff       	call   778d7b0 <umtx_unlock>
 77a6ceb:	e8 c0 6a fe ff       	call   778d7b0 <umtx_unlock>
 77a713d:	e8 6e 66 fe ff       	call   778d7b0 <umtx_unlock>
 77a7388:	e8 23 64 fe ff       	call   778d7b0 <umtx_unlock>
 77a74ab:	e8 00 63 fe ff       	call   778d7b0 <umtx_unlock>
 77a7811:	e8 9a 5f fe ff       	call   778d7b0 <umtx_unlock>
 77a792a:	e8 81 5e fe ff       	call   778d7b0 <umtx_unlock>
 77a79d0:	e8 db 5d fe ff       	call   778d7b0 <umtx_unlock>
 77a8580:	e8 2b 52 fe ff       	call   778d7b0 <umtx_unlock>
 77a9ced:	e8 be 3a fe ff       	call   778d7b0 <umtx_unlock>
 77b2203:	e8 a8 b5 fd ff       	call   778d7b0 <umtx_unlock>
 77b2825:	e8 86 af fd ff       	call   778d7b0 <umtx_unlock>
 77b2833:	e8 78 af fd ff       	call   778d7b0 <umtx_unlock>
 77b2951:	e8 5a ae fd ff       	call   778d7b0 <umtx_unlock>
 77b2b4e:	e8 5d ac fd ff       	call   778d7b0 <umtx_unlock>
 77b2e08:	e9 a3 a9 fd ff       	jmp    778d7b0 <umtx_unlock>
 77b3bc4:	e8 e7 9b fd ff       	call   778d7b0 <umtx_unlock>
 77b3bda:	e8 d1 9b fd ff       	call   778d7b0 <umtx_unlock>
 77b3c6d:	e8 3e 9b fd ff       	call   778d7b0 <umtx_unlock>
 77b3c86:	e9 25 9b fd ff       	jmp    778d7b0 <umtx_unlock>
 77b3cc4:	e8 e7 9a fd ff       	call   778d7b0 <umtx_unlock>
 77b3cef:	e9 bc 9a fd ff       	jmp    778d7b0 <umtx_unlock>
 77cc8c5:	e8 f6 60 55 00       	call   7d229c0 <pthread_mutex_unlock@plt>
 77cc92c:	e8 8f 60 55 00       	call   7d229c0 <pthread_mutex_unlock@plt>
 77ccd63:	e8 58 5c 55 00       	call   7d229c0 <pthread_mutex_unlock@plt>
 77cce66:	e9 55 5b 55 00       	jmp    7d229c0 <pthread_mutex_unlock@plt>
 77cce84:	e8 37 5b 55 00       	call   7d229c0 <pthread_mutex_unlock@plt>
 77cde53:	e8 68 4b 55 00       	call   7d229c0 <pthread_mutex_unlock@plt>
 77cdeb7:	e8 04 4b 55 00       	call   7d229c0 <pthread_mutex_unlock@plt>
 77cdf7c:	e8 3f 4a 55 00       	call   7d229c0 <pthread_mutex_unlock@plt>
 77cdf89:	e8 32 4a 55 00       	call   7d229c0 <pthread_mutex_unlock@plt>
 77cdfa3:	e8 18 4a 55 00       	call   7d229c0 <pthread_mutex_unlock@plt>
 77ce08b:	e8 30 49 55 00       	call   7d229c0 <pthread_mutex_unlock@plt>
 77ce0f3:	e8 c8 48 55 00       	call   7d229c0 <pthread_mutex_unlock@plt>
 77ce19a:	e8 21 48 55 00       	call   7d229c0 <pthread_mutex_unlock@plt>
 77ce350:	e9 6b 46 55 00       	jmp    7d229c0 <pthread_mutex_unlock@plt>
 77ce412:	e8 a9 45 55 00       	call   7d229c0 <pthread_mutex_unlock@plt>
 77ce563:	e8 58 44 55 00       	call   7d229c0 <pthread_mutex_unlock@plt>
 77ce645:	e8 76 43 55 00       	call   7d229c0 <pthread_mutex_unlock@plt>
 77ce652:	e8 69 43 55 00       	call   7d229c0 <pthread_mutex_unlock@plt>
 77ce7c3:	e8 f8 41 55 00       	call   7d229c0 <pthread_mutex_unlock@plt>
 77ce940:	e8 7b 40 55 00       	call   7d229c0 <pthread_mutex_unlock@plt>
 77ce9a0:	e8 1b 40 55 00       	call   7d229c0 <pthread_mutex_unlock@plt>
 77cea84:	e8 37 3f 55 00       	call   7d229c0 <pthread_mutex_unlock@plt>
 77cec4f:	e8 6c 3d 55 00       	call   7d229c0 <pthread_mutex_unlock@plt>
 77cec7d:	e8 3e 3d 55 00       	call   7d229c0 <pthread_mutex_unlock@plt>
 77ced58:	e8 63 3c 55 00       	call   7d229c0 <pthread_mutex_unlock@plt>
 77ceeab:	e8 10 3b 55 00       	call   7d229c0 <pthread_mutex_unlock@plt>
 77cefdb:	e8 e0 39 55 00       	call   7d229c0 <pthread_mutex_unlock@plt>
 77cf010:	e8 ab 39 55 00       	call   7d229c0 <pthread_mutex_unlock@plt>
 77cf018:	e8 a3 39 55 00       	call   7d229c0 <pthread_mutex_unlock@plt>
 77cf6e6:	e8 d5 32 55 00       	call   7d229c0 <pthread_mutex_unlock@plt>
 77cf74b:	e8 70 32 55 00       	call   7d229c0 <pthread_mutex_unlock@plt>
 77cf8bc:	e8 ff 30 55 00       	call   7d229c0 <pthread_mutex_unlock@plt>
 77cf97a:	e9 41 30 55 00       	jmp    7d229c0 <pthread_mutex_unlock@plt>
 77cfd69:	e8 52 2c 55 00       	call   7d229c0 <pthread_mutex_unlock@plt>
 77cfd71:	e8 4a 2c 55 00       	call   7d229c0 <pthread_mutex_unlock@plt>
 77cfef6:	e8 c5 2a 55 00       	call   7d229c0 <pthread_mutex_unlock@plt>
00000000077d01a4 <mongo::SimpleMutex::unlock() [clone .part.0]>:
 77d02d4:	e8 cb fe ff ff       	call   77d01a4 <mongo::SimpleMutex::unlock() [clone .part.0]>
 77d02d9:	e8 c6 fe ff ff       	call   77d01a4 <mongo::SimpleMutex::unlock() [clone .part.0]>
 77d0332:	e8 59 f0 29 fc       	call   3a6f390 <std::unique_lock<std::mutex>::unlock()>
 77d03d7:	e8 b4 ef 29 fc       	call   3a6f390 <std::unique_lock<std::mutex>::unlock()>
 77d047e:	e8 fd 00 57 fd       	call   4d40580 <mongo::SimpleMutex::unlock()>
 77d048b:	e8 14 fd ff ff       	call   77d01a4 <mongo::SimpleMutex::unlock() [clone .part.0]>
 77d0490:	e8 0f fd ff ff       	call   77d01a4 <mongo::SimpleMutex::unlock() [clone .part.0]>
 77d0496:	e8 09 fd ff ff       	call   77d01a4 <mongo::SimpleMutex::unlock() [clone .part.0]>
 77d04a6:	e8 15 25 55 00       	call   7d229c0 <pthread_mutex_unlock@plt>
 77d04b3:	e8 c8 00 57 fd       	call   4d40580 <mongo::SimpleMutex::unlock()>
 77d04c0:	e8 df fc ff ff       	call   77d01a4 <mongo::SimpleMutex::unlock() [clone .part.0]>
 77d051c:	e8 6f ee 29 fc       	call   3a6f390 <std::unique_lock<std::mutex>::unlock()>
 77d0538:	e8 53 ee 29 fc       	call   3a6f390 <std::unique_lock<std::mutex>::unlock()>
 77d054c:	e8 3f ee 29 fc       	call   3a6f390 <std::unique_lock<std::mutex>::unlock()>
 77d05f6:	e8 a9 fb ff ff       	call   77d01a4 <mongo::SimpleMutex::unlock() [clone .part.0]>
 77d066e:	e8 0d ff 56 fd       	call   4d40580 <mongo::SimpleMutex::unlock()>
 77d0941:	e8 4a ea 29 fc       	call   3a6f390 <std::unique_lock<std::mutex>::unlock()>
 77d095a:	e8 31 ea 29 fc       	call   3a6f390 <std::unique_lock<std::mutex>::unlock()>
 77d0dd9:	e8 e2 1b 55 00       	call   7d229c0 <pthread_mutex_unlock@plt>
 77d0e14:	e8 a7 1b 55 00       	call   7d229c0 <pthread_mutex_unlock@plt>
 77d0e3d:	e9 7e 1b 55 00       	jmp    7d229c0 <pthread_mutex_unlock@plt>
 77d0ed1:	e8 ea 1a 55 00       	call   7d229c0 <pthread_mutex_unlock@plt>
 77d0f61:	e8 5a 1a 55 00       	call   7d229c0 <pthread_mutex_unlock@plt>
 77d1028:	e8 93 19 55 00       	call   7d229c0 <pthread_mutex_unlock@plt>
 77d1063:	e8 58 19 55 00       	call   7d229c0 <pthread_mutex_unlock@plt>
 77d108d:	e9 2e 19 55 00       	jmp    7d229c0 <pthread_mutex_unlock@plt>
 77d1121:	e8 9a 18 55 00       	call   7d229c0 <pthread_mutex_unlock@plt>
 77d11b1:	e8 0a 18 55 00       	call   7d229c0 <pthread_mutex_unlock@plt>
 77d1261:	e8 5a 17 55 00       	call   7d229c0 <pthread_mutex_unlock@plt>
 77d12aa:	e9 11 17 55 00       	jmp    7d229c0 <pthread_mutex_unlock@plt>
 77d1353:	e8 68 16 55 00       	call   7d229c0 <pthread_mutex_unlock@plt>
 77d13e3:	e8 d8 15 55 00       	call   7d229c0 <pthread_mutex_unlock@plt>
 77d150d:	e9 ae 14 55 00       	jmp    7d229c0 <pthread_mutex_unlock@plt>
 77d1593:	e8 28 14 55 00       	call   7d229c0 <pthread_mutex_unlock@plt>
 77d167a:	e9 41 13 55 00       	jmp    7d229c0 <pthread_mutex_unlock@plt>
 77d195c:	e8 5f 10 55 00       	call   7d229c0 <pthread_mutex_unlock@plt>
 77d2506:	e8 b5 04 55 00       	call   7d229c0 <pthread_mutex_unlock@plt>
 77d2539:	e9 82 04 55 00       	jmp    7d229c0 <pthread_mutex_unlock@plt>
 77d258b:	e8 30 04 55 00       	call   7d229c0 <pthread_mutex_unlock@plt>
 77d25b6:	e8 05 04 55 00       	call   7d229c0 <pthread_mutex_unlock@plt>
 77d2a9c:	e8 1f ff 54 00       	call   7d229c0 <pthread_mutex_unlock@plt>
 77d2caa:	e9 11 fd 54 00       	jmp    7d229c0 <pthread_mutex_unlock@plt>
 77d2d49:	e8 72 fc 54 00       	call   7d229c0 <pthread_mutex_unlock@plt>
 77d31d0:	e8 eb f7 54 00       	call   7d229c0 <pthread_mutex_unlock@plt>
 77d33a9:	e8 12 f6 54 00       	call   7d229c0 <pthread_mutex_unlock@plt>
 77d33e3:	e8 d8 f5 54 00       	call   7d229c0 <pthread_mutex_unlock@plt>
 77d3514:	e8 a7 f4 54 00       	call   7d229c0 <pthread_mutex_unlock@plt>
 77d35b5:	e8 06 f4 54 00       	call   7d229c0 <pthread_mutex_unlock@plt>
 77d36b0:	e8 0b f3 54 00       	call   7d229c0 <pthread_mutex_unlock@plt>
 77d3779:	e8 42 f2 54 00       	call   7d229c0 <pthread_mutex_unlock@plt>
 77d3969:	e9 52 f0 54 00       	jmp    7d229c0 <pthread_mutex_unlock@plt>
 77d3e86:	e8 35 eb 54 00       	call   7d229c0 <pthread_mutex_unlock@plt>
 77d3ec4:	e8 f7 ea 54 00       	call   7d229c0 <pthread_mutex_unlock@plt>
 77d3fc5:	e8 f6 e9 54 00       	call   7d229c0 <pthread_mutex_unlock@plt>
 77d4136:	e8 85 e8 54 00       	call   7d229c0 <pthread_mutex_unlock@plt>
 77d41ce:	e8 ed e7 54 00       	call   7d229c0 <pthread_mutex_unlock@plt>
 77d4372:	e8 49 e6 54 00       	call   7d229c0 <pthread_mutex_unlock@plt>
 77d4430:	e9 8b e5 54 00       	jmp    7d229c0 <pthread_mutex_unlock@plt>
 77d44c2:	e8 f9 e4 54 00       	call   7d229c0 <pthread_mutex_unlock@plt>
 77d59a4:	e9 17 d0 54 00       	jmp    7d229c0 <pthread_mutex_unlock@plt>
 77d5af2:	e8 c9 ce 54 00       	call   7d229c0 <pthread_mutex_unlock@plt>
 77d5b62:	e8 59 ce 54 00       	call   7d229c0 <pthread_mutex_unlock@plt>
 77d5cc0:	e8 fb cc 54 00       	call   7d229c0 <pthread_mutex_unlock@plt>
 77d6ade:	e8 ad 88 29 fc       	call   3a6f390 <std::unique_lock<std::mutex>::unlock()>
 77d6b06:	e8 b5 be 54 00       	call   7d229c0 <pthread_mutex_unlock@plt>
 77d6d78:	e8 13 86 29 fc       	call   3a6f390 <std::unique_lock<std::mutex>::unlock()>
 77d6e1e:	e8 6d 85 29 fc       	call   3a6f390 <std::unique_lock<std::mutex>::unlock()>
 77d6f7a:	e8 11 84 29 fc       	call   3a6f390 <std::unique_lock<std::mutex>::unlock()>
 77d70e5:	e8 d6 b8 54 00       	call   7d229c0 <pthread_mutex_unlock@plt>
 77d736b:	e8 20 80 29 fc       	call   3a6f390 <std::unique_lock<std::mutex>::unlock()>
 77d738a:	e8 01 80 29 fc       	call   3a6f390 <std::unique_lock<std::mutex>::unlock()>
 77d817a:	e8 41 a8 54 00       	call   7d229c0 <pthread_mutex_unlock@plt>
 77d9b57:	e8 64 8e 54 00       	call   7d229c0 <pthread_mutex_unlock@plt>
 77da5a4:	e8 17 84 54 00       	call   7d229c0 <pthread_mutex_unlock@plt>
 77db731:	e8 8a 72 54 00       	call   7d229c0 <pthread_mutex_unlock@plt>
 77db762:	e8 59 72 54 00       	call   7d229c0 <pthread_mutex_unlock@plt>
 77dbab4:	e8 07 6f 54 00       	call   7d229c0 <pthread_mutex_unlock@plt>
 77dbdb2:	e8 09 6c 54 00       	call   7d229c0 <pthread_mutex_unlock@plt>
 77dcae4:	e8 d7 5e 54 00       	call   7d229c0 <pthread_mutex_unlock@plt>
 77e21cd:	e9 ee 07 54 00       	jmp    7d229c0 <pthread_mutex_unlock@plt>
 77e23c8:	e8 f3 05 54 00       	call   7d229c0 <pthread_mutex_unlock@plt>
 77e2735:	e8 86 02 54 00       	call   7d229c0 <pthread_mutex_unlock@plt>
 77e290f:	e8 ac 00 54 00       	call   7d229c0 <pthread_mutex_unlock@plt>
 77e2df3:	e8 c8 fb 53 00       	call   7d229c0 <pthread_mutex_unlock@plt>
 77e2fe3:	e8 d8 f9 53 00       	call   7d229c0 <pthread_mutex_unlock@plt>
 77e3014:	e8 a7 f9 53 00       	call   7d229c0 <pthread_mutex_unlock@plt>
 77e3069:	e8 52 f9 53 00       	call   7d229c0 <pthread_mutex_unlock@plt>
 77e309a:	e8 21 f9 53 00       	call   7d229c0 <pthread_mutex_unlock@plt>
 77e30d7:	e8 e4 f8 53 00       	call   7d229c0 <pthread_mutex_unlock@plt>
 77e52b7:	e8 04 d7 53 00       	call   7d229c0 <pthread_mutex_unlock@plt>
 77e6690:	e8 2b c3 53 00       	call   7d229c0 <pthread_mutex_unlock@plt>
 77e6ac6:	e8 f5 be 53 00       	call   7d229c0 <pthread_mutex_unlock@plt>
 77e7334:	e9 87 b6 53 00       	jmp    7d229c0 <pthread_mutex_unlock@plt>
 77e7807:	e8 b4 b1 53 00       	call   7d229c0 <pthread_mutex_unlock@plt>
 77e78a7:	e8 14 b1 53 00       	call   7d229c0 <pthread_mutex_unlock@plt>
 77e790c:	e8 af b0 53 00       	call   7d229c0 <pthread_mutex_unlock@plt>
 77e799b:	e8 20 b0 53 00       	call   7d229c0 <pthread_mutex_unlock@plt>
 77f1383:	e8 38 16 53 00       	call   7d229c0 <pthread_mutex_unlock@plt>
 77f175c:	e8 5f 12 53 00       	call   7d229c0 <pthread_mutex_unlock@plt>
 77f19a6:	e8 15 10 53 00       	call   7d229c0 <pthread_mutex_unlock@plt>
 77f1b21:	e8 9a 0e 53 00       	call   7d229c0 <pthread_mutex_unlock@plt>
 77f1d8e:	e8 2d 0c 53 00       	call   7d229c0 <pthread_mutex_unlock@plt>
 77f1dd5:	e8 e6 0b 53 00       	call   7d229c0 <pthread_mutex_unlock@plt>
 77f1e4d:	e8 6e 0b 53 00       	call   7d229c0 <pthread_mutex_unlock@plt>
 77f1e7d:	e8 3e 0b 53 00       	call   7d229c0 <pthread_mutex_unlock@plt>
 7800c24:	e8 97 1d 52 00       	call   7d229c0 <pthread_mutex_unlock@plt>
 7800f3a:	e8 81 1a 52 00       	call   7d229c0 <pthread_mutex_unlock@plt>
 7809864:	48 8b 15 75 02 69 00 	mov    0x690275(%rip),%rdx        # 7e99ae0 <mongo::(anonymous namespace)::kActionType_unlock>
 780986b:	48 8b 0d 76 02 69 00 	mov    0x690276(%rip),%rcx        # 7e99ae8 <mongo::(anonymous namespace)::kActionType_unlock+0x8>
 780c8ee:	e9 cd 60 51 00       	jmp    7d229c0 <pthread_mutex_unlock@plt>
 780c960:	e9 5b 60 51 00       	jmp    7d229c0 <pthread_mutex_unlock@plt>
 780c9c8:	e8 f3 5f 51 00       	call   7d229c0 <pthread_mutex_unlock@plt>
 780ca5e:	e9 5d 5f 51 00       	jmp    7d229c0 <pthread_mutex_unlock@plt>
 780cab7:	e8 04 5f 51 00       	call   7d229c0 <pthread_mutex_unlock@plt>
 780cb59:	e8 62 5e 51 00       	call   7d229c0 <pthread_mutex_unlock@plt>
 780cb61:	e8 5a 5e 51 00       	call   7d229c0 <pthread_mutex_unlock@plt>
 780cb94:	e8 27 5e 51 00       	call   7d229c0 <pthread_mutex_unlock@plt>
 780cba8:	e8 13 5e 51 00       	call   7d229c0 <pthread_mutex_unlock@plt>
 780cbbc:	e8 ff 5d 51 00       	call   7d229c0 <pthread_mutex_unlock@plt>
 780cbd0:	e8 eb 5d 51 00       	call   7d229c0 <pthread_mutex_unlock@plt>
 780cbe4:	e8 d7 5d 51 00       	call   7d229c0 <pthread_mutex_unlock@plt>
 780cbf8:	e8 c3 5d 51 00       	call   7d229c0 <pthread_mutex_unlock@plt>
 780cc00:	e8 bb 5d 51 00       	call   7d229c0 <pthread_mutex_unlock@plt>
 780cc63:	e8 58 5d 51 00       	call   7d229c0 <pthread_mutex_unlock@plt>
 7839e01:	e8 ba 8b 4e 00       	call   7d229c0 <pthread_mutex_unlock@plt>
 7839e32:	e8 89 8b 4e 00       	call   7d229c0 <pthread_mutex_unlock@plt>
 7839fd3:	e8 e8 89 4e 00       	call   7d229c0 <pthread_mutex_unlock@plt>
 783a214:	e8 a7 87 4e 00       	call   7d229c0 <pthread_mutex_unlock@plt>
 783aa00:	e8 bb 7f 4e 00       	call   7d229c0 <pthread_mutex_unlock@plt>
 783aa30:	e8 8b 7f 4e 00       	call   7d229c0 <pthread_mutex_unlock@plt>
 783ac37:	e8 84 7d 4e 00       	call   7d229c0 <pthread_mutex_unlock@plt>
 783b1e2:	e8 d9 77 4e 00       	call   7d229c0 <pthread_mutex_unlock@plt>
 783c69b:	e8 20 63 4e 00       	call   7d229c0 <pthread_mutex_unlock@plt>
 783c90d:	e8 ae 60 4e 00       	call   7d229c0 <pthread_mutex_unlock@plt>
 783d2d4:	e8 e7 56 4e 00       	call   7d229c0 <pthread_mutex_unlock@plt>
 783dad3:	e8 e8 4e 4e 00       	call   7d229c0 <pthread_mutex_unlock@plt>
 783df72:	e8 49 4a 4e 00       	call   7d229c0 <pthread_mutex_unlock@plt>
 783e50c:	e8 af 44 4e 00       	call   7d229c0 <pthread_mutex_unlock@plt>
 783e949:	e8 72 40 4e 00       	call   7d229c0 <pthread_mutex_unlock@plt>
 78458eb:	e8 d0 d0 4d 00       	call   7d229c0 <pthread_mutex_unlock@plt>
 7845b5d:	e8 5e ce 4d 00       	call   7d229c0 <pthread_mutex_unlock@plt>
 7846fad:	e8 0e ba 4d 00       	call   7d229c0 <pthread_mutex_unlock@plt>
 784722d:	e8 8e b7 4d 00       	call   7d229c0 <pthread_mutex_unlock@plt>
 78473b4:	e8 07 b6 4d 00       	call   7d229c0 <pthread_mutex_unlock@plt>
 7847576:	e8 45 b4 4d 00       	call   7d229c0 <pthread_mutex_unlock@plt>
 78483bb:	e8 00 a6 4d 00       	call   7d229c0 <pthread_mutex_unlock@plt>
 784862d:	e8 8e a3 4d 00       	call   7d229c0 <pthread_mutex_unlock@plt>
 7848ce2:	e8 d9 9c 4d 00       	call   7d229c0 <pthread_mutex_unlock@plt>
 78490fa:	e8 c1 98 4d 00       	call   7d229c0 <pthread_mutex_unlock@plt>
 7849532:	e8 89 94 4d 00       	call   7d229c0 <pthread_mutex_unlock@plt>
 7849c5e:	e8 5d 8d 4d 00       	call   7d229c0 <pthread_mutex_unlock@plt>
 7849d78:	e8 43 8c 4d 00       	call   7d229c0 <pthread_mutex_unlock@plt>
 784a35c:	e8 5f 86 4d 00       	call   7d229c0 <pthread_mutex_unlock@plt>
 784a46f:	e8 4c 85 4d 00       	call   7d229c0 <pthread_mutex_unlock@plt>
 784aa7e:	e8 3d 7f 4d 00       	call   7d229c0 <pthread_mutex_unlock@plt>
 784ab98:	e8 23 7e 4d 00       	call   7d229c0 <pthread_mutex_unlock@plt>
 785b1bc:	e8 ff 77 4c 00       	call   7d229c0 <pthread_mutex_unlock@plt>
 785ce8f:	e8 2c 5b 4c 00       	call   7d229c0 <pthread_mutex_unlock@plt>
 786a73f:	e9 7c 82 4b 00       	jmp    7d229c0 <pthread_mutex_unlock@plt>
 786aa0b:	e8 b0 7f 4b 00       	call   7d229c0 <pthread_mutex_unlock@plt>
 786b0f4:	e8 c7 97 4b 00       	call   7d248c0 <munlock@plt>
 786b1f5:	e8 c6 77 4b 00       	call   7d229c0 <pthread_mutex_unlock@plt>
 7891ca6:	e9 15 0d 49 00       	jmp    7d229c0 <pthread_mutex_unlock@plt>
 7891d11:	e8 aa 0c 49 00       	call   7d229c0 <pthread_mutex_unlock@plt>
 7891d56:	e8 65 0c 49 00       	call   7d229c0 <pthread_mutex_unlock@plt>
 789253e:	e8 7d 04 49 00       	call   7d229c0 <pthread_mutex_unlock@plt>
 78927c6:	e8 f5 01 49 00       	call   7d229c0 <pthread_mutex_unlock@plt>
 78932ef:	e9 cc f6 48 00       	jmp    7d229c0 <pthread_mutex_unlock@plt>
 789363c:	e8 7f f3 48 00       	call   7d229c0 <pthread_mutex_unlock@plt>
 7893819:	e8 a2 f1 48 00       	call   7d229c0 <pthread_mutex_unlock@plt>
 7893890:	e8 2b f1 48 00       	call   7d229c0 <pthread_mutex_unlock@plt>
 78938b5:	e8 06 f1 48 00       	call   7d229c0 <pthread_mutex_unlock@plt>
 789dc8e:	e8 2d 4d 48 00       	call   7d229c0 <pthread_mutex_unlock@plt>
 789dd30:	e8 8b 4c 48 00       	call   7d229c0 <pthread_mutex_unlock@plt>
 789df1e:	e8 9d 4a 48 00       	call   7d229c0 <pthread_mutex_unlock@plt>
 78a048f:	e8 2c 25 48 00       	call   7d229c0 <pthread_mutex_unlock@plt>
 78a04d3:	e8 e8 24 48 00       	call   7d229c0 <pthread_mutex_unlock@plt>
 78a050d:	e8 ae 24 48 00       	call   7d229c0 <pthread_mutex_unlock@plt>
 78a053f:	e8 7c 24 48 00       	call   7d229c0 <pthread_mutex_unlock@plt>
 78a0568:	e9 53 24 48 00       	jmp    7d229c0 <pthread_mutex_unlock@plt>
 78a0f7a:	e8 41 1a 48 00       	call   7d229c0 <pthread_mutex_unlock@plt>
 78a1181:	e8 3a 18 48 00       	call   7d229c0 <pthread_mutex_unlock@plt>
 78a1279:	e8 42 17 48 00       	call   7d229c0 <pthread_mutex_unlock@plt>
 78a15d7:	e9 e4 13 48 00       	jmp    7d229c0 <pthread_mutex_unlock@plt>
 78a15e3:	e8 d8 13 48 00       	call   7d229c0 <pthread_mutex_unlock@plt>
 78a1683:	e8 38 13 48 00       	call   7d229c0 <pthread_mutex_unlock@plt>
 78a180e:	e8 ad 11 48 00       	call   7d229c0 <pthread_mutex_unlock@plt>
 78a19fa:	e8 c1 0f 48 00       	call   7d229c0 <pthread_mutex_unlock@plt>
 78a5da1:	e8 1a 0d 8f ff       	call   7196ac0 <mongo::SpinLock::unlock()>
 78a7faa:	e8 11 aa 47 00       	call   7d229c0 <pthread_mutex_unlock@plt>
 78a8681:	e8 3a a3 47 00       	call   7d229c0 <pthread_mutex_unlock@plt>
 78a8811:	e9 aa a1 47 00       	jmp    7d229c0 <pthread_mutex_unlock@plt>
 78a8a5d:	e8 5e 9f 47 00       	call   7d229c0 <pthread_mutex_unlock@plt>
 78a8c23:	e8 98 9d 47 00       	call   7d229c0 <pthread_mutex_unlock@plt>
 78a8d48:	e9 73 9c 47 00       	jmp    7d229c0 <pthread_mutex_unlock@plt>
 78a8d73:	e8 48 9c 47 00       	call   7d229c0 <pthread_mutex_unlock@plt>
 78ac881:	e8 3a 61 47 00       	call   7d229c0 <pthread_mutex_unlock@plt>
 78ac95f:	e8 5c 60 47 00       	call   7d229c0 <pthread_mutex_unlock@plt>
 78acb2d:	e8 8e 5e 47 00       	call   7d229c0 <pthread_mutex_unlock@plt>
 78acb85:	e9 36 5e 47 00       	jmp    7d229c0 <pthread_mutex_unlock@plt>
 78ad7bd:	e9 fe 51 47 00       	jmp    7d229c0 <pthread_mutex_unlock@plt>
 78ad815:	e8 a6 51 47 00       	call   7d229c0 <pthread_mutex_unlock@plt>
 78ad88f:	e9 2c 51 47 00       	jmp    7d229c0 <pthread_mutex_unlock@plt>
 78ad919:	e8 a2 50 47 00       	call   7d229c0 <pthread_mutex_unlock@plt>
 78ad9eb:	e8 d0 4f 47 00       	call   7d229c0 <pthread_mutex_unlock@plt>
 78adb0f:	e8 ac 4e 47 00       	call   7d229c0 <pthread_mutex_unlock@plt>
 78adb22:	e8 99 4e 47 00       	call   7d229c0 <pthread_mutex_unlock@plt>
 78adb4e:	e8 6d 4e 47 00       	call   7d229c0 <pthread_mutex_unlock@plt>
 78ae41a:	e8 a1 45 47 00       	call   7d229c0 <pthread_mutex_unlock@plt>
 78b0931:	e9 8a 20 47 00       	jmp    7d229c0 <pthread_mutex_unlock@plt>
 78b0b44:	e8 77 1e 47 00       	call   7d229c0 <pthread_mutex_unlock@plt>
 78b0c32:	e8 89 1d 47 00       	call   7d229c0 <pthread_mutex_unlock@plt>
 78b12c4:	e8 f7 16 47 00       	call   7d229c0 <pthread_mutex_unlock@plt>
 78b149c:	e8 1f 15 47 00       	call   7d229c0 <pthread_mutex_unlock@plt>
 78b153c:	e8 7f 14 47 00       	call   7d229c0 <pthread_mutex_unlock@plt>
 78b188e:	e9 2d 11 47 00       	jmp    7d229c0 <pthread_mutex_unlock@plt>
 78b1a08:	e8 b3 0f 47 00       	call   7d229c0 <pthread_mutex_unlock@plt>
 78b1a1c:	e8 9f 0f 47 00       	call   7d229c0 <pthread_mutex_unlock@plt>
 78b1ab7:	e8 04 0f 47 00       	call   7d229c0 <pthread_mutex_unlock@plt>
 78b3594:	e8 27 f4 46 00       	call   7d229c0 <pthread_mutex_unlock@plt>
 78b3849:	e8 72 f1 46 00       	call   7d229c0 <pthread_mutex_unlock@plt>
 78b38fc:	e9 bf f0 46 00       	jmp    7d229c0 <pthread_mutex_unlock@plt>
 78b3ab9:	e8 02 ef 46 00       	call   7d229c0 <pthread_mutex_unlock@plt>
 78b3afe:	e9 bd ee 46 00       	jmp    7d229c0 <pthread_mutex_unlock@plt>
 78b3b8b:	e8 30 ee 46 00       	call   7d229c0 <pthread_mutex_unlock@plt>
 78b482e:	e8 8d e1 46 00       	call   7d229c0 <pthread_mutex_unlock@plt>
 78b48a9:	e8 12 e1 46 00       	call   7d229c0 <pthread_mutex_unlock@plt>
 78b4915:	e9 a6 e0 46 00       	jmp    7d229c0 <pthread_mutex_unlock@plt>
 78b4d3a:	e8 81 dc 46 00       	call   7d229c0 <pthread_mutex_unlock@plt>
 78b4ee6:	e8 d5 da 46 00       	call   7d229c0 <pthread_mutex_unlock@plt>
 78b55d3:	e9 e8 d3 46 00       	jmp    7d229c0 <pthread_mutex_unlock@plt>
 78b58a0:	e8 1b d1 46 00       	call   7d229c0 <pthread_mutex_unlock@plt>
 78b5fcc:	e8 ef c9 46 00       	call   7d229c0 <pthread_mutex_unlock@plt>
 78b6353:	e8 68 c6 46 00       	call   7d229c0 <pthread_mutex_unlock@plt>
 78b6369:	e8 52 ca 04 00       	call   7902dc0 <mongo::StorageChangeLock::SharedSpinLock::unlock_shared()>
 78b6832:	e8 89 c1 46 00       	call   7d229c0 <pthread_mutex_unlock@plt>
 78b6a09:	e8 82 89 1b fc       	call   3a6f390 <std::unique_lock<std::mutex>::unlock()>
 78b6a25:	e8 66 89 1b fc       	call   3a6f390 <std::unique_lock<std::mutex>::unlock()>
 78b6ae6:	e8 d5 be 46 00       	call   7d229c0 <pthread_mutex_unlock@plt>
 78b6d2e:	e8 8d bc 46 00       	call   7d229c0 <pthread_mutex_unlock@plt>
 78b6ff1:	e8 ca b9 46 00       	call   7d229c0 <pthread_mutex_unlock@plt>
 78b706d:	e8 4e bd 04 00       	call   7902dc0 <mongo::StorageChangeLock::SharedSpinLock::unlock_shared()>
 78b721d:	e8 9e b7 46 00       	call   7d229c0 <pthread_mutex_unlock@plt>
 78b90e5:	e9 d6 98 46 00       	jmp    7d229c0 <pthread_mutex_unlock@plt>
 78b9198:	e9 23 98 46 00       	jmp    7d229c0 <pthread_mutex_unlock@plt>
 78b92f3:	e8 c8 96 46 00       	call   7d229c0 <pthread_mutex_unlock@plt>
 78b93ea:	e9 d1 95 46 00       	jmp    7d229c0 <pthread_mutex_unlock@plt>
 78b943f:	e9 7c 95 46 00       	jmp    7d229c0 <pthread_mutex_unlock@plt>
 78b9548:	e8 73 94 46 00       	call   7d229c0 <pthread_mutex_unlock@plt>
 78b955c:	e8 5f 94 46 00       	call   7d229c0 <pthread_mutex_unlock@plt>
 78ffaea:	e8 d1 2e 42 00       	call   7d229c0 <pthread_mutex_unlock@plt>
 78ffbd1:	e8 ea 2d 42 00       	call   7d229c0 <pthread_mutex_unlock@plt>
 78ffbd9:	e8 e2 2d 42 00       	call   7d229c0 <pthread_mutex_unlock@plt>
 78ffd1e:	e8 9d 2c 42 00       	call   7d229c0 <pthread_mutex_unlock@plt>
 78ffd33:	e8 88 2c 42 00       	call   7d229c0 <pthread_mutex_unlock@plt>
 78ffef5:	e8 c6 2a 42 00       	call   7d229c0 <pthread_mutex_unlock@plt>
 78fff0b:	e9 b0 2a 42 00       	jmp    7d229c0 <pthread_mutex_unlock@plt>
 78fff13:	e8 a8 2a 42 00       	call   7d229c0 <pthread_mutex_unlock@plt>
 78fff37:	e8 84 2a 42 00       	call   7d229c0 <pthread_mutex_unlock@plt>
 790002a:	e8 91 29 42 00       	call   7d229c0 <pthread_mutex_unlock@plt>
 79001da:	e9 e1 27 42 00       	jmp    7d229c0 <pthread_mutex_unlock@plt>
 79005cc:	e8 ef 23 42 00       	call   7d229c0 <pthread_mutex_unlock@plt>
 79007ab:	e8 10 22 42 00       	call   7d229c0 <pthread_mutex_unlock@plt>
 79007fc:	e8 bf 21 42 00       	call   7d229c0 <pthread_mutex_unlock@plt>
 7900816:	e8 a5 21 42 00       	call   7d229c0 <pthread_mutex_unlock@plt>
 790091a:	e8 a1 20 42 00       	call   7d229c0 <pthread_mutex_unlock@plt>
 7900934:	e8 57 ea 16 fc       	call   3a6f390 <std::unique_lock<std::mutex>::unlock()>
 7900a26:	e8 65 e9 16 fc       	call   3a6f390 <std::unique_lock<std::mutex>::unlock()>
 7900bc4:	e8 f7 1d 42 00       	call   7d229c0 <pthread_mutex_unlock@plt>
 7900bda:	e9 e1 1d 42 00       	jmp    7d229c0 <pthread_mutex_unlock@plt>
 7900c58:	e8 63 1d 42 00       	call   7d229c0 <pthread_mutex_unlock@plt>
 7900f8b:	e8 30 1a 42 00       	call   7d229c0 <pthread_mutex_unlock@plt>
 790100d:	e8 ae 19 42 00       	call   7d229c0 <pthread_mutex_unlock@plt>
 79010cc:	e8 ef 18 42 00       	call   7d229c0 <pthread_mutex_unlock@plt>
 790111c:	e8 9f 18 42 00       	call   7d229c0 <pthread_mutex_unlock@plt>
 7901381:	e8 3a 16 42 00       	call   7d229c0 <pthread_mutex_unlock@plt>
 79013ed:	e8 ce 15 42 00       	call   7d229c0 <pthread_mutex_unlock@plt>
 79014cd:	e8 ee 14 42 00       	call   7d229c0 <pthread_mutex_unlock@plt>
 7901639:	e8 52 dd 16 fc       	call   3a6f390 <std::unique_lock<std::mutex>::unlock()>
0000000007902d50 <mongo::StorageChangeLock::SharedSpinLock::unlock()>:
 7902d60:	75 f0                	jne    7902d52 <mongo::StorageChangeLock::SharedSpinLock::unlock()+0x2>
 7902d64:	0f 89 68 00 00 00    	jns    7902dd2 <mongo::StorageChangeLock::SharedSpinLock::unlock() [clone .cold]>
0000000007902dc0 <mongo::StorageChangeLock::SharedSpinLock::unlock_shared()>:
 7902dcb:	0f 88 35 00 00 00    	js     7902e06 <mongo::StorageChangeLock::SharedSpinLock::unlock_shared() [clone .cold]>
0000000007902dd2 <mongo::StorageChangeLock::SharedSpinLock::unlock() [clone .cold]>:
0000000007902e06 <mongo::StorageChangeLock::SharedSpinLock::unlock_shared() [clone .cold]>:
 7904d2a:	e8 91 dc 41 00       	call   7d229c0 <pthread_mutex_unlock@plt>
 790544b:	e8 70 d5 41 00       	call   7d229c0 <pthread_mutex_unlock@plt>
 7906228:	e8 93 c7 41 00       	call   7d229c0 <pthread_mutex_unlock@plt>
 7907bd0:	e8 eb ad 41 00       	call   7d229c0 <pthread_mutex_unlock@plt>
 7908034:	e8 87 a9 41 00       	call   7d229c0 <pthread_mutex_unlock@plt>
 795e082:	e8 39 49 3c 00       	call   7d229c0 <pthread_mutex_unlock@plt>
 7960406:	e8 b5 25 3c 00       	call   7d229c0 <pthread_mutex_unlock@plt>
 79ef3ba:	e8 01 77 7a ff       	call   7196ac0 <mongo::SpinLock::unlock()>
 79ef3d8:	e8 e3 76 7a ff       	call   7196ac0 <mongo::SpinLock::unlock()>
 7a1b2b8:	e8 03 77 30 00       	call   7d229c0 <pthread_mutex_unlock@plt>
 7a1bb90:	e8 2b 6e 30 00       	call   7d229c0 <pthread_mutex_unlock@plt>
 7a1cd93:	e8 28 5c 30 00       	call   7d229c0 <pthread_mutex_unlock@plt>
 7aa4dbc:	e9 ff db 27 00       	jmp    7d229c0 <pthread_mutex_unlock@plt>
 7aa4e1e:	e8 9d db 27 00       	call   7d229c0 <pthread_mutex_unlock@plt>
 7aa4e66:	e8 55 db 27 00       	call   7d229c0 <pthread_mutex_unlock@plt>
 7aa4e7a:	e8 41 db 27 00       	call   7d229c0 <pthread_mutex_unlock@plt>
 7aaa5a8:	e8 13 84 27 00       	call   7d229c0 <pthread_mutex_unlock@plt>
 7aaae38:	e8 33 84 27 00       	call   7d23270 <pthread_rwlock_unlock@plt>
 7aab323:	e8 98 76 27 00       	call   7d229c0 <pthread_mutex_unlock@plt>
 7aab3fd:	e8 1e 68 00 00       	call   7ab1c20 <boost::detail::sp_if_not_array<boost::log::v2s_mt_posix::sinks::unlocked_sink<mongo::logv2::CompositeBackend<boost::log::v2s_mt_posix::sinks::syslog_backend, mongo::logv2::RamLogSink, mongo::logv2::RamLogSink, mongo::logv2::UserAssertSink> > >::type boost::make_shared<boost::log::v2s_mt_posix::sinks::unlocked_sink<mongo::logv2::CompositeBackend<boost::log::v2s_mt_posix::sinks::syslog_backend, mongo::logv2::RamLogSink, mongo::logv2::RamLogSink, mongo::logv2::UserAssertSink> >, boost::shared_ptr<mongo::logv2::CompositeBackend<boost::log::v2s_mt_posix::sinks::syslog_backend, mongo::logv2::RamLogSink, mongo::logv2::RamLogSink, mongo::logv2::UserAssertSink> > >(boost::shared_ptr<mongo::logv2::CompositeBackend<boost::log::v2s_mt_posix::sinks::syslog_backend, mongo::logv2::RamLogSink, mongo::logv2::RamLogSink, mongo::logv2::UserAssertSink> >&&)>
 7aab4d4:	e8 97 7d 27 00       	call   7d23270 <pthread_rwlock_unlock@plt>
 7aab86b:	e8 00 7a 27 00       	call   7d23270 <pthread_rwlock_unlock@plt>
 7aab9a7:	e8 e4 67 00 00       	call   7ab2190 <boost::detail::sp_if_not_array<boost::log::v2s_mt_posix::sinks::unlocked_sink<mongo::logv2::CompositeBackend<mongo::logv2::FileRotateSink> > >::type boost::make_shared<boost::log::v2s_mt_posix::sinks::unlocked_sink<mongo::logv2::CompositeBackend<mongo::logv2::FileRotateSink> >, boost::shared_ptr<mongo::logv2::CompositeBackend<mongo::logv2::FileRotateSink> >&>(boost::shared_ptr<mongo::logv2::CompositeBackend<mongo::logv2::FileRotateSink> >&)>
 7aabb54:	e8 97 62 00 00       	call   7ab1df0 <boost::detail::sp_if_not_array<boost::log::v2s_mt_posix::sinks::unlocked_sink<mongo::logv2::CompositeBackend<mongo::logv2::FileRotateSink, mongo::logv2::RamLogSink, mongo::logv2::RamLogSink, mongo::logv2::UserAssertSink> > >::type boost::make_shared<boost::log::v2s_mt_posix::sinks::unlocked_sink<mongo::logv2::CompositeBackend<mongo::logv2::FileRotateSink, mongo::logv2::RamLogSink, mongo::logv2::RamLogSink, mongo::logv2::UserAssertSink> >, boost::shared_ptr<mongo::logv2::CompositeBackend<mongo::logv2::FileRotateSink, mongo::logv2::RamLogSink, mongo::logv2::RamLogSink, mongo::logv2::UserAssertSink> >&>(boost::shared_ptr<mongo::logv2::CompositeBackend<mongo::logv2::FileRotateSink, mongo::logv2::RamLogSink, mongo::logv2::RamLogSink, mongo::logv2::UserAssertSink> >&)>
 7aabc2b:	e8 40 76 27 00       	call   7d23270 <pthread_rwlock_unlock@plt>
 7aac1e6:	e8 d5 67 27 00       	call   7d229c0 <pthread_mutex_unlock@plt>
 7aac25b:	e8 60 67 27 00       	call   7d229c0 <pthread_mutex_unlock@plt>
 7aac363:	e8 58 5c 00 00       	call   7ab1fc0 <boost::detail::sp_if_not_array<boost::log::v2s_mt_posix::sinks::unlocked_sink<mongo::logv2::CompositeBackend<boost::log::v2s_mt_posix::sinks::basic_text_ostream_backend<char>, mongo::logv2::RamLogSink, mongo::logv2::RamLogSink, mongo::logv2::UserAssertSink> > >::type boost::make_shared<boost::log::v2s_mt_posix::sinks::unlocked_sink<mongo::logv2::CompositeBackend<boost::log::v2s_mt_posix::sinks::basic_text_ostream_backend<char>, mongo::logv2::RamLogSink, mongo::logv2::RamLogSink, mongo::logv2::UserAssertSink> >, boost::shared_ptr<mongo::logv2::CompositeBackend<boost::log::v2s_mt_posix::sinks::basic_text_ostream_backend<char>, mongo::logv2::RamLogSink, mongo::logv2::RamLogSink, mongo::logv2::UserAssertSink> > >(boost::shared_ptr<mongo::logv2::CompositeBackend<boost::log::v2s_mt_posix::sinks::basic_text_ostream_backend<char>, mongo::logv2::RamLogSink, mongo::logv2::RamLogSink, mongo::logv2::UserAssertSink> >&&)>
 7aac43a:	e8 31 6e 27 00       	call   7d23270 <pthread_rwlock_unlock@plt>
0000000007aac910 <boost::detail::sp_counted_impl_pd<boost::log::v2s_mt_posix::sinks::unlocked_sink<mongo::logv2::CompositeBackend<mongo::logv2::FileRotateSink> >*, boost::detail::sp_ms_deleter<boost::log::v2s_mt_posix::sinks::unlocked_sink<mongo::logv2::CompositeBackend<mongo::logv2::FileRotateSink> > > >::get_local_deleter(std::type_info const&)>:
0000000007aac920 <boost::detail::sp_counted_impl_pd<boost::log::v2s_mt_posix::sinks::unlocked_sink<mongo::logv2::CompositeBackend<mongo::logv2::FileRotateSink> >*, boost::detail::sp_ms_deleter<boost::log::v2s_mt_posix::sinks::unlocked_sink<mongo::logv2::CompositeBackend<mongo::logv2::FileRotateSink> > > >::get_untyped_deleter()>:
0000000007aac950 <boost::detail::sp_counted_impl_pd<boost::log::v2s_mt_posix::sinks::unlocked_sink<mongo::logv2::CompositeBackend<mongo::logv2::FileRotateSink, mongo::logv2::RamLogSink, mongo::logv2::RamLogSink, mongo::logv2::UserAssertSink> >*, boost::detail::sp_ms_deleter<boost::log::v2s_mt_posix::sinks::unlocked_sink<mongo::logv2::CompositeBackend<mongo::logv2::FileRotateSink, mongo::logv2::RamLogSink, mongo::logv2::RamLogSink, mongo::logv2::UserAssertSink> > > >::get_local_deleter(std::type_info const&)>:
0000000007aac960 <boost::detail::sp_counted_impl_pd<boost::log::v2s_mt_posix::sinks::unlocked_sink<mongo::logv2::CompositeBackend<mongo::logv2::FileRotateSink, mongo::logv2::RamLogSink, mongo::logv2::RamLogSink, mongo::logv2::UserAssertSink> >*, boost::detail::sp_ms_deleter<boost::log::v2s_mt_posix::sinks::unlocked_sink<mongo::logv2::CompositeBackend<mongo::logv2::FileRotateSink, mongo::logv2::RamLogSink, mongo::logv2::RamLogSink, mongo::logv2::UserAssertSink> > > >::get_untyped_deleter()>:
0000000007aac9b0 <boost::detail::sp_counted_impl_pd<boost::log::v2s_mt_posix::sinks::unlocked_sink<mongo::logv2::CompositeBackend<boost::log::v2s_mt_posix::sinks::syslog_backend, mongo::logv2::RamLogSink, mongo::logv2::RamLogSink, mongo::logv2::UserAssertSink> >*, boost::detail::sp_ms_deleter<boost::log::v2s_mt_posix::sinks::unlocked_sink<mongo::logv2::CompositeBackend<boost::log::v2s_mt_posix::sinks::syslog_backend, mongo::logv2::RamLogSink, mongo::logv2::RamLogSink, mongo::logv2::UserAssertSink> > > >::get_local_deleter(std::type_info const&)>:
0000000007aac9c0 <boost::detail::sp_counted_impl_pd<boost::log::v2s_mt_posix::sinks::unlocked_sink<mongo::logv2::CompositeBackend<boost::log::v2s_mt_posix::sinks::syslog_backend, mongo::logv2::RamLogSink, mongo::logv2::RamLogSink, mongo::logv2::UserAssertSink> >*, boost::detail::sp_ms_deleter<boost::log::v2s_mt_posix::sinks::unlocked_sink<mongo::logv2::CompositeBackend<boost::log::v2s_mt_posix::sinks::syslog_backend, mongo::logv2::RamLogSink, mongo::logv2::RamLogSink, mongo::logv2::UserAssertSink> > > >::get_untyped_deleter()>:
0000000007aaca10 <boost::detail::sp_counted_impl_pd<boost::log::v2s_mt_posix::sinks::unlocked_sink<mongo::logv2::CompositeBackend<boost::log::v2s_mt_posix::sinks::basic_text_ostream_backend<char>, mongo::logv2::RamLogSink, mongo::logv2::RamLogSink, mongo::logv2::UserAssertSink> >*, boost::detail::sp_ms_deleter<boost::log::v2s_mt_posix::sinks::unlocked_sink<mongo::logv2::CompositeBackend<boost::log::v2s_mt_posix::sinks::basic_text_ostream_backend<char>, mongo::logv2::RamLogSink, mongo::logv2::RamLogSink, mongo::logv2::UserAssertSink> > > >::get_local_deleter(std::type_info const&)>:
0000000007aaca20 <boost::detail::sp_counted_impl_pd<boost::log::v2s_mt_posix::sinks::unlocked_sink<mongo::logv2::CompositeBackend<boost::log::v2s_mt_posix::sinks::basic_text_ostream_backend<char>, mongo::logv2::RamLogSink, mongo::logv2::RamLogSink, mongo::logv2::UserAssertSink> >*, boost::detail::sp_ms_deleter<boost::log::v2s_mt_posix::sinks::unlocked_sink<mongo::logv2::CompositeBackend<boost::log::v2s_mt_posix::sinks::basic_text_ostream_backend<char>, mongo::logv2::RamLogSink, mongo::logv2::RamLogSink, mongo::logv2::UserAssertSink> > > >::get_untyped_deleter()>:
0000000007aacb10 <boost::log::v2s_mt_posix::sinks::unlocked_sink<mongo::logv2::CompositeBackend<boost::log::v2s_mt_posix::sinks::syslog_backend, mongo::logv2::RamLogSink, mongo::logv2::RamLogSink, mongo::logv2::UserAssertSink> >::flush()>:
 7aacc01:	e8 6a 66 27 00       	call   7d23270 <pthread_rwlock_unlock@plt>
 7aacc65:	e8 06 66 27 00       	call   7d23270 <pthread_rwlock_unlock@plt>
 7aad5bb:	e8 b0 5c 27 00       	call   7d23270 <pthread_rwlock_unlock@plt>
 7aad677:	e8 f4 5b 27 00       	call   7d23270 <pthread_rwlock_unlock@plt>
 7aad700:	e8 6b 5b 27 00       	call   7d23270 <pthread_rwlock_unlock@plt>
 7aad77b:	e8 f0 5a 27 00       	call   7d23270 <pthread_rwlock_unlock@plt>
 7aada08:	e8 63 58 27 00       	call   7d23270 <pthread_rwlock_unlock@plt>
0000000007aadc80 <boost::detail::sp_counted_impl_pd<boost::log::v2s_mt_posix::sinks::unlocked_sink<mongo::logv2::CompositeBackend<boost::log::v2s_mt_posix::sinks::basic_text_ostream_backend<char>, mongo::logv2::RamLogSink, mongo::logv2::RamLogSink, mongo::logv2::UserAssertSink> >*, boost::detail::sp_ms_deleter<boost::log::v2s_mt_posix::sinks::unlocked_sink<mongo::logv2::CompositeBackend<boost::log::v2s_mt_posix::sinks::basic_text_ostream_backend<char>, mongo::logv2::RamLogSink, mongo::logv2::RamLogSink, mongo::logv2::UserAssertSink> > > >::~sp_counted_impl_pd()>:
 7aadc81:	48 8d 05 40 2f 40 00 	lea    0x402f40(%rip),%rax        # 7eb0bc8 <vtable for boost::detail::sp_counted_impl_pd<boost::log::v2s_mt_posix::sinks::unlocked_sink<mongo::logv2::CompositeBackend<boost::log::v2s_mt_posix::sinks::basic_text_ostream_backend<char>, mongo::logv2::RamLogSink, mongo::logv2::RamLogSink, mongo::logv2::UserAssertSink> >*, boost::detail::sp_ms_deleter<boost::log::v2s_mt_posix::sinks::unlocked_sink<mongo::logv2::CompositeBackend<boost::log::v2s_mt_posix::sinks::basic_text_ostream_backend<char>, mongo::logv2::RamLogSink, mongo::logv2::RamLogSink, mongo::logv2::UserAssertSink> > > >+0x10>
 7aadc9b:	74 0b                	je     7aadca8 <boost::detail::sp_counted_impl_pd<boost::log::v2s_mt_posix::sinks::unlocked_sink<mongo::logv2::CompositeBackend<boost::log::v2s_mt_posix::sinks::basic_text_ostream_backend<char>, mongo::logv2::RamLogSink, mongo::logv2::RamLogSink, mongo::logv2::UserAssertSink> >*, boost::detail::sp_ms_deleter<boost::log::v2s_mt_posix::sinks::unlocked_sink<mongo::logv2::CompositeBackend<boost::log::v2s_mt_posix::sinks::basic_text_ostream_backend<char>, mongo::logv2::RamLogSink, mongo::logv2::RamLogSink, mongo::logv2::UserAssertSink> > > >::~sp_counted_impl_pd()+0x28>
0000000007aadcc0 <boost::detail::sp_counted_impl_pd<boost::log::v2s_mt_posix::sinks::unlocked_sink<mongo::logv2::CompositeBackend<boost::log::v2s_mt_posix::sinks::syslog_backend, mongo::logv2::RamLogSink, mongo::logv2::RamLogSink, mongo::logv2::UserAssertSink> >*, boost::detail::sp_ms_deleter<boost::log::v2s_mt_posix::sinks::unlocked_sink<mongo::logv2::CompositeBackend<boost::log::v2s_mt_posix::sinks::syslog_backend, mongo::logv2::RamLogSink, mongo::logv2::RamLogSink, mongo::logv2::UserAssertSink> > > >::~sp_counted_impl_pd()>:
 7aadcc1:	48 8d 05 d8 2f 40 00 	lea    0x402fd8(%rip),%rax        # 7eb0ca0 <vtable for boost::detail::sp_counted_impl_pd<boost::log::v2s_mt_posix::sinks::unlocked_sink<mongo::logv2::CompositeBackend<boost::log::v2s_mt_posix::sinks::syslog_backend, mongo::logv2::RamLogSink, mongo::logv2::RamLogSink, mongo::logv2::UserAssertSink> >*, boost::detail::sp_ms_deleter<boost::log::v2s_mt_posix::sinks::unlocked_sink<mongo::logv2::CompositeBackend<boost::log::v2s_mt_posix::sinks::syslog_backend, mongo::logv2::RamLogSink, mongo::logv2::RamLogSink, mongo::logv2::UserAssertSink> > > >+0x10>
 7aadcdb:	74 0b                	je     7aadce8 <boost::detail::sp_counted_impl_pd<boost::log::v2s_mt_posix::sinks::unlocked_sink<mongo::logv2::CompositeBackend<boost::log::v2s_mt_posix::sinks::syslog_backend, mongo::logv2::RamLogSink, mongo::logv2::RamLogSink, mongo::logv2::UserAssertSink> >*, boost::detail::sp_ms_deleter<boost::log::v2s_mt_posix::sinks::unlocked_sink<mongo::logv2::CompositeBackend<boost::log::v2s_mt_posix::sinks::syslog_backend, mongo::logv2::RamLogSink, mongo::logv2::RamLogSink, mongo::logv2::UserAssertSink> > > >::~sp_counted_impl_pd()+0x28>
0000000007aadd00 <boost::detail::sp_counted_impl_pd<boost::log::v2s_mt_posix::sinks::unlocked_sink<mongo::logv2::CompositeBackend<mongo::logv2::FileRotateSink, mongo::logv2::RamLogSink, mongo::logv2::RamLogSink, mongo::logv2::UserAssertSink> >*, boost::detail::sp_ms_deleter<boost::log::v2s_mt_posix::sinks::unlocked_sink<mongo::logv2::CompositeBackend<mongo::logv2::FileRotateSink, mongo::logv2::RamLogSink, mongo::logv2::RamLogSink, mongo::logv2::UserAssertSink> > > >::~sp_counted_impl_pd()>:
 7aadd01:	48 8d 05 70 30 40 00 	lea    0x403070(%rip),%rax        # 7eb0d78 <vtable for boost::detail::sp_counted_impl_pd<boost::log::v2s_mt_posix::sinks::unlocked_sink<mongo::logv2::CompositeBackend<mongo::logv2::FileRotateSink, mongo::logv2::RamLogSink, mongo::logv2::RamLogSink, mongo::logv2::UserAssertSink> >*, boost::detail::sp_ms_deleter<boost::log::v2s_mt_posix::sinks::unlocked_sink<mongo::logv2::CompositeBackend<mongo::logv2::FileRotateSink, mongo::logv2::RamLogSink, mongo::logv2::RamLogSink, mongo::logv2::UserAssertSink> > > >+0x10>
 7aadd1b:	74 0b                	je     7aadd28 <boost::detail::sp_counted_impl_pd<boost::log::v2s_mt_posix::sinks::unlocked_sink<mongo::logv2::CompositeBackend<mongo::logv2::FileRotateSink, mongo::logv2::RamLogSink, mongo::logv2::RamLogSink, mongo::logv2::UserAssertSink> >*, boost::detail::sp_ms_deleter<boost::log::v2s_mt_posix::sinks::unlocked_sink<mongo::logv2::CompositeBackend<mongo::logv2::FileRotateSink, mongo::logv2::RamLogSink, mongo::logv2::RamLogSink, mongo::logv2::UserAssertSink> > > >::~sp_counted_impl_pd()+0x28>
0000000007aadd40 <boost::detail::sp_counted_impl_pd<boost::log::v2s_mt_posix::sinks::unlocked_sink<mongo::logv2::CompositeBackend<mongo::logv2::FileRotateSink> >*, boost::detail::sp_ms_deleter<boost::log::v2s_mt_posix::sinks::unlocked_sink<mongo::logv2::CompositeBackend<mongo::logv2::FileRotateSink> > > >::~sp_counted_impl_pd()>:
 7aadd41:	48 8d 05 c0 30 40 00 	lea    0x4030c0(%rip),%rax        # 7eb0e08 <vtable for boost::detail::sp_counted_impl_pd<boost::log::v2s_mt_posix::sinks::unlocked_sink<mongo::logv2::CompositeBackend<mongo::logv2::FileRotateSink> >*, boost::detail::sp_ms_deleter<boost::log::v2s_mt_posix::sinks::unlocked_sink<mongo::logv2::CompositeBackend<mongo::logv2::FileRotateSink> > > >+0x10>
 7aadd5b:	74 0b                	je     7aadd68 <boost::detail::sp_counted_impl_pd<boost::log::v2s_mt_posix::sinks::unlocked_sink<mongo::logv2::CompositeBackend<mongo::logv2::FileRotateSink> >*, boost::detail::sp_ms_deleter<boost::log::v2s_mt_posix::sinks::unlocked_sink<mongo::logv2::CompositeBackend<mongo::logv2::FileRotateSink> > > >::~sp_counted_impl_pd()+0x28>
0000000007aadfb0 <boost::detail::sp_counted_impl_pd<boost::log::v2s_mt_posix::sinks::unlocked_sink<mongo::logv2::CompositeBackend<mongo::logv2::FileRotateSink> >*, boost::detail::sp_ms_deleter<boost::log::v2s_mt_posix::sinks::unlocked_sink<mongo::logv2::CompositeBackend<mongo::logv2::FileRotateSink> > > >::dispose()>:
 7aadfb4:	74 2a                	je     7aadfe0 <boost::detail::sp_counted_impl_pd<boost::log::v2s_mt_posix::sinks::unlocked_sink<mongo::logv2::CompositeBackend<mongo::logv2::FileRotateSink> >*, boost::detail::sp_ms_deleter<boost::log::v2s_mt_posix::sinks::unlocked_sink<mongo::logv2::CompositeBackend<mongo::logv2::FileRotateSink> > > >::dispose()+0x30>
0000000007aadff0 <boost::detail::sp_counted_impl_pd<boost::log::v2s_mt_posix::sinks::unlocked_sink<mongo::logv2::CompositeBackend<mongo::logv2::FileRotateSink, mongo::logv2::RamLogSink, mongo::logv2::RamLogSink, mongo::logv2::UserAssertSink> >*, boost::detail::sp_ms_deleter<boost::log::v2s_mt_posix::sinks::unlocked_sink<mongo::logv2::CompositeBackend<mongo::logv2::FileRotateSink, mongo::logv2::RamLogSink, mongo::logv2::RamLogSink, mongo::logv2::UserAssertSink> > > >::dispose()>:
 7aadff4:	74 2a                	je     7aae020 <boost::detail::sp_counted_impl_pd<boost::log::v2s_mt_posix::sinks::unlocked_sink<mongo::logv2::CompositeBackend<mongo::logv2::FileRotateSink, mongo::logv2::RamLogSink, mongo::logv2::RamLogSink, mongo::logv2::UserAssertSink> >*, boost::detail::sp_ms_deleter<boost::log::v2s_mt_posix::sinks::unlocked_sink<mongo::logv2::CompositeBackend<mongo::logv2::FileRotateSink, mongo::logv2::RamLogSink, mongo::logv2::RamLogSink, mongo::logv2::UserAssertSink> > > >::dispose()+0x30>
0000000007aae030 <boost::detail::sp_counted_impl_pd<boost::log::v2s_mt_posix::sinks::unlocked_sink<mongo::logv2::CompositeBackend<boost::log::v2s_mt_posix::sinks::syslog_backend, mongo::logv2::RamLogSink, mongo::logv2::RamLogSink, mongo::logv2::UserAssertSink> >*, boost::detail::sp_ms_deleter<boost::log::v2s_mt_posix::sinks::unlocked_sink<mongo::logv2::CompositeBackend<boost::log::v2s_mt_posix::sinks::syslog_backend, mongo::logv2::RamLogSink, mongo::logv2::RamLogSink, mongo::logv2::UserAssertSink> > > >::dispose()>:
 7aae034:	74 2a                	je     7aae060 <boost::detail::sp_counted_impl_pd<boost::log::v2s_mt_posix::sinks::unlocked_sink<mongo::logv2::CompositeBackend<boost::log::v2s_mt_posix::sinks::syslog_backend, mongo::logv2::RamLogSink, mongo::logv2::RamLogSink, mongo::logv2::UserAssertSink> >*, boost::detail::sp_ms_deleter<boost::log::v2s_mt_posix::sinks::unlocked_sink<mongo::logv2::CompositeBackend<boost::log::v2s_mt_posix::sinks::syslog_backend, mongo::logv2::RamLogSink, mongo::logv2::RamLogSink, mongo::logv2::UserAssertSink> > > >::dispose()+0x30>
0000000007aae070 <boost::detail::sp_counted_impl_pd<boost::log::v2s_mt_posix::sinks::unlocked_sink<mongo::logv2::CompositeBackend<boost::log::v2s_mt_posix::sinks::basic_text_ostream_backend<char>, mongo::logv2::RamLogSink, mongo::logv2::RamLogSink, mongo::logv2::UserAssertSink> >*, boost::detail::sp_ms_deleter<boost::log::v2s_mt_posix::sinks::unlocked_sink<mongo::logv2::CompositeBackend<boost::log::v2s_mt_posix::sinks::basic_text_ostream_backend<char>, mongo::logv2::RamLogSink, mongo::logv2::RamLogSink, mongo::logv2::UserAssertSink> > > >::dispose()>:
 7aae074:	74 2a                	je     7aae0a0 <boost::detail::sp_counted_impl_pd<boost::log::v2s_mt_posix::sinks::unlocked_sink<mongo::logv2::CompositeBackend<boost::log::v2s_mt_posix::sinks::basic_text_ostream_backend<char>, mongo::logv2::RamLogSink, mongo::logv2::RamLogSink, mongo::logv2::UserAssertSink> >*, boost::detail::sp_ms_deleter<boost::log::v2s_mt_posix::sinks::unlocked_sink<mongo::logv2::CompositeBackend<boost::log::v2s_mt_posix::sinks::basic_text_ostream_backend<char>, mongo::logv2::RamLogSink, mongo::logv2::RamLogSink, mongo::logv2::UserAssertSink> > > >::dispose()+0x30>
0000000007aae0b0 <boost::detail::sp_counted_impl_pd<boost::log::v2s_mt_posix::sinks::unlocked_sink<mongo::logv2::CompositeBackend<mongo::logv2::FileRotateSink> >*, boost::detail::sp_ms_deleter<boost::log::v2s_mt_posix::sinks::unlocked_sink<mongo::logv2::CompositeBackend<mongo::logv2::FileRotateSink> > > >::~sp_counted_impl_pd()>:
 7aae0b0:	48 8d 05 51 2d 40 00 	lea    0x402d51(%rip),%rax        # 7eb0e08 <vtable for boost::detail::sp_counted_impl_pd<boost::log::v2s_mt_posix::sinks::unlocked_sink<mongo::logv2::CompositeBackend<mongo::logv2::FileRotateSink> >*, boost::detail::sp_ms_deleter<boost::log::v2s_mt_posix::sinks::unlocked_sink<mongo::logv2::CompositeBackend<mongo::logv2::FileRotateSink> > > >+0x10>
 7aae0be:	74 10                	je     7aae0d0 <boost::detail::sp_counted_impl_pd<boost::log::v2s_mt_posix::sinks::unlocked_sink<mongo::logv2::CompositeBackend<mongo::logv2::FileRotateSink> >*, boost::detail::sp_ms_deleter<boost::log::v2s_mt_posix::sinks::unlocked_sink<mongo::logv2::CompositeBackend<mongo::logv2::FileRotateSink> > > >::~sp_counted_impl_pd()+0x20>
0000000007aae0e0 <boost::detail::sp_counted_impl_pd<boost::log::v2s_mt_posix::sinks::unlocked_sink<mongo::logv2::CompositeBackend<boost::log::v2s_mt_posix::sinks::basic_text_ostream_backend<char>, mongo::logv2::RamLogSink, mongo::logv2::RamLogSink, mongo::logv2::UserAssertSink> >*, boost::detail::sp_ms_deleter<boost::log::v2s_mt_posix::sinks::unlocked_sink<mongo::logv2::CompositeBackend<boost::log::v2s_mt_posix::sinks::basic_text_ostream_backend<char>, mongo::logv2::RamLogSink, mongo::logv2::RamLogSink, mongo::logv2::UserAssertSink> > > >::~sp_counted_impl_pd()>:
 7aae0e0:	48 8d 05 e1 2a 40 00 	lea    0x402ae1(%rip),%rax        # 7eb0bc8 <vtable for boost::detail::sp_counted_impl_pd<boost::log::v2s_mt_posix::sinks::unlocked_sink<mongo::logv2::CompositeBackend<boost::log::v2s_mt_posix::sinks::basic_text_ostream_backend<char>, mongo::logv2::RamLogSink, mongo::logv2::RamLogSink, mongo::logv2::UserAssertSink> >*, boost::detail::sp_ms_deleter<boost::log::v2s_mt_posix::sinks::unlocked_sink<mongo::logv2::CompositeBackend<boost::log::v2s_mt_posix::sinks::basic_text_ostream_backend<char>, mongo::logv2::RamLogSink, mongo::logv2::RamLogSink, mongo::logv2::UserAssertSink> > > >+0x10>
 7aae0ee:	74 10                	je     7aae100 <boost::detail::sp_counted_impl_pd<boost::log::v2s_mt_posix::sinks::unlocked_sink<mongo::logv2::CompositeBackend<boost::log::v2s_mt_posix::sinks::basic_text_ostream_backend<char>, mongo::logv2::RamLogSink, mongo::logv2::RamLogSink, mongo::logv2::UserAssertSink> >*, boost::detail::sp_ms_deleter<boost::log::v2s_mt_posix::sinks::unlocked_sink<mongo::logv2::CompositeBackend<boost::log::v2s_mt_posix::sinks::basic_text_ostream_backend<char>, mongo::logv2::RamLogSink, mongo::logv2::RamLogSink, mongo::logv2::UserAssertSink> > > >::~sp_counted_impl_pd()+0x20>
0000000007aae110 <boost::detail::sp_counted_impl_pd<boost::log::v2s_mt_posix::sinks::unlocked_sink<mongo::logv2::CompositeBackend<mongo::logv2::FileRotateSink, mongo::logv2::RamLogSink, mongo::logv2::RamLogSink, mongo::logv2::UserAssertSink> >*, boost::detail::sp_ms_deleter<boost::log::v2s_mt_posix::sinks::unlocked_sink<mongo::logv2::CompositeBackend<mongo::logv2::FileRotateSink, mongo::logv2::RamLogSink, mongo::logv2::RamLogSink, mongo::logv2::UserAssertSink> > > >::~sp_counted_impl_pd()>:
 7aae110:	48 8d 05 61 2c 40 00 	lea    0x402c61(%rip),%rax        # 7eb0d78 <vtable for boost::detail::sp_counted_impl_pd<boost::log::v2s_mt_posix::sinks::unlocked_sink<mongo::logv2::CompositeBackend<mongo::logv2::FileRotateSink, mongo::logv2::RamLogSink, mongo::logv2::RamLogSink, mongo::logv2::UserAssertSink> >*, boost::detail::sp_ms_deleter<boost::log::v2s_mt_posix::sinks::unlocked_sink<mongo::logv2::CompositeBackend<mongo::logv2::FileRotateSink, mongo::logv2::RamLogSink, mongo::logv2::RamLogSink, mongo::logv2::UserAssertSink> > > >+0x10>
 7aae11e:	74 10                	je     7aae130 <boost::detail::sp_counted_impl_pd<boost::log::v2s_mt_posix::sinks::unlocked_sink<mongo::logv2::CompositeBackend<mongo::logv2::FileRotateSink, mongo::logv2::RamLogSink, mongo::logv2::RamLogSink, mongo::logv2::UserAssertSink> >*, boost::detail::sp_ms_deleter<boost::log::v2s_mt_posix::sinks::unlocked_sink<mongo::logv2::CompositeBackend<mongo::logv2::FileRotateSink, mongo::logv2::RamLogSink, mongo::logv2::RamLogSink, mongo::logv2::UserAssertSink> > > >::~sp_counted_impl_pd()+0x20>
0000000007aae140 <boost::detail::sp_counted_impl_pd<boost::log::v2s_mt_posix::sinks::unlocked_sink<mongo::logv2::CompositeBackend<boost::log::v2s_mt_posix::sinks::syslog_backend, mongo::logv2::RamLogSink, mongo::logv2::RamLogSink, mongo::logv2::UserAssertSink> >*, boost::detail::sp_ms_deleter<boost::log::v2s_mt_posix::sinks::unlocked_sink<mongo::logv2::CompositeBackend<boost::log::v2s_mt_posix::sinks::syslog_backend, mongo::logv2::RamLogSink, mongo::logv2::RamLogSink, mongo::logv2::UserAssertSink> > > >::~sp_counted_impl_pd()>:
 7aae140:	48 8d 05 59 2b 40 00 	lea    0x402b59(%rip),%rax        # 7eb0ca0 <vtable for boost::detail::sp_counted_impl_pd<boost::log::v2s_mt_posix::sinks::unlocked_sink<mongo::logv2::CompositeBackend<boost::log::v2s_mt_posix::sinks::syslog_backend, mongo::logv2::RamLogSink, mongo::logv2::RamLogSink, mongo::logv2::UserAssertSink> >*, boost::detail::sp_ms_deleter<boost::log::v2s_mt_posix::sinks::unlocked_sink<mongo::logv2::CompositeBackend<boost::log::v2s_mt_posix::sinks::syslog_backend, mongo::logv2::RamLogSink, mongo::logv2::RamLogSink, mongo::logv2::UserAssertSink> > > >+0x10>
 7aae14e:	74 10                	je     7aae160 <boost::detail::sp_counted_impl_pd<boost::log::v2s_mt_posix::sinks::unlocked_sink<mongo::logv2::CompositeBackend<boost::log::v2s_mt_posix::sinks::syslog_backend, mongo::logv2::RamLogSink, mongo::logv2::RamLogSink, mongo::logv2::UserAssertSink> >*, boost::detail::sp_ms_deleter<boost::log::v2s_mt_posix::sinks::unlocked_sink<mongo::logv2::CompositeBackend<boost::log::v2s_mt_posix::sinks::syslog_backend, mongo::logv2::RamLogSink, mongo::logv2::RamLogSink, mongo::logv2::UserAssertSink> > > >::~sp_counted_impl_pd()+0x20>
0000000007aae170 <boost::log::v2s_mt_posix::sinks::unlocked_sink<mongo::logv2::CompositeBackend<boost::log::v2s_mt_posix::sinks::basic_text_ostream_backend<char>, mongo::logv2::RamLogSink, mongo::logv2::RamLogSink, mongo::logv2::UserAssertSink> >::flush()>:
 7aae19b:	75 18                	jne    7aae1b5 <boost::log::v2s_mt_posix::sinks::unlocked_sink<mongo::logv2::CompositeBackend<boost::log::v2s_mt_posix::sinks::basic_text_ostream_backend<char>, mongo::logv2::RamLogSink, mongo::logv2::RamLogSink, mongo::logv2::UserAssertSink> >::flush()+0x45>
 7aae1b0:	e9 0b 48 27 00       	jmp    7d229c0 <pthread_mutex_unlock@plt>
 7aae1c2:	eb 08                	jmp    7aae1cc <boost::log::v2s_mt_posix::sinks::unlocked_sink<mongo::logv2::CompositeBackend<boost::log::v2s_mt_posix::sinks::basic_text_ostream_backend<char>, mongo::logv2::RamLogSink, mongo::logv2::RamLogSink, mongo::logv2::UserAssertSink> >::flush()+0x5c>
 7aae1ca:	eb 11                	jmp    7aae1dd <boost::log::v2s_mt_posix::sinks::unlocked_sink<mongo::logv2::CompositeBackend<boost::log::v2s_mt_posix::sinks::basic_text_ostream_backend<char>, mongo::logv2::RamLogSink, mongo::logv2::RamLogSink, mongo::logv2::UserAssertSink> >::flush()+0x6d>
 7aae1d2:	e8 e9 47 27 00       	call   7d229c0 <pthread_mutex_unlock@plt>
 7aae1e1:	75 0d                	jne    7aae1f0 <boost::log::v2s_mt_posix::sinks::unlocked_sink<mongo::logv2::CompositeBackend<boost::log::v2s_mt_posix::sinks::basic_text_ostream_backend<char>, mongo::logv2::RamLogSink, mongo::logv2::RamLogSink, mongo::logv2::UserAssertSink> >::flush()+0x80>
 7aae20b:	74 1f                	je     7aae22c <boost::log::v2s_mt_posix::sinks::unlocked_sink<mongo::logv2::CompositeBackend<boost::log::v2s_mt_posix::sinks::basic_text_ostream_backend<char>, mongo::logv2::RamLogSink, mongo::logv2::RamLogSink, mongo::logv2::UserAssertSink> >::flush()+0xbc>
 7aae215:	e8 56 50 27 00       	call   7d23270 <pthread_rwlock_unlock@plt>
 7aae22a:	eb 05                	jmp    7aae231 <boost::log::v2s_mt_posix::sinks::unlocked_sink<mongo::logv2::CompositeBackend<boost::log::v2s_mt_posix::sinks::basic_text_ostream_backend<char>, mongo::logv2::RamLogSink, mongo::logv2::RamLogSink, mongo::logv2::UserAssertSink> >::flush()+0xc1>
 7aae24a:	e8 21 50 27 00       	call   7d23270 <pthread_rwlock_unlock@plt>
0000000007aae260 <boost::log::v2s_mt_posix::sinks::unlocked_sink<mongo::logv2::CompositeBackend<mongo::logv2::FileRotateSink> >::flush()>:
 7aae284:	75 18                	jne    7aae29e <boost::log::v2s_mt_posix::sinks::unlocked_sink<mongo::logv2::CompositeBackend<mongo::logv2::FileRotateSink> >::flush()+0x3e>
 7aae299:	e9 22 47 27 00       	jmp    7d229c0 <pthread_mutex_unlock@plt>
 7aae2ab:	eb 08                	jmp    7aae2b5 <boost::log::v2s_mt_posix::sinks::unlocked_sink<mongo::logv2::CompositeBackend<mongo::logv2::FileRotateSink> >::flush()+0x55>
 7aae2b3:	eb 11                	jmp    7aae2c6 <boost::log::v2s_mt_posix::sinks::unlocked_sink<mongo::logv2::CompositeBackend<mongo::logv2::FileRotateSink> >::flush()+0x66>
 7aae2bb:	e8 00 47 27 00       	call   7d229c0 <pthread_mutex_unlock@plt>
 7aae2ca:	75 0d                	jne    7aae2d9 <boost::log::v2s_mt_posix::sinks::unlocked_sink<mongo::logv2::CompositeBackend<mongo::logv2::FileRotateSink> >::flush()+0x79>
 7aae2f4:	74 1f                	je     7aae315 <boost::log::v2s_mt_posix::sinks::unlocked_sink<mongo::logv2::CompositeBackend<mongo::logv2::FileRotateSink> >::flush()+0xb5>
 7aae2fe:	e8 6d 4f 27 00       	call   7d23270 <pthread_rwlock_unlock@plt>
 7aae313:	eb 05                	jmp    7aae31a <boost::log::v2s_mt_posix::sinks::unlocked_sink<mongo::logv2::CompositeBackend<mongo::logv2::FileRotateSink> >::flush()+0xba>
 7aae333:	e8 38 4f 27 00       	call   7d23270 <pthread_rwlock_unlock@plt>
0000000007aae350 <boost::log::v2s_mt_posix::sinks::unlocked_sink<mongo::logv2::CompositeBackend<mongo::logv2::FileRotateSink, mongo::logv2::RamLogSink, mongo::logv2::RamLogSink, mongo::logv2::UserAssertSink> >::flush()>:
 7aae37b:	75 18                	jne    7aae395 <boost::log::v2s_mt_posix::sinks::unlocked_sink<mongo::logv2::CompositeBackend<mongo::logv2::FileRotateSink, mongo::logv2::RamLogSink, mongo::logv2::RamLogSink, mongo::logv2::UserAssertSink> >::flush()+0x45>
 7aae390:	e9 2b 46 27 00       	jmp    7d229c0 <pthread_mutex_unlock@plt>
 7aae3a2:	eb 08                	jmp    7aae3ac <boost::log::v2s_mt_posix::sinks::unlocked_sink<mongo::logv2::CompositeBackend<mongo::logv2::FileRotateSink, mongo::logv2::RamLogSink, mongo::logv2::RamLogSink, mongo::logv2::UserAssertSink> >::flush()+0x5c>
 7aae3aa:	eb 11                	jmp    7aae3bd <boost::log::v2s_mt_posix::sinks::unlocked_sink<mongo::logv2::CompositeBackend<mongo::logv2::FileRotateSink, mongo::logv2::RamLogSink, mongo::logv2::RamLogSink, mongo::logv2::UserAssertSink> >::flush()+0x6d>
 7aae3b2:	e8 09 46 27 00       	call   7d229c0 <pthread_mutex_unlock@plt>
 7aae3c1:	75 0d                	jne    7aae3d0 <boost::log::v2s_mt_posix::sinks::unlocked_sink<mongo::logv2::CompositeBackend<mongo::logv2::FileRotateSink, mongo::logv2::RamLogSink, mongo::logv2::RamLogSink, mongo::logv2::UserAssertSink> >::flush()+0x80>
 7aae3eb:	74 1f                	je     7aae40c <boost::log::v2s_mt_posix::sinks::unlocked_sink<mongo::logv2::CompositeBackend<mongo::logv2::FileRotateSink, mongo::logv2::RamLogSink, mongo::logv2::RamLogSink, mongo::logv2::UserAssertSink> >::flush()+0xbc>
 7aae3f5:	e8 76 4e 27 00       	call   7d23270 <pthread_rwlock_unlock@plt>
 7aae40a:	eb 05                	jmp    7aae411 <boost::log::v2s_mt_posix::sinks::unlocked_sink<mongo::logv2::CompositeBackend<mongo::logv2::FileRotateSink, mongo::logv2::RamLogSink, mongo::logv2::RamLogSink, mongo::logv2::UserAssertSink> >::flush()+0xc1>
 7aae42a:	e8 41 4e 27 00       	call   7d23270 <pthread_rwlock_unlock@plt>
0000000007aae770 <boost::detail::sp_counted_impl_pd<boost::log::v2s_mt_posix::sinks::unlocked_sink<mongo::logv2::CompositeBackend<boost::log::v2s_mt_posix::sinks::syslog_backend, mongo::logv2::RamLogSink, mongo::logv2::RamLogSink, mongo::logv2::UserAssertSink> >*, boost::detail::sp_ms_deleter<boost::log::v2s_mt_posix::sinks::unlocked_sink<mongo::logv2::CompositeBackend<boost::log::v2s_mt_posix::sinks::syslog_backend, mongo::logv2::RamLogSink, mongo::logv2::RamLogSink, mongo::logv2::UserAssertSink> > > >::get_deleter(std::type_info const&)>:
 7aae77e:	48 8d 35 7b e8 10 fb 	lea    -0x4ef1785(%rip),%rsi        # 2bbd000 <typeinfo name for boost::detail::sp_ms_deleter<boost::log::v2s_mt_posix::sinks::unlocked_sink<mongo::logv2::CompositeBackend<boost::log::v2s_mt_posix::sinks::syslog_backend, mongo::logv2::RamLogSink, mongo::logv2::RamLogSink, mongo::logv2::UserAssertSink> > >>
 7aae788:	74 11                	je     7aae79b <boost::detail::sp_counted_impl_pd<boost::log::v2s_mt_posix::sinks::unlocked_sink<mongo::logv2::CompositeBackend<boost::log::v2s_mt_posix::sinks::syslog_backend, mongo::logv2::RamLogSink, mongo::logv2::RamLogSink, mongo::logv2::UserAssertSink> >*, boost::detail::sp_ms_deleter<boost::log::v2s_mt_posix::sinks::unlocked_sink<mongo::logv2::CompositeBackend<boost::log::v2s_mt_posix::sinks::syslog_backend, mongo::logv2::RamLogSink, mongo::logv2::RamLogSink, mongo::logv2::UserAssertSink> > > >::get_deleter(std::type_info const&)+0x2b>
 7aae790:	74 0d                	je     7aae79f <boost::detail::sp_counted_impl_pd<boost::log::v2s_mt_posix::sinks::unlocked_sink<mongo::logv2::CompositeBackend<boost::log::v2s_mt_posix::sinks::syslog_backend, mongo::logv2::RamLogSink, mongo::logv2::RamLogSink, mongo::logv2::UserAssertSink> >*, boost::detail::sp_ms_deleter<boost::log::v2s_mt_posix::sinks::unlocked_sink<mongo::logv2::CompositeBackend<boost::log::v2s_mt_posix::sinks::syslog_backend, mongo::logv2::RamLogSink, mongo::logv2::RamLogSink, mongo::logv2::UserAssertSink> > > >::get_deleter(std::type_info const&)+0x2f>
 7aae799:	75 04                	jne    7aae79f <boost::detail::sp_counted_impl_pd<boost::log::v2s_mt_posix::sinks::unlocked_sink<mongo::logv2::CompositeBackend<boost::log::v2s_mt_posix::sinks::syslog_backend, mongo::logv2::RamLogSink, mongo::logv2::RamLogSink, mongo::logv2::UserAssertSink> >*, boost::detail::sp_ms_deleter<boost::log::v2s_mt_posix::sinks::unlocked_sink<mongo::logv2::CompositeBackend<boost::log::v2s_mt_posix::sinks::syslog_backend, mongo::logv2::RamLogSink, mongo::logv2::RamLogSink, mongo::logv2::UserAssertSink> > > >::get_deleter(std::type_info const&)+0x2f>
0000000007aae7b0 <boost::detail::sp_counted_impl_pd<boost::log::v2s_mt_posix::sinks::unlocked_sink<mongo::logv2::CompositeBackend<mongo::logv2::FileRotateSink, mongo::logv2::RamLogSink, mongo::logv2::RamLogSink, mongo::logv2::UserAssertSink> >*, boost::detail::sp_ms_deleter<boost::log::v2s_mt_posix::sinks::unlocked_sink<mongo::logv2::CompositeBackend<mongo::logv2::FileRotateSink, mongo::logv2::RamLogSink, mongo::logv2::RamLogSink, mongo::logv2::UserAssertSink> > > >::get_deleter(std::type_info const&)>:
 7aae7be:	48 8d 35 9b e6 10 fb 	lea    -0x4ef1965(%rip),%rsi        # 2bbce60 <typeinfo name for boost::detail::sp_ms_deleter<boost::log::v2s_mt_posix::sinks::unlocked_sink<mongo::logv2::CompositeBackend<mongo::logv2::FileRotateSink, mongo::logv2::RamLogSink, mongo::logv2::RamLogSink, mongo::logv2::UserAssertSink> > >>
 7aae7c8:	74 11                	je     7aae7db <boost::detail::sp_counted_impl_pd<boost::log::v2s_mt_posix::sinks::unlocked_sink<mongo::logv2::CompositeBackend<mongo::logv2::FileRotateSink, mongo::logv2::RamLogSink, mongo::logv2::RamLogSink, mongo::logv2::UserAssertSink> >*, boost::detail::sp_ms_deleter<boost::log::v2s_mt_posix::sinks::unlocked_sink<mongo::logv2::CompositeBackend<mongo::logv2::FileRotateSink, mongo::logv2::RamLogSink, mongo::logv2::RamLogSink, mongo::logv2::UserAssertSink> > > >::get_deleter(std::type_info const&)+0x2b>
 7aae7d0:	74 0d                	je     7aae7df <boost::detail::sp_counted_impl_pd<boost::log::v2s_mt_posix::sinks::unlocked_sink<mongo::logv2::CompositeBackend<mongo::logv2::FileRotateSink, mongo::logv2::RamLogSink, mongo::logv2::RamLogSink, mongo::logv2::UserAssertSink> >*, boost::detail::sp_ms_deleter<boost::log::v2s_mt_posix::sinks::unlocked_sink<mongo::logv2::CompositeBackend<mongo::logv2::FileRotateSink, mongo::logv2::RamLogSink, mongo::logv2::RamLogSink, mongo::logv2::UserAssertSink> > > >::get_deleter(std::type_info const&)+0x2f>
 7aae7d9:	75 04                	jne    7aae7df <boost::detail::sp_counted_impl_pd<boost::log::v2s_mt_posix::sinks::unlocked_sink<mongo::logv2::CompositeBackend<mongo::logv2::FileRotateSink, mongo::logv2::RamLogSink, mongo::logv2::RamLogSink, mongo::logv2::UserAssertSink> >*, boost::detail::sp_ms_deleter<boost::log::v2s_mt_posix::sinks::unlocked_sink<mongo::logv2::CompositeBackend<mongo::logv2::FileRotateSink, mongo::logv2::RamLogSink, mongo::logv2::RamLogSink, mongo::logv2::UserAssertSink> > > >::get_deleter(std::type_info const&)+0x2f>
0000000007aae830 <boost::detail::sp_counted_impl_pd<boost::log::v2s_mt_posix::sinks::unlocked_sink<mongo::logv2::CompositeBackend<boost::log::v2s_mt_posix::sinks::basic_text_ostream_backend<char>, mongo::logv2::RamLogSink, mongo::logv2::RamLogSink, mongo::logv2::UserAssertSink> >*, boost::detail::sp_ms_deleter<boost::log::v2s_mt_posix::sinks::unlocked_sink<mongo::logv2::CompositeBackend<boost::log::v2s_mt_posix::sinks::basic_text_ostream_backend<char>, mongo::logv2::RamLogSink, mongo::logv2::RamLogSink, mongo::logv2::UserAssertSink> > > >::get_deleter(std::type_info const&)>:
 7aae83e:	48 8d 35 7b e9 10 fb 	lea    -0x4ef1685(%rip),%rsi        # 2bbd1c0 <typeinfo name for boost::detail::sp_ms_deleter<boost::log::v2s_mt_posix::sinks::unlocked_sink<mongo::logv2::CompositeBackend<boost::log::v2s_mt_posix::sinks::basic_text_ostream_backend<char>, mongo::logv2::RamLogSink, mongo::logv2::RamLogSink, mongo::logv2::UserAssertSink> > >>
 7aae848:	74 11                	je     7aae85b <boost::detail::sp_counted_impl_pd<boost::log::v2s_mt_posix::sinks::unlocked_sink<mongo::logv2::CompositeBackend<boost::log::v2s_mt_posix::sinks::basic_text_ostream_backend<char>, mongo::logv2::RamLogSink, mongo::logv2::RamLogSink, mongo::logv2::UserAssertSink> >*, boost::detail::sp_ms_deleter<boost::log::v2s_mt_posix::sinks::unlocked_sink<mongo::logv2::CompositeBackend<boost::log::v2s_mt_posix::sinks::basic_text_ostream_backend<char>, mongo::logv2::RamLogSink, mongo::logv2::RamLogSink, mongo::logv2::UserAssertSink> > > >::get_deleter(std::type_info const&)+0x2b>
 7aae850:	74 0d                	je     7aae85f <boost::detail::sp_counted_impl_pd<boost::log::v2s_mt_posix::sinks::unlocked_sink<mongo::logv2::CompositeBackend<boost::log::v2s_mt_posix::sinks::basic_text_ostream_backend<char>, mongo::logv2::RamLogSink, mongo::logv2::RamLogSink, mongo::logv2::UserAssertSink> >*, boost::detail::sp_ms_deleter<boost::log::v2s_mt_posix::sinks::unlocked_sink<mongo::logv2::CompositeBackend<boost::log::v2s_mt_posix::sinks::basic_text_ostream_backend<char>, mongo::logv2::RamLogSink, mongo::logv2::RamLogSink, mongo::logv2::UserAssertSink> > > >::get_deleter(std::type_info const&)+0x2f>
 7aae859:	75 04                	jne    7aae85f <boost::detail::sp_counted_impl_pd<boost::log::v2s_mt_posix::sinks::unlocked_sink<mongo::logv2::CompositeBackend<boost::log::v2s_mt_posix::sinks::basic_text_ostream_backend<char>, mongo::logv2::RamLogSink, mongo::logv2::RamLogSink, mongo::logv2::UserAssertSink> >*, boost::detail::sp_ms_deleter<boost::log::v2s_mt_posix::sinks::unlocked_sink<mongo::logv2::CompositeBackend<boost::log::v2s_mt_posix::sinks::basic_text_ostream_backend<char>, mongo::logv2::RamLogSink, mongo::logv2::RamLogSink, mongo::logv2::UserAssertSink> > > >::get_deleter(std::type_info const&)+0x2f>
0000000007aae870 <boost::detail::sp_counted_impl_pd<boost::log::v2s_mt_posix::sinks::unlocked_sink<mongo::logv2::CompositeBackend<mongo::logv2::FileRotateSink> >*, boost::detail::sp_ms_deleter<boost::log::v2s_mt_posix::sinks::unlocked_sink<mongo::logv2::CompositeBackend<mongo::logv2::FileRotateSink> > > >::get_deleter(std::type_info const&)>:
 7aae87e:	48 8d 35 db e4 10 fb 	lea    -0x4ef1b25(%rip),%rsi        # 2bbcd60 <typeinfo name for boost::detail::sp_ms_deleter<boost::log::v2s_mt_posix::sinks::unlocked_sink<mongo::logv2::CompositeBackend<mongo::logv2::FileRotateSink> > >>
 7aae888:	74 11                	je     7aae89b <boost::detail::sp_counted_impl_pd<boost::log::v2s_mt_posix::sinks::unlocked_sink<mongo::logv2::CompositeBackend<mongo::logv2::FileRotateSink> >*, boost::detail::sp_ms_deleter<boost::log::v2s_mt_posix::sinks::unlocked_sink<mongo::logv2::CompositeBackend<mongo::logv2::FileRotateSink> > > >::get_deleter(std::type_info const&)+0x2b>
 7aae890:	74 0d                	je     7aae89f <boost::detail::sp_counted_impl_pd<boost::log::v2s_mt_posix::sinks::unlocked_sink<mongo::logv2::CompositeBackend<mongo::logv2::FileRotateSink> >*, boost::detail::sp_ms_deleter<boost::log::v2s_mt_posix::sinks::unlocked_sink<mongo::logv2::CompositeBackend<mongo::logv2::FileRotateSink> > > >::get_deleter(std::type_info const&)+0x2f>
 7aae899:	75 04                	jne    7aae89f <boost::detail::sp_counted_impl_pd<boost::log::v2s_mt_posix::sinks::unlocked_sink<mongo::logv2::CompositeBackend<mongo::logv2::FileRotateSink> >*, boost::detail::sp_ms_deleter<boost::log::v2s_mt_posix::sinks::unlocked_sink<mongo::logv2::CompositeBackend<mongo::logv2::FileRotateSink> > > >::get_deleter(std::type_info const&)+0x2f>
0000000007aaf210 <boost::log::v2s_mt_posix::sinks::unlocked_sink<mongo::logv2::CompositeBackend<mongo::logv2::FileRotateSink> >::~unlocked_sink()>:
 7aaf211:	48 8d 05 88 16 40 00 	lea    0x401688(%rip),%rax        # 7eb08a0 <vtable for boost::log::v2s_mt_posix::sinks::unlocked_sink<mongo::logv2::CompositeBackend<mongo::logv2::FileRotateSink> >+0x10>
 7aaf230:	74 05                	je     7aaf237 <boost::log::v2s_mt_posix::sinks::unlocked_sink<mongo::logv2::CompositeBackend<mongo::logv2::FileRotateSink> >::~unlocked_sink()+0x27>
 7aaf266:	74 06                	je     7aaf26e <boost::log::v2s_mt_posix::sinks::unlocked_sink<mongo::logv2::CompositeBackend<mongo::logv2::FileRotateSink> >::~unlocked_sink()+0x5e>
 7aaf27f:	74 06                	je     7aaf287 <boost::log::v2s_mt_posix::sinks::unlocked_sink<mongo::logv2::CompositeBackend<mongo::logv2::FileRotateSink> >::~unlocked_sink()+0x77>
 7aaf28e:	74 06                	je     7aaf296 <boost::log::v2s_mt_posix::sinks::unlocked_sink<mongo::logv2::CompositeBackend<mongo::logv2::FileRotateSink> >::~unlocked_sink()+0x86>
0000000007aaf2b0 <boost::log::v2s_mt_posix::sinks::unlocked_sink<mongo::logv2::CompositeBackend<mongo::logv2::FileRotateSink, mongo::logv2::RamLogSink, mongo::logv2::RamLogSink, mongo::logv2::UserAssertSink> >::~unlocked_sink()>:
 7aaf2b1:	48 8d 05 a8 15 40 00 	lea    0x4015a8(%rip),%rax        # 7eb0860 <vtable for boost::log::v2s_mt_posix::sinks::unlocked_sink<mongo::logv2::CompositeBackend<mongo::logv2::FileRotateSink, mongo::logv2::RamLogSink, mongo::logv2::RamLogSink, mongo::logv2::UserAssertSink> >+0x10>
 7aaf2d0:	74 05                	je     7aaf2d7 <boost::log::v2s_mt_posix::sinks::unlocked_sink<mongo::logv2::CompositeBackend<mongo::logv2::FileRotateSink, mongo::logv2::RamLogSink, mongo::logv2::RamLogSink, mongo::logv2::UserAssertSink> >::~unlocked_sink()+0x27>
 7aaf306:	74 06                	je     7aaf30e <boost::log::v2s_mt_posix::sinks::unlocked_sink<mongo::logv2::CompositeBackend<mongo::logv2::FileRotateSink, mongo::logv2::RamLogSink, mongo::logv2::RamLogSink, mongo::logv2::UserAssertSink> >::~unlocked_sink()+0x5e>
 7aaf31f:	74 06                	je     7aaf327 <boost::log::v2s_mt_posix::sinks::unlocked_sink<mongo::logv2::CompositeBackend<mongo::logv2::FileRotateSink, mongo::logv2::RamLogSink, mongo::logv2::RamLogSink, mongo::logv2::UserAssertSink> >::~unlocked_sink()+0x77>
 7aaf32e:	74 06                	je     7aaf336 <boost::log::v2s_mt_posix::sinks::unlocked_sink<mongo::logv2::CompositeBackend<mongo::logv2::FileRotateSink, mongo::logv2::RamLogSink, mongo::logv2::RamLogSink, mongo::logv2::UserAssertSink> >::~unlocked_sink()+0x86>
0000000007aaf350 <boost::log::v2s_mt_posix::sinks::unlocked_sink<mongo::logv2::CompositeBackend<boost::log::v2s_mt_posix::sinks::syslog_backend, mongo::logv2::RamLogSink, mongo::logv2::RamLogSink, mongo::logv2::UserAssertSink> >::~unlocked_sink()>:
 7aaf351:	48 8d 05 c8 14 40 00 	lea    0x4014c8(%rip),%rax        # 7eb0820 <vtable for boost::log::v2s_mt_posix::sinks::unlocked_sink<mongo::logv2::CompositeBackend<boost::log::v2s_mt_posix::sinks::syslog_backend, mongo::logv2::RamLogSink, mongo::logv2::RamLogSink, mongo::logv2::UserAssertSink> >+0x10>
 7aaf370:	74 05                	je     7aaf377 <boost::log::v2s_mt_posix::sinks::unlocked_sink<mongo::logv2::CompositeBackend<boost::log::v2s_mt_posix::sinks::syslog_backend, mongo::logv2::RamLogSink, mongo::logv2::RamLogSink, mongo::logv2::UserAssertSink> >::~unlocked_sink()+0x27>
 7aaf3a6:	74 06                	je     7aaf3ae <boost::log::v2s_mt_posix::sinks::unlocked_sink<mongo::logv2::CompositeBackend<boost::log::v2s_mt_posix::sinks::syslog_backend, mongo::logv2::RamLogSink, mongo::logv2::RamLogSink, mongo::logv2::UserAssertSink> >::~unlocked_sink()+0x5e>
 7aaf3bf:	74 06                	je     7aaf3c7 <boost::log::v2s_mt_posix::sinks::unlocked_sink<mongo::logv2::CompositeBackend<boost::log::v2s_mt_posix::sinks::syslog_backend, mongo::logv2::RamLogSink, mongo::logv2::RamLogSink, mongo::logv2::UserAssertSink> >::~unlocked_sink()+0x77>
 7aaf3ce:	74 06                	je     7aaf3d6 <boost::log::v2s_mt_posix::sinks::unlocked_sink<mongo::logv2::CompositeBackend<boost::log::v2s_mt_posix::sinks::syslog_backend, mongo::logv2::RamLogSink, mongo::logv2::RamLogSink, mongo::logv2::UserAssertSink> >::~unlocked_sink()+0x86>
0000000007aaf3f0 <boost::log::v2s_mt_posix::sinks::unlocked_sink<mongo::logv2::CompositeBackend<boost::log::v2s_mt_posix::sinks::basic_text_ostream_backend<char>, mongo::logv2::RamLogSink, mongo::logv2::RamLogSink, mongo::logv2::UserAssertSink> >::~unlocked_sink()>:
 7aaf3f1:	48 8d 05 e8 13 40 00 	lea    0x4013e8(%rip),%rax        # 7eb07e0 <vtable for boost::log::v2s_mt_posix::sinks::unlocked_sink<mongo::logv2::CompositeBackend<boost::log::v2s_mt_posix::sinks::basic_text_ostream_backend<char>, mongo::logv2::RamLogSink, mongo::logv2::RamLogSink, mongo::logv2::UserAssertSink> >+0x10>
 7aaf410:	74 05                	je     7aaf417 <boost::log::v2s_mt_posix::sinks::unlocked_sink<mongo::logv2::CompositeBackend<boost::log::v2s_mt_posix::sinks::basic_text_ostream_backend<char>, mongo::logv2::RamLogSink, mongo::logv2::RamLogSink, mongo::logv2::UserAssertSink> >::~unlocked_sink()+0x27>
 7aaf446:	74 06                	je     7aaf44e <boost::log::v2s_mt_posix::sinks::unlocked_sink<mongo::logv2::CompositeBackend<boost::log::v2s_mt_posix::sinks::basic_text_ostream_backend<char>, mongo::logv2::RamLogSink, mongo::logv2::RamLogSink, mongo::logv2::UserAssertSink> >::~unlocked_sink()+0x5e>
 7aaf45f:	74 06                	je     7aaf467 <boost::log::v2s_mt_posix::sinks::unlocked_sink<mongo::logv2::CompositeBackend<boost::log::v2s_mt_posix::sinks::basic_text_ostream_backend<char>, mongo::logv2::RamLogSink, mongo::logv2::RamLogSink, mongo::logv2::UserAssertSink> >::~unlocked_sink()+0x77>
 7aaf46e:	74 06                	je     7aaf476 <boost::log::v2s_mt_posix::sinks::unlocked_sink<mongo::logv2::CompositeBackend<boost::log::v2s_mt_posix::sinks::basic_text_ostream_backend<char>, mongo::logv2::RamLogSink, mongo::logv2::RamLogSink, mongo::logv2::UserAssertSink> >::~unlocked_sink()+0x86>
0000000007aaf670 <boost::log::v2s_mt_posix::sinks::unlocked_sink<mongo::logv2::CompositeBackend<mongo::logv2::FileRotateSink> >::~unlocked_sink()>:
 7aaf671:	48 8d 05 28 12 40 00 	lea    0x401228(%rip),%rax        # 7eb08a0 <vtable for boost::log::v2s_mt_posix::sinks::unlocked_sink<mongo::logv2::CompositeBackend<mongo::logv2::FileRotateSink> >+0x10>
 7aaf691:	74 05                	je     7aaf698 <boost::log::v2s_mt_posix::sinks::unlocked_sink<mongo::logv2::CompositeBackend<mongo::logv2::FileRotateSink> >::~unlocked_sink()+0x28>
 7aaf6cb:	74 06                	je     7aaf6d3 <boost::log::v2s_mt_posix::sinks::unlocked_sink<mongo::logv2::CompositeBackend<mongo::logv2::FileRotateSink> >::~unlocked_sink()+0x63>
 7aaf6e6:	74 06                	je     7aaf6ee <boost::log::v2s_mt_posix::sinks::unlocked_sink<mongo::logv2::CompositeBackend<mongo::logv2::FileRotateSink> >::~unlocked_sink()+0x7e>
 7aaf6f6:	74 06                	je     7aaf6fe <boost::log::v2s_mt_posix::sinks::unlocked_sink<mongo::logv2::CompositeBackend<mongo::logv2::FileRotateSink> >::~unlocked_sink()+0x8e>
0000000007aaf720 <boost::log::v2s_mt_posix::sinks::unlocked_sink<mongo::logv2::CompositeBackend<mongo::logv2::FileRotateSink, mongo::logv2::RamLogSink, mongo::logv2::RamLogSink, mongo::logv2::UserAssertSink> >::~unlocked_sink()>:
 7aaf721:	48 8d 05 38 11 40 00 	lea    0x401138(%rip),%rax        # 7eb0860 <vtable for boost::log::v2s_mt_posix::sinks::unlocked_sink<mongo::logv2::CompositeBackend<mongo::logv2::FileRotateSink, mongo::logv2::RamLogSink, mongo::logv2::RamLogSink, mongo::logv2::UserAssertSink> >+0x10>
 7aaf741:	74 05                	je     7aaf748 <boost::log::v2s_mt_posix::sinks::unlocked_sink<mongo::logv2::CompositeBackend<mongo::logv2::FileRotateSink, mongo::logv2::RamLogSink, mongo::logv2::RamLogSink, mongo::logv2::UserAssertSink> >::~unlocked_sink()+0x28>
 7aaf77b:	74 06                	je     7aaf783 <boost::log::v2s_mt_posix::sinks::unlocked_sink<mongo::logv2::CompositeBackend<mongo::logv2::FileRotateSink, mongo::logv2::RamLogSink, mongo::logv2::RamLogSink, mongo::logv2::UserAssertSink> >::~unlocked_sink()+0x63>
 7aaf796:	74 06                	je     7aaf79e <boost::log::v2s_mt_posix::sinks::unlocked_sink<mongo::logv2::CompositeBackend<mongo::logv2::FileRotateSink, mongo::logv2::RamLogSink, mongo::logv2::RamLogSink, mongo::logv2::UserAssertSink> >::~unlocked_sink()+0x7e>
 7aaf7a6:	74 06                	je     7aaf7ae <boost::log::v2s_mt_posix::sinks::unlocked_sink<mongo::logv2::CompositeBackend<mongo::logv2::FileRotateSink, mongo::logv2::RamLogSink, mongo::logv2::RamLogSink, mongo::logv2::UserAssertSink> >::~unlocked_sink()+0x8e>
0000000007aaf7d0 <boost::log::v2s_mt_posix::sinks::unlocked_sink<mongo::logv2::CompositeBackend<boost::log::v2s_mt_posix::sinks::syslog_backend, mongo::logv2::RamLogSink, mongo::logv2::RamLogSink, mongo::logv2::UserAssertSink> >::~unlocked_sink()>:
 7aaf7d1:	48 8d 05 48 10 40 00 	lea    0x401048(%rip),%rax        # 7eb0820 <vtable for boost::log::v2s_mt_posix::sinks::unlocked_sink<mongo::logv2::CompositeBackend<boost::log::v2s_mt_posix::sinks::syslog_backend, mongo::logv2::RamLogSink, mongo::logv2::RamLogSink, mongo::logv2::UserAssertSink> >+0x10>
 7aaf7f1:	74 05                	je     7aaf7f8 <boost::log::v2s_mt_posix::sinks::unlocked_sink<mongo::logv2::CompositeBackend<boost::log::v2s_mt_posix::sinks::syslog_backend, mongo::logv2::RamLogSink, mongo::logv2::RamLogSink, mongo::logv2::UserAssertSink> >::~unlocked_sink()+0x28>
 7aaf82b:	74 06                	je     7aaf833 <boost::log::v2s_mt_posix::sinks::unlocked_sink<mongo::logv2::CompositeBackend<boost::log::v2s_mt_posix::sinks::syslog_backend, mongo::logv2::RamLogSink, mongo::logv2::RamLogSink, mongo::logv2::UserAssertSink> >::~unlocked_sink()+0x63>
 7aaf846:	74 06                	je     7aaf84e <boost::log::v2s_mt_posix::sinks::unlocked_sink<mongo::logv2::CompositeBackend<boost::log::v2s_mt_posix::sinks::syslog_backend, mongo::logv2::RamLogSink, mongo::logv2::RamLogSink, mongo::logv2::UserAssertSink> >::~unlocked_sink()+0x7e>
 7aaf856:	74 06                	je     7aaf85e <boost::log::v2s_mt_posix::sinks::unlocked_sink<mongo::logv2::CompositeBackend<boost::log::v2s_mt_posix::sinks::syslog_backend, mongo::logv2::RamLogSink, mongo::logv2::RamLogSink, mongo::logv2::UserAssertSink> >::~unlocked_sink()+0x8e>
0000000007aaf880 <boost::log::v2s_mt_posix::sinks::unlocked_sink<mongo::logv2::CompositeBackend<boost::log::v2s_mt_posix::sinks::basic_text_ostream_backend<char>, mongo::logv2::RamLogSink, mongo::logv2::RamLogSink, mongo::logv2::UserAssertSink> >::~unlocked_sink()>:
 7aaf881:	48 8d 05 58 0f 40 00 	lea    0x400f58(%rip),%rax        # 7eb07e0 <vtable for boost::log::v2s_mt_posix::sinks::unlocked_sink<mongo::logv2::CompositeBackend<boost::log::v2s_mt_posix::sinks::basic_text_ostream_backend<char>, mongo::logv2::RamLogSink, mongo::logv2::RamLogSink, mongo::logv2::UserAssertSink> >+0x10>
 7aaf8a1:	74 05                	je     7aaf8a8 <boost::log::v2s_mt_posix::sinks::unlocked_sink<mongo::logv2::CompositeBackend<boost::log::v2s_mt_posix::sinks::basic_text_ostream_backend<char>, mongo::logv2::RamLogSink, mongo::logv2::RamLogSink, mongo::logv2::UserAssertSink> >::~unlocked_sink()+0x28>
 7aaf8db:	74 06                	je     7aaf8e3 <boost::log::v2s_mt_posix::sinks::unlocked_sink<mongo::logv2::CompositeBackend<boost::log::v2s_mt_posix::sinks::basic_text_ostream_backend<char>, mongo::logv2::RamLogSink, mongo::logv2::RamLogSink, mongo::logv2::UserAssertSink> >::~unlocked_sink()+0x63>
 7aaf8f6:	74 06                	je     7aaf8fe <boost::log::v2s_mt_posix::sinks::unlocked_sink<mongo::logv2::CompositeBackend<boost::log::v2s_mt_posix::sinks::basic_text_ostream_backend<char>, mongo::logv2::RamLogSink, mongo::logv2::RamLogSink, mongo::logv2::UserAssertSink> >::~unlocked_sink()+0x7e>
 7aaf906:	74 06                	je     7aaf90e <boost::log::v2s_mt_posix::sinks::unlocked_sink<mongo::logv2::CompositeBackend<boost::log::v2s_mt_posix::sinks::basic_text_ostream_backend<char>, mongo::logv2::RamLogSink, mongo::logv2::RamLogSink, mongo::logv2::UserAssertSink> >::~unlocked_sink()+0x8e>
 7ab0443:	e8 78 25 27 00       	call   7d229c0 <pthread_mutex_unlock@plt>
 7ab0673:	e8 48 23 27 00       	call   7d229c0 <pthread_mutex_unlock@plt>
 7ab09d3:	e8 e8 1f 27 00       	call   7d229c0 <pthread_mutex_unlock@plt>
 7ab0b95:	e9 d6 26 27 00       	jmp    7d23270 <pthread_rwlock_unlock@plt>
 7ab0ba3:	e8 c8 26 27 00       	call   7d23270 <pthread_rwlock_unlock@plt>
 7ab0c28:	e9 43 26 27 00       	jmp    7d23270 <pthread_rwlock_unlock@plt>
 7ab0c36:	e8 35 26 27 00       	call   7d23270 <pthread_rwlock_unlock@plt>
0000000007ab1c20 <boost::detail::sp_if_not_array<boost::log::v2s_mt_posix::sinks::unlocked_sink<mongo::logv2::CompositeBackend<boost::log::v2s_mt_posix::sinks::syslog_backend, mongo::logv2::RamLogSink, mongo::logv2::RamLogSink, mongo::logv2::UserAssertSink> > >::type boost::make_shared<boost::log::v2s_mt_posix::sinks::unlocked_sink<mongo::logv2::CompositeBackend<boost::log::v2s_mt_posix::sinks::syslog_backend, mongo::logv2::RamLogSink, mongo::logv2::RamLogSink, mongo::logv2::UserAssertSink> >, boost::shared_ptr<mongo::logv2::CompositeBackend<boost::log::v2s_mt_posix::sinks::syslog_backend, mongo::logv2::RamLogSink, mongo::logv2::RamLogSink, mongo::logv2::UserAssertSink> > >(boost::shared_ptr<mongo::logv2::CompositeBackend<boost::log::v2s_mt_posix::sinks::syslog_backend, mongo::logv2::RamLogSink, mongo::logv2::RamLogSink, mongo::logv2::UserAssertSink> >&&)>:
 7ab1c44:	48 8d 05 55 f0 3f 00 	lea    0x3ff055(%rip),%rax        # 7eb0ca0 <vtable for boost::detail::sp_counted_impl_pd<boost::log::v2s_mt_posix::sinks::unlocked_sink<mongo::logv2::CompositeBackend<boost::log::v2s_mt_posix::sinks::syslog_backend, mongo::logv2::RamLogSink, mongo::logv2::RamLogSink, mongo::logv2::UserAssertSink> >*, boost::detail::sp_ms_deleter<boost::log::v2s_mt_posix::sinks::unlocked_sink<mongo::logv2::CompositeBackend<boost::log::v2s_mt_posix::sinks::syslog_backend, mongo::logv2::RamLogSink, mongo::logv2::RamLogSink, mongo::logv2::UserAssertSink> > > >+0x10>
 7ab1c70:	e8 4b ad ff ff       	call   7aac9c0 <boost::detail::sp_counted_impl_pd<boost::log::v2s_mt_posix::sinks::unlocked_sink<mongo::logv2::CompositeBackend<boost::log::v2s_mt_posix::sinks::syslog_backend, mongo::logv2::RamLogSink, mongo::logv2::RamLogSink, mongo::logv2::UserAssertSink> >*, boost::detail::sp_ms_deleter<boost::log::v2s_mt_posix::sinks::unlocked_sink<mongo::logv2::CompositeBackend<boost::log::v2s_mt_posix::sinks::syslog_backend, mongo::logv2::RamLogSink, mongo::logv2::RamLogSink, mongo::logv2::UserAssertSink> > > >::get_untyped_deleter()>
 7ab1d33:	48 8d 05 e6 ea 3f 00 	lea    0x3feae6(%rip),%rax        # 7eb0820 <vtable for boost::log::v2s_mt_posix::sinks::unlocked_sink<mongo::logv2::CompositeBackend<boost::log::v2s_mt_posix::sinks::syslog_backend, mongo::logv2::RamLogSink, mongo::logv2::RamLogSink, mongo::logv2::UserAssertSink> >+0x10>
 7ab1d56:	74 05                	je     7ab1d5d <boost::detail::sp_if_not_array<boost::log::v2s_mt_posix::sinks::unlocked_sink<mongo::logv2::CompositeBackend<boost::log::v2s_mt_posix::sinks::syslog_backend, mongo::logv2::RamLogSink, mongo::logv2::RamLogSink, mongo::logv2::UserAssertSink> > >::type boost::make_shared<boost::log::v2s_mt_posix::sinks::unlocked_sink<mongo::logv2::CompositeBackend<boost::log::v2s_mt_posix::sinks::syslog_backend, mongo::logv2::RamLogSink, mongo::logv2::RamLogSink, mongo::logv2::UserAssertSink> >, boost::shared_ptr<mongo::logv2::CompositeBackend<boost::log::v2s_mt_posix::sinks::syslog_backend, mongo::logv2::RamLogSink, mongo::logv2::RamLogSink, mongo::logv2::UserAssertSink> > >(boost::shared_ptr<mongo::logv2::CompositeBackend<boost::log::v2s_mt_posix::sinks::syslog_backend, mongo::logv2::RamLogSink, mongo::logv2::RamLogSink, mongo::logv2::UserAssertSink> >&&)+0x13d>
 7ab1d90:	eb 0a                	jmp    7ab1d9c <boost::detail::sp_if_not_array<boost::log::v2s_mt_posix::sinks::unlocked_sink<mongo::logv2::CompositeBackend<boost::log::v2s_mt_posix::sinks::syslog_backend, mongo::logv2::RamLogSink, mongo::logv2::RamLogSink, mongo::logv2::UserAssertSink> > >::type boost::make_shared<boost::log::v2s_mt_posix::sinks::unlocked_sink<mongo::logv2::CompositeBackend<boost::log::v2s_mt_posix::sinks::syslog_backend, mongo::logv2::RamLogSink, mongo::logv2::RamLogSink, mongo::logv2::UserAssertSink> >, boost::shared_ptr<mongo::logv2::CompositeBackend<boost::log::v2s_mt_posix::sinks::syslog_backend, mongo::logv2::RamLogSink, mongo::logv2::RamLogSink, mongo::logv2::UserAssertSink> > >(boost::shared_ptr<mongo::logv2::CompositeBackend<boost::log::v2s_mt_posix::sinks::syslog_backend, mongo::logv2::RamLogSink, mongo::logv2::RamLogSink, mongo::logv2::UserAssertSink> >&&)+0x17c>
 7ab1d95:	eb 12                	jmp    7ab1da9 <boost::detail::sp_if_not_array<boost::log::v2s_mt_posix::sinks::unlocked_sink<mongo::logv2::CompositeBackend<boost::log::v2s_mt_posix::sinks::syslog_backend, mongo::logv2::RamLogSink, mongo::logv2::RamLogSink, mongo::logv2::UserAssertSink> > >::type boost::make_shared<boost::log::v2s_mt_posix::sinks::unlocked_sink<mongo::logv2::CompositeBackend<boost::log::v2s_mt_posix::sinks::syslog_backend, mongo::logv2::RamLogSink, mongo::logv2::RamLogSink, mongo::logv2::UserAssertSink> >, boost::shared_ptr<mongo::logv2::CompositeBackend<boost::log::v2s_mt_posix::sinks::syslog_backend, mongo::logv2::RamLogSink, mongo::logv2::RamLogSink, mongo::logv2::UserAssertSink> > >(boost::shared_ptr<mongo::logv2::CompositeBackend<boost::log::v2s_mt_posix::sinks::syslog_backend, mongo::logv2::RamLogSink, mongo::logv2::RamLogSink, mongo::logv2::UserAssertSink> >&&)+0x189>
 7ab1d9a:	eb 29                	jmp    7ab1dc5 <boost::detail::sp_if_not_array<boost::log::v2s_mt_posix::sinks::unlocked_sink<mongo::logv2::CompositeBackend<boost::log::v2s_mt_posix::sinks::syslog_backend, mongo::logv2::RamLogSink, mongo::logv2::RamLogSink, mongo::logv2::UserAssertSink> > >::type boost::make_shared<boost::log::v2s_mt_posix::sinks::unlocked_sink<mongo::logv2::CompositeBackend<boost::log::v2s_mt_posix::sinks::syslog_backend, mongo::logv2::RamLogSink, mongo::logv2::RamLogSink, mongo::logv2::UserAssertSink> >, boost::shared_ptr<mongo::logv2::CompositeBackend<boost::log::v2s_mt_posix::sinks::syslog_backend, mongo::logv2::RamLogSink, mongo::logv2::RamLogSink, mongo::logv2::UserAssertSink> > >(boost::shared_ptr<mongo::logv2::CompositeBackend<boost::log::v2s_mt_posix::sinks::syslog_backend, mongo::logv2::RamLogSink, mongo::logv2::RamLogSink, mongo::logv2::UserAssertSink> >&&)+0x1a5>
 7ab1dd0:	eb e3                	jmp    7ab1db5 <boost::detail::sp_if_not_array<boost::log::v2s_mt_posix::sinks::unlocked_sink<mongo::logv2::CompositeBackend<boost::log::v2s_mt_posix::sinks::syslog_backend, mongo::logv2::RamLogSink, mongo::logv2::RamLogSink, mongo::logv2::UserAssertSink> > >::type boost::make_shared<boost::log::v2s_mt_posix::sinks::unlocked_sink<mongo::logv2::CompositeBackend<boost::log::v2s_mt_posix::sinks::syslog_backend, mongo::logv2::RamLogSink, mongo::logv2::RamLogSink, mongo::logv2::UserAssertSink> >, boost::shared_ptr<mongo::logv2::CompositeBackend<boost::log::v2s_mt_posix::sinks::syslog_backend, mongo::logv2::RamLogSink, mongo::logv2::RamLogSink, mongo::logv2::UserAssertSink> > >(boost::shared_ptr<mongo::logv2::CompositeBackend<boost::log::v2s_mt_posix::sinks::syslog_backend, mongo::logv2::RamLogSink, mongo::logv2::RamLogSink, mongo::logv2::UserAssertSink> >&&)+0x195>
0000000007ab1df0 <boost::detail::sp_if_not_array<boost::log::v2s_mt_posix::sinks::unlocked_sink<mongo::logv2::CompositeBackend<mongo::logv2::FileRotateSink, mongo::logv2::RamLogSink, mongo::logv2::RamLogSink, mongo::logv2::UserAssertSink> > >::type boost::make_shared<boost::log::v2s_mt_posix::sinks::unlocked_sink<mongo::logv2::CompositeBackend<mongo::logv2::FileRotateSink, mongo::logv2::RamLogSink, mongo::logv2::RamLogSink, mongo::logv2::UserAssertSink> >, boost::shared_ptr<mongo::logv2::CompositeBackend<mongo::logv2::FileRotateSink, mongo::logv2::RamLogSink, mongo::logv2::RamLogSink, mongo::logv2::UserAssertSink> >&>(boost::shared_ptr<mongo::logv2::CompositeBackend<mongo::logv2::FileRotateSink, mongo::logv2::RamLogSink, mongo::logv2::RamLogSink, mongo::logv2::UserAssertSink> >&)>:
 7ab1e14:	48 8d 05 5d ef 3f 00 	lea    0x3fef5d(%rip),%rax        # 7eb0d78 <vtable for boost::detail::sp_counted_impl_pd<boost::log::v2s_mt_posix::sinks::unlocked_sink<mongo::logv2::CompositeBackend<mongo::logv2::FileRotateSink, mongo::logv2::RamLogSink, mongo::logv2::RamLogSink, mongo::logv2::UserAssertSink> >*, boost::detail::sp_ms_deleter<boost::log::v2s_mt_posix::sinks::unlocked_sink<mongo::logv2::CompositeBackend<mongo::logv2::FileRotateSink, mongo::logv2::RamLogSink, mongo::logv2::RamLogSink, mongo::logv2::UserAssertSink> > > >+0x10>
 7ab1e40:	e8 1b ab ff ff       	call   7aac960 <boost::detail::sp_counted_impl_pd<boost::log::v2s_mt_posix::sinks::unlocked_sink<mongo::logv2::CompositeBackend<mongo::logv2::FileRotateSink, mongo::logv2::RamLogSink, mongo::logv2::RamLogSink, mongo::logv2::UserAssertSink> >*, boost::detail::sp_ms_deleter<boost::log::v2s_mt_posix::sinks::unlocked_sink<mongo::logv2::CompositeBackend<mongo::logv2::FileRotateSink, mongo::logv2::RamLogSink, mongo::logv2::RamLogSink, mongo::logv2::UserAssertSink> > > >::get_untyped_deleter()>
 7ab1f03:	48 8d 05 56 e9 3f 00 	lea    0x3fe956(%rip),%rax        # 7eb0860 <vtable for boost::log::v2s_mt_posix::sinks::unlocked_sink<mongo::logv2::CompositeBackend<mongo::logv2::FileRotateSink, mongo::logv2::RamLogSink, mongo::logv2::RamLogSink, mongo::logv2::UserAssertSink> >+0x10>
 7ab1f26:	74 05                	je     7ab1f2d <boost::detail::sp_if_not_array<boost::log::v2s_mt_posix::sinks::unlocked_sink<mongo::logv2::CompositeBackend<mongo::logv2::FileRotateSink, mongo::logv2::RamLogSink, mongo::logv2::RamLogSink, mongo::logv2::UserAssertSink> > >::type boost::make_shared<boost::log::v2s_mt_posix::sinks::unlocked_sink<mongo::logv2::CompositeBackend<mongo::logv2::FileRotateSink, mongo::logv2::RamLogSink, mongo::logv2::RamLogSink, mongo::logv2::UserAssertSink> >, boost::shared_ptr<mongo::logv2::CompositeBackend<mongo::logv2::FileRotateSink, mongo::logv2::RamLogSink, mongo::logv2::RamLogSink, mongo::logv2::UserAssertSink> >&>(boost::shared_ptr<mongo::logv2::CompositeBackend<mongo::logv2::FileRotateSink, mongo::logv2::RamLogSink, mongo::logv2::RamLogSink, mongo::logv2::UserAssertSink> >&)+0x13d>
 7ab1f60:	eb 0a                	jmp    7ab1f6c <boost::detail::sp_if_not_array<boost::log::v2s_mt_posix::sinks::unlocked_sink<mongo::logv2::CompositeBackend<mongo::logv2::FileRotateSink, mongo::logv2::RamLogSink, mongo::logv2::RamLogSink, mongo::logv2::UserAssertSink> > >::type boost::make_shared<boost::log::v2s_mt_posix::sinks::unlocked_sink<mongo::logv2::CompositeBackend<mongo::logv2::FileRotateSink, mongo::logv2::RamLogSink, mongo::logv2::RamLogSink, mongo::logv2::UserAssertSink> >, boost::shared_ptr<mongo::logv2::CompositeBackend<mongo::logv2::FileRotateSink, mongo::logv2::RamLogSink, mongo::logv2::RamLogSink, mongo::logv2::UserAssertSink> >&>(boost::shared_ptr<mongo::logv2::CompositeBackend<mongo::logv2::FileRotateSink, mongo::logv2::RamLogSink, mongo::logv2::RamLogSink, mongo::logv2::UserAssertSink> >&)+0x17c>
 7ab1f65:	eb 12                	jmp    7ab1f79 <boost::detail::sp_if_not_array<boost::log::v2s_mt_posix::sinks::unlocked_sink<mongo::logv2::CompositeBackend<mongo::logv2::FileRotateSink, mongo::logv2::RamLogSink, mongo::logv2::RamLogSink, mongo::logv2::UserAssertSink> > >::type boost::make_shared<boost::log::v2s_mt_posix::sinks::unlocked_sink<mongo::logv2::CompositeBackend<mongo::logv2::FileRotateSink, mongo::logv2::RamLogSink, mongo::logv2::RamLogSink, mongo::logv2::UserAssertSink> >, boost::shared_ptr<mongo::logv2::CompositeBackend<mongo::logv2::FileRotateSink, mongo::logv2::RamLogSink, mongo::logv2::RamLogSink, mongo::logv2::UserAssertSink> >&>(boost::shared_ptr<mongo::logv2::CompositeBackend<mongo::logv2::FileRotateSink, mongo::logv2::RamLogSink, mongo::logv2::RamLogSink, mongo::logv2::UserAssertSink> >&)+0x189>
 7ab1f6a:	eb 29                	jmp    7ab1f95 <boost::detail::sp_if_not_array<boost::log::v2s_mt_posix::sinks::unlocked_sink<mongo::logv2::CompositeBackend<mongo::logv2::FileRotateSink, mongo::logv2::RamLogSink, mongo::logv2::RamLogSink, mongo::logv2::UserAssertSink> > >::type boost::make_shared<boost::log::v2s_mt_posix::sinks::unlocked_sink<mongo::logv2::CompositeBackend<mongo::logv2::FileRotateSink, mongo::logv2::RamLogSink, mongo::logv2::RamLogSink, mongo::logv2::UserAssertSink> >, boost::shared_ptr<mongo::logv2::CompositeBackend<mongo::logv2::FileRotateSink, mongo::logv2::RamLogSink, mongo::logv2::RamLogSink, mongo::logv2::UserAssertSink> >&>(boost::shared_ptr<mongo::logv2::CompositeBackend<mongo::logv2::FileRotateSink, mongo::logv2::RamLogSink, mongo::logv2::RamLogSink, mongo::logv2::UserAssertSink> >&)+0x1a5>
 7ab1fa0:	eb e3                	jmp    7ab1f85 <boost::detail::sp_if_not_array<boost::log::v2s_mt_posix::sinks::unlocked_sink<mongo::logv2::CompositeBackend<mongo::logv2::FileRotateSink, mongo::logv2::RamLogSink, mongo::logv2::RamLogSink, mongo::logv2::UserAssertSink> > >::type boost::make_shared<boost::log::v2s_mt_posix::sinks::unlocked_sink<mongo::logv2::CompositeBackend<mongo::logv2::FileRotateSink, mongo::logv2::RamLogSink, mongo::logv2::RamLogSink, mongo::logv2::UserAssertSink> >, boost::shared_ptr<mongo::logv2::CompositeBackend<mongo::logv2::FileRotateSink, mongo::logv2::RamLogSink, mongo::logv2::RamLogSink, mongo::logv2::UserAssertSink> >&>(boost::shared_ptr<mongo::logv2::CompositeBackend<mongo::logv2::FileRotateSink, mongo::logv2::RamLogSink, mongo::logv2::RamLogSink, mongo::logv2::UserAssertSink> >&)+0x195>
0000000007ab1fc0 <boost::detail::sp_if_not_array<boost::log::v2s_mt_posix::sinks::unlocked_sink<mongo::logv2::CompositeBackend<boost::log::v2s_mt_posix::sinks::basic_text_ostream_backend<char>, mongo::logv2::RamLogSink, mongo::logv2::RamLogSink, mongo::logv2::UserAssertSink> > >::type boost::make_shared<boost::log::v2s_mt_posix::sinks::unlocked_sink<mongo::logv2::CompositeBackend<boost::log::v2s_mt_posix::sinks::basic_text_ostream_backend<char>, mongo::logv2::RamLogSink, mongo::logv2::RamLogSink, mongo::logv2::UserAssertSink> >, boost::shared_ptr<mongo::logv2::CompositeBackend<boost::log::v2s_mt_posix::sinks::basic_text_ostream_backend<char>, mongo::logv2::RamLogSink, mongo::logv2::RamLogSink, mongo::logv2::UserAssertSink> > >(boost::shared_ptr<mongo::logv2::CompositeBackend<boost::log::v2s_mt_posix::sinks::basic_text_ostream_backend<char>, mongo::logv2::RamLogSink, mongo::logv2::RamLogSink, mongo::logv2::UserAssertSink> >&&)>:
 7ab1fe4:	48 8d 05 dd eb 3f 00 	lea    0x3febdd(%rip),%rax        # 7eb0bc8 <vtable for boost::detail::sp_counted_impl_pd<boost::log::v2s_mt_posix::sinks::unlocked_sink<mongo::logv2::CompositeBackend<boost::log::v2s_mt_posix::sinks::basic_text_ostream_backend<char>, mongo::logv2::RamLogSink, mongo::logv2::RamLogSink, mongo::logv2::UserAssertSink> >*, boost::detail::sp_ms_deleter<boost::log::v2s_mt_posix::sinks::unlocked_sink<mongo::logv2::CompositeBackend<boost::log::v2s_mt_posix::sinks::basic_text_ostream_backend<char>, mongo::logv2::RamLogSink, mongo::logv2::RamLogSink, mongo::logv2::UserAssertSink> > > >+0x10>
 7ab2010:	e8 0b aa ff ff       	call   7aaca20 <boost::detail::sp_counted_impl_pd<boost::log::v2s_mt_posix::sinks::unlocked_sink<mongo::logv2::CompositeBackend<boost::log::v2s_mt_posix::sinks::basic_text_ostream_backend<char>, mongo::logv2::RamLogSink, mongo::logv2::RamLogSink, mongo::logv2::UserAssertSink> >*, boost::detail::sp_ms_deleter<boost::log::v2s_mt_posix::sinks::unlocked_sink<mongo::logv2::CompositeBackend<boost::log::v2s_mt_posix::sinks::basic_text_ostream_backend<char>, mongo::logv2::RamLogSink, mongo::logv2::RamLogSink, mongo::logv2::UserAssertSink> > > >::get_untyped_deleter()>
 7ab20d3:	48 8d 05 06 e7 3f 00 	lea    0x3fe706(%rip),%rax        # 7eb07e0 <vtable for boost::log::v2s_mt_posix::sinks::unlocked_sink<mongo::logv2::CompositeBackend<boost::log::v2s_mt_posix::sinks::basic_text_ostream_backend<char>, mongo::logv2::RamLogSink, mongo::logv2::RamLogSink, mongo::logv2::UserAssertSink> >+0x10>
 7ab20f6:	74 05                	je     7ab20fd <boost::detail::sp_if_not_array<boost::log::v2s_mt_posix::sinks::unlocked_sink<mongo::logv2::CompositeBackend<boost::log::v2s_mt_posix::sinks::basic_text_ostream_backend<char>, mongo::logv2::RamLogSink, mongo::logv2::RamLogSink, mongo::logv2::UserAssertSink> > >::type boost::make_shared<boost::log::v2s_mt_posix::sinks::unlocked_sink<mongo::logv2::CompositeBackend<boost::log::v2s_mt_posix::sinks::basic_text_ostream_backend<char>, mongo::logv2::RamLogSink, mongo::logv2::RamLogSink, mongo::logv2::UserAssertSink> >, boost::shared_ptr<mongo::logv2::CompositeBackend<boost::log::v2s_mt_posix::sinks::basic_text_ostream_backend<char>, mongo::logv2::RamLogSink, mongo::logv2::RamLogSink, mongo::logv2::UserAssertSink> > >(boost::shared_ptr<mongo::logv2::CompositeBackend<boost::log::v2s_mt_posix::sinks::basic_text_ostream_backend<char>, mongo::logv2::RamLogSink, mongo::logv2::RamLogSink, mongo::logv2::UserAssertSink> >&&)+0x13d>
 7ab2130:	eb 0a                	jmp    7ab213c <boost::detail::sp_if_not_array<boost::log::v2s_mt_posix::sinks::unlocked_sink<mongo::logv2::CompositeBackend<boost::log::v2s_mt_posix::sinks::basic_text_ostream_backend<char>, mongo::logv2::RamLogSink, mongo::logv2::RamLogSink, mongo::logv2::UserAssertSink> > >::type boost::make_shared<boost::log::v2s_mt_posix::sinks::unlocked_sink<mongo::logv2::CompositeBackend<boost::log::v2s_mt_posix::sinks::basic_text_ostream_backend<char>, mongo::logv2::RamLogSink, mongo::logv2::RamLogSink, mongo::logv2::UserAssertSink> >, boost::shared_ptr<mongo::logv2::CompositeBackend<boost::log::v2s_mt_posix::sinks::basic_text_ostream_backend<char>, mongo::logv2::RamLogSink, mongo::logv2::RamLogSink, mongo::logv2::UserAssertSink> > >(boost::shared_ptr<mongo::logv2::CompositeBackend<boost::log::v2s_mt_posix::sinks::basic_text_ostream_backend<char>, mongo::logv2::RamLogSink, mongo::logv2::RamLogSink, mongo::logv2::UserAssertSink> >&&)+0x17c>
 7ab2135:	eb 12                	jmp    7ab2149 <boost::detail::sp_if_not_array<boost::log::v2s_mt_posix::sinks::unlocked_sink<mongo::logv2::CompositeBackend<boost::log::v2s_mt_posix::sinks::basic_text_ostream_backend<char>, mongo::logv2::RamLogSink, mongo::logv2::RamLogSink, mongo::logv2::UserAssertSink> > >::type boost::make_shared<boost::log::v2s_mt_posix::sinks::unlocked_sink<mongo::logv2::CompositeBackend<boost::log::v2s_mt_posix::sinks::basic_text_ostream_backend<char>, mongo::logv2::RamLogSink, mongo::logv2::RamLogSink, mongo::logv2::UserAssertSink> >, boost::shared_ptr<mongo::logv2::CompositeBackend<boost::log::v2s_mt_posix::sinks::basic_text_ostream_backend<char>, mongo::logv2::RamLogSink, mongo::logv2::RamLogSink, mongo::logv2::UserAssertSink> > >(boost::shared_ptr<mongo::logv2::CompositeBackend<boost::log::v2s_mt_posix::sinks::basic_text_ostream_backend<char>, mongo::logv2::RamLogSink, mongo::logv2::RamLogSink, mongo::logv2::UserAssertSink> >&&)+0x189>
 7ab213a:	eb 29                	jmp    7ab2165 <boost::detail::sp_if_not_array<boost::log::v2s_mt_posix::sinks::unlocked_sink<mongo::logv2::CompositeBackend<boost::log::v2s_mt_posix::sinks::basic_text_ostream_backend<char>, mongo::logv2::RamLogSink, mongo::logv2::RamLogSink, mongo::logv2::UserAssertSink> > >::type boost::make_shared<boost::log::v2s_mt_posix::sinks::unlocked_sink<mongo::logv2::CompositeBackend<boost::log::v2s_mt_posix::sinks::basic_text_ostream_backend<char>, mongo::logv2::RamLogSink, mongo::logv2::RamLogSink, mongo::logv2::UserAssertSink> >, boost::shared_ptr<mongo::logv2::CompositeBackend<boost::log::v2s_mt_posix::sinks::basic_text_ostream_backend<char>, mongo::logv2::RamLogSink, mongo::logv2::RamLogSink, mongo::logv2::UserAssertSink> > >(boost::shared_ptr<mongo::logv2::CompositeBackend<boost::log::v2s_mt_posix::sinks::basic_text_ostream_backend<char>, mongo::logv2::RamLogSink, mongo::logv2::RamLogSink, mongo::logv2::UserAssertSink> >&&)+0x1a5>
 7ab2170:	eb e3                	jmp    7ab2155 <boost::detail::sp_if_not_array<boost::log::v2s_mt_posix::sinks::unlocked_sink<mongo::logv2::CompositeBackend<boost::log::v2s_mt_posix::sinks::basic_text_ostream_backend<char>, mongo::logv2::RamLogSink, mongo::logv2::RamLogSink, mongo::logv2::UserAssertSink> > >::type boost::make_shared<boost::log::v2s_mt_posix::sinks::unlocked_sink<mongo::logv2::CompositeBackend<boost::log::v2s_mt_posix::sinks::basic_text_ostream_backend<char>, mongo::logv2::RamLogSink, mongo::logv2::RamLogSink, mongo::logv2::UserAssertSink> >, boost::shared_ptr<mongo::logv2::CompositeBackend<boost::log::v2s_mt_posix::sinks::basic_text_ostream_backend<char>, mongo::logv2::RamLogSink, mongo::logv2::RamLogSink, mongo::logv2::UserAssertSink> > >(boost::shared_ptr<mongo::logv2::CompositeBackend<boost::log::v2s_mt_posix::sinks::basic_text_ostream_backend<char>, mongo::logv2::RamLogSink, mongo::logv2::RamLogSink, mongo::logv2::UserAssertSink> >&&)+0x195>
0000000007ab2190 <boost::detail::sp_if_not_array<boost::log::v2s_mt_posix::sinks::unlocked_sink<mongo::logv2::CompositeBackend<mongo::logv2::FileRotateSink> > >::type boost::make_shared<boost::log::v2s_mt_posix::sinks::unlocked_sink<mongo::logv2::CompositeBackend<mongo::logv2::FileRotateSink> >, boost::shared_ptr<mongo::logv2::CompositeBackend<mongo::logv2::FileRotateSink> >&>(boost::shared_ptr<mongo::logv2::CompositeBackend<mongo::logv2::FileRotateSink> >&)>:
 7ab21b4:	48 8d 05 4d ec 3f 00 	lea    0x3fec4d(%rip),%rax        # 7eb0e08 <vtable for boost::detail::sp_counted_impl_pd<boost::log::v2s_mt_posix::sinks::unlocked_sink<mongo::logv2::CompositeBackend<mongo::logv2::FileRotateSink> >*, boost::detail::sp_ms_deleter<boost::log::v2s_mt_posix::sinks::unlocked_sink<mongo::logv2::CompositeBackend<mongo::logv2::FileRotateSink> > > >+0x10>
 7ab21e0:	e8 3b a7 ff ff       	call   7aac920 <boost::detail::sp_counted_impl_pd<boost::log::v2s_mt_posix::sinks::unlocked_sink<mongo::logv2::CompositeBackend<mongo::logv2::FileRotateSink> >*, boost::detail::sp_ms_deleter<boost::log::v2s_mt_posix::sinks::unlocked_sink<mongo::logv2::CompositeBackend<mongo::logv2::FileRotateSink> > > >::get_untyped_deleter()>
 7ab22a3:	48 8d 05 f6 e5 3f 00 	lea    0x3fe5f6(%rip),%rax        # 7eb08a0 <vtable for boost::log::v2s_mt_posix::sinks::unlocked_sink<mongo::logv2::CompositeBackend<mongo::logv2::FileRotateSink> >+0x10>
 7ab22c6:	74 05                	je     7ab22cd <boost::detail::sp_if_not_array<boost::log::v2s_mt_posix::sinks::unlocked_sink<mongo::logv2::CompositeBackend<mongo::logv2::FileRotateSink> > >::type boost::make_shared<boost::log::v2s_mt_posix::sinks::unlocked_sink<mongo::logv2::CompositeBackend<mongo::logv2::FileRotateSink> >, boost::shared_ptr<mongo::logv2::CompositeBackend<mongo::logv2::FileRotateSink> >&>(boost::shared_ptr<mongo::logv2::CompositeBackend<mongo::logv2::FileRotateSink> >&)+0x13d>
 7ab2300:	eb 0a                	jmp    7ab230c <boost::detail::sp_if_not_array<boost::log::v2s_mt_posix::sinks::unlocked_sink<mongo::logv2::CompositeBackend<mongo::logv2::FileRotateSink> > >::type boost::make_shared<boost::log::v2s_mt_posix::sinks::unlocked_sink<mongo::logv2::CompositeBackend<mongo::logv2::FileRotateSink> >, boost::shared_ptr<mongo::logv2::CompositeBackend<mongo::logv2::FileRotateSink> >&>(boost::shared_ptr<mongo::logv2::CompositeBackend<mongo::logv2::FileRotateSink> >&)+0x17c>
 7ab2305:	eb 12                	jmp    7ab2319 <boost::detail::sp_if_not_array<boost::log::v2s_mt_posix::sinks::unlocked_sink<mongo::logv2::CompositeBackend<mongo::logv2::FileRotateSink> > >::type boost::make_shared<boost::log::v2s_mt_posix::sinks::unlocked_sink<mongo::logv2::CompositeBackend<mongo::logv2::FileRotateSink> >, boost::shared_ptr<mongo::logv2::CompositeBackend<mongo::logv2::FileRotateSink> >&>(boost::shared_ptr<mongo::logv2::CompositeBackend<mongo::logv2::FileRotateSink> >&)+0x189>
 7ab230a:	eb 29                	jmp    7ab2335 <boost::detail::sp_if_not_array<boost::log::v2s_mt_posix::sinks::unlocked_sink<mongo::logv2::CompositeBackend<mongo::logv2::FileRotateSink> > >::type boost::make_shared<boost::log::v2s_mt_posix::sinks::unlocked_sink<mongo::logv2::CompositeBackend<mongo::logv2::FileRotateSink> >, boost::shared_ptr<mongo::logv2::CompositeBackend<mongo::logv2::FileRotateSink> >&>(boost::shared_ptr<mongo::logv2::CompositeBackend<mongo::logv2::FileRotateSink> >&)+0x1a5>
 7ab2340:	eb e3                	jmp    7ab2325 <boost::detail::sp_if_not_array<boost::log::v2s_mt_posix::sinks::unlocked_sink<mongo::logv2::CompositeBackend<mongo::logv2::FileRotateSink> > >::type boost::make_shared<boost::log::v2s_mt_posix::sinks::unlocked_sink<mongo::logv2::CompositeBackend<mongo::logv2::FileRotateSink> >, boost::shared_ptr<mongo::logv2::CompositeBackend<mongo::logv2::FileRotateSink> >&>(boost::shared_ptr<mongo::logv2::CompositeBackend<mongo::logv2::FileRotateSink> >&)+0x195>
 7ab5842:	e8 29 da 26 00       	call   7d23270 <pthread_rwlock_unlock@plt>
 7ab58ee:	e8 cd d0 26 00       	call   7d229c0 <pthread_mutex_unlock@plt>
 7ab5af7:	e8 74 d7 26 00       	call   7d23270 <pthread_rwlock_unlock@plt>
 7ab5b0b:	e8 b0 ce 26 00       	call   7d229c0 <pthread_mutex_unlock@plt>
 7ab5b4b:	e8 20 d7 26 00       	call   7d23270 <pthread_rwlock_unlock@plt>
 7ab5b8e:	e8 dd d6 26 00       	call   7d23270 <pthread_rwlock_unlock@plt>
0000000007ab5ba0 <boost::log::v2s_mt_posix::sinks::unlocked_sink<mongo::logv2::CompositeBackend<mongo::logv2::FileRotateSink, mongo::logv2::RamLogSink, mongo::logv2::RamLogSink, mongo::logv2::UserAssertSink> >::consume(boost::log::v2s_mt_posix::record_view const&)>:
 7ab5bd1:	75 02                	jne    7ab5bd5 <boost::log::v2s_mt_posix::sinks::unlocked_sink<mongo::logv2::CompositeBackend<mongo::logv2::FileRotateSink, mongo::logv2::RamLogSink, mongo::logv2::RamLogSink, mongo::logv2::UserAssertSink> >::consume(boost::log::v2s_mt_posix::record_view const&)+0x35>
 7ab5c62:	e8 09 d6 26 00       	call   7d23270 <pthread_rwlock_unlock@plt>
 7ab5d0e:	e8 ad cc 26 00       	call   7d229c0 <pthread_mutex_unlock@plt>
 7ab5f17:	e8 54 d3 26 00       	call   7d23270 <pthread_rwlock_unlock@plt>
 7ab5f2b:	e8 90 ca 26 00       	call   7d229c0 <pthread_mutex_unlock@plt>
 7ab5f6b:	e8 00 d3 26 00       	call   7d23270 <pthread_rwlock_unlock@plt>
 7ab5fae:	e8 bd d2 26 00       	call   7d23270 <pthread_rwlock_unlock@plt>
0000000007ab5fc0 <boost::log::v2s_mt_posix::sinks::unlocked_sink<mongo::logv2::CompositeBackend<boost::log::v2s_mt_posix::sinks::syslog_backend, mongo::logv2::RamLogSink, mongo::logv2::RamLogSink, mongo::logv2::UserAssertSink> >::consume(boost::log::v2s_mt_posix::record_view const&)>:
 7ab5ff1:	75 02                	jne    7ab5ff5 <boost::log::v2s_mt_posix::sinks::unlocked_sink<mongo::logv2::CompositeBackend<boost::log::v2s_mt_posix::sinks::syslog_backend, mongo::logv2::RamLogSink, mongo::logv2::RamLogSink, mongo::logv2::UserAssertSink> >::consume(boost::log::v2s_mt_posix::record_view const&)+0x35>
 7ab6082:	e8 e9 d1 26 00       	call   7d23270 <pthread_rwlock_unlock@plt>
 7ab612e:	e8 8d c8 26 00       	call   7d229c0 <pthread_mutex_unlock@plt>
 7ab6337:	e8 34 cf 26 00       	call   7d23270 <pthread_rwlock_unlock@plt>
 7ab634b:	e8 70 c6 26 00       	call   7d229c0 <pthread_mutex_unlock@plt>
 7ab638b:	e8 e0 ce 26 00       	call   7d23270 <pthread_rwlock_unlock@plt>
 7ab63ce:	e8 9d ce 26 00       	call   7d23270 <pthread_rwlock_unlock@plt>
0000000007ab63e0 <boost::log::v2s_mt_posix::sinks::unlocked_sink<mongo::logv2::CompositeBackend<boost::log::v2s_mt_posix::sinks::basic_text_ostream_backend<char>, mongo::logv2::RamLogSink, mongo::logv2::RamLogSink, mongo::logv2::UserAssertSink> >::consume(boost::log::v2s_mt_posix::record_view const&)>:
 7ab6411:	75 02                	jne    7ab6415 <boost::log::v2s_mt_posix::sinks::unlocked_sink<mongo::logv2::CompositeBackend<boost::log::v2s_mt_posix::sinks::basic_text_ostream_backend<char>, mongo::logv2::RamLogSink, mongo::logv2::RamLogSink, mongo::logv2::UserAssertSink> >::consume(boost::log::v2s_mt_posix::record_view const&)+0x35>
 7ab64a0:	e8 cb cd 26 00       	call   7d23270 <pthread_rwlock_unlock@plt>
 7ab6536:	e8 85 c4 26 00       	call   7d229c0 <pthread_mutex_unlock@plt>
 7ab6687:	e8 e4 cb 26 00       	call   7d23270 <pthread_rwlock_unlock@plt>
 7ab669a:	e8 21 c3 26 00       	call   7d229c0 <pthread_mutex_unlock@plt>
 7ab66da:	e8 91 cb 26 00       	call   7d23270 <pthread_rwlock_unlock@plt>
 7ab671d:	e8 4e cb 26 00       	call   7d23270 <pthread_rwlock_unlock@plt>
0000000007ab6730 <boost::log::v2s_mt_posix::sinks::unlocked_sink<mongo::logv2::CompositeBackend<mongo::logv2::FileRotateSink> >::consume(boost::log::v2s_mt_posix::record_view const&)>:
 7ab6761:	75 02                	jne    7ab6765 <boost::log::v2s_mt_posix::sinks::unlocked_sink<mongo::logv2::CompositeBackend<mongo::logv2::FileRotateSink> >::consume(boost::log::v2s_mt_posix::record_view const&)+0x35>
 7abe138:	e8 83 48 26 00       	call   7d229c0 <pthread_mutex_unlock@plt>
 7abe182:	e8 39 48 26 00       	call   7d229c0 <pthread_mutex_unlock@plt>
 7abe1fe:	e8 bd 47 26 00       	call   7d229c0 <pthread_mutex_unlock@plt>
 7abe28c:	e8 2f 47 26 00       	call   7d229c0 <pthread_mutex_unlock@plt>
 7abe3d2:	e8 e9 45 26 00       	call   7d229c0 <pthread_mutex_unlock@plt>
 7abe3f8:	e8 c3 45 26 00       	call   7d229c0 <pthread_mutex_unlock@plt>
 7abe474:	e8 47 45 26 00       	call   7d229c0 <pthread_mutex_unlock@plt>
 7abe522:	e8 99 44 26 00       	call   7d229c0 <pthread_mutex_unlock@plt>
 7abe656:	e9 65 43 26 00       	jmp    7d229c0 <pthread_mutex_unlock@plt>
 7abe79c:	e9 1f 42 26 00       	jmp    7d229c0 <pthread_mutex_unlock@plt>
 7abe9ac:	e8 0f 40 26 00       	call   7d229c0 <pthread_mutex_unlock@plt>
 7abea22:	e9 99 3f 26 00       	jmp    7d229c0 <pthread_mutex_unlock@plt>
 7abecd1:	e8 ea 3c 26 00       	call   7d229c0 <pthread_mutex_unlock@plt>
 7abf15c:	e8 5f 38 26 00       	call   7d229c0 <pthread_mutex_unlock@plt>
 7abf19d:	e8 1e 38 26 00       	call   7d229c0 <pthread_mutex_unlock@plt>
 7abf217:	e8 a4 37 26 00       	call   7d229c0 <pthread_mutex_unlock@plt>
0000000007ac5180 <mongo::latch_detail::Mutex::unlock()>:
 7ac519e:	e9 1d d8 25 00       	jmp    7d229c0 <pthread_mutex_unlock@plt>
 7ad0780:	e9 3b 22 25 00       	jmp    7d229c0 <pthread_mutex_unlock@plt>
 7ad0a71:	e8 4a 1f 25 00       	call   7d229c0 <pthread_mutex_unlock@plt>
 7ad0c5b:	e8 60 1d 25 00       	call   7d229c0 <pthread_mutex_unlock@plt>
 7ad0dc4:	e8 f7 1b 25 00       	call   7d229c0 <pthread_mutex_unlock@plt>
 7ad0dfb:	e8 c0 1b 25 00       	call   7d229c0 <pthread_mutex_unlock@plt>
 7ad0eae:	e8 0d 1b 25 00       	call   7d229c0 <pthread_mutex_unlock@plt>
 7ad0f26:	e8 95 1a 25 00       	call   7d229c0 <pthread_mutex_unlock@plt>
 7ad0f3f:	e8 4c e4 f9 fb       	call   3a6f390 <std::unique_lock<std::mutex>::unlock()>
 7ad1343:	e8 48 e0 f9 fb       	call   3a6f390 <std::unique_lock<std::mutex>::unlock()>
 7ad14d5:	e8 b6 de f9 fb       	call   3a6f390 <std::unique_lock<std::mutex>::unlock()>
 7ad14e5:	e8 d6 14 25 00       	call   7d229c0 <pthread_mutex_unlock@plt>
 7ad65d2:	e9 e9 c3 24 00       	jmp    7d229c0 <pthread_mutex_unlock@plt>
 7ad6709:	e9 b2 c2 24 00       	jmp    7d229c0 <pthread_mutex_unlock@plt>
 7ad6cc7:	e9 f4 bc 24 00       	jmp    7d229c0 <pthread_mutex_unlock@plt>
 7ad6efe:	e8 8d 84 f9 fb       	call   3a6f390 <std::unique_lock<std::mutex>::unlock()>
 7ad6f21:	e8 6a 84 f9 fb       	call   3a6f390 <std::unique_lock<std::mutex>::unlock()>
 7ad6f44:	e8 47 84 f9 fb       	call   3a6f390 <std::unique_lock<std::mutex>::unlock()>
 7ad700b:	e8 80 83 f9 fb       	call   3a6f390 <std::unique_lock<std::mutex>::unlock()>
 7adec9a:	e8 21 3d 24 00       	call   7d229c0 <pthread_mutex_unlock@plt>
 7ae47f6:	e8 c5 e1 23 00       	call   7d229c0 <pthread_mutex_unlock@plt>
 7ae5547:	e8 74 d4 23 00       	call   7d229c0 <pthread_mutex_unlock@plt>
 7ae563d:	e8 4e 9d f8 fb       	call   3a6f390 <std::unique_lock<std::mutex>::unlock()>
 7af3e63:	e8 58 eb 22 00       	call   7d229c0 <pthread_mutex_unlock@plt>
 7af4b99:	e8 22 de 22 00       	call   7d229c0 <pthread_mutex_unlock@plt>
 7bacc4c:	e8 1f 66 17 00       	call   7d23270 <pthread_rwlock_unlock@plt>
 7bad6f7:	e8 74 5b 17 00       	call   7d23270 <pthread_rwlock_unlock@plt>
 7bad72e:	e8 3d 5b 17 00       	call   7d23270 <pthread_rwlock_unlock@plt>
 7bad7eb:	e8 80 5a 17 00       	call   7d23270 <pthread_rwlock_unlock@plt>
 7bade74:	e8 f7 53 17 00       	call   7d23270 <pthread_rwlock_unlock@plt>
 7bb2f6f:	e9 fc 02 17 00       	jmp    7d23270 <pthread_rwlock_unlock@plt>
 7bb30ed:	e9 7e 01 17 00       	jmp    7d23270 <pthread_rwlock_unlock@plt>
 7bb314b:	e8 20 01 17 00       	call   7d23270 <pthread_rwlock_unlock@plt>
 7bb31aa:	e9 c1 00 17 00       	jmp    7d23270 <pthread_rwlock_unlock@plt>
 7bb31e0:	e8 8b 00 17 00       	call   7d23270 <pthread_rwlock_unlock@plt>
 7bb3277:	e9 f4 ff 16 00       	jmp    7d23270 <pthread_rwlock_unlock@plt>
 7bb32e0:	e9 8b ff 16 00       	jmp    7d23270 <pthread_rwlock_unlock@plt>
 7bb3358:	e9 13 ff 16 00       	jmp    7d23270 <pthread_rwlock_unlock@plt>
 7bb33c6:	e9 a5 fe 16 00       	jmp    7d23270 <pthread_rwlock_unlock@plt>
 7bb342d:	e9 3e fe 16 00       	jmp    7d23270 <pthread_rwlock_unlock@plt>
 7bb344d:	e9 1e fe 16 00       	jmp    7d23270 <pthread_rwlock_unlock@plt>
 7bb38d8:	e8 93 f9 16 00       	call   7d23270 <pthread_rwlock_unlock@plt>
 7bb3929:	e8 42 f9 16 00       	call   7d23270 <pthread_rwlock_unlock@plt>
 7bb3ab8:	e8 b3 f7 16 00       	call   7d23270 <pthread_rwlock_unlock@plt>
 7bb3b09:	e8 62 f7 16 00       	call   7d23270 <pthread_rwlock_unlock@plt>
 7bb3c98:	e8 d3 f5 16 00       	call   7d23270 <pthread_rwlock_unlock@plt>
 7bb3ce9:	e8 82 f5 16 00       	call   7d23270 <pthread_rwlock_unlock@plt>
 7bb44fe:	e9 6d ed 16 00       	jmp    7d23270 <pthread_rwlock_unlock@plt>
 7bb46f2:	e8 79 eb 16 00       	call   7d23270 <pthread_rwlock_unlock@plt>
 7bb4706:	e8 65 eb 16 00       	call   7d23270 <pthread_rwlock_unlock@plt>
 7bb471a:	e8 51 eb 16 00       	call   7d23270 <pthread_rwlock_unlock@plt>
 7bb472e:	e8 3d eb 16 00       	call   7d23270 <pthread_rwlock_unlock@plt>
 7bb4742:	e8 29 eb 16 00       	call   7d23270 <pthread_rwlock_unlock@plt>
 7bb4756:	e8 15 eb 16 00       	call   7d23270 <pthread_rwlock_unlock@plt>
 7bb47f8:	e8 73 ea 16 00       	call   7d23270 <pthread_rwlock_unlock@plt>
 7bb4da7:	e8 c4 e4 16 00       	call   7d23270 <pthread_rwlock_unlock@plt>
 7bb4df4:	e8 77 e4 16 00       	call   7d23270 <pthread_rwlock_unlock@plt>
 7bb4e5a:	e8 11 e4 16 00       	call   7d23270 <pthread_rwlock_unlock@plt>
 7bb4e98:	e8 d3 e3 16 00       	call   7d23270 <pthread_rwlock_unlock@plt>
 7bb4eb0:	e8 bb e3 16 00       	call   7d23270 <pthread_rwlock_unlock@plt>
 7bb5473:	e9 f8 dd 16 00       	jmp    7d23270 <pthread_rwlock_unlock@plt>
 7bb57d0:	e9 9b da 16 00       	jmp    7d23270 <pthread_rwlock_unlock@plt>
 7bb5898:	e9 d3 d9 16 00       	jmp    7d23270 <pthread_rwlock_unlock@plt>
 7bb5924:	e8 47 d9 16 00       	call   7d23270 <pthread_rwlock_unlock@plt>
 7bbfd1b:	e8 a0 2c 16 00       	call   7d229c0 <pthread_mutex_unlock@plt>
 7bbfe9b:	e8 20 2b 16 00       	call   7d229c0 <pthread_mutex_unlock@plt>
 7bc0e03:	e8 b8 1b 16 00       	call   7d229c0 <pthread_mutex_unlock@plt>
 7bd4803:	e8 b8 e1 14 00       	call   7d229c0 <pthread_mutex_unlock@plt>
 7bd4879:	e8 42 e1 14 00       	call   7d229c0 <pthread_mutex_unlock@plt>
 7bd543f:	e8 7c d5 14 00       	call   7d229c0 <pthread_mutex_unlock@plt>
 7bdc8ac:	e8 0f 61 14 00       	call   7d229c0 <pthread_mutex_unlock@plt>
 7bdc8c7:	e8 f4 60 14 00       	call   7d229c0 <pthread_mutex_unlock@plt>
 7bdc902:	e8 b9 60 14 00       	call   7d229c0 <pthread_mutex_unlock@plt>
 7bdc942:	e8 79 60 14 00       	call   7d229c0 <pthread_mutex_unlock@plt>
 7be4537:	e8 84 e4 13 00       	call   7d229c0 <pthread_mutex_unlock@plt>
 7be5063:	e8 58 d9 13 00       	call   7d229c0 <pthread_mutex_unlock@plt>
 7be5f23:	e8 98 ca 13 00       	call   7d229c0 <pthread_mutex_unlock@plt>
 7be6173:	e8 48 c8 13 00       	call   7d229c0 <pthread_mutex_unlock@plt>
 7be7bce:	e8 ed ad 13 00       	call   7d229c0 <pthread_mutex_unlock@plt>
 7be7c05:	e8 b6 ad 13 00       	call   7d229c0 <pthread_mutex_unlock@plt>
 7be7d0f:	e8 ac ac 13 00       	call   7d229c0 <pthread_mutex_unlock@plt>
 7be88cc:	e8 ef a0 13 00       	call   7d229c0 <pthread_mutex_unlock@plt>
 7be88ea:	e8 d1 a0 13 00       	call   7d229c0 <pthread_mutex_unlock@plt>
 7be9bd4:	e8 e7 8d 13 00       	call   7d229c0 <pthread_mutex_unlock@plt>
 7be9e55:	e8 66 8b 13 00       	call   7d229c0 <pthread_mutex_unlock@plt>
 7be9e7e:	e9 3d 8b 13 00       	jmp    7d229c0 <pthread_mutex_unlock@plt>
 7be9e93:	e8 28 8b 13 00       	call   7d229c0 <pthread_mutex_unlock@plt>
 7bea0b0:	e8 0b 89 13 00       	call   7d229c0 <pthread_mutex_unlock@plt>
 7bea0dd:	e8 de 88 13 00       	call   7d229c0 <pthread_mutex_unlock@plt>
 7bea2f2:	e8 c9 86 13 00       	call   7d229c0 <pthread_mutex_unlock@plt>
 7bea32e:	e8 8d 86 13 00       	call   7d229c0 <pthread_mutex_unlock@plt>
 7bea379:	e8 42 86 13 00       	call   7d229c0 <pthread_mutex_unlock@plt>
 7bea3c9:	e8 f2 85 13 00       	call   7d229c0 <pthread_mutex_unlock@plt>
 7bea6a0:	e9 1b 83 13 00       	jmp    7d229c0 <pthread_mutex_unlock@plt>
 7bea6b4:	e8 07 83 13 00       	call   7d229c0 <pthread_mutex_unlock@plt>
 7beaa10:	e8 ab 7f 13 00       	call   7d229c0 <pthread_mutex_unlock@plt>
 7beaa82:	e8 39 7f 13 00       	call   7d229c0 <pthread_mutex_unlock@plt>
 7beadd3:	e8 e8 7b 13 00       	call   7d229c0 <pthread_mutex_unlock@plt>
 7beae37:	e8 84 7b 13 00       	call   7d229c0 <pthread_mutex_unlock@plt>
 7beb01b:	e8 a0 79 13 00       	call   7d229c0 <pthread_mutex_unlock@plt>
 7beb084:	e8 37 79 13 00       	call   7d229c0 <pthread_mutex_unlock@plt>
 7beb33c:	e8 7f 76 13 00       	call   7d229c0 <pthread_mutex_unlock@plt>
 7beb39b:	e9 20 76 13 00       	jmp    7d229c0 <pthread_mutex_unlock@plt>
 7beb3ea:	e8 d1 75 13 00       	call   7d229c0 <pthread_mutex_unlock@plt>
 7beb4f1:	e8 ca 74 13 00       	call   7d229c0 <pthread_mutex_unlock@plt>
 7beb553:	e9 68 74 13 00       	jmp    7d229c0 <pthread_mutex_unlock@plt>
 7beb5b0:	e8 0b 74 13 00       	call   7d229c0 <pthread_mutex_unlock@plt>
 7beb912:	e8 a9 70 13 00       	call   7d229c0 <pthread_mutex_unlock@plt>
 7beb984:	e8 37 70 13 00       	call   7d229c0 <pthread_mutex_unlock@plt>
 7beb992:	e8 29 70 13 00       	call   7d229c0 <pthread_mutex_unlock@plt>
 7beb9b8:	e8 03 70 13 00       	call   7d229c0 <pthread_mutex_unlock@plt>
 7bebd88:	e8 33 6c 13 00       	call   7d229c0 <pthread_mutex_unlock@plt>
 7bebedb:	e8 e0 6a 13 00       	call   7d229c0 <pthread_mutex_unlock@plt>
 7bebef8:	e8 c3 6a 13 00       	call   7d229c0 <pthread_mutex_unlock@plt>
 7bebf32:	e8 89 6a 13 00       	call   7d229c0 <pthread_mutex_unlock@plt>
 7bebfef:	e8 cc 69 13 00       	call   7d229c0 <pthread_mutex_unlock@plt>
 7becab0:	e8 0b 5f 13 00       	call   7d229c0 <pthread_mutex_unlock@plt>
 7becd17:	e9 a4 5c 13 00       	jmp    7d229c0 <pthread_mutex_unlock@plt>
 7becd20:	e8 9b 5c 13 00       	call   7d229c0 <pthread_mutex_unlock@plt>
 7bed0f3:	e8 c8 58 13 00       	call   7d229c0 <pthread_mutex_unlock@plt>
 7bed139:	e8 82 58 13 00       	call   7d229c0 <pthread_mutex_unlock@plt>
 7bed997:	e8 24 50 13 00       	call   7d229c0 <pthread_mutex_unlock@plt>
 7bedd7b:	e8 40 4c 13 00       	call   7d229c0 <pthread_mutex_unlock@plt>
 7bedd8f:	e8 2c 4c 13 00       	call   7d229c0 <pthread_mutex_unlock@plt>
 7bedec9:	e8 f2 4a 13 00       	call   7d229c0 <pthread_mutex_unlock@plt>
 7beea13:	e8 a8 3f 13 00       	call   7d229c0 <pthread_mutex_unlock@plt>
 7beebb0:	e8 0b 3e 13 00       	call   7d229c0 <pthread_mutex_unlock@plt>
 7beef5c:	e8 5f 3a 13 00       	call   7d229c0 <pthread_mutex_unlock@plt>
 7bef21b:	e8 a0 37 13 00       	call   7d229c0 <pthread_mutex_unlock@plt>
 7bf3563:	e8 58 f4 12 00       	call   7d229c0 <pthread_mutex_unlock@plt>
 7bf3893:	e8 28 f1 12 00       	call   7d229c0 <pthread_mutex_unlock@plt>
 7bf38b3:	e8 08 f1 12 00       	call   7d229c0 <pthread_mutex_unlock@plt>
 7bf454b:	e8 70 e4 12 00       	call   7d229c0 <pthread_mutex_unlock@plt>
 7bf6ff3:	e8 c8 b9 12 00       	call   7d229c0 <pthread_mutex_unlock@plt>
 7bfd1d0:	e8 eb 57 12 00       	call   7d229c0 <pthread_mutex_unlock@plt>
 7bfd23f:	e9 7c 57 12 00       	jmp    7d229c0 <pthread_mutex_unlock@plt>
 7bffb06:	e8 b5 2e 12 00       	call   7d229c0 <pthread_mutex_unlock@plt>
 7bffb23:	e8 98 2e 12 00       	call   7d229c0 <pthread_mutex_unlock@plt>
 7bffba0:	e8 1b 2e 12 00       	call   7d229c0 <pthread_mutex_unlock@plt>
 7bffbf0:	e8 cb 2d 12 00       	call   7d229c0 <pthread_mutex_unlock@plt>
 7c010e3:	e8 d8 18 12 00       	call   7d229c0 <pthread_mutex_unlock@plt>
 7c01123:	e8 98 18 12 00       	call   7d229c0 <pthread_mutex_unlock@plt>
 7c011b3:	e8 08 18 12 00       	call   7d229c0 <pthread_mutex_unlock@plt>
 7c011c3:	e8 f8 17 12 00       	call   7d229c0 <pthread_mutex_unlock@plt>
 7c01253:	e8 68 17 12 00       	call   7d229c0 <pthread_mutex_unlock@plt>
 7c012db:	e8 e0 16 12 00       	call   7d229c0 <pthread_mutex_unlock@plt>
 7c013a3:	e8 18 16 12 00       	call   7d229c0 <pthread_mutex_unlock@plt>
 7c013fb:	e8 c0 15 12 00       	call   7d229c0 <pthread_mutex_unlock@plt>
 7c014f3:	e8 c8 14 12 00       	call   7d229c0 <pthread_mutex_unlock@plt>
 7c01503:	e8 b8 14 12 00       	call   7d229c0 <pthread_mutex_unlock@plt>
 7c01ab3:	e8 08 0f 12 00       	call   7d229c0 <pthread_mutex_unlock@plt>
 7c01ae3:	e8 d8 0e 12 00       	call   7d229c0 <pthread_mutex_unlock@plt>
 7c01b8b:	e8 30 0e 12 00       	call   7d229c0 <pthread_mutex_unlock@plt>
 7c01bd3:	e8 e8 0d 12 00       	call   7d229c0 <pthread_mutex_unlock@plt>
 7c01c03:	e8 b8 0d 12 00       	call   7d229c0 <pthread_mutex_unlock@plt>
 7c01f63:	e8 58 0a 12 00       	call   7d229c0 <pthread_mutex_unlock@plt>
 7c01f73:	e8 48 0a 12 00       	call   7d229c0 <pthread_mutex_unlock@plt>
 7c01fe3:	e8 d8 09 12 00       	call   7d229c0 <pthread_mutex_unlock@plt>
 7c021d3:	e8 e8 07 12 00       	call   7d229c0 <pthread_mutex_unlock@plt>
 7c0220b:	e8 b0 07 12 00       	call   7d229c0 <pthread_mutex_unlock@plt>
 7c0224b:	e8 70 07 12 00       	call   7d229c0 <pthread_mutex_unlock@plt>
 7c0228b:	e8 30 07 12 00       	call   7d229c0 <pthread_mutex_unlock@plt>
 7c022fb:	e8 c0 06 12 00       	call   7d229c0 <pthread_mutex_unlock@plt>
 7c02308:	e8 b3 06 12 00       	call   7d229c0 <pthread_mutex_unlock@plt>
 7c023f3:	e8 c8 05 12 00       	call   7d229c0 <pthread_mutex_unlock@plt>
 7c0240b:	e8 b0 05 12 00       	call   7d229c0 <pthread_mutex_unlock@plt>
 7c024bb:	e8 00 05 12 00       	call   7d229c0 <pthread_mutex_unlock@plt>
 7c02503:	e8 b8 04 12 00       	call   7d229c0 <pthread_mutex_unlock@plt>
 7c03dbc:	e8 9f 25 00 00       	call   7c06360 <boost::detail::interruption_checker::unlock_if_locked()>
 7c0457b:	e8 40 e4 11 00       	call   7d229c0 <pthread_mutex_unlock@plt>
0000000007c061e0 <boost::unique_lock<boost::mutex>::unlock()>:
 7c06202:	74 39                	je     7c0623d <boost::unique_lock<boost::mutex>::unlock()+0x5d>
 7c0620b:	74 60                	je     7c0626d <boost::unique_lock<boost::mutex>::unlock()+0x8d>
 7c06213:	e8 a8 c7 11 00       	call   7d229c0 <pthread_mutex_unlock@plt>
 7c0621b:	74 f3                	je     7c06210 <boost::unique_lock<boost::mutex>::unlock()+0x30>
 7c06230:	75 36                	jne    7c06268 <boost::unique_lock<boost::mutex>::unlock()+0x88>
 7c0629b:	eb 02                	jmp    7c0629f <boost::unique_lock<boost::mutex>::unlock()+0xbf>
 7c0629d:	eb f9                	jmp    7c06298 <boost::unique_lock<boost::mutex>::unlock()+0xb8>
0000000007c06360 <boost::detail::interruption_checker::unlock_if_locked()>:
 7c06364:	0f 85 96 00 00 00    	jne    7c06400 <boost::detail::interruption_checker::unlock_if_locked()+0xa0>
 7c0637c:	74 62                	je     7c063e0 <boost::detail::interruption_checker::unlock_if_locked()+0x80>
 7c06383:	e8 38 c6 11 00       	call   7d229c0 <pthread_mutex_unlock@plt>
 7c0638b:	74 f3                	je     7c06380 <boost::detail::interruption_checker::unlock_if_locked()+0x20>
 7c063c3:	e8 f8 c5 11 00       	call   7d229c0 <pthread_mutex_unlock@plt>
 7c063cb:	74 f3                	je     7c063c0 <boost::detail::interruption_checker::unlock_if_locked()+0x60>
 7c063e3:	e8 d8 c5 11 00       	call   7d229c0 <pthread_mutex_unlock@plt>
 7c063eb:	75 e0                	jne    7c063cd <boost::detail::interruption_checker::unlock_if_locked()+0x6d>
 7c063f0:	e8 cb c5 11 00       	call   7d229c0 <pthread_mutex_unlock@plt>
 7c063f8:	74 e6                	je     7c063e0 <boost::detail::interruption_checker::unlock_if_locked()+0x80>
 7c063fa:	eb d1                	jmp    7c063cd <boost::detail::interruption_checker::unlock_if_locked()+0x6d>
 7c06773:	e8 48 c2 11 00       	call   7d229c0 <pthread_mutex_unlock@plt>
 7c06780:	e8 3b c2 11 00       	call   7d229c0 <pthread_mutex_unlock@plt>
 7c067b7:	e8 24 fa ff ff       	call   7c061e0 <boost::unique_lock<boost::mutex>::unlock()>
 7c067e3:	e8 d8 c1 11 00       	call   7d229c0 <pthread_mutex_unlock@plt>
 7c06813:	e8 a8 c1 11 00       	call   7d229c0 <pthread_mutex_unlock@plt>
 7c06833:	e8 28 fb ff ff       	call   7c06360 <boost::detail::interruption_checker::unlock_if_locked()>
 7c0686b:	e8 50 c1 11 00       	call   7d229c0 <pthread_mutex_unlock@plt>
 7c06878:	e8 43 c1 11 00       	call   7d229c0 <pthread_mutex_unlock@plt>
 7c06909:	e8 52 fa ff ff       	call   7c06360 <boost::detail::interruption_checker::unlock_if_locked()>
 7c2f24d:	e9 6e 37 0f 00       	jmp    7d229c0 <pthread_mutex_unlock@plt>
 7c2f716:	e8 a5 32 0f 00       	call   7d229c0 <pthread_mutex_unlock@plt>
 7c2f753:	e8 68 32 0f 00       	call   7d229c0 <pthread_mutex_unlock@plt>
 7c2f7da:	e8 e1 31 0f 00       	call   7d229c0 <pthread_mutex_unlock@plt>
 7c2f83b:	e8 80 31 0f 00       	call   7d229c0 <pthread_mutex_unlock@plt>
 7c2f92f:	e8 8c 30 0f 00       	call   7d229c0 <pthread_mutex_unlock@plt>
 7c2f9e8:	e8 d3 2f 0f 00       	call   7d229c0 <pthread_mutex_unlock@plt>
 7c6e667:	48 83 3d 91 1b 25 00 	cmpq   $0x0,0x251b91(%rip)        # 7ec0200 <pthread_mutex_unlock@GLIBC_2.2.5>
 7c6e674:	e8 47 43 0b 00       	call   7d229c0 <pthread_mutex_unlock@plt>
 7c6f878:	48 83 3d 80 09 25 00 	cmpq   $0x0,0x250980(%rip)        # 7ec0200 <pthread_mutex_unlock@GLIBC_2.2.5>
 7c6f889:	e8 32 31 0b 00       	call   7d229c0 <pthread_mutex_unlock@plt>
 7c6f914:	48 83 3d e4 08 25 00 	cmpq   $0x0,0x2508e4(%rip)        # 7ec0200 <pthread_mutex_unlock@GLIBC_2.2.5>
 7c6f931:	e9 8a 30 0b 00       	jmp    7d229c0 <pthread_mutex_unlock@plt>
 7c701f4:	48 83 3d 04 00 25 00 	cmpq   $0x0,0x250004(%rip)        # 7ec0200 <pthread_mutex_unlock@GLIBC_2.2.5>
 7c7020e:	e8 ad 27 0b 00       	call   7d229c0 <pthread_mutex_unlock@plt>
 7c702c0:	48 83 3d 38 ff 24 00 	cmpq   $0x0,0x24ff38(%rip)        # 7ec0200 <pthread_mutex_unlock@GLIBC_2.2.5>
 7c702d2:	e8 e9 26 0b 00       	call   7d229c0 <pthread_mutex_unlock@plt>
 7c71060:	48 83 3d 98 f1 24 00 	cmpq   $0x0,0x24f198(%rip)        # 7ec0200 <pthread_mutex_unlock@GLIBC_2.2.5>
 7c71071:	e8 4a 19 0b 00       	call   7d229c0 <pthread_mutex_unlock@plt>
 7c729db:	48 83 3d 1d d8 24 00 	cmpq   $0x0,0x24d81d(%rip)        # 7ec0200 <pthread_mutex_unlock@GLIBC_2.2.5>
 7c729ec:	e8 cf ff 0a 00       	call   7d229c0 <pthread_mutex_unlock@plt>
0000000007c7ccb0 <__gnu_cxx::__concurrence_unlock_error::what() const>:
0000000007c7cce0 <__gnu_cxx::__concurrence_unlock_error::~__concurrence_unlock_error()>:
 7c7cce4:	48 8d 05 8d c2 23 00 	lea    0x23c28d(%rip),%rax        # 7eb8f78 <vtable for __gnu_cxx::__concurrence_unlock_error>
0000000007c7cd30 <__gnu_cxx::__concurrence_unlock_error::~__concurrence_unlock_error()>:
 7c7cd34:	48 8d 05 3d c2 23 00 	lea    0x23c23d(%rip),%rax        # 7eb8f78 <vtable for __gnu_cxx::__concurrence_unlock_error>
0000000007c7cd8c <__gnu_cxx::__throw_concurrence_unlock_error()>:
 7c7cd9b:	48 8d 15 3e ff ff ff 	lea    -0xc2(%rip),%rdx        # 7c7cce0 <__gnu_cxx::__concurrence_unlock_error::~__concurrence_unlock_error()>
 7c7cda2:	48 8d 35 8f c1 23 00 	lea    0x23c18f(%rip),%rsi        # 7eb8f38 <typeinfo for __gnu_cxx::__concurrence_unlock_error>
 7c7cdac:	48 8d 05 c5 c1 23 00 	lea    0x23c1c5(%rip),%rax        # 7eb8f78 <vtable for __gnu_cxx::__concurrence_unlock_error>
 7c7cdc0:	e8 c7 ff ff ff       	call   7c7cd8c <__gnu_cxx::__throw_concurrence_unlock_error()>
 7c7ce86:	e8 35 5b 0a 00       	call   7d229c0 <pthread_mutex_unlock@plt>
 7c7cee1:	e8 a6 fe ff ff       	call   7c7cd8c <__gnu_cxx::__throw_concurrence_unlock_error()>
 7c7cf76:	e8 45 5a 0a 00       	call   7d229c0 <pthread_mutex_unlock@plt>
 7c8069b:	e8 20 23 0a 00       	call   7d229c0 <pthread_mutex_unlock@plt>
 7c806b3:	48 8d 15 26 c6 ff ff 	lea    -0x39da(%rip),%rdx        # 7c7cce0 <__gnu_cxx::__concurrence_unlock_error::~__concurrence_unlock_error()>
 7c806ba:	48 8d 35 77 88 23 00 	lea    0x238877(%rip),%rsi        # 7eb8f38 <typeinfo for __gnu_cxx::__concurrence_unlock_error>
 7c806c4:	48 8d 05 ad 88 23 00 	lea    0x2388ad(%rip),%rax        # 7eb8f78 <vtable for __gnu_cxx::__concurrence_unlock_error>
 7c809f2:	48 8d 15 e7 c2 ff ff 	lea    -0x3d19(%rip),%rdx        # 7c7cce0 <__gnu_cxx::__concurrence_unlock_error::~__concurrence_unlock_error()>
 7c809f9:	48 8d 35 38 85 23 00 	lea    0x238538(%rip),%rsi        # 7eb8f38 <typeinfo for __gnu_cxx::__concurrence_unlock_error>
 7c80a03:	48 8d 05 6e 85 23 00 	lea    0x23856e(%rip),%rax        # 7eb8f78 <vtable for __gnu_cxx::__concurrence_unlock_error>
 7c80a25:	48 8d 15 b4 c2 ff ff 	lea    -0x3d4c(%rip),%rdx        # 7c7cce0 <__gnu_cxx::__concurrence_unlock_error::~__concurrence_unlock_error()>
 7c80a2c:	48 8d 35 05 85 23 00 	lea    0x238505(%rip),%rsi        # 7eb8f38 <typeinfo for __gnu_cxx::__concurrence_unlock_error>
 7c80a36:	48 8d 05 3b 85 23 00 	lea    0x23853b(%rip),%rax        # 7eb8f78 <vtable for __gnu_cxx::__concurrence_unlock_error>
 7c80b0c:	e8 af 1e 0a 00       	call   7d229c0 <pthread_mutex_unlock@plt>
 7c80b78:	e8 43 1e 0a 00       	call   7d229c0 <pthread_mutex_unlock@plt>
 7c80b98:	e8 23 1e 0a 00       	call   7d229c0 <pthread_mutex_unlock@plt>
 7c80bb2:	48 8d 15 27 c1 ff ff 	lea    -0x3ed9(%rip),%rdx        # 7c7cce0 <__gnu_cxx::__concurrence_unlock_error::~__concurrence_unlock_error()>
 7c80bb9:	48 8d 35 78 83 23 00 	lea    0x238378(%rip),%rsi        # 7eb8f38 <typeinfo for __gnu_cxx::__concurrence_unlock_error>
 7c80bc3:	48 8d 05 ae 83 23 00 	lea    0x2383ae(%rip),%rax        # 7eb8f78 <vtable for __gnu_cxx::__concurrence_unlock_error>
 7c80c7e:	e8 3d 1d 0a 00       	call   7d229c0 <pthread_mutex_unlock@plt>
 7c80efc:	48 8d 15 dd bd ff ff 	lea    -0x4223(%rip),%rdx        # 7c7cce0 <__gnu_cxx::__concurrence_unlock_error::~__concurrence_unlock_error()>
 7c80f03:	48 8d 35 2e 80 23 00 	lea    0x23802e(%rip),%rsi        # 7eb8f38 <typeinfo for __gnu_cxx::__concurrence_unlock_error>
 7c80f0d:	48 8d 05 64 80 23 00 	lea    0x238064(%rip),%rax        # 7eb8f78 <vtable for __gnu_cxx::__concurrence_unlock_error>
 7c80ffc:	e8 bf 19 0a 00       	call   7d229c0 <pthread_mutex_unlock@plt>
 7c84254:	48 8d 15 85 8a ff ff 	lea    -0x757b(%rip),%rdx        # 7c7cce0 <__gnu_cxx::__concurrence_unlock_error::~__concurrence_unlock_error()>
 7c8425b:	48 8d 35 d6 4c 23 00 	lea    0x234cd6(%rip),%rsi        # 7eb8f38 <typeinfo for __gnu_cxx::__concurrence_unlock_error>
 7c84265:	48 8d 05 0c 4d 23 00 	lea    0x234d0c(%rip),%rax        # 7eb8f78 <vtable for __gnu_cxx::__concurrence_unlock_error>
 7c84390:	e8 2b e6 09 00       	call   7d229c0 <pthread_mutex_unlock@plt>
 7c85619:	48 8d 15 c0 76 ff ff 	lea    -0x8940(%rip),%rdx        # 7c7cce0 <__gnu_cxx::__concurrence_unlock_error::~__concurrence_unlock_error()>
 7c85620:	48 8d 35 11 39 23 00 	lea    0x233911(%rip),%rsi        # 7eb8f38 <typeinfo for __gnu_cxx::__concurrence_unlock_error>
 7c8562a:	48 8d 05 47 39 23 00 	lea    0x233947(%rip),%rax        # 7eb8f78 <vtable for __gnu_cxx::__concurrence_unlock_error>
 7c856ec:	e8 cf d2 09 00       	call   7d229c0 <pthread_mutex_unlock@plt>
 7c85784:	48 8d 15 55 75 ff ff 	lea    -0x8aab(%rip),%rdx        # 7c7cce0 <__gnu_cxx::__concurrence_unlock_error::~__concurrence_unlock_error()>
 7c8578b:	48 8d 35 a6 37 23 00 	lea    0x2337a6(%rip),%rsi        # 7eb8f38 <typeinfo for __gnu_cxx::__concurrence_unlock_error>
 7c85795:	48 8d 05 dc 37 23 00 	lea    0x2337dc(%rip),%rax        # 7eb8f78 <vtable for __gnu_cxx::__concurrence_unlock_error>
 7c858a8:	e8 13 d1 09 00       	call   7d229c0 <pthread_mutex_unlock@plt>
 7c8feb1:	e8 0a 2b 09 00       	call   7d229c0 <pthread_mutex_unlock@plt>
 7cf62e8:	e8 9f 6a f8 ff       	call   7c7cd8c <__gnu_cxx::__throw_concurrence_unlock_error()>
 7cf6310:	e8 ab c6 02 00       	call   7d229c0 <pthread_mutex_unlock@plt>
 7cf632e:	e8 8d c6 02 00       	call   7d229c0 <pthread_mutex_unlock@plt>
0000000007d229c0 <pthread_mutex_unlock@plt>:
 7d229c0:	ff 25 6a de 19 00    	jmp    *0x19de6a(%rip)        # 7ec0830 <pthread_mutex_unlock@GLIBC_2.2.5>
0000000007d23270 <pthread_rwlock_unlock@plt>:
 7d23270:	ff 25 12 da 19 00    	jmp    *0x19da12(%rip)        # 7ec0c88 <pthread_rwlock_unlock@GLIBC_2.34>
0000000007d248c0 <munlock@plt>:
 7d248c0:	ff 25 ea ce 19 00    	jmp    *0x19ceea(%rip)        # 7ec17b0 <munlock@GLIBC_2.2.5>
