 3a5b69a:	e8 21 73 2c 04       	call   7d229c0 <pthread_mutex_unlock@plt>
 3a6c21c:	e8 9f 67 2b 04       	call   7d229c0 <pthread_mutex_unlock@plt>
 3a6c30a:	e8 b1 66 2b 04       	call   7d229c0 <pthread_mutex_unlock@plt>
 3a6c3b5:	e8 06 66 2b 04       	call   7d229c0 <pthread_mutex_unlock@plt>
 3a6dc1c:	e8 9f 4d 2b 04       	call   7d229c0 <pthread_mutex_unlock@plt>
 3a6dd02:	e8 b9 4c 2b 04       	call   7d229c0 <pthread_mutex_unlock@plt>
 3a6dd0a:	e8 b1 4c 2b 04       	call   7d229c0 <pthread_mutex_unlock@plt>
 3a6dda2:	e8 19 4c 2b 04       	call   7d229c0 <pthread_mutex_unlock@plt>
 3a6dffc:	e8 7f 6c 71 03       	call   7184c80 <mongo::Lock::GlobalLock::_unlock()>
 3a6e084:	e8 37 71 71 03       	call   71851c0 <mongo::Lock::ResourceLock::_unlock()>
 3a6e093:	e8 28 71 71 03       	call   71851c0 <mongo::Lock::ResourceLock::_unlock()>
 3a6ed9d:	e8 1e 3c 2b 04       	call   7d229c0 <pthread_mutex_unlock@plt>
0000000003a6f390 <std::unique_lock<std::mutex>::unlock()>:
 3a6f39d:	74 1a                	je     3a6f3b9 <std::unique_lock<std::mutex>::unlock()+0x29>
 3a6f3a8:	74 09                	je     3a6f3b3 <std::unique_lock<std::mutex>::unlock()+0x23>
 3a6f3aa:	e8 11 36 2b 04       	call   7d229c0 <pthread_mutex_unlock@plt>
 3a6f4be:	e8 fd 34 2b 04       	call   7d229c0 <pthread_mutex_unlock@plt>
 3a71c70:	e8 4b 0d 2b 04       	call   7d229c0 <pthread_mutex_unlock@plt>
 3a71d1d:	e8 9e 0c 2b 04       	call   7d229c0 <pthread_mutex_unlock@plt>
 3a71d91:	e8 fa d5 ff ff       	call   3a6f390 <std::unique_lock<std::mutex>::unlock()>
 3a71d9f:	e8 ec d5 ff ff       	call   3a6f390 <std::unique_lock<std::mutex>::unlock()>
 3a738b8:	e8 03 f1 2a 04       	call   7d229c0 <pthread_mutex_unlock@plt>
 3a739b0:	e8 db b9 ff ff       	call   3a6f390 <std::unique_lock<std::mutex>::unlock()>
 3a82d9a:	e8 21 fc 29 04       	call   7d229c0 <pthread_mutex_unlock@plt>
 3a89e64:	e8 57 8b 29 04       	call   7d229c0 <pthread_mutex_unlock@plt>
 3a89f6c:	e8 1f 54 fe ff       	call   3a6f390 <std::unique_lock<std::mutex>::unlock()>
 3a89fa3:	e8 e8 53 fe ff       	call   3a6f390 <std::unique_lock<std::mutex>::unlock()>
 3a8adef:	e8 cc 7b 29 04       	call   7d229c0 <pthread_mutex_unlock@plt>
 3a8b0f5:	e8 c6 78 29 04       	call   7d229c0 <pthread_mutex_unlock@plt>
 3a8b1eb:	e8 d0 77 29 04       	call   7d229c0 <pthread_mutex_unlock@plt>
 3a8b22d:	e8 8e 77 29 04       	call   7d229c0 <pthread_mutex_unlock@plt>
 3a8b4b8:	e8 03 75 29 04       	call   7d229c0 <pthread_mutex_unlock@plt>
 3a8b629:	e9 92 73 29 04       	jmp    7d229c0 <pthread_mutex_unlock@plt>
 3a8b7a1:	e9 1a 72 29 04       	jmp    7d229c0 <pthread_mutex_unlock@plt>
 3a8ba10:	e8 ab 6f 29 04       	call   7d229c0 <pthread_mutex_unlock@plt>
 3a8bba8:	e8 13 6e 29 04       	call   7d229c0 <pthread_mutex_unlock@plt>
 3a8c09a:	e8 f1 32 fe ff       	call   3a6f390 <std::unique_lock<std::mutex>::unlock()>
 3a8c252:	e8 39 31 fe ff       	call   3a6f390 <std::unique_lock<std::mutex>::unlock()>
 3a8c270:	e8 1b 31 fe ff       	call   3a6f390 <std::unique_lock<std::mutex>::unlock()>
 3a8c2ae:	e8 dd 30 fe ff       	call   3a6f390 <std::unique_lock<std::mutex>::unlock()>
 3a8cefc:	e8 bf 5a 29 04       	call   7d229c0 <pthread_mutex_unlock@plt>
 3a8d0d0:	e8 bb 22 fe ff       	call   3a6f390 <std::unique_lock<std::mutex>::unlock()>
 3a8d112:	e8 79 22 fe ff       	call   3a6f390 <std::unique_lock<std::mutex>::unlock()>
 3a8d44a:	e8 71 55 29 04       	call   7d229c0 <pthread_mutex_unlock@plt>
 3a8d4c2:	e9 f9 54 29 04       	jmp    7d229c0 <pthread_mutex_unlock@plt>
 3a8d548:	e8 73 54 29 04       	call   7d229c0 <pthread_mutex_unlock@plt>
 3a8d55b:	e8 60 54 29 04       	call   7d229c0 <pthread_mutex_unlock@plt>
 3a8d57c:	e8 3f 54 29 04       	call   7d229c0 <pthread_mutex_unlock@plt>
 3a8d6c5:	e9 f6 52 29 04       	jmp    7d229c0 <pthread_mutex_unlock@plt>
 3a8d8ae:	e8 0d 51 29 04       	call   7d229c0 <pthread_mutex_unlock@plt>
 3a8d8e7:	e8 d4 50 29 04       	call   7d229c0 <pthread_mutex_unlock@plt>
 3a8d9b9:	e8 02 50 29 04       	call   7d229c0 <pthread_mutex_unlock@plt>
 3a8d9cb:	e8 f0 4f 29 04       	call   7d229c0 <pthread_mutex_unlock@plt>
 3a8da00:	e9 bb 4f 29 04       	jmp    7d229c0 <pthread_mutex_unlock@plt>
 3a8dad9:	e8 e2 4e 29 04       	call   7d229c0 <pthread_mutex_unlock@plt>
 3a8dcad:	e8 0e 4d 29 04       	call   7d229c0 <pthread_mutex_unlock@plt>
 3a8dee7:	e8 a4 14 fe ff       	call   3a6f390 <std::unique_lock<std::mutex>::unlock()>
 3a8df1c:	e8 6f 14 fe ff       	call   3a6f390 <std::unique_lock<std::mutex>::unlock()>
 3a9190f:	e8 6c 33 6f 03       	call   7184c80 <mongo::Lock::GlobalLock::_unlock()>
 3a91b32:	e8 89 36 6f 03       	call   71851c0 <mongo::Lock::ResourceLock::_unlock()>
 3a91b4b:	e8 70 36 6f 03       	call   71851c0 <mongo::Lock::ResourceLock::_unlock()>
 3a93183:	e9 38 f8 28 04       	jmp    7d229c0 <pthread_mutex_unlock@plt>
 3a931de:	e9 dd f7 28 04       	jmp    7d229c0 <pthread_mutex_unlock@plt>
 3a943c0:	e8 fb e5 28 04       	call   7d229c0 <pthread_mutex_unlock@plt>
 3a9734f:	e8 2c d9 6e 03       	call   7184c80 <mongo::Lock::GlobalLock::_unlock()>
 3a9739b:	e8 20 b6 28 04       	call   7d229c0 <pthread_mutex_unlock@plt>
 3a9742f:	e8 8c dd 6e 03       	call   71851c0 <mongo::Lock::ResourceLock::_unlock()>
 3a97444:	e8 77 dd 6e 03       	call   71851c0 <mongo::Lock::ResourceLock::_unlock()>
 3a98913:	e8 a8 a0 28 04       	call   7d229c0 <pthread_mutex_unlock@plt>
 3aa2c08:	e8 b3 fd 27 04       	call   7d229c0 <pthread_mutex_unlock@plt>
 3aa2c5c:	e8 5f fd 27 04       	call   7d229c0 <pthread_mutex_unlock@plt>
 3aa2de3:	e8 d8 fb 27 04       	call   7d229c0 <pthread_mutex_unlock@plt>
 3aa31da:	e8 e1 f7 27 04       	call   7d229c0 <pthread_mutex_unlock@plt>
 3aa3238:	e8 83 f7 27 04       	call   7d229c0 <pthread_mutex_unlock@plt>
 3aa3377:	e8 44 f6 27 04       	call   7d229c0 <pthread_mutex_unlock@plt>
 3aa343a:	e8 81 f5 27 04       	call   7d229c0 <pthread_mutex_unlock@plt>
 3aa3575:	e8 46 f4 27 04       	call   7d229c0 <pthread_mutex_unlock@plt>
 3aa386c:	e8 1f bb fc ff       	call   3a6f390 <std::unique_lock<std::mutex>::unlock()>
 3aa387d:	e8 0e bb fc ff       	call   3a6f390 <std::unique_lock<std::mutex>::unlock()>
 3aa4df2:	e8 89 fe 6d 03       	call   7184c80 <mongo::Lock::GlobalLock::_unlock()>
 3aa4e3b:	e8 80 03 6e 03       	call   71851c0 <mongo::Lock::ResourceLock::_unlock()>
 3aa4e66:	e8 15 fe 6d 03       	call   7184c80 <mongo::Lock::GlobalLock::_unlock()>
 3aa4eb4:	e8 07 03 6e 03       	call   71851c0 <mongo::Lock::ResourceLock::_unlock()>
 3aa4ec4:	e8 f7 02 6e 03       	call   71851c0 <mongo::Lock::ResourceLock::_unlock()>
 3aa4ed4:	e8 e7 02 6e 03       	call   71851c0 <mongo::Lock::ResourceLock::_unlock()>
 3aa50dc:	e8 9f fb 6d 03       	call   7184c80 <mongo::Lock::GlobalLock::_unlock()>
 3aa5121:	e8 9a 00 6e 03       	call   71851c0 <mongo::Lock::ResourceLock::_unlock()>
 3aa5174:	e8 47 00 6e 03       	call   71851c0 <mongo::Lock::ResourceLock::_unlock()>
 3aa51cf:	e8 ac fa 6d 03       	call   7184c80 <mongo::Lock::GlobalLock::_unlock()>
 3aa5224:	e8 97 ff 6d 03       	call   71851c0 <mongo::Lock::ResourceLock::_unlock()>
 3aa5234:	e8 87 ff 6d 03       	call   71851c0 <mongo::Lock::ResourceLock::_unlock()>
 3aa5425:	e8 56 f8 6d 03       	call   7184c80 <mongo::Lock::GlobalLock::_unlock()>
 3aa546a:	e8 51 fd 6d 03       	call   71851c0 <mongo::Lock::ResourceLock::_unlock()>
 3aa547c:	e8 3f fd 6d 03       	call   71851c0 <mongo::Lock::ResourceLock::_unlock()>
 3aa54d7:	e8 a4 f7 6d 03       	call   7184c80 <mongo::Lock::GlobalLock::_unlock()>
 3aa5534:	e8 87 fc 6d 03       	call   71851c0 <mongo::Lock::ResourceLock::_unlock()>
 3aa5544:	e8 77 fc 6d 03       	call   71851c0 <mongo::Lock::ResourceLock::_unlock()>
 3aa960a:	e8 b1 93 27 04       	call   7d229c0 <pthread_mutex_unlock@plt>
 3aab30f:	e8 7c 40 fc ff       	call   3a6f390 <std::unique_lock<std::mutex>::unlock()>
 3aac4fb:	e8 90 2e fc ff       	call   3a6f390 <std::unique_lock<std::mutex>::unlock()>
 3ac505a:	e8 61 d9 25 04       	call   7d229c0 <pthread_mutex_unlock@plt>
 3ada094:	e8 27 89 24 04       	call   7d229c0 <pthread_mutex_unlock@plt>
 3ae239b:	e8 20 06 24 04       	call   7d229c0 <pthread_mutex_unlock@plt>
 3ae3516:	e8 a5 f4 23 04       	call   7d229c0 <pthread_mutex_unlock@plt>
 3ae365e:	e8 5d f3 23 04       	call   7d229c0 <pthread_mutex_unlock@plt>
 3ae3785:	e8 36 f2 23 04       	call   7d229c0 <pthread_mutex_unlock@plt>
 3ae5507:	e8 84 9e f8 ff       	call   3a6f390 <std::unique_lock<std::mutex>::unlock()>
 3ae560a:	e8 81 9d f8 ff       	call   3a6f390 <std::unique_lock<std::mutex>::unlock()>
 3af8eb2:	e8 09 9b 22 04       	call   7d229c0 <pthread_mutex_unlock@plt>
 3af9106:	e8 b5 98 22 04       	call   7d229c0 <pthread_mutex_unlock@plt>
 3af9806:	e8 b5 91 22 04       	call   7d229c0 <pthread_mutex_unlock@plt>
 3af9888:	e8 33 91 22 04       	call   7d229c0 <pthread_mutex_unlock@plt>
 3af99d8:	e8 e3 8f 22 04       	call   7d229c0 <pthread_mutex_unlock@plt>
 3af9ba2:	e8 19 8e 22 04       	call   7d229c0 <pthread_mutex_unlock@plt>
 3af9c40:	e8 7b 8d 22 04       	call   7d229c0 <pthread_mutex_unlock@plt>
 3afac9e:	e8 1d 7d 22 04       	call   7d229c0 <pthread_mutex_unlock@plt>
 3afad25:	e8 96 7c 22 04       	call   7d229c0 <pthread_mutex_unlock@plt>
 3b0019a:	e8 21 28 22 04       	call   7d229c0 <pthread_mutex_unlock@plt>
 3b00ae4:	e9 d7 1e 22 04       	jmp    7d229c0 <pthread_mutex_unlock@plt>
 3b00b95:	e8 26 1e 22 04       	call   7d229c0 <pthread_mutex_unlock@plt>
 3b00c5d:	e8 5e 1d 22 04       	call   7d229c0 <pthread_mutex_unlock@plt>
 3b00c6b:	e8 50 1d 22 04       	call   7d229c0 <pthread_mutex_unlock@plt>
 3b00c8f:	e8 2c 1d 22 04       	call   7d229c0 <pthread_mutex_unlock@plt>
 3b00c97:	e8 24 1d 22 04       	call   7d229c0 <pthread_mutex_unlock@plt>
 3b00d14:	e9 a7 1c 22 04       	jmp    7d229c0 <pthread_mutex_unlock@plt>
 3b00d2a:	e8 91 1c 22 04       	call   7d229c0 <pthread_mutex_unlock@plt>
 3b015d4:	e8 e7 13 22 04       	call   7d229c0 <pthread_mutex_unlock@plt>
 3b015e3:	e8 d8 13 22 04       	call   7d229c0 <pthread_mutex_unlock@plt>
 3b01607:	e8 b4 13 22 04       	call   7d229c0 <pthread_mutex_unlock@plt>
 3b0161d:	e9 9e 13 22 04       	jmp    7d229c0 <pthread_mutex_unlock@plt>
 3b01a30:	e9 8b 0f 22 04       	jmp    7d229c0 <pthread_mutex_unlock@plt>
 3b01b70:	e9 4b 0e 22 04       	jmp    7d229c0 <pthread_mutex_unlock@plt>
 3b01d65:	e9 56 0c 22 04       	jmp    7d229c0 <pthread_mutex_unlock@plt>
 3b01e4b:	e8 70 0b 22 04       	call   7d229c0 <pthread_mutex_unlock@plt>
 3b02330:	e8 8b 06 22 04       	call   7d229c0 <pthread_mutex_unlock@plt>
 3b02350:	e8 6b 06 22 04       	call   7d229c0 <pthread_mutex_unlock@plt>
 3b0248e:	e8 2d 05 22 04       	call   7d229c0 <pthread_mutex_unlock@plt>
 3b03b91:	e9 2a ee 21 04       	jmp    7d229c0 <pthread_mutex_unlock@plt>
 3b03fd2:	e8 e9 e9 21 04       	call   7d229c0 <pthread_mutex_unlock@plt>
 3b0405e:	e8 5d e9 21 04       	call   7d229c0 <pthread_mutex_unlock@plt>
 3b0407e:	e8 3d e9 21 04       	call   7d229c0 <pthread_mutex_unlock@plt>
 3b04170:	e8 1b b2 f6 ff       	call   3a6f390 <std::unique_lock<std::mutex>::unlock()>
 3b041a4:	e8 17 e8 21 04       	call   7d229c0 <pthread_mutex_unlock@plt>
 3b049a2:	e8 19 e0 21 04       	call   7d229c0 <pthread_mutex_unlock@plt>
 3b0e501:	e8 ba 44 21 04       	call   7d229c0 <pthread_mutex_unlock@plt>
 3b0e532:	e8 89 44 21 04       	call   7d229c0 <pthread_mutex_unlock@plt>
 3b0e6d4:	e8 e7 42 21 04       	call   7d229c0 <pthread_mutex_unlock@plt>
 3b0e913:	e8 a8 40 21 04       	call   7d229c0 <pthread_mutex_unlock@plt>
 3b0edd2:	e8 e9 3b 21 04       	call   7d229c0 <pthread_mutex_unlock@plt>
 3b0ee02:	e8 b9 3b 21 04       	call   7d229c0 <pthread_mutex_unlock@plt>
 3b0f011:	e8 aa 39 21 04       	call   7d229c0 <pthread_mutex_unlock@plt>
 3b0f262:	e8 59 37 21 04       	call   7d229c0 <pthread_mutex_unlock@plt>
 3b0ff44:	e8 77 2a 21 04       	call   7d229c0 <pthread_mutex_unlock@plt>
 3b109f5:	e8 c6 1f 21 04       	call   7d229c0 <pthread_mutex_unlock@plt>
 3b10d7e:	e8 3d 1c 21 04       	call   7d229c0 <pthread_mutex_unlock@plt>
 3b12ee2:	e8 d9 fa 20 04       	call   7d229c0 <pthread_mutex_unlock@plt>
 3b14f4f:	e8 6c da 20 04       	call   7d229c0 <pthread_mutex_unlock@plt>
 3b1509b:	e8 20 d9 20 04       	call   7d229c0 <pthread_mutex_unlock@plt>
 3b15255:	e8 66 d7 20 04       	call   7d229c0 <pthread_mutex_unlock@plt>
 3b15550:	e8 6b d4 20 04       	call   7d229c0 <pthread_mutex_unlock@plt>
 3b1c68b:	e8 f0 85 66 03       	call   7184c80 <mongo::Lock::GlobalLock::_unlock()>
 3b1ce97:	e8 24 83 66 03       	call   71851c0 <mongo::Lock::ResourceLock::_unlock()>
 3b1ceaf:	e8 0c 83 66 03       	call   71851c0 <mongo::Lock::ResourceLock::_unlock()>
 3b31509:	e8 b2 14 1f 04       	call   7d229c0 <pthread_mutex_unlock@plt>
 3b31ecb:	e8 f0 0a 1f 04       	call   7d229c0 <pthread_mutex_unlock@plt>
 3b3249b:	e8 20 05 1f 04       	call   7d229c0 <pthread_mutex_unlock@plt>
 3b32abb:	e9 00 ff 1e 04       	jmp    7d229c0 <pthread_mutex_unlock@plt>
 3b33561:	e8 5a f4 1e 04       	call   7d229c0 <pthread_mutex_unlock@plt>
 3b3362c:	e9 8f f3 1e 04       	jmp    7d229c0 <pthread_mutex_unlock@plt>
 3b33d8b:	e9 30 ec 1e 04       	jmp    7d229c0 <pthread_mutex_unlock@plt>
 3b34243:	e8 78 e7 1e 04       	call   7d229c0 <pthread_mutex_unlock@plt>
 3b354ea:	e8 d1 d4 1e 04       	call   7d229c0 <pthread_mutex_unlock@plt>
 3b355c0:	e8 fb d3 1e 04       	call   7d229c0 <pthread_mutex_unlock@plt>
 3b35610:	e8 ab d3 1e 04       	call   7d229c0 <pthread_mutex_unlock@plt>
 3b35685:	e8 36 d3 1e 04       	call   7d229c0 <pthread_mutex_unlock@plt>
 3b3599e:	e8 1d d0 1e 04       	call   7d229c0 <pthread_mutex_unlock@plt>
 3b35a50:	e8 6b cf 1e 04       	call   7d229c0 <pthread_mutex_unlock@plt>
 3b35cf0:	e9 cb cc 1e 04       	jmp    7d229c0 <pthread_mutex_unlock@plt>
 3b38816:	e9 a5 a1 1e 04       	jmp    7d229c0 <pthread_mutex_unlock@plt>
 3b38b25:	e8 96 9e 1e 04       	call   7d229c0 <pthread_mutex_unlock@plt>
 3b38caa:	e9 11 9d 1e 04       	jmp    7d229c0 <pthread_mutex_unlock@plt>
 3b38ec8:	e8 f3 9a 1e 04       	call   7d229c0 <pthread_mutex_unlock@plt>
 3b38fff:	e9 bc 99 1e 04       	jmp    7d229c0 <pthread_mutex_unlock@plt>
 3b3e4b0:	e8 0b 45 1e 04       	call   7d229c0 <pthread_mutex_unlock@plt>
 3b40489:	e8 32 25 1e 04       	call   7d229c0 <pthread_mutex_unlock@plt>
 3b4aeba:	e8 01 7b 1d 04       	call   7d229c0 <pthread_mutex_unlock@plt>
 3b5081a:	e8 a1 21 1d 04       	call   7d229c0 <pthread_mutex_unlock@plt>
 3b65060:	e8 1b fc 61 03       	call   7184c80 <mongo::Lock::GlobalLock::_unlock()>
 3b650a0:	e8 1b 01 62 03       	call   71851c0 <mongo::Lock::ResourceLock::_unlock()>
 3b650bc:	e8 ff 00 62 03       	call   71851c0 <mongo::Lock::ResourceLock::_unlock()>
 3b6c89a:	e8 21 61 1b 04       	call   7d229c0 <pthread_mutex_unlock@plt>
 3b6d13f:	e8 3c 7b 61 03       	call   7184c80 <mongo::Lock::GlobalLock::_unlock()>
 3b6d178:	e8 43 80 61 03       	call   71851c0 <mongo::Lock::ResourceLock::_unlock()>
 3b6d23f:	e8 3c 7a 61 03       	call   7184c80 <mongo::Lock::GlobalLock::_unlock()>
 3b6d278:	e8 43 7f 61 03       	call   71851c0 <mongo::Lock::ResourceLock::_unlock()>
 3b6d347:	e8 74 7e 61 03       	call   71851c0 <mongo::Lock::ResourceLock::_unlock()>
 3b6d35f:	e8 5c 7e 61 03       	call   71851c0 <mongo::Lock::ResourceLock::_unlock()>
 3b6dc30:	e8 8b 4d 1b 04       	call   7d229c0 <pthread_mutex_unlock@plt>
 3b6e59c:	e8 ef 0d f0 ff       	call   3a6f390 <std::unique_lock<std::mutex>::unlock()>
 3b7a5b7:	e8 04 84 1a 04       	call   7d229c0 <pthread_mutex_unlock@plt>
 3b7a5bf:	e8 fc 83 1a 04       	call   7d229c0 <pthread_mutex_unlock@plt>
 3b7a679:	e8 42 83 1a 04       	call   7d229c0 <pthread_mutex_unlock@plt>
 3b7a6dd:	e8 de 82 1a 04       	call   7d229c0 <pthread_mutex_unlock@plt>
 3b7a6e5:	e8 d6 82 1a 04       	call   7d229c0 <pthread_mutex_unlock@plt>
 3b7a84f:	e8 6c 81 1a 04       	call   7d229c0 <pthread_mutex_unlock@plt>
 3b7a8e2:	e8 d9 80 1a 04       	call   7d229c0 <pthread_mutex_unlock@plt>
 3b7adcd:	e8 ee 7b 1a 04       	call   7d229c0 <pthread_mutex_unlock@plt>
 3b7add5:	e8 e6 7b 1a 04       	call   7d229c0 <pthread_mutex_unlock@plt>
 3b7aea4:	e8 17 7b 1a 04       	call   7d229c0 <pthread_mutex_unlock@plt>
 3b7afc4:	e8 f7 79 1a 04       	call   7d229c0 <pthread_mutex_unlock@plt>
 3b7b0df:	e8 dc 78 1a 04       	call   7d229c0 <pthread_mutex_unlock@plt>
 3b7b0e7:	e8 d4 78 1a 04       	call   7d229c0 <pthread_mutex_unlock@plt>
 3b7b1b6:	e9 05 78 1a 04       	jmp    7d229c0 <pthread_mutex_unlock@plt>
 3b7b24b:	e8 70 77 1a 04       	call   7d229c0 <pthread_mutex_unlock@plt>
 3b7b5f3:	e8 88 96 60 03       	call   7184c80 <mongo::Lock::GlobalLock::_unlock()>
 3b7b84f:	e8 2c 94 60 03       	call   7184c80 <mongo::Lock::GlobalLock::_unlock()>
 3b7b8a1:	e8 1a 99 60 03       	call   71851c0 <mongo::Lock::ResourceLock::_unlock()>
 3b7b8b7:	e8 04 99 60 03       	call   71851c0 <mongo::Lock::ResourceLock::_unlock()>
 3b7b8cf:	e8 ec 98 60 03       	call   71851c0 <mongo::Lock::ResourceLock::_unlock()>
 3b7bc67:	e8 54 95 60 03       	call   71851c0 <mongo::Lock::ResourceLock::_unlock()>
 3b7c071:	e8 4a 69 1a 04       	call   7d229c0 <pthread_mutex_unlock@plt>
 3b7c1d5:	e8 e6 67 1a 04       	call   7d229c0 <pthread_mutex_unlock@plt>
 3b7c1dd:	e8 de 67 1a 04       	call   7d229c0 <pthread_mutex_unlock@plt>
 3b7c26d:	e8 4e 67 1a 04       	call   7d229c0 <pthread_mutex_unlock@plt>
 3b7d25a:	e8 61 57 1a 04       	call   7d229c0 <pthread_mutex_unlock@plt>
 3b7d2aa:	e8 11 57 1a 04       	call   7d229c0 <pthread_mutex_unlock@plt>
 3b7d3cf:	e8 ec 55 1a 04       	call   7d229c0 <pthread_mutex_unlock@plt>
 3b7d520:	e8 9b 54 1a 04       	call   7d229c0 <pthread_mutex_unlock@plt>
 3b7d589:	e8 32 54 1a 04       	call   7d229c0 <pthread_mutex_unlock@plt>
 3b7d71b:	e8 70 1c ef ff       	call   3a6f390 <std::unique_lock<std::mutex>::unlock()>
 3b7d76c:	e8 1f 1c ef ff       	call   3a6f390 <std::unique_lock<std::mutex>::unlock()>
 3b7e33e:	e9 7d 46 1a 04       	jmp    7d229c0 <pthread_mutex_unlock@plt>
 3b7e39e:	e9 1d 46 1a 04       	jmp    7d229c0 <pthread_mutex_unlock@plt>
 3b7e427:	e8 94 45 1a 04       	call   7d229c0 <pthread_mutex_unlock@plt>
 3b7e4f3:	e9 c8 44 1a 04       	jmp    7d229c0 <pthread_mutex_unlock@plt>
 3b7e565:	e9 56 44 1a 04       	jmp    7d229c0 <pthread_mutex_unlock@plt>
 3b7e74a:	e8 71 42 1a 04       	call   7d229c0 <pthread_mutex_unlock@plt>
 3b82826:	e9 95 01 1a 04       	jmp    7d229c0 <pthread_mutex_unlock@plt>
 3b83003:	e8 88 c3 ee ff       	call   3a6f390 <std::unique_lock<std::mutex>::unlock()>
 3b84848:	e9 73 e1 19 04       	jmp    7d229c0 <pthread_mutex_unlock@plt>
 3b8498c:	e8 2f e0 19 04       	call   7d229c0 <pthread_mutex_unlock@plt>
 3b84a1c:	e8 9f df 19 04       	call   7d229c0 <pthread_mutex_unlock@plt>
 3b84ac7:	e8 c4 a8 ee ff       	call   3a6f390 <std::unique_lock<std::mutex>::unlock()>
 3b84f5d:	e8 5e da 19 04       	call   7d229c0 <pthread_mutex_unlock@plt>
 3b8521e:	e8 9d d7 19 04       	call   7d229c0 <pthread_mutex_unlock@plt>
 3b8538c:	e8 2f d6 19 04       	call   7d229c0 <pthread_mutex_unlock@plt>
 3b854e3:	e8 a8 9e ee ff       	call   3a6f390 <std::unique_lock<std::mutex>::unlock()>
 3b85530:	e9 8b d4 19 04       	jmp    7d229c0 <pthread_mutex_unlock@plt>
 3b87caa:	e8 11 ad 19 04       	call   7d229c0 <pthread_mutex_unlock@plt>
 3b87cbe:	e8 fd ac 19 04       	call   7d229c0 <pthread_mutex_unlock@plt>
 3b87cd2:	e8 e9 ac 19 04       	call   7d229c0 <pthread_mutex_unlock@plt>
 3b87ce6:	e8 d5 ac 19 04       	call   7d229c0 <pthread_mutex_unlock@plt>
 3b87cfa:	e8 c1 ac 19 04       	call   7d229c0 <pthread_mutex_unlock@plt>
 3b89015:	e8 a6 99 19 04       	call   7d229c0 <pthread_mutex_unlock@plt>
 3b890e6:	e8 a5 62 ee ff       	call   3a6f390 <std::unique_lock<std::mutex>::unlock()>
 3b89752:	e8 69 92 19 04       	call   7d229c0 <pthread_mutex_unlock@plt>
 3b8988b:	e8 00 5b ee ff       	call   3a6f390 <std::unique_lock<std::mutex>::unlock()>
 3b898c5:	e8 c6 5a ee ff       	call   3a6f390 <std::unique_lock<std::mutex>::unlock()>
 3b8c891:	e8 2a 61 19 04       	call   7d229c0 <pthread_mutex_unlock@plt>
 3b8c8c0:	e9 fb 60 19 04       	jmp    7d229c0 <pthread_mutex_unlock@plt>
 3b8c973:	e8 48 60 19 04       	call   7d229c0 <pthread_mutex_unlock@plt>
 3b8cda9:	e8 12 5c 19 04       	call   7d229c0 <pthread_mutex_unlock@plt>
 3b8cf28:	e9 93 5a 19 04       	jmp    7d229c0 <pthread_mutex_unlock@plt>
 3b8d079:	e8 42 59 19 04       	call   7d229c0 <pthread_mutex_unlock@plt>
 3b8d65f:	e8 5c 53 19 04       	call   7d229c0 <pthread_mutex_unlock@plt>
 3b8d6d9:	e8 e2 52 19 04       	call   7d229c0 <pthread_mutex_unlock@plt>
 3b8d7b0:	e8 0b 52 19 04       	call   7d229c0 <pthread_mutex_unlock@plt>
 3b8d896:	e8 25 51 19 04       	call   7d229c0 <pthread_mutex_unlock@plt>
 3b8d988:	e8 33 50 19 04       	call   7d229c0 <pthread_mutex_unlock@plt>
 3b8da20:	e8 9b 4f 19 04       	call   7d229c0 <pthread_mutex_unlock@plt>
 3b8dd51:	e8 6a 4c 19 04       	call   7d229c0 <pthread_mutex_unlock@plt>
 3b8de0b:	e8 b0 4b 19 04       	call   7d229c0 <pthread_mutex_unlock@plt>
 3b8e0b0:	e8 0b 49 19 04       	call   7d229c0 <pthread_mutex_unlock@plt>
 3b8e0bd:	e8 fe 48 19 04       	call   7d229c0 <pthread_mutex_unlock@plt>
 3b8e32d:	e8 5e 10 ee ff       	call   3a6f390 <std::unique_lock<std::mutex>::unlock()>
 3b8e5eb:	e8 a0 0d ee ff       	call   3a6f390 <std::unique_lock<std::mutex>::unlock()>
 3b8e6a2:	e8 19 43 19 04       	call   7d229c0 <pthread_mutex_unlock@plt>
 3b8e6e9:	e8 d2 42 19 04       	call   7d229c0 <pthread_mutex_unlock@plt>
 3b8e72a:	e8 61 0c ee ff       	call   3a6f390 <std::unique_lock<std::mutex>::unlock()>
 3b8e7a5:	e8 e6 0b ee ff       	call   3a6f390 <std::unique_lock<std::mutex>::unlock()>
 3b8f5da:	e8 e1 33 19 04       	call   7d229c0 <pthread_mutex_unlock@plt>
 3b95087:	e8 f4 fb 5e 03       	call   7184c80 <mongo::Lock::GlobalLock::_unlock()>
 3b950d9:	e8 e2 00 5f 03       	call   71851c0 <mongo::Lock::ResourceLock::_unlock()>
 3b951b3:	e8 08 00 5f 03       	call   71851c0 <mongo::Lock::ResourceLock::_unlock()>
 3b96327:	e8 64 90 ed ff       	call   3a6f390 <std::unique_lock<std::mutex>::unlock()>
 3b97a73:	e8 18 79 ed ff       	call   3a6f390 <std::unique_lock<std::mutex>::unlock()>
 3b9ac3a:	e8 81 7d 18 04       	call   7d229c0 <pthread_mutex_unlock@plt>
 3ba3287:	e9 34 f7 17 04       	jmp    7d229c0 <pthread_mutex_unlock@plt>
 3ba32fb:	e8 c0 f6 17 04       	call   7d229c0 <pthread_mutex_unlock@plt>
 3ba336a:	e9 51 f6 17 04       	jmp    7d229c0 <pthread_mutex_unlock@plt>
 3ba338a:	e9 31 f6 17 04       	jmp    7d229c0 <pthread_mutex_unlock@plt>
 3ba33fa:	e8 c1 f5 17 04       	call   7d229c0 <pthread_mutex_unlock@plt>
 3ba345a:	e9 61 f5 17 04       	jmp    7d229c0 <pthread_mutex_unlock@plt>
 3ba347a:	e9 41 f5 17 04       	jmp    7d229c0 <pthread_mutex_unlock@plt>
 3ba3687:	e8 34 f3 17 04       	call   7d229c0 <pthread_mutex_unlock@plt>
 3ba3dfc:	e9 bf eb 17 04       	jmp    7d229c0 <pthread_mutex_unlock@plt>
 3ba3e61:	e8 5a eb 17 04       	call   7d229c0 <pthread_mutex_unlock@plt>
 3ba449a:	e8 f1 ae ec ff       	call   3a6f390 <std::unique_lock<std::mutex>::unlock()>
 3ba4502:	e8 89 ae ec ff       	call   3a6f390 <std::unique_lock<std::mutex>::unlock()>
 3ba4597:	e8 f4 ad ec ff       	call   3a6f390 <std::unique_lock<std::mutex>::unlock()>
 3ba4efd:	e8 be da 17 04       	call   7d229c0 <pthread_mutex_unlock@plt>
 3ba5040:	e8 4b a3 ec ff       	call   3a6f390 <std::unique_lock<std::mutex>::unlock()>
 3ba5332:	e8 89 d6 17 04       	call   7d229c0 <pthread_mutex_unlock@plt>
 3ba5613:	e8 a8 d3 17 04       	call   7d229c0 <pthread_mutex_unlock@plt>
 3ba586a:	e9 51 d1 17 04       	jmp    7d229c0 <pthread_mutex_unlock@plt>
 3ba5b25:	e8 96 ce 17 04       	call   7d229c0 <pthread_mutex_unlock@plt>
 3ba5c5b:	e8 60 cd 17 04       	call   7d229c0 <pthread_mutex_unlock@plt>
 3ba613f:	e8 7c c8 17 04       	call   7d229c0 <pthread_mutex_unlock@plt>
 3ba65cf:	e8 ec c3 17 04       	call   7d229c0 <pthread_mutex_unlock@plt>
 3ba66c2:	e8 f9 c2 17 04       	call   7d229c0 <pthread_mutex_unlock@plt>
 3ba6b6c:	e8 4f be 17 04       	call   7d229c0 <pthread_mutex_unlock@plt>
 3ba6ed8:	e8 b3 84 ec ff       	call   3a6f390 <std::unique_lock<std::mutex>::unlock()>
 3ba6f4c:	e8 3f 84 ec ff       	call   3a6f390 <std::unique_lock<std::mutex>::unlock()>
 3ba7020:	e8 9b b9 17 04       	call   7d229c0 <pthread_mutex_unlock@plt>
 3ba70a4:	e8 e7 82 ec ff       	call   3a6f390 <std::unique_lock<std::mutex>::unlock()>
 3ba70e3:	e8 a8 82 ec ff       	call   3a6f390 <std::unique_lock<std::mutex>::unlock()>
 3ba7200:	e8 bb b7 17 04       	call   7d229c0 <pthread_mutex_unlock@plt>
 3ba7245:	e9 76 b7 17 04       	jmp    7d229c0 <pthread_mutex_unlock@plt>
 3ba752c:	e8 8f b4 17 04       	call   7d229c0 <pthread_mutex_unlock@plt>
 3ba7565:	e8 26 7e ec ff       	call   3a6f390 <std::unique_lock<std::mutex>::unlock()>
 3ba76c6:	e8 f5 b2 17 04       	call   7d229c0 <pthread_mutex_unlock@plt>
 3ba773c:	e8 4f 7c ec ff       	call   3a6f390 <std::unique_lock<std::mutex>::unlock()>
 3ba7767:	e8 24 7c ec ff       	call   3a6f390 <std::unique_lock<std::mutex>::unlock()>
 3ba7b84:	e8 07 78 ec ff       	call   3a6f390 <std::unique_lock<std::mutex>::unlock()>
 3ba7bf0:	e8 cb ad 17 04       	call   7d229c0 <pthread_mutex_unlock@plt>
 3ba7c2e:	e8 5d 77 ec ff       	call   3a6f390 <std::unique_lock<std::mutex>::unlock()>
 3ba7ee0:	e8 db aa 17 04       	call   7d229c0 <pthread_mutex_unlock@plt>
 3ba8166:	e8 55 a8 17 04       	call   7d229c0 <pthread_mutex_unlock@plt>
 3ba837c:	e8 0f 70 ec ff       	call   3a6f390 <std::unique_lock<std::mutex>::unlock()>
 3ba8397:	e8 f4 6f ec ff       	call   3a6f390 <std::unique_lock<std::mutex>::unlock()>
 3ba83df:	e8 ac 6f ec ff       	call   3a6f390 <std::unique_lock<std::mutex>::unlock()>
 3ba8402:	e8 b9 a5 17 04       	call   7d229c0 <pthread_mutex_unlock@plt>
 3ba85a4:	e8 17 a4 17 04       	call   7d229c0 <pthread_mutex_unlock@plt>
 3ba865d:	e8 5e a3 17 04       	call   7d229c0 <pthread_mutex_unlock@plt>
 3ba8721:	e8 9a a2 17 04       	call   7d229c0 <pthread_mutex_unlock@plt>
 3ba8b1f:	e8 9c 9e 17 04       	call   7d229c0 <pthread_mutex_unlock@plt>
 3ba90b7:	e8 04 99 17 04       	call   7d229c0 <pthread_mutex_unlock@plt>
 3ba939a:	e8 21 96 17 04       	call   7d229c0 <pthread_mutex_unlock@plt>
 3ba93cb:	e8 c0 5f ec ff       	call   3a6f390 <std::unique_lock<std::mutex>::unlock()>
 3ba9ace:	e8 ed 8e 17 04       	call   7d229c0 <pthread_mutex_unlock@plt>
 3ba9bd6:	e8 e5 8d 17 04       	call   7d229c0 <pthread_mutex_unlock@plt>
 3ba9ed3:	e8 e8 8a 17 04       	call   7d229c0 <pthread_mutex_unlock@plt>
 3baa481:	e8 3a 85 17 04       	call   7d229c0 <pthread_mutex_unlock@plt>
 3baa81e:	e8 9d 81 17 04       	call   7d229c0 <pthread_mutex_unlock@plt>
 3baad01:	e8 8a 46 ec ff       	call   3a6f390 <std::unique_lock<std::mutex>::unlock()>
 3baad1d:	e8 6e 46 ec ff       	call   3a6f390 <std::unique_lock<std::mutex>::unlock()>
 3baad72:	e8 49 7c 17 04       	call   7d229c0 <pthread_mutex_unlock@plt>
 3bab145:	e9 76 78 17 04       	jmp    7d229c0 <pthread_mutex_unlock@plt>
 3bab153:	e8 68 78 17 04       	call   7d229c0 <pthread_mutex_unlock@plt>
 3bab17c:	e9 3f 78 17 04       	jmp    7d229c0 <pthread_mutex_unlock@plt>
 3bb0fd3:	e8 e8 19 17 04       	call   7d229c0 <pthread_mutex_unlock@plt>
 3bb1081:	e9 3a 19 17 04       	jmp    7d229c0 <pthread_mutex_unlock@plt>
 3bb10de:	e8 dd 18 17 04       	call   7d229c0 <pthread_mutex_unlock@plt>
 3bb14ab:	e8 10 15 17 04       	call   7d229c0 <pthread_mutex_unlock@plt>
 3bb1529:	e8 92 14 17 04       	call   7d229c0 <pthread_mutex_unlock@plt>
 3bb1595:	e9 26 14 17 04       	jmp    7d229c0 <pthread_mutex_unlock@plt>
 3bb16ef:	e8 cc 12 17 04       	call   7d229c0 <pthread_mutex_unlock@plt>
 3bb2369:	e8 52 06 17 04       	call   7d229c0 <pthread_mutex_unlock@plt>
 3bb3a0c:	e8 af ef 16 04       	call   7d229c0 <pthread_mutex_unlock@plt>
 3bb411c:	e8 9f e8 16 04       	call   7d229c0 <pthread_mutex_unlock@plt>
 3bb4135:	e8 86 e8 16 04       	call   7d229c0 <pthread_mutex_unlock@plt>
 3bb4207:	e8 b4 e7 16 04       	call   7d229c0 <pthread_mutex_unlock@plt>
 3bb4406:	e8 b5 e5 16 04       	call   7d229c0 <pthread_mutex_unlock@plt>
 3bb47b0:	e8 0b e2 16 04       	call   7d229c0 <pthread_mutex_unlock@plt>
 3bb505b:	e8 60 d9 16 04       	call   7d229c0 <pthread_mutex_unlock@plt>
 3bb59c6:	e8 f5 cf 16 04       	call   7d229c0 <pthread_mutex_unlock@plt>
 3bb5b95:	e8 f6 97 eb ff       	call   3a6f390 <std::unique_lock<std::mutex>::unlock()>
 3bb5bb1:	e8 da 97 eb ff       	call   3a6f390 <std::unique_lock<std::mutex>::unlock()>
 3bb6124:	e8 97 c8 16 04       	call   7d229c0 <pthread_mutex_unlock@plt>
 3bb672b:	e8 90 c2 16 04       	call   7d229c0 <pthread_mutex_unlock@plt>
 3bb6e06:	e8 b5 bb 16 04       	call   7d229c0 <pthread_mutex_unlock@plt>
 3bb6e5c:	e8 5f bb 16 04       	call   7d229c0 <pthread_mutex_unlock@plt>
 3bb8b6a:	e8 51 9e 16 04       	call   7d229c0 <pthread_mutex_unlock@plt>
 3bdd7da:	e8 e1 51 14 04       	call   7d229c0 <pthread_mutex_unlock@plt>
 3bdec85:	e9 36 3d 14 04       	jmp    7d229c0 <pthread_mutex_unlock@plt>
 3bdecc8:	e8 f3 3c 14 04       	call   7d229c0 <pthread_mutex_unlock@plt>
 3bdef29:	e8 92 3a 14 04       	call   7d229c0 <pthread_mutex_unlock@plt>
 3bdef89:	e8 32 3a 14 04       	call   7d229c0 <pthread_mutex_unlock@plt>
 3bdf969:	e8 52 30 14 04       	call   7d229c0 <pthread_mutex_unlock@plt>
 3bdfaf5:	e8 c6 2e 14 04       	call   7d229c0 <pthread_mutex_unlock@plt>
 3be09f8:	e8 c3 1f 14 04       	call   7d229c0 <pthread_mutex_unlock@plt>
 3be6388:	e8 33 c6 13 04       	call   7d229c0 <pthread_mutex_unlock@plt>
 3be6793:	e8 28 c2 13 04       	call   7d229c0 <pthread_mutex_unlock@plt>
 3bf0af0:	e8 cb 1e 13 04       	call   7d229c0 <pthread_mutex_unlock@plt>
 3bf116e:	e8 1d e2 e7 ff       	call   3a6f390 <std::unique_lock<std::mutex>::unlock()>
 3c01042:	e9 79 19 12 04       	jmp    7d229c0 <pthread_mutex_unlock@plt>
 3c0111c:	e9 9f 18 12 04       	jmp    7d229c0 <pthread_mutex_unlock@plt>
 3c01172:	e9 49 18 12 04       	jmp    7d229c0 <pthread_mutex_unlock@plt>
 3c01694:	e9 27 13 12 04       	jmp    7d229c0 <pthread_mutex_unlock@plt>
 3c01eca:	e8 f1 0a 12 04       	call   7d229c0 <pthread_mutex_unlock@plt>
 3c01f46:	e8 75 0a 12 04       	call   7d229c0 <pthread_mutex_unlock@plt>
 3c022d4:	e8 e7 06 12 04       	call   7d229c0 <pthread_mutex_unlock@plt>
 3c031ad:	e9 0e f8 11 04       	jmp    7d229c0 <pthread_mutex_unlock@plt>
 3c0343e:	e8 7d f5 11 04       	call   7d229c0 <pthread_mutex_unlock@plt>
 3c034bd:	e8 fe f4 11 04       	call   7d229c0 <pthread_mutex_unlock@plt>
 3c03690:	e8 2b f3 11 04       	call   7d229c0 <pthread_mutex_unlock@plt>
 3c03a09:	e8 b2 ef 11 04       	call   7d229c0 <pthread_mutex_unlock@plt>
 3c1f1ba:	e8 01 38 10 04       	call   7d229c0 <pthread_mutex_unlock@plt>
 3c1f20a:	e8 b1 37 10 04       	call   7d229c0 <pthread_mutex_unlock@plt>
 3c1f25b:	e8 60 37 10 04       	call   7d229c0 <pthread_mutex_unlock@plt>
 3c1f2aa:	e8 11 37 10 04       	call   7d229c0 <pthread_mutex_unlock@plt>
 3c1f34a:	e8 71 36 10 04       	call   7d229c0 <pthread_mutex_unlock@plt>
 3c1f39a:	e8 21 36 10 04       	call   7d229c0 <pthread_mutex_unlock@plt>
 3c1f78f:	e8 2c 32 10 04       	call   7d229c0 <pthread_mutex_unlock@plt>
 3c1f7e1:	e8 da 31 10 04       	call   7d229c0 <pthread_mutex_unlock@plt>
 3c1f890:	e9 2b 31 10 04       	jmp    7d229c0 <pthread_mutex_unlock@plt>
 3c1f8c7:	e8 f4 30 10 04       	call   7d229c0 <pthread_mutex_unlock@plt>
 3c1f90b:	e9 b0 30 10 04       	jmp    7d229c0 <pthread_mutex_unlock@plt>
 3c1f959:	e9 62 30 10 04       	jmp    7d229c0 <pthread_mutex_unlock@plt>
 3c1f9b4:	e8 07 30 10 04       	call   7d229c0 <pthread_mutex_unlock@plt>
 3c1fa22:	e8 99 2f 10 04       	call   7d229c0 <pthread_mutex_unlock@plt>
 3c1fa82:	e8 39 2f 10 04       	call   7d229c0 <pthread_mutex_unlock@plt>
 3c1fae2:	e8 d9 2e 10 04       	call   7d229c0 <pthread_mutex_unlock@plt>
 3c1fb2a:	e8 91 2e 10 04       	call   7d229c0 <pthread_mutex_unlock@plt>
 3c1fb9c:	e8 1f 2e 10 04       	call   7d229c0 <pthread_mutex_unlock@plt>
 3c1fc1f:	e9 9c 2d 10 04       	jmp    7d229c0 <pthread_mutex_unlock@plt>
 3c1fc78:	e8 43 2d 10 04       	call   7d229c0 <pthread_mutex_unlock@plt>
 3c1fd34:	e8 87 2c 10 04       	call   7d229c0 <pthread_mutex_unlock@plt>
 3c1fdb4:	e8 07 2c 10 04       	call   7d229c0 <pthread_mutex_unlock@plt>
 3c1fe2d:	e8 8e 2b 10 04       	call   7d229c0 <pthread_mutex_unlock@plt>
 3c1fea1:	e8 1a 2b 10 04       	call   7d229c0 <pthread_mutex_unlock@plt>
 3c1ff43:	e8 78 2a 10 04       	call   7d229c0 <pthread_mutex_unlock@plt>
 3c1ffa3:	e8 18 2a 10 04       	call   7d229c0 <pthread_mutex_unlock@plt>
 3c20024:	e8 97 29 10 04       	call   7d229c0 <pthread_mutex_unlock@plt>
 3c200ae:	e9 0d 29 10 04       	jmp    7d229c0 <pthread_mutex_unlock@plt>
 3c20100:	e8 bb 28 10 04       	call   7d229c0 <pthread_mutex_unlock@plt>
 3c2015b:	e8 60 28 10 04       	call   7d229c0 <pthread_mutex_unlock@plt>
 3c201c4:	e8 f7 27 10 04       	call   7d229c0 <pthread_mutex_unlock@plt>
 3c20236:	e9 85 27 10 04       	jmp    7d229c0 <pthread_mutex_unlock@plt>
 3c20337:	e8 84 26 10 04       	call   7d229c0 <pthread_mutex_unlock@plt>
 3c203ef:	e8 cc 25 10 04       	call   7d229c0 <pthread_mutex_unlock@plt>
 3c2048f:	e8 2c 25 10 04       	call   7d229c0 <pthread_mutex_unlock@plt>
 3c20693:	e8 28 23 10 04       	call   7d229c0 <pthread_mutex_unlock@plt>
 3c20846:	e8 75 21 10 04       	call   7d229c0 <pthread_mutex_unlock@plt>
 3c208f8:	e8 c3 20 10 04       	call   7d229c0 <pthread_mutex_unlock@plt>
 3c20c95:	e8 26 1d 10 04       	call   7d229c0 <pthread_mutex_unlock@plt>
 3c20c9d:	e8 1e 1d 10 04       	call   7d229c0 <pthread_mutex_unlock@plt>
 3c20d71:	e8 4a 1c 10 04       	call   7d229c0 <pthread_mutex_unlock@plt>
 3c20edb:	e9 e0 1a 10 04       	jmp    7d229c0 <pthread_mutex_unlock@plt>
 3c21023:	e8 98 19 10 04       	call   7d229c0 <pthread_mutex_unlock@plt>
 3c21c32:	e8 89 0d 10 04       	call   7d229c0 <pthread_mutex_unlock@plt>
 3c21c89:	e8 32 0d 10 04       	call   7d229c0 <pthread_mutex_unlock@plt>
 3c21cf1:	e8 ca 0c 10 04       	call   7d229c0 <pthread_mutex_unlock@plt>
 3c21d61:	e8 5a 0c 10 04       	call   7d229c0 <pthread_mutex_unlock@plt>
 3c21eaf:	e8 0c 0b 10 04       	call   7d229c0 <pthread_mutex_unlock@plt>
 3c22325:	e8 96 06 10 04       	call   7d229c0 <pthread_mutex_unlock@plt>
 3c22973:	e8 48 00 10 04       	call   7d229c0 <pthread_mutex_unlock@plt>
 3c22a5d:	e9 5e ff 0f 04       	jmp    7d229c0 <pthread_mutex_unlock@plt>
 3c2315e:	e8 5d f8 0f 04       	call   7d229c0 <pthread_mutex_unlock@plt>
 3c231ec:	e8 cf f7 0f 04       	call   7d229c0 <pthread_mutex_unlock@plt>
 3c232ac:	e9 0f f7 0f 04       	jmp    7d229c0 <pthread_mutex_unlock@plt>
 3c23443:	e8 48 bf e4 ff       	call   3a6f390 <std::unique_lock<std::mutex>::unlock()>
 3c2498a:	e8 31 e0 0f 04       	call   7d229c0 <pthread_mutex_unlock@plt>
 3c24e03:	e8 b8 db 0f 04       	call   7d229c0 <pthread_mutex_unlock@plt>
 3c254e9:	e8 d2 d4 0f 04       	call   7d229c0 <pthread_mutex_unlock@plt>
 3c2562d:	e8 8e d3 0f 04       	call   7d229c0 <pthread_mutex_unlock@plt>
 3c25a0b:	e8 80 99 e4 ff       	call   3a6f390 <std::unique_lock<std::mutex>::unlock()>
 3c25b1d:	e8 9e ce 0f 04       	call   7d229c0 <pthread_mutex_unlock@plt>
 3c26393:	e8 f8 8f e4 ff       	call   3a6f390 <std::unique_lock<std::mutex>::unlock()>
 3c26b0e:	e8 ad be 0f 04       	call   7d229c0 <pthread_mutex_unlock@plt>
 3c26da7:	e8 14 bc 0f 04       	call   7d229c0 <pthread_mutex_unlock@plt>
 3c26f4c:	e8 6f ba 0f 04       	call   7d229c0 <pthread_mutex_unlock@plt>
 3c270c1:	e8 fa b8 0f 04       	call   7d229c0 <pthread_mutex_unlock@plt>
 3c27139:	e8 82 b8 0f 04       	call   7d229c0 <pthread_mutex_unlock@plt>
 3c27264:	e8 27 81 e4 ff       	call   3a6f390 <std::unique_lock<std::mutex>::unlock()>
 3c27bda:	e9 e1 ad 0f 04       	jmp    7d229c0 <pthread_mutex_unlock@plt>
 3c27f63:	e8 58 aa 0f 04       	call   7d229c0 <pthread_mutex_unlock@plt>
 3c27fc4:	e8 f7 a9 0f 04       	call   7d229c0 <pthread_mutex_unlock@plt>
 3c28541:	e8 7a a4 0f 04       	call   7d229c0 <pthread_mutex_unlock@plt>
 3c28e7f:	e8 3c 9b 0f 04       	call   7d229c0 <pthread_mutex_unlock@plt>
 3c28f17:	e8 a4 9a 0f 04       	call   7d229c0 <pthread_mutex_unlock@plt>
 3c29236:	e8 85 97 0f 04       	call   7d229c0 <pthread_mutex_unlock@plt>
 3c293bf:	e8 fc 95 0f 04       	call   7d229c0 <pthread_mutex_unlock@plt>
 3c2adee:	e8 cd 7b 0f 04       	call   7d229c0 <pthread_mutex_unlock@plt>
 3c2aee2:	e8 d9 7a 0f 04       	call   7d229c0 <pthread_mutex_unlock@plt>
 3c2b025:	e8 96 79 0f 04       	call   7d229c0 <pthread_mutex_unlock@plt>
 3c2be78:	e9 43 6b 0f 04       	jmp    7d229c0 <pthread_mutex_unlock@plt>
 3c2bee7:	e8 d4 6a 0f 04       	call   7d229c0 <pthread_mutex_unlock@plt>
 3c2c6a8:	e8 13 63 0f 04       	call   7d229c0 <pthread_mutex_unlock@plt>
 3c2c733:	e8 88 62 0f 04       	call   7d229c0 <pthread_mutex_unlock@plt>
 3c2cc42:	e8 79 5d 0f 04       	call   7d229c0 <pthread_mutex_unlock@plt>
 3c2cd2b:	e8 90 5c 0f 04       	call   7d229c0 <pthread_mutex_unlock@plt>
 3c2ce95:	e8 26 5b 0f 04       	call   7d229c0 <pthread_mutex_unlock@plt>
 3c2d2b1:	e8 da 20 e4 ff       	call   3a6f390 <std::unique_lock<std::mutex>::unlock()>
 3c2d48d:	e8 2e 55 0f 04       	call   7d229c0 <pthread_mutex_unlock@plt>
 3c2d5b6:	e8 d5 1d e4 ff       	call   3a6f390 <std::unique_lock<std::mutex>::unlock()>
 3c2d8e6:	e8 a5 1a e4 ff       	call   3a6f390 <std::unique_lock<std::mutex>::unlock()>
 3c300c7:	e8 c4 f2 e3 ff       	call   3a6f390 <std::unique_lock<std::mutex>::unlock()>
 3c316b2:	e8 d9 dc e3 ff       	call   3a6f390 <std::unique_lock<std::mutex>::unlock()>
 3c31b67:	e8 54 0e 0f 04       	call   7d229c0 <pthread_mutex_unlock@plt>
 3c31df1:	e8 9a d5 e3 ff       	call   3a6f390 <std::unique_lock<std::mutex>::unlock()>
 3c31e07:	e8 b4 0b 0f 04       	call   7d229c0 <pthread_mutex_unlock@plt>
 3c32735:	e8 86 02 0f 04       	call   7d229c0 <pthread_mutex_unlock@plt>
 3c32ce9:	e8 d2 fc 0e 04       	call   7d229c0 <pthread_mutex_unlock@plt>
 3c32dc3:	e8 f8 fb 0e 04       	call   7d229c0 <pthread_mutex_unlock@plt>
 3c32fbf:	e8 fc f9 0e 04       	call   7d229c0 <pthread_mutex_unlock@plt>
 3c3322b:	e9 90 f7 0e 04       	jmp    7d229c0 <pthread_mutex_unlock@plt>
 3c33fc2:	e9 f9 e9 0e 04       	jmp    7d229c0 <pthread_mutex_unlock@plt>
 3c348c1:	e9 fa e0 0e 04       	jmp    7d229c0 <pthread_mutex_unlock@plt>
 3c34bbf:	e8 fc dd 0e 04       	call   7d229c0 <pthread_mutex_unlock@plt>
 3c34d8c:	e8 2f dc 0e 04       	call   7d229c0 <pthread_mutex_unlock@plt>
 3c35189:	e8 32 d8 0e 04       	call   7d229c0 <pthread_mutex_unlock@plt>
 3c35df1:	e8 ca cb 0e 04       	call   7d229c0 <pthread_mutex_unlock@plt>
 3c35ea7:	e8 14 cb 0e 04       	call   7d229c0 <pthread_mutex_unlock@plt>
 3c35f69:	e8 52 ca 0e 04       	call   7d229c0 <pthread_mutex_unlock@plt>
 3c36093:	e8 28 c9 0e 04       	call   7d229c0 <pthread_mutex_unlock@plt>
 3c36f40:	e8 7b ba 0e 04       	call   7d229c0 <pthread_mutex_unlock@plt>
 3c37054:	e9 67 b9 0e 04       	jmp    7d229c0 <pthread_mutex_unlock@plt>
 3c37aed:	e9 ce ae 0e 04       	jmp    7d229c0 <pthread_mutex_unlock@plt>
 3c37cde:	e8 dd ac 0e 04       	call   7d229c0 <pthread_mutex_unlock@plt>
 3c37e9e:	e8 1d ab 0e 04       	call   7d229c0 <pthread_mutex_unlock@plt>
 3c3809c:	e8 ef 72 e3 ff       	call   3a6f390 <std::unique_lock<std::mutex>::unlock()>
 3c380e8:	e8 d3 a8 0e 04       	call   7d229c0 <pthread_mutex_unlock@plt>
 3c383b2:	e8 d9 6f e3 ff       	call   3a6f390 <std::unique_lock<std::mutex>::unlock()>
 3c38437:	e8 54 6f e3 ff       	call   3a6f390 <std::unique_lock<std::mutex>::unlock()>
 3c384e6:	e8 a5 6e e3 ff       	call   3a6f390 <std::unique_lock<std::mutex>::unlock()>
 3c385dc:	e9 df a3 0e 04       	jmp    7d229c0 <pthread_mutex_unlock@plt>
 3c38c06:	e9 b5 9d 0e 04       	jmp    7d229c0 <pthread_mutex_unlock@plt>
 3c38dcf:	e8 bc 65 e3 ff       	call   3a6f390 <std::unique_lock<std::mutex>::unlock()>
 3c38e33:	e8 58 65 e3 ff       	call   3a6f390 <std::unique_lock<std::mutex>::unlock()>
 3c39021:	e9 9a 99 0e 04       	jmp    7d229c0 <pthread_mutex_unlock@plt>
 3c39282:	e9 39 97 0e 04       	jmp    7d229c0 <pthread_mutex_unlock@plt>
 3c39473:	e8 18 5f e3 ff       	call   3a6f390 <std::unique_lock<std::mutex>::unlock()>
 3c3a090:	e8 2b 89 0e 04       	call   7d229c0 <pthread_mutex_unlock@plt>
 3c3a983:	e8 38 80 0e 04       	call   7d229c0 <pthread_mutex_unlock@plt>
 3c3ac85:	e8 36 7d 0e 04       	call   7d229c0 <pthread_mutex_unlock@plt>
 3c3adfc:	e8 8f 45 e3 ff       	call   3a6f390 <std::unique_lock<std::mutex>::unlock()>
 3c3b255:	e8 66 77 0e 04       	call   7d229c0 <pthread_mutex_unlock@plt>
 3c3b3f3:	e8 98 3f e3 ff       	call   3a6f390 <std::unique_lock<std::mutex>::unlock()>
 3c3c1a2:	e8 19 68 0e 04       	call   7d229c0 <pthread_mutex_unlock@plt>
 3c3c36e:	e8 1d 30 e3 ff       	call   3a6f390 <std::unique_lock<std::mutex>::unlock()>
 3c3c39b:	e8 f0 2f e3 ff       	call   3a6f390 <std::unique_lock<std::mutex>::unlock()>
 3c3d06b:	e8 50 59 0e 04       	call   7d229c0 <pthread_mutex_unlock@plt>
 3c3d2fa:	e8 c1 56 0e 04       	call   7d229c0 <pthread_mutex_unlock@plt>
 3c3d64c:	e8 6f 53 0e 04       	call   7d229c0 <pthread_mutex_unlock@plt>
 3c3e58b:	e8 30 44 0e 04       	call   7d229c0 <pthread_mutex_unlock@plt>
 3c3efd4:	e8 e7 39 0e 04       	call   7d229c0 <pthread_mutex_unlock@plt>
 3c3f0f5:	e9 c6 38 0e 04       	jmp    7d229c0 <pthread_mutex_unlock@plt>
 3c436fc:	e8 bf f2 0d 04       	call   7d229c0 <pthread_mutex_unlock@plt>
 3c43865:	e8 56 f1 0d 04       	call   7d229c0 <pthread_mutex_unlock@plt>
 3c44810:	e8 ab e1 0d 04       	call   7d229c0 <pthread_mutex_unlock@plt>
 3c44878:	e8 43 e1 0d 04       	call   7d229c0 <pthread_mutex_unlock@plt>
 3c452a7:	e8 e4 a0 e2 ff       	call   3a6f390 <std::unique_lock<std::mutex>::unlock()>
 3c454d0:	e8 bb 9e e2 ff       	call   3a6f390 <std::unique_lock<std::mutex>::unlock()>
 3c45853:	e8 68 d1 0d 04       	call   7d229c0 <pthread_mutex_unlock@plt>
 3c459a8:	e9 13 d0 0d 04       	jmp    7d229c0 <pthread_mutex_unlock@plt>
 3c45e6e:	e8 1d 95 e2 ff       	call   3a6f390 <std::unique_lock<std::mutex>::unlock()>
 3c45f24:	e8 67 94 e2 ff       	call   3a6f390 <std::unique_lock<std::mutex>::unlock()>
 3c45fe8:	e8 a3 93 e2 ff       	call   3a6f390 <std::unique_lock<std::mutex>::unlock()>
 3c460a8:	e8 e3 92 e2 ff       	call   3a6f390 <std::unique_lock<std::mutex>::unlock()>
 3c460e2:	e8 a9 92 e2 ff       	call   3a6f390 <std::unique_lock<std::mutex>::unlock()>
 3c461d9:	e8 b2 91 e2 ff       	call   3a6f390 <std::unique_lock<std::mutex>::unlock()>
 3c4664c:	e8 3f 8d e2 ff       	call   3a6f390 <std::unique_lock<std::mutex>::unlock()>
 3c46736:	e8 55 8c e2 ff       	call   3a6f390 <std::unique_lock<std::mutex>::unlock()>
 3c46c56:	e8 35 87 e2 ff       	call   3a6f390 <std::unique_lock<std::mutex>::unlock()>
 3c46d65:	e8 56 bc 0d 04       	call   7d229c0 <pthread_mutex_unlock@plt>
 3c4715f:	e8 5c b8 0d 04       	call   7d229c0 <pthread_mutex_unlock@plt>
 3c47930:	e8 8b b0 0d 04       	call   7d229c0 <pthread_mutex_unlock@plt>
 3c47bbf:	e8 cc 77 e2 ff       	call   3a6f390 <std::unique_lock<std::mutex>::unlock()>
 3c47d6f:	e8 1c 76 e2 ff       	call   3a6f390 <std::unique_lock<std::mutex>::unlock()>
 3c47e33:	e8 58 75 e2 ff       	call   3a6f390 <std::unique_lock<std::mutex>::unlock()>
 3c48328:	e8 63 70 e2 ff       	call   3a6f390 <std::unique_lock<std::mutex>::unlock()>
 3c483a4:	e8 e7 6f e2 ff       	call   3a6f390 <std::unique_lock<std::mutex>::unlock()>
 3c4842c:	e8 8f a5 0d 04       	call   7d229c0 <pthread_mutex_unlock@plt>
 3c4867e:	e8 0d 6d e2 ff       	call   3a6f390 <std::unique_lock<std::mutex>::unlock()>
 3c486bb:	e8 00 a3 0d 04       	call   7d229c0 <pthread_mutex_unlock@plt>
 3c48925:	e8 96 a0 0d 04       	call   7d229c0 <pthread_mutex_unlock@plt>
 3c49176:	e8 45 98 0d 04       	call   7d229c0 <pthread_mutex_unlock@plt>
 3c49349:	e8 72 96 0d 04       	call   7d229c0 <pthread_mutex_unlock@plt>
 3c49350:	e8 6b 96 0d 04       	call   7d229c0 <pthread_mutex_unlock@plt>
 3c49445:	e8 76 95 0d 04       	call   7d229c0 <pthread_mutex_unlock@plt>
 3c49492:	e8 29 95 0d 04       	call   7d229c0 <pthread_mutex_unlock@plt>
 3c49789:	e8 32 92 0d 04       	call   7d229c0 <pthread_mutex_unlock@plt>
 3c49875:	e8 46 91 0d 04       	call   7d229c0 <pthread_mutex_unlock@plt>
 3c49b3a:	e8 51 58 e2 ff       	call   3a6f390 <std::unique_lock<std::mutex>::unlock()>
 3c49d4f:	e8 3c 56 e2 ff       	call   3a6f390 <std::unique_lock<std::mutex>::unlock()>
 3c4a14f:	e8 3c 52 e2 ff       	call   3a6f390 <std::unique_lock<std::mutex>::unlock()>
 3c4a519:	e8 a2 84 0d 04       	call   7d229c0 <pthread_mutex_unlock@plt>
 3c4a585:	e8 06 4e e2 ff       	call   3a6f390 <std::unique_lock<std::mutex>::unlock()>
 3c4a7d3:	e8 e8 81 0d 04       	call   7d229c0 <pthread_mutex_unlock@plt>
 3c4ac7d:	e8 0e 47 e2 ff       	call   3a6f390 <std::unique_lock<std::mutex>::unlock()>
 3c4ad17:	e8 74 46 e2 ff       	call   3a6f390 <std::unique_lock<std::mutex>::unlock()>
 3c4ad97:	e8 f4 45 e2 ff       	call   3a6f390 <std::unique_lock<std::mutex>::unlock()>
 3c4ae93:	e8 f8 44 e2 ff       	call   3a6f390 <std::unique_lock<std::mutex>::unlock()>
 3c4b1f6:	e8 95 41 e2 ff       	call   3a6f390 <std::unique_lock<std::mutex>::unlock()>
 3c4b3e7:	e8 a4 3f e2 ff       	call   3a6f390 <std::unique_lock<std::mutex>::unlock()>
 3c4b5b2:	e8 09 74 0d 04       	call   7d229c0 <pthread_mutex_unlock@plt>
 3c4bb40:	e8 7b 6e 0d 04       	call   7d229c0 <pthread_mutex_unlock@plt>
 3c4cf70:	e8 4b 5a 0d 04       	call   7d229c0 <pthread_mutex_unlock@plt>
 3c4d169:	e8 22 22 e2 ff       	call   3a6f390 <std::unique_lock<std::mutex>::unlock()>
 3c4d7fa:	e8 91 1b e2 ff       	call   3a6f390 <std::unique_lock<std::mutex>::unlock()>
 3c4db21:	e8 6a 18 e2 ff       	call   3a6f390 <std::unique_lock<std::mutex>::unlock()>
 3c4dbf8:	e8 93 17 e2 ff       	call   3a6f390 <std::unique_lock<std::mutex>::unlock()>
 3c4df8e:	e8 2d 4a 0d 04       	call   7d229c0 <pthread_mutex_unlock@plt>
 3c4dfa2:	e8 19 4a 0d 04       	call   7d229c0 <pthread_mutex_unlock@plt>
 3c4dfb6:	e8 05 4a 0d 04       	call   7d229c0 <pthread_mutex_unlock@plt>
 3c4dfca:	e8 f1 49 0d 04       	call   7d229c0 <pthread_mutex_unlock@plt>
 3c4dfde:	e8 dd 49 0d 04       	call   7d229c0 <pthread_mutex_unlock@plt>
 3c4dff2:	e8 c9 49 0d 04       	call   7d229c0 <pthread_mutex_unlock@plt>
 3c4e006:	e8 b5 49 0d 04       	call   7d229c0 <pthread_mutex_unlock@plt>
 3c4e01a:	e8 a1 49 0d 04       	call   7d229c0 <pthread_mutex_unlock@plt>
 3c4e02e:	e8 8d 49 0d 04       	call   7d229c0 <pthread_mutex_unlock@plt>
 3c4e042:	e8 79 49 0d 04       	call   7d229c0 <pthread_mutex_unlock@plt>
 3c4e056:	e8 65 49 0d 04       	call   7d229c0 <pthread_mutex_unlock@plt>
 3c4e06a:	e8 51 49 0d 04       	call   7d229c0 <pthread_mutex_unlock@plt>
 3c4e07e:	e8 3d 49 0d 04       	call   7d229c0 <pthread_mutex_unlock@plt>
 3c4e092:	e8 29 49 0d 04       	call   7d229c0 <pthread_mutex_unlock@plt>
 3c4e0a6:	e8 15 49 0d 04       	call   7d229c0 <pthread_mutex_unlock@plt>
 3c4e0ba:	e8 01 49 0d 04       	call   7d229c0 <pthread_mutex_unlock@plt>
 3c4e0d3:	e8 e8 48 0d 04       	call   7d229c0 <pthread_mutex_unlock@plt>
 3c4e0e6:	e8 d5 48 0d 04       	call   7d229c0 <pthread_mutex_unlock@plt>
 3c4e0fa:	e8 c1 48 0d 04       	call   7d229c0 <pthread_mutex_unlock@plt>
 3c4e10e:	e8 ad 48 0d 04       	call   7d229c0 <pthread_mutex_unlock@plt>
 3c4e13a:	e8 81 48 0d 04       	call   7d229c0 <pthread_mutex_unlock@plt>
 3c4e171:	e8 4a 48 0d 04       	call   7d229c0 <pthread_mutex_unlock@plt>
 3c4e19c:	e8 1f 48 0d 04       	call   7d229c0 <pthread_mutex_unlock@plt>
 3c4e219:	e8 a2 47 0d 04       	call   7d229c0 <pthread_mutex_unlock@plt>
 3c4e43a:	e8 81 45 0d 04       	call   7d229c0 <pthread_mutex_unlock@plt>
 3c4e44e:	e8 6d 45 0d 04       	call   7d229c0 <pthread_mutex_unlock@plt>
 3c4e500:	e8 bb 44 0d 04       	call   7d229c0 <pthread_mutex_unlock@plt>
 3c4e5cc:	e8 ef 43 0d 04       	call   7d229c0 <pthread_mutex_unlock@plt>
 3c4e5e0:	e8 db 43 0d 04       	call   7d229c0 <pthread_mutex_unlock@plt>
 3c4e763:	e8 28 0c e2 ff       	call   3a6f390 <std::unique_lock<std::mutex>::unlock()>
 3c4e777:	e8 14 0c e2 ff       	call   3a6f390 <std::unique_lock<std::mutex>::unlock()>
 3c4e78b:	e8 00 0c e2 ff       	call   3a6f390 <std::unique_lock<std::mutex>::unlock()>
 3c4e7c1:	e8 ca 0b e2 ff       	call   3a6f390 <std::unique_lock<std::mutex>::unlock()>
 3c4ea06:	e8 b5 3f 0d 04       	call   7d229c0 <pthread_mutex_unlock@plt>
 3c4ea71:	e8 4a 3f 0d 04       	call   7d229c0 <pthread_mutex_unlock@plt>
 3c4eb56:	e8 65 3e 0d 04       	call   7d229c0 <pthread_mutex_unlock@plt>
 3c4eb9c:	e8 1f 3e 0d 04       	call   7d229c0 <pthread_mutex_unlock@plt>
 3c4ebea:	e8 a1 07 e2 ff       	call   3a6f390 <std::unique_lock<std::mutex>::unlock()>
 3c4eeb5:	e8 d6 04 e2 ff       	call   3a6f390 <std::unique_lock<std::mutex>::unlock()>
 3c4f042:	e8 79 39 0d 04       	call   7d229c0 <pthread_mutex_unlock@plt>
 3c4f08b:	e8 30 39 0d 04       	call   7d229c0 <pthread_mutex_unlock@plt>
 3c4f1ba:	e8 01 38 0d 04       	call   7d229c0 <pthread_mutex_unlock@plt>
 3c4f1de:	e8 dd 37 0d 04       	call   7d229c0 <pthread_mutex_unlock@plt>
 3c4f218:	e8 73 01 e2 ff       	call   3a6f390 <std::unique_lock<std::mutex>::unlock()>
 3c4f26c:	e8 1f 01 e2 ff       	call   3a6f390 <std::unique_lock<std::mutex>::unlock()>
 3c4f878:	e8 43 31 0d 04       	call   7d229c0 <pthread_mutex_unlock@plt>
 3c4f9a6:	e8 15 30 0d 04       	call   7d229c0 <pthread_mutex_unlock@plt>
 3c4f9d6:	e8 e5 2f 0d 04       	call   7d229c0 <pthread_mutex_unlock@plt>
 3c4f9f8:	e8 c3 2f 0d 04       	call   7d229c0 <pthread_mutex_unlock@plt>
 3c4fa3d:	e8 7e 2f 0d 04       	call   7d229c0 <pthread_mutex_unlock@plt>
 3c4fbac:	e8 0f 2e 0d 04       	call   7d229c0 <pthread_mutex_unlock@plt>
 3c4fcac:	e8 0f 2d 0d 04       	call   7d229c0 <pthread_mutex_unlock@plt>
 3c4fcc1:	e8 ca f6 e1 ff       	call   3a6f390 <std::unique_lock<std::mutex>::unlock()>
 3c4fd9a:	e8 21 2c 0d 04       	call   7d229c0 <pthread_mutex_unlock@plt>
 3c50647:	e8 74 23 0d 04       	call   7d229c0 <pthread_mutex_unlock@plt>
 3c5065a:	e8 61 23 0d 04       	call   7d229c0 <pthread_mutex_unlock@plt>
 3c506ae:	e8 0d 23 0d 04       	call   7d229c0 <pthread_mutex_unlock@plt>
 3c506f7:	e8 c4 22 0d 04       	call   7d229c0 <pthread_mutex_unlock@plt>
 3c507e6:	e8 d5 21 0d 04       	call   7d229c0 <pthread_mutex_unlock@plt>
 3c50816:	e8 a5 21 0d 04       	call   7d229c0 <pthread_mutex_unlock@plt>
 3c50c0a:	e8 b1 1d 0d 04       	call   7d229c0 <pthread_mutex_unlock@plt>
 3c50d04:	e8 b7 1c 0d 04       	call   7d229c0 <pthread_mutex_unlock@plt>
 3c50d4a:	e8 71 1c 0d 04       	call   7d229c0 <pthread_mutex_unlock@plt>
 3c50d7b:	e8 40 1c 0d 04       	call   7d229c0 <pthread_mutex_unlock@plt>
 3c50dd5:	e8 e6 1b 0d 04       	call   7d229c0 <pthread_mutex_unlock@plt>
 3c50e64:	e8 27 e5 e1 ff       	call   3a6f390 <std::unique_lock<std::mutex>::unlock()>
 3c50fa4:	e8 e7 e3 e1 ff       	call   3a6f390 <std::unique_lock<std::mutex>::unlock()>
 3c514e3:	e8 a8 de e1 ff       	call   3a6f390 <std::unique_lock<std::mutex>::unlock()>
 3c5166a:	e8 51 13 0d 04       	call   7d229c0 <pthread_mutex_unlock@plt>
 3c51827:	e8 94 11 0d 04       	call   7d229c0 <pthread_mutex_unlock@plt>
 3c51854:	e8 67 11 0d 04       	call   7d229c0 <pthread_mutex_unlock@plt>
 3c5193d:	e8 7e 10 0d 04       	call   7d229c0 <pthread_mutex_unlock@plt>
 3c51d36:	e8 85 0c 0d 04       	call   7d229c0 <pthread_mutex_unlock@plt>
 3c51efc:	e8 bf 0a 0d 04       	call   7d229c0 <pthread_mutex_unlock@plt>
 3c51f44:	e8 77 0a 0d 04       	call   7d229c0 <pthread_mutex_unlock@plt>
 3c51f60:	e8 5b 0a 0d 04       	call   7d229c0 <pthread_mutex_unlock@plt>
 3c51f82:	e8 39 0a 0d 04       	call   7d229c0 <pthread_mutex_unlock@plt>
 3c522b3:	e8 08 07 0d 04       	call   7d229c0 <pthread_mutex_unlock@plt>
 3c522c6:	e8 f5 06 0d 04       	call   7d229c0 <pthread_mutex_unlock@plt>
 3c522db:	e8 b0 d0 e1 ff       	call   3a6f390 <std::unique_lock<std::mutex>::unlock()>
 3c5231e:	e8 9d 06 0d 04       	call   7d229c0 <pthread_mutex_unlock@plt>
 3c5273c:	e8 7f 02 0d 04       	call   7d229c0 <pthread_mutex_unlock@plt>
 3c528cd:	e8 be ca e1 ff       	call   3a6f390 <std::unique_lock<std::mutex>::unlock()>
 3c52906:	e8 b5 00 0d 04       	call   7d229c0 <pthread_mutex_unlock@plt>
 3c52944:	e8 77 00 0d 04       	call   7d229c0 <pthread_mutex_unlock@plt>
 3c52977:	e8 14 ca e1 ff       	call   3a6f390 <std::unique_lock<std::mutex>::unlock()>
 3c529d3:	e8 b8 c9 e1 ff       	call   3a6f390 <std::unique_lock<std::mutex>::unlock()>
 3c529ec:	e8 9f c9 e1 ff       	call   3a6f390 <std::unique_lock<std::mutex>::unlock()>
 3c52a1c:	e8 6f c9 e1 ff       	call   3a6f390 <std::unique_lock<std::mutex>::unlock()>
 3c52a2b:	e8 60 c9 e1 ff       	call   3a6f390 <std::unique_lock<std::mutex>::unlock()>
 3c52a92:	e8 f9 c8 e1 ff       	call   3a6f390 <std::unique_lock<std::mutex>::unlock()>
 3c52aa1:	e8 ea c8 e1 ff       	call   3a6f390 <std::unique_lock<std::mutex>::unlock()>
 3c52af0:	e8 9b c8 e1 ff       	call   3a6f390 <std::unique_lock<std::mutex>::unlock()>
 3c52aff:	e8 8c c8 e1 ff       	call   3a6f390 <std::unique_lock<std::mutex>::unlock()>
 3c52b19:	e8 72 c8 e1 ff       	call   3a6f390 <std::unique_lock<std::mutex>::unlock()>
 3c52b4a:	e8 41 c8 e1 ff       	call   3a6f390 <std::unique_lock<std::mutex>::unlock()>
 3c52b59:	e8 32 c8 e1 ff       	call   3a6f390 <std::unique_lock<std::mutex>::unlock()>
 3c52b78:	e8 13 c8 e1 ff       	call   3a6f390 <std::unique_lock<std::mutex>::unlock()>
 3c52b8d:	e8 fe c7 e1 ff       	call   3a6f390 <std::unique_lock<std::mutex>::unlock()>
 3c52cf3:	e8 c8 fc 0c 04       	call   7d229c0 <pthread_mutex_unlock@plt>
 3c5311f:	e8 9c f8 0c 04       	call   7d229c0 <pthread_mutex_unlock@plt>
 3c53206:	e8 b5 f7 0c 04       	call   7d229c0 <pthread_mutex_unlock@plt>
 3c5339c:	e8 ef bf e1 ff       	call   3a6f390 <std::unique_lock<std::mutex>::unlock()>
 3c534dc:	e8 af be e1 ff       	call   3a6f390 <std::unique_lock<std::mutex>::unlock()>
 3c539bd:	e8 fe ef 0c 04       	call   7d229c0 <pthread_mutex_unlock@plt>
 3c53ae0:	e8 db ee 0c 04       	call   7d229c0 <pthread_mutex_unlock@plt>
 3c53b66:	e8 55 ee 0c 04       	call   7d229c0 <pthread_mutex_unlock@plt>
 3c53dbd:	e8 fe eb 0c 04       	call   7d229c0 <pthread_mutex_unlock@plt>
 3c53fb7:	e8 04 ea 0c 04       	call   7d229c0 <pthread_mutex_unlock@plt>
 3c53fe2:	e8 d9 e9 0c 04       	call   7d229c0 <pthread_mutex_unlock@plt>
 3c54a35:	e8 86 df 0c 04       	call   7d229c0 <pthread_mutex_unlock@plt>
 3c54afe:	e8 bd de 0c 04       	call   7d229c0 <pthread_mutex_unlock@plt>
 3c54b19:	e8 a2 de 0c 04       	call   7d229c0 <pthread_mutex_unlock@plt>
 3c54d19:	e8 72 a6 e1 ff       	call   3a6f390 <std::unique_lock<std::mutex>::unlock()>
 3c54d61:	e8 2a a6 e1 ff       	call   3a6f390 <std::unique_lock<std::mutex>::unlock()>
 3c55122:	e8 99 d8 0c 04       	call   7d229c0 <pthread_mutex_unlock@plt>
 3c551bb:	e8 00 d8 0c 04       	call   7d229c0 <pthread_mutex_unlock@plt>
 3c551d1:	e8 ea d7 0c 04       	call   7d229c0 <pthread_mutex_unlock@plt>
 3c5520a:	e8 81 a1 e1 ff       	call   3a6f390 <std::unique_lock<std::mutex>::unlock()>
 3c55334:	e8 57 a0 e1 ff       	call   3a6f390 <std::unique_lock<std::mutex>::unlock()>
 3c55383:	e8 08 a0 e1 ff       	call   3a6f390 <std::unique_lock<std::mutex>::unlock()>
 3c55815:	e8 76 9b e1 ff       	call   3a6f390 <std::unique_lock<std::mutex>::unlock()>
 3c55ac4:	e8 c7 98 e1 ff       	call   3a6f390 <std::unique_lock<std::mutex>::unlock()>
 3c55c77:	e8 14 97 e1 ff       	call   3a6f390 <std::unique_lock<std::mutex>::unlock()>
 3c55cb5:	e8 06 cd 0c 04       	call   7d229c0 <pthread_mutex_unlock@plt>
 3c55ccb:	e8 c0 96 e1 ff       	call   3a6f390 <std::unique_lock<std::mutex>::unlock()>
 3c55d49:	e8 42 96 e1 ff       	call   3a6f390 <std::unique_lock<std::mutex>::unlock()>
 3c55d88:	e8 33 cc 0c 04       	call   7d229c0 <pthread_mutex_unlock@plt>
 3c56051:	e8 3a 93 e1 ff       	call   3a6f390 <std::unique_lock<std::mutex>::unlock()>
 3c560b1:	e8 0a c9 0c 04       	call   7d229c0 <pthread_mutex_unlock@plt>
 3c56108:	e8 83 92 e1 ff       	call   3a6f390 <std::unique_lock<std::mutex>::unlock()>
 3c56121:	e8 9a c8 0c 04       	call   7d229c0 <pthread_mutex_unlock@plt>
 3c56230:	e8 8b c7 0c 04       	call   7d229c0 <pthread_mutex_unlock@plt>
 3c564ff:	e8 bc c4 0c 04       	call   7d229c0 <pthread_mutex_unlock@plt>
 3c5672e:	e8 5d 8c e1 ff       	call   3a6f390 <std::unique_lock<std::mutex>::unlock()>
 3c567f9:	e8 92 8b e1 ff       	call   3a6f390 <std::unique_lock<std::mutex>::unlock()>
 3c56911:	e8 aa c0 0c 04       	call   7d229c0 <pthread_mutex_unlock@plt>
 3c56bb2:	e8 d9 87 e1 ff       	call   3a6f390 <std::unique_lock<std::mutex>::unlock()>
 3c573af:	e8 dc 7f e1 ff       	call   3a6f390 <std::unique_lock<std::mutex>::unlock()>
 3c57503:	e8 88 7e e1 ff       	call   3a6f390 <std::unique_lock<std::mutex>::unlock()>
 3c575c1:	e8 ca 7d e1 ff       	call   3a6f390 <std::unique_lock<std::mutex>::unlock()>
 3c575fc:	e8 8f 7d e1 ff       	call   3a6f390 <std::unique_lock<std::mutex>::unlock()>
 3c57f58:	e8 63 aa 0c 04       	call   7d229c0 <pthread_mutex_unlock@plt>
 3c57fb2:	e9 09 aa 0c 04       	jmp    7d229c0 <pthread_mutex_unlock@plt>
 3c58018:	e8 a3 a9 0c 04       	call   7d229c0 <pthread_mutex_unlock@plt>
 3c580d2:	e9 e9 a8 0c 04       	jmp    7d229c0 <pthread_mutex_unlock@plt>
 3c5862a:	e9 91 a3 0c 04       	jmp    7d229c0 <pthread_mutex_unlock@plt>
 3c586a7:	e8 14 a3 0c 04       	call   7d229c0 <pthread_mutex_unlock@plt>
 3c58b5a:	e9 61 9e 0c 04       	jmp    7d229c0 <pthread_mutex_unlock@plt>
 3c58bb3:	e8 d8 67 e1 ff       	call   3a6f390 <std::unique_lock<std::mutex>::unlock()>
 3c5905f:	e8 5c 99 0c 04       	call   7d229c0 <pthread_mutex_unlock@plt>
 3c590e3:	e8 a8 62 e1 ff       	call   3a6f390 <std::unique_lock<std::mutex>::unlock()>
 3c59134:	e8 57 62 e1 ff       	call   3a6f390 <std::unique_lock<std::mutex>::unlock()>
 3c59f26:	e8 95 8a 0c 04       	call   7d229c0 <pthread_mutex_unlock@plt>
 3c5a072:	e8 49 89 0c 04       	call   7d229c0 <pthread_mutex_unlock@plt>
 3c5a115:	e8 a6 88 0c 04       	call   7d229c0 <pthread_mutex_unlock@plt>
 3c6030a:	e8 b1 26 0c 04       	call   7d229c0 <pthread_mutex_unlock@plt>
 3c6076f:	e9 4c 22 0c 04       	jmp    7d229c0 <pthread_mutex_unlock@plt>
 3c60cd8:	e9 e3 1c 0c 04       	jmp    7d229c0 <pthread_mutex_unlock@plt>
 3c618f1:	e8 9a da e0 ff       	call   3a6f390 <std::unique_lock<std::mutex>::unlock()>
 3c6255f:	e9 5c 04 0c 04       	jmp    7d229c0 <pthread_mutex_unlock@plt>
 3c62b3d:	e8 7e fe 0b 04       	call   7d229c0 <pthread_mutex_unlock@plt>
 3c6314e:	e8 6d f8 0b 04       	call   7d229c0 <pthread_mutex_unlock@plt>
 3c631c6:	e8 f5 f7 0b 04       	call   7d229c0 <pthread_mutex_unlock@plt>
 3c63329:	e8 62 c0 e0 ff       	call   3a6f390 <std::unique_lock<std::mutex>::unlock()>
 3c6366a:	e8 51 f3 0b 04       	call   7d229c0 <pthread_mutex_unlock@plt>
 3c636e5:	e8 d6 f2 0b 04       	call   7d229c0 <pthread_mutex_unlock@plt>
 3c64c6a:	e8 51 dd 0b 04       	call   7d229c0 <pthread_mutex_unlock@plt>
 3c66a9e:	e9 1d bf 0b 04       	jmp    7d229c0 <pthread_mutex_unlock@plt>
 3c67323:	e8 98 b6 0b 04       	call   7d229c0 <pthread_mutex_unlock@plt>
 3c673e3:	e8 d8 b5 0b 04       	call   7d229c0 <pthread_mutex_unlock@plt>
 3c6747f:	e8 0c 7f e0 ff       	call   3a6f390 <std::unique_lock<std::mutex>::unlock()>
 3c675a3:	e8 e8 7d e0 ff       	call   3a6f390 <std::unique_lock<std::mutex>::unlock()>
 3c677e5:	e8 d6 b1 0b 04       	call   7d229c0 <pthread_mutex_unlock@plt>
 3c694ef:	e9 cc 94 0b 04       	jmp    7d229c0 <pthread_mutex_unlock@plt>
 3c6956b:	e9 50 94 0b 04       	jmp    7d229c0 <pthread_mutex_unlock@plt>
 3c695eb:	e9 d0 93 0b 04       	jmp    7d229c0 <pthread_mutex_unlock@plt>
 3c69a7c:	e9 3f 8f 0b 04       	jmp    7d229c0 <pthread_mutex_unlock@plt>
 3c6a329:	e8 62 50 e0 ff       	call   3a6f390 <std::unique_lock<std::mutex>::unlock()>
 3c6a58b:	e8 00 4e e0 ff       	call   3a6f390 <std::unique_lock<std::mutex>::unlock()>
 3c6bc3f:	e8 4c 37 e0 ff       	call   3a6f390 <std::unique_lock<std::mutex>::unlock()>
 3c6bc53:	e8 38 37 e0 ff       	call   3a6f390 <std::unique_lock<std::mutex>::unlock()>
 3c6c2e9:	e8 a2 30 e0 ff       	call   3a6f390 <std::unique_lock<std::mutex>::unlock()>
 3c6d38b:	e8 30 56 0b 04       	call   7d229c0 <pthread_mutex_unlock@plt>
 3c6dbdf:	e8 ac 17 e0 ff       	call   3a6f390 <std::unique_lock<std::mutex>::unlock()>
 3c6e3f7:	e9 c4 45 0b 04       	jmp    7d229c0 <pthread_mutex_unlock@plt>
 3c6e42f:	e8 5c 0f e0 ff       	call   3a6f390 <std::unique_lock<std::mutex>::unlock()>
 3c6e443:	e8 48 0f e0 ff       	call   3a6f390 <std::unique_lock<std::mutex>::unlock()>
 3c6e636:	e8 55 0d e0 ff       	call   3a6f390 <std::unique_lock<std::mutex>::unlock()>
 3c6e6d3:	e8 b8 0c e0 ff       	call   3a6f390 <std::unique_lock<std::mutex>::unlock()>
 3c6f06c:	e9 4f 39 0b 04       	jmp    7d229c0 <pthread_mutex_unlock@plt>
 3c6f310:	e9 ab 36 0b 04       	jmp    7d229c0 <pthread_mutex_unlock@plt>
 3c6f330:	e8 8b 36 0b 04       	call   7d229c0 <pthread_mutex_unlock@plt>
 3c6f3e6:	e8 a5 ff df ff       	call   3a6f390 <std::unique_lock<std::mutex>::unlock()>
 3c6f4ee:	e8 9d fe df ff       	call   3a6f390 <std::unique_lock<std::mutex>::unlock()>
 3c6f7bf:	e8 cc fb df ff       	call   3a6f390 <std::unique_lock<std::mutex>::unlock()>
 3c6f9d7:	e8 b4 f9 df ff       	call   3a6f390 <std::unique_lock<std::mutex>::unlock()>
 3c700ca:	e8 f1 28 0b 04       	call   7d229c0 <pthread_mutex_unlock@plt>
 3c70303:	e8 b8 26 0b 04       	call   7d229c0 <pthread_mutex_unlock@plt>
 3c7055d:	e8 5e 24 0b 04       	call   7d229c0 <pthread_mutex_unlock@plt>
 3c7083e:	e8 7d 21 0b 04       	call   7d229c0 <pthread_mutex_unlock@plt>
 3c7086b:	e8 50 21 0b 04       	call   7d229c0 <pthread_mutex_unlock@plt>
 3c70b3d:	e8 7e 1e 0b 04       	call   7d229c0 <pthread_mutex_unlock@plt>
 3c70ff4:	e8 c7 19 0b 04       	call   7d229c0 <pthread_mutex_unlock@plt>
 3c716ed:	e8 ce 12 0b 04       	call   7d229c0 <pthread_mutex_unlock@plt>
 3c7182f:	e8 5c db df ff       	call   3a6f390 <std::unique_lock<std::mutex>::unlock()>
 3c71b3e:	e8 7d 0e 0b 04       	call   7d229c0 <pthread_mutex_unlock@plt>
 3c71b52:	e8 69 0e 0b 04       	call   7d229c0 <pthread_mutex_unlock@plt>
 3c71b66:	e8 55 0e 0b 04       	call   7d229c0 <pthread_mutex_unlock@plt>
 3c71d2a:	e8 91 0c 0b 04       	call   7d229c0 <pthread_mutex_unlock@plt>
 3c720a5:	e8 e6 d2 df ff       	call   3a6f390 <std::unique_lock<std::mutex>::unlock()>
 3c723ff:	e8 8c cf df ff       	call   3a6f390 <std::unique_lock<std::mutex>::unlock()>
 3c72495:	e8 f6 ce df ff       	call   3a6f390 <std::unique_lock<std::mutex>::unlock()>
 3c7253e:	e8 4d ce df ff       	call   3a6f390 <std::unique_lock<std::mutex>::unlock()>
 3c72721:	e8 6a cc df ff       	call   3a6f390 <std::unique_lock<std::mutex>::unlock()>
 3c72736:	e8 55 cc df ff       	call   3a6f390 <std::unique_lock<std::mutex>::unlock()>
 3c727d5:	e8 b6 cb df ff       	call   3a6f390 <std::unique_lock<std::mutex>::unlock()>
 3c7299d:	e8 ee c9 df ff       	call   3a6f390 <std::unique_lock<std::mutex>::unlock()>
 3c72a6d:	e8 1e c9 df ff       	call   3a6f390 <std::unique_lock<std::mutex>::unlock()>
 3c72b52:	e8 69 fe 0a 04       	call   7d229c0 <pthread_mutex_unlock@plt>
 3c72caa:	e8 11 fd 0a 04       	call   7d229c0 <pthread_mutex_unlock@plt>
 3c72e96:	e8 25 fb 0a 04       	call   7d229c0 <pthread_mutex_unlock@plt>
 3c72ec0:	e8 fb fa 0a 04       	call   7d229c0 <pthread_mutex_unlock@plt>
 3c7319b:	e8 20 f8 0a 04       	call   7d229c0 <pthread_mutex_unlock@plt>
 3c7e667:	e9 54 43 0a 04       	jmp    7d229c0 <pthread_mutex_unlock@plt>
 3c7e848:	e9 73 41 0a 04       	jmp    7d229c0 <pthread_mutex_unlock@plt>
 3c7edc6:	e8 f5 3b 0a 04       	call   7d229c0 <pthread_mutex_unlock@plt>
 3c7fb3c:	e8 7f 2e 0a 04       	call   7d229c0 <pthread_mutex_unlock@plt>
 3c7fb80:	e8 3b 2e 0a 04       	call   7d229c0 <pthread_mutex_unlock@plt>
 3c7fda9:	e8 12 2c 0a 04       	call   7d229c0 <pthread_mutex_unlock@plt>
 3c80de3:	e8 d8 1b 0a 04       	call   7d229c0 <pthread_mutex_unlock@plt>
 3c80e97:	e8 24 1b 0a 04       	call   7d229c0 <pthread_mutex_unlock@plt>
 3c81065:	e9 56 19 0a 04       	jmp    7d229c0 <pthread_mutex_unlock@plt>
 3c810f3:	e8 c8 18 0a 04       	call   7d229c0 <pthread_mutex_unlock@plt>
 3c812f3:	e8 c8 16 0a 04       	call   7d229c0 <pthread_mutex_unlock@plt>
 3c8137b:	e8 40 16 0a 04       	call   7d229c0 <pthread_mutex_unlock@plt>
 3c813ca:	e8 f1 15 0a 04       	call   7d229c0 <pthread_mutex_unlock@plt>
 3c814a5:	e8 16 15 0a 04       	call   7d229c0 <pthread_mutex_unlock@plt>
 3c8163b:	e8 80 13 0a 04       	call   7d229c0 <pthread_mutex_unlock@plt>
 3c817bd:	e8 fe 11 0a 04       	call   7d229c0 <pthread_mutex_unlock@plt>
 3c8181d:	e8 9e 11 0a 04       	call   7d229c0 <pthread_mutex_unlock@plt>
 3c828af:	e8 0c 01 0a 04       	call   7d229c0 <pthread_mutex_unlock@plt>
 3c82a5d:	e9 5e ff 09 04       	jmp    7d229c0 <pthread_mutex_unlock@plt>
 3c82df7:	e8 c4 fb 09 04       	call   7d229c0 <pthread_mutex_unlock@plt>
 3c82e2d:	e8 8e fb 09 04       	call   7d229c0 <pthread_mutex_unlock@plt>
 3c82eef:	e8 cc fa 09 04       	call   7d229c0 <pthread_mutex_unlock@plt>
 3c83164:	e9 57 f8 09 04       	jmp    7d229c0 <pthread_mutex_unlock@plt>
 3c8320f:	e8 ac f7 09 04       	call   7d229c0 <pthread_mutex_unlock@plt>
 3c83245:	e8 76 f7 09 04       	call   7d229c0 <pthread_mutex_unlock@plt>
 3c833c7:	e8 f4 f5 09 04       	call   7d229c0 <pthread_mutex_unlock@plt>
 3c83565:	e8 56 f4 09 04       	call   7d229c0 <pthread_mutex_unlock@plt>
 3c83992:	e8 29 f0 09 04       	call   7d229c0 <pthread_mutex_unlock@plt>
 3c839a6:	e8 15 f0 09 04       	call   7d229c0 <pthread_mutex_unlock@plt>
 3c839e5:	e8 a6 b9 de ff       	call   3a6f390 <std::unique_lock<std::mutex>::unlock()>
 3c83a01:	e8 8a b9 de ff       	call   3a6f390 <std::unique_lock<std::mutex>::unlock()>
 3c83b77:	e9 44 ee 09 04       	jmp    7d229c0 <pthread_mutex_unlock@plt>
 3c83b85:	e8 36 ee 09 04       	call   7d229c0 <pthread_mutex_unlock@plt>
 3c84304:	e8 b7 e6 09 04       	call   7d229c0 <pthread_mutex_unlock@plt>
 3c84346:	e8 75 e6 09 04       	call   7d229c0 <pthread_mutex_unlock@plt>
 3c84369:	e8 52 e6 09 04       	call   7d229c0 <pthread_mutex_unlock@plt>
 3c843e4:	e8 d7 e5 09 04       	call   7d229c0 <pthread_mutex_unlock@plt>
 3c84405:	e8 b6 e5 09 04       	call   7d229c0 <pthread_mutex_unlock@plt>
 3c84456:	e8 65 e5 09 04       	call   7d229c0 <pthread_mutex_unlock@plt>
 3c8574e:	e9 6d d2 09 04       	jmp    7d229c0 <pthread_mutex_unlock@plt>
 3c857a8:	e8 13 d2 09 04       	call   7d229c0 <pthread_mutex_unlock@plt>
 3c858ac:	e8 0f d1 09 04       	call   7d229c0 <pthread_mutex_unlock@plt>
 3c858eb:	e8 d0 d0 09 04       	call   7d229c0 <pthread_mutex_unlock@plt>
 3c86637:	e8 84 c3 09 04       	call   7d229c0 <pthread_mutex_unlock@plt>
 3c866cf:	e8 ec c2 09 04       	call   7d229c0 <pthread_mutex_unlock@plt>
 3c86757:	e8 64 c2 09 04       	call   7d229c0 <pthread_mutex_unlock@plt>
 3c867ef:	e8 cc c1 09 04       	call   7d229c0 <pthread_mutex_unlock@plt>
 3c86905:	e8 b6 c0 09 04       	call   7d229c0 <pthread_mutex_unlock@plt>
 3c86a4a:	e9 71 bf 09 04       	jmp    7d229c0 <pthread_mutex_unlock@plt>
 3c86b17:	e8 a4 be 09 04       	call   7d229c0 <pthread_mutex_unlock@plt>
 3c8717c:	e8 3f b8 09 04       	call   7d229c0 <pthread_mutex_unlock@plt>
 3c87190:	e8 2b b8 09 04       	call   7d229c0 <pthread_mutex_unlock@plt>
 3c8723c:	e8 7f b7 09 04       	call   7d229c0 <pthread_mutex_unlock@plt>
 3c87250:	e8 6b b7 09 04       	call   7d229c0 <pthread_mutex_unlock@plt>
 3c87264:	e8 57 b7 09 04       	call   7d229c0 <pthread_mutex_unlock@plt>
 3c87278:	e8 43 b7 09 04       	call   7d229c0 <pthread_mutex_unlock@plt>
 3c872a7:	e8 14 b7 09 04       	call   7d229c0 <pthread_mutex_unlock@plt>
 3c87322:	e8 99 b6 09 04       	call   7d229c0 <pthread_mutex_unlock@plt>
 3c8ad1e:	e9 9d 7c 09 04       	jmp    7d229c0 <pthread_mutex_unlock@plt>
 3c8ada1:	e8 1a 7c 09 04       	call   7d229c0 <pthread_mutex_unlock@plt>
 3c8ae27:	e8 94 7b 09 04       	call   7d229c0 <pthread_mutex_unlock@plt>
 3c8ae50:	e8 6b 7b 09 04       	call   7d229c0 <pthread_mutex_unlock@plt>
 3c8aea7:	e8 14 7b 09 04       	call   7d229c0 <pthread_mutex_unlock@plt>
 3c8aed0:	e8 eb 7a 09 04       	call   7d229c0 <pthread_mutex_unlock@plt>
 3c8af5d:	e8 5e 7a 09 04       	call   7d229c0 <pthread_mutex_unlock@plt>
 3c8af65:	e8 56 7a 09 04       	call   7d229c0 <pthread_mutex_unlock@plt>
 3c8b02a:	e8 91 79 09 04       	call   7d229c0 <pthread_mutex_unlock@plt>
 3c8b03a:	e9 81 79 09 04       	jmp    7d229c0 <pthread_mutex_unlock@plt>
 3c8b0d2:	e8 e9 78 09 04       	call   7d229c0 <pthread_mutex_unlock@plt>
 3c8b2ac:	e8 0f 77 09 04       	call   7d229c0 <pthread_mutex_unlock@plt>
 3c8b2b4:	e8 07 77 09 04       	call   7d229c0 <pthread_mutex_unlock@plt>
 3c8b801:	e8 ba 71 09 04       	call   7d229c0 <pthread_mutex_unlock@plt>
 3c8b96e:	e8 4d 70 09 04       	call   7d229c0 <pthread_mutex_unlock@plt>
 3c8b982:	e8 39 70 09 04       	call   7d229c0 <pthread_mutex_unlock@plt>
 3c8b996:	e8 25 70 09 04       	call   7d229c0 <pthread_mutex_unlock@plt>
 3c8b99e:	e8 1d 70 09 04       	call   7d229c0 <pthread_mutex_unlock@plt>
 3c8b9b2:	e8 09 70 09 04       	call   7d229c0 <pthread_mutex_unlock@plt>
 3c8b9c6:	e8 f5 6f 09 04       	call   7d229c0 <pthread_mutex_unlock@plt>
 3c8b9ce:	e8 ed 6f 09 04       	call   7d229c0 <pthread_mutex_unlock@plt>
 3c8beea:	e8 d1 6a 09 04       	call   7d229c0 <pthread_mutex_unlock@plt>
 3c8cc9e:	e8 1d 5d 09 04       	call   7d229c0 <pthread_mutex_unlock@plt>
 3c8cccf:	e8 ec 5c 09 04       	call   7d229c0 <pthread_mutex_unlock@plt>
 3c8cd71:	e8 4a 5c 09 04       	call   7d229c0 <pthread_mutex_unlock@plt>
 3c8cdcc:	e8 ef 5b 09 04       	call   7d229c0 <pthread_mutex_unlock@plt>
 3c8ce0b:	e9 b0 5b 09 04       	jmp    7d229c0 <pthread_mutex_unlock@plt>
 3c8ce93:	e8 28 5b 09 04       	call   7d229c0 <pthread_mutex_unlock@plt>
 3c8d80a:	e8 b1 51 09 04       	call   7d229c0 <pthread_mutex_unlock@plt>
 3c8d812:	e8 a9 51 09 04       	call   7d229c0 <pthread_mutex_unlock@plt>
 3c8d991:	e8 2a 50 09 04       	call   7d229c0 <pthread_mutex_unlock@plt>
 3c94338:	e8 83 e6 08 04       	call   7d229c0 <pthread_mutex_unlock@plt>
 3c944b7:	e8 d4 ae dd ff       	call   3a6f390 <std::unique_lock<std::mutex>::unlock()>
 3c96825:	e8 66 8b dd ff       	call   3a6f390 <std::unique_lock<std::mutex>::unlock()>
 3c9743f:	e8 7c b5 08 04       	call   7d229c0 <pthread_mutex_unlock@plt>
 3c974a7:	e8 14 b5 08 04       	call   7d229c0 <pthread_mutex_unlock@plt>
 3c975a3:	e8 e8 7d dd ff       	call   3a6f390 <std::unique_lock<std::mutex>::unlock()>
 3ca307f:	e8 3c f9 07 04       	call   7d229c0 <pthread_mutex_unlock@plt>
 3ca36a2:	e8 19 f3 07 04       	call   7d229c0 <pthread_mutex_unlock@plt>
 3ca39e8:	e8 d3 ef 07 04       	call   7d229c0 <pthread_mutex_unlock@plt>
 3ca3a7c:	e8 3f ef 07 04       	call   7d229c0 <pthread_mutex_unlock@plt>
 3ca3c70:	e8 4b ed 07 04       	call   7d229c0 <pthread_mutex_unlock@plt>
 3ca54fa:	e8 c1 d4 07 04       	call   7d229c0 <pthread_mutex_unlock@plt>
 3ca5e90:	e9 2b cb 07 04       	jmp    7d229c0 <pthread_mutex_unlock@plt>
 3ca6bf8:	e8 c3 bd 07 04       	call   7d229c0 <pthread_mutex_unlock@plt>
 3ca7225:	e8 96 b7 07 04       	call   7d229c0 <pthread_mutex_unlock@plt>
 3ca7955:	e8 66 b0 07 04       	call   7d229c0 <pthread_mutex_unlock@plt>
 3ca7961:	e8 5a b0 07 04       	call   7d229c0 <pthread_mutex_unlock@plt>
 3ca7b80:	e8 3b ae 07 04       	call   7d229c0 <pthread_mutex_unlock@plt>
 3ca7c30:	e8 8b ad 07 04       	call   7d229c0 <pthread_mutex_unlock@plt>
 3ca9fff:	e8 bc 89 07 04       	call   7d229c0 <pthread_mutex_unlock@plt>
 3caa015:	e9 a6 89 07 04       	jmp    7d229c0 <pthread_mutex_unlock@plt>
 3caa0a2:	e8 19 89 07 04       	call   7d229c0 <pthread_mutex_unlock@plt>
 3caa5bd:	e8 fe 83 07 04       	call   7d229c0 <pthread_mutex_unlock@plt>
 3caa600:	e8 bb 83 07 04       	call   7d229c0 <pthread_mutex_unlock@plt>
 3caebdc:	e8 df 3d 07 04       	call   7d229c0 <pthread_mutex_unlock@plt>
 3caec1c:	e8 9f 3d 07 04       	call   7d229c0 <pthread_mutex_unlock@plt>
 3caeca5:	e9 16 3d 07 04       	jmp    7d229c0 <pthread_mutex_unlock@plt>
 3caf014:	e8 a7 39 07 04       	call   7d229c0 <pthread_mutex_unlock@plt>
 3caf434:	e8 87 35 07 04       	call   7d229c0 <pthread_mutex_unlock@plt>
 3caf47e:	e8 3d 35 07 04       	call   7d229c0 <pthread_mutex_unlock@plt>
 3cc1ede:	e8 dd 0a 06 04       	call   7d229c0 <pthread_mutex_unlock@plt>
 3cc1f0c:	e8 af 0a 06 04       	call   7d229c0 <pthread_mutex_unlock@plt>
 3cc9cc1:	e8 ba af 4b 03       	call   7184c80 <mongo::Lock::GlobalLock::_unlock()>
 3cca05e:	e8 1d ac 4b 03       	call   7184c80 <mongo::Lock::GlobalLock::_unlock()>
 3cca0ef:	e8 cc b0 4b 03       	call   71851c0 <mongo::Lock::ResourceLock::_unlock()>
 3cca107:	e8 b4 b0 4b 03       	call   71851c0 <mongo::Lock::ResourceLock::_unlock()>
 3cca2e0:	e8 db ae 4b 03       	call   71851c0 <mongo::Lock::ResourceLock::_unlock()>
 3cca2f1:	e8 ca ae 4b 03       	call   71851c0 <mongo::Lock::ResourceLock::_unlock()>
 3cd2c5c:	e8 5f fd 04 04       	call   7d229c0 <pthread_mutex_unlock@plt>
 3cd2cfb:	e8 c0 fc 04 04       	call   7d229c0 <pthread_mutex_unlock@plt>
 3cd2d98:	e8 23 fc 04 04       	call   7d229c0 <pthread_mutex_unlock@plt>
 3cd2dd9:	e8 e2 fb 04 04       	call   7d229c0 <pthread_mutex_unlock@plt>
 3cd2eba:	e8 01 fb 04 04       	call   7d229c0 <pthread_mutex_unlock@plt>
 3cd2f33:	e8 88 fa 04 04       	call   7d229c0 <pthread_mutex_unlock@plt>
 3cd2f6b:	e8 50 fa 04 04       	call   7d229c0 <pthread_mutex_unlock@plt>
 3cd307e:	e8 3d f9 04 04       	call   7d229c0 <pthread_mutex_unlock@plt>
 3cd3f6e:	e8 4d ea 04 04       	call   7d229c0 <pthread_mutex_unlock@plt>
 3cd3fdc:	e8 df e9 04 04       	call   7d229c0 <pthread_mutex_unlock@plt>
 3cd42e8:	e8 d3 e6 04 04       	call   7d229c0 <pthread_mutex_unlock@plt>
 3cd43e0:	e8 db e5 04 04       	call   7d229c0 <pthread_mutex_unlock@plt>
 3ce1959:	e8 22 33 4a 03       	call   7184c80 <mongo::Lock::GlobalLock::_unlock()>
 3ce1a82:	e8 f9 31 4a 03       	call   7184c80 <mongo::Lock::GlobalLock::_unlock()>
 3ce1af5:	e8 c6 36 4a 03       	call   71851c0 <mongo::Lock::ResourceLock::_unlock()>
 3ce1b05:	e8 b6 36 4a 03       	call   71851c0 <mongo::Lock::ResourceLock::_unlock()>
 3ce1b1b:	e8 a0 36 4a 03       	call   71851c0 <mongo::Lock::ResourceLock::_unlock()>
 3ce1b2d:	e8 8e 36 4a 03       	call   71851c0 <mongo::Lock::ResourceLock::_unlock()>
 3ce1eb0:	e8 cb 2d 4a 03       	call   7184c80 <mongo::Lock::GlobalLock::_unlock()>
 3ce2035:	e8 86 31 4a 03       	call   71851c0 <mongo::Lock::ResourceLock::_unlock()>
 3ce2045:	e8 76 31 4a 03       	call   71851c0 <mongo::Lock::ResourceLock::_unlock()>
 3cea468:	e8 13 a8 49 03       	call   7184c80 <mongo::Lock::GlobalLock::_unlock()>
 3cea49f:	e8 1c ad 49 03       	call   71851c0 <mongo::Lock::ResourceLock::_unlock()>
 3cea4af:	e8 0c ad 49 03       	call   71851c0 <mongo::Lock::ResourceLock::_unlock()>
 3cf25b5:	e8 06 04 03 04       	call   7d229c0 <pthread_mutex_unlock@plt>
 3cf265a:	e8 61 03 03 04       	call   7d229c0 <pthread_mutex_unlock@plt>
 3cf2fb2:	e9 09 fa 02 04       	jmp    7d229c0 <pthread_mutex_unlock@plt>
 3cf5f7b:	e8 40 ca 02 04       	call   7d229c0 <pthread_mutex_unlock@plt>
 3cf7985:	e8 36 b0 02 04       	call   7d229c0 <pthread_mutex_unlock@plt>
 3cf7a29:	e8 62 79 d7 ff       	call   3a6f390 <std::unique_lock<std::mutex>::unlock()>
 3cf8133:	e8 88 a8 02 04       	call   7d229c0 <pthread_mutex_unlock@plt>
 3cf8915:	e8 a6 a0 02 04       	call   7d229c0 <pthread_mutex_unlock@plt>
 3cf8bc6:	e8 f5 9d 02 04       	call   7d229c0 <pthread_mutex_unlock@plt>
 3cf8faa:	e8 11 9a 02 04       	call   7d229c0 <pthread_mutex_unlock@plt>
 3cf9335:	e8 56 60 d7 ff       	call   3a6f390 <std::unique_lock<std::mutex>::unlock()>
 3cf9708:	e8 b3 92 02 04       	call   7d229c0 <pthread_mutex_unlock@plt>
 3cf98d1:	e8 ba 5a d7 ff       	call   3a6f390 <std::unique_lock<std::mutex>::unlock()>
 3cf9a58:	e8 63 8f 02 04       	call   7d229c0 <pthread_mutex_unlock@plt>
 3cf9bb0:	e8 0b 8e 02 04       	call   7d229c0 <pthread_mutex_unlock@plt>
 3cf9d38:	e8 83 8c 02 04       	call   7d229c0 <pthread_mutex_unlock@plt>
 3cfa795:	e8 f6 4b d7 ff       	call   3a6f390 <std::unique_lock<std::mutex>::unlock()>
 3cfa7f7:	e8 94 4b d7 ff       	call   3a6f390 <std::unique_lock<std::mutex>::unlock()>
 3cfa877:	e8 14 4b d7 ff       	call   3a6f390 <std::unique_lock<std::mutex>::unlock()>
 3cfadb7:	e8 04 7c 02 04       	call   7d229c0 <pthread_mutex_unlock@plt>
 3cfadc3:	e8 f8 7b 02 04       	call   7d229c0 <pthread_mutex_unlock@plt>
 3cfb420:	e8 9b 75 02 04       	call   7d229c0 <pthread_mutex_unlock@plt>
 3cfb5dc:	e8 df 73 02 04       	call   7d229c0 <pthread_mutex_unlock@plt>
 3cfb9f4:	e8 97 39 d7 ff       	call   3a6f390 <std::unique_lock<std::mutex>::unlock()>
 3cfbaa2:	e8 19 6f 02 04       	call   7d229c0 <pthread_mutex_unlock@plt>
 3cfbbbb:	e8 d0 37 d7 ff       	call   3a6f390 <std::unique_lock<std::mutex>::unlock()>
 3cfbbe5:	e8 d6 6d 02 04       	call   7d229c0 <pthread_mutex_unlock@plt>
 3cfbc8f:	e8 2c 6d 02 04       	call   7d229c0 <pthread_mutex_unlock@plt>
 3cfcd8e:	e8 2d 5c 02 04       	call   7d229c0 <pthread_mutex_unlock@plt>
 3cfdb02:	e8 b9 4e 02 04       	call   7d229c0 <pthread_mutex_unlock@plt>
 3cfdb56:	e8 65 4e 02 04       	call   7d229c0 <pthread_mutex_unlock@plt>
 3cfdb9e:	e8 1d 4e 02 04       	call   7d229c0 <pthread_mutex_unlock@plt>
 3cfdbde:	e8 dd 4d 02 04       	call   7d229c0 <pthread_mutex_unlock@plt>
 3cfdcff:	e8 8c 16 d7 ff       	call   3a6f390 <std::unique_lock<std::mutex>::unlock()>
 3cfddc8:	e8 f3 4b 02 04       	call   7d229c0 <pthread_mutex_unlock@plt>
 3cfdeef:	e8 cc 4a 02 04       	call   7d229c0 <pthread_mutex_unlock@plt>
 3cfe338:	e8 83 46 02 04       	call   7d229c0 <pthread_mutex_unlock@plt>
 3cfe7ba:	e8 d1 0b d7 ff       	call   3a6f390 <std::unique_lock<std::mutex>::unlock()>
 3cfe9f2:	e8 c9 3f 02 04       	call   7d229c0 <pthread_mutex_unlock@plt>
 3cfe9fe:	e8 bd 3f 02 04       	call   7d229c0 <pthread_mutex_unlock@plt>
 3cfea7d:	e8 3e 3f 02 04       	call   7d229c0 <pthread_mutex_unlock@plt>
 3cfeafe:	e8 bd 3e 02 04       	call   7d229c0 <pthread_mutex_unlock@plt>
 3cfeb91:	e8 fa 07 d7 ff       	call   3a6f390 <std::unique_lock<std::mutex>::unlock()>
 3d00071:	e8 4a 29 02 04       	call   7d229c0 <pthread_mutex_unlock@plt>
 3d000d3:	e8 e8 28 02 04       	call   7d229c0 <pthread_mutex_unlock@plt>
 3d00135:	e8 86 28 02 04       	call   7d229c0 <pthread_mutex_unlock@plt>
 3d00169:	e8 52 28 02 04       	call   7d229c0 <pthread_mutex_unlock@plt>
 3d001b0:	e8 0b 28 02 04       	call   7d229c0 <pthread_mutex_unlock@plt>
 3d02d0c:	e8 7f c6 d6 ff       	call   3a6f390 <std::unique_lock<std::mutex>::unlock()>
 3d0398c:	e8 ff b9 d6 ff       	call   3a6f390 <std::unique_lock<std::mutex>::unlock()>
 3d05681:	e8 3a d3 01 04       	call   7d229c0 <pthread_mutex_unlock@plt>
 3d05738:	e8 83 d2 01 04       	call   7d229c0 <pthread_mutex_unlock@plt>
 3d061bf:	e8 fc c7 01 04       	call   7d229c0 <pthread_mutex_unlock@plt>
 3d0644d:	e8 6e c5 01 04       	call   7d229c0 <pthread_mutex_unlock@plt>
 3d07229:	e8 92 b7 01 04       	call   7d229c0 <pthread_mutex_unlock@plt>
 3d0734c:	e8 6f b6 01 04       	call   7d229c0 <pthread_mutex_unlock@plt>
 3d081f4:	e9 c7 a7 01 04       	jmp    7d229c0 <pthread_mutex_unlock@plt>
 3d0820d:	e8 7e 71 d6 ff       	call   3a6f390 <std::unique_lock<std::mutex>::unlock()>
 3d0825f:	e8 5c a7 01 04       	call   7d229c0 <pthread_mutex_unlock@plt>
 3d099ac:	e9 0f 90 01 04       	jmp    7d229c0 <pthread_mutex_unlock@plt>
 3d099c5:	e8 c6 59 d6 ff       	call   3a6f390 <std::unique_lock<std::mutex>::unlock()>
 3d09a0d:	e8 ae 8f 01 04       	call   7d229c0 <pthread_mutex_unlock@plt>
 3d09b34:	e8 57 58 d6 ff       	call   3a6f390 <std::unique_lock<std::mutex>::unlock()>
 3d0c297:	e8 f4 30 d6 ff       	call   3a6f390 <std::unique_lock<std::mutex>::unlock()>
 3d0c7e6:	e8 d5 61 01 04       	call   7d229c0 <pthread_mutex_unlock@plt>
 3d0c9b7:	e8 d4 29 d6 ff       	call   3a6f390 <std::unique_lock<std::mutex>::unlock()>
 3d0ce2b:	e8 90 5b 01 04       	call   7d229c0 <pthread_mutex_unlock@plt>
 3d0cfaf:	e8 dc 23 d6 ff       	call   3a6f390 <std::unique_lock<std::mutex>::unlock()>
 3d0d5bf:	e8 cc 1d d6 ff       	call   3a6f390 <std::unique_lock<std::mutex>::unlock()>
 3d0ef1f:	e8 6c 04 d6 ff       	call   3a6f390 <std::unique_lock<std::mutex>::unlock()>
 3d0f834:	e8 57 fb d5 ff       	call   3a6f390 <std::unique_lock<std::mutex>::unlock()>
 3d0fb46:	e8 75 2e 01 04       	call   7d229c0 <pthread_mutex_unlock@plt>
 3d0fc84:	e8 07 f7 d5 ff       	call   3a6f390 <std::unique_lock<std::mutex>::unlock()>
 3d104e9:	e8 a2 ee d5 ff       	call   3a6f390 <std::unique_lock<std::mutex>::unlock()>
 3d10aaf:	e8 dc e8 d5 ff       	call   3a6f390 <std::unique_lock<std::mutex>::unlock()>
 3d11ac9:	e8 c2 d8 d5 ff       	call   3a6f390 <std::unique_lock<std::mutex>::unlock()>
 3d11baa:	e8 e1 d7 d5 ff       	call   3a6f390 <std::unique_lock<std::mutex>::unlock()>
 3d11bbb:	e8 d0 d7 d5 ff       	call   3a6f390 <std::unique_lock<std::mutex>::unlock()>
 3d11dbc:	e8 cf d5 d5 ff       	call   3a6f390 <std::unique_lock<std::mutex>::unlock()>
 3d11ecc:	e8 bf d4 d5 ff       	call   3a6f390 <std::unique_lock<std::mutex>::unlock()>
 3d11f33:	e8 58 d4 d5 ff       	call   3a6f390 <std::unique_lock<std::mutex>::unlock()>
 3d22010:	e8 ab 09 00 04       	call   7d229c0 <pthread_mutex_unlock@plt>
 3d22040:	e8 7b 09 00 04       	call   7d229c0 <pthread_mutex_unlock@plt>
 3d221e3:	e8 d8 07 00 04       	call   7d229c0 <pthread_mutex_unlock@plt>
 3d2250c:	e8 af 04 00 04       	call   7d229c0 <pthread_mutex_unlock@plt>
 3d22539:	e8 82 04 00 04       	call   7d229c0 <pthread_mutex_unlock@plt>
 3d22767:	e8 54 02 00 04       	call   7d229c0 <pthread_mutex_unlock@plt>
 3d23383:	e8 38 f6 ff 03       	call   7d229c0 <pthread_mutex_unlock@plt>
 3d25fa3:	e8 18 ca ff 03       	call   7d229c0 <pthread_mutex_unlock@plt>
 3d260c9:	e8 f2 c8 ff 03       	call   7d229c0 <pthread_mutex_unlock@plt>
 3d26f21:	e8 9a ba ff 03       	call   7d229c0 <pthread_mutex_unlock@plt>
 3d26f89:	e8 32 ba ff 03       	call   7d229c0 <pthread_mutex_unlock@plt>
 3d2760e:	e8 ad b3 ff 03       	call   7d229c0 <pthread_mutex_unlock@plt>
 3d27b5e:	e8 5d ae ff 03       	call   7d229c0 <pthread_mutex_unlock@plt>
 3d27d67:	e9 54 ac ff 03       	jmp    7d229c0 <pthread_mutex_unlock@plt>
 3d2841d:	e8 9e a5 ff 03       	call   7d229c0 <pthread_mutex_unlock@plt>
 3d29855:	e8 66 91 ff 03       	call   7d229c0 <pthread_mutex_unlock@plt>
 3d2a5cf:	e9 ec 83 ff 03       	jmp    7d229c0 <pthread_mutex_unlock@plt>
 3d2ac11:	e8 aa 7d ff 03       	call   7d229c0 <pthread_mutex_unlock@plt>
 3d2b72e:	e8 8d 72 ff 03       	call   7d229c0 <pthread_mutex_unlock@plt>
 3d3035a:	e8 61 26 ff 03       	call   7d229c0 <pthread_mutex_unlock@plt>
 3d305d3:	e8 e8 23 ff 03       	call   7d229c0 <pthread_mutex_unlock@plt>
 3d30863:	e8 58 21 ff 03       	call   7d229c0 <pthread_mutex_unlock@plt>
 3d3086b:	e8 50 21 ff 03       	call   7d229c0 <pthread_mutex_unlock@plt>
 3d309da:	e8 e1 1f ff 03       	call   7d229c0 <pthread_mutex_unlock@plt>
 3d30c8c:	e8 2f 1d ff 03       	call   7d229c0 <pthread_mutex_unlock@plt>
 3d30d30:	e9 8b 1c ff 03       	jmp    7d229c0 <pthread_mutex_unlock@plt>
 3d31020:	e9 9b 19 ff 03       	jmp    7d229c0 <pthread_mutex_unlock@plt>
 3d313fb:	e8 c0 15 ff 03       	call   7d229c0 <pthread_mutex_unlock@plt>
 3d314e8:	e8 d3 14 ff 03       	call   7d229c0 <pthread_mutex_unlock@plt>
 3d31994:	e8 27 10 ff 03       	call   7d229c0 <pthread_mutex_unlock@plt>
 3d3199c:	e8 1f 10 ff 03       	call   7d229c0 <pthread_mutex_unlock@plt>
 3d319fe:	e8 bd 0f ff 03       	call   7d229c0 <pthread_mutex_unlock@plt>
 3d31a80:	e8 3b 0f ff 03       	call   7d229c0 <pthread_mutex_unlock@plt>
 3d31b43:	e8 78 0e ff 03       	call   7d229c0 <pthread_mutex_unlock@plt>
 3d31c4a:	e8 71 0d ff 03       	call   7d229c0 <pthread_mutex_unlock@plt>
 3d31ca7:	e8 14 0d ff 03       	call   7d229c0 <pthread_mutex_unlock@plt>
 3d31caf:	e8 0c 0d ff 03       	call   7d229c0 <pthread_mutex_unlock@plt>
 3d31dc3:	e8 f8 0b ff 03       	call   7d229c0 <pthread_mutex_unlock@plt>
 3d32064:	e8 27 d3 d3 ff       	call   3a6f390 <std::unique_lock<std::mutex>::unlock()>
 3d323f5:	e8 c6 05 ff 03       	call   7d229c0 <pthread_mutex_unlock@plt>
 3d3297a:	e8 41 00 ff 03       	call   7d229c0 <pthread_mutex_unlock@plt>
 3d3355a:	e8 61 f4 fe 03       	call   7d229c0 <pthread_mutex_unlock@plt>
 3d33b1d:	e8 9e ee fe 03       	call   7d229c0 <pthread_mutex_unlock@plt>
 3d33b33:	e8 88 ee fe 03       	call   7d229c0 <pthread_mutex_unlock@plt>
 3d33b66:	e9 55 ee fe 03       	jmp    7d229c0 <pthread_mutex_unlock@plt>
 3d33b6e:	e8 4d ee fe 03       	call   7d229c0 <pthread_mutex_unlock@plt>
 3d33b9a:	e8 21 ee fe 03       	call   7d229c0 <pthread_mutex_unlock@plt>
 3d33c43:	e8 78 ed fe 03       	call   7d229c0 <pthread_mutex_unlock@plt>
 3d33e37:	e8 84 eb fe 03       	call   7d229c0 <pthread_mutex_unlock@plt>
 3d33e57:	e8 64 eb fe 03       	call   7d229c0 <pthread_mutex_unlock@plt>
 3d33f58:	e8 63 ea fe 03       	call   7d229c0 <pthread_mutex_unlock@plt>
 3d34010:	e8 ab e9 fe 03       	call   7d229c0 <pthread_mutex_unlock@plt>
 3d340d1:	e8 ea e8 fe 03       	call   7d229c0 <pthread_mutex_unlock@plt>
 3d340e3:	e8 d8 e8 fe 03       	call   7d229c0 <pthread_mutex_unlock@plt>
 3d34108:	e8 b3 e8 fe 03       	call   7d229c0 <pthread_mutex_unlock@plt>
 3d34141:	e8 7a e8 fe 03       	call   7d229c0 <pthread_mutex_unlock@plt>
 3d34163:	e8 58 e8 fe 03       	call   7d229c0 <pthread_mutex_unlock@plt>
 3d34190:	e8 2b e8 fe 03       	call   7d229c0 <pthread_mutex_unlock@plt>
 3d34234:	e8 87 e7 fe 03       	call   7d229c0 <pthread_mutex_unlock@plt>
 3d34427:	e8 94 e5 fe 03       	call   7d229c0 <pthread_mutex_unlock@plt>
 3d3505a:	e8 61 d9 fe 03       	call   7d229c0 <pthread_mutex_unlock@plt>
 3d355fb:	e8 c0 d3 fe 03       	call   7d229c0 <pthread_mutex_unlock@plt>
 3d3572d:	e8 5e 9c d3 ff       	call   3a6f390 <std::unique_lock<std::mutex>::unlock()>
 3d363bc:	e8 ff c5 fe 03       	call   7d229c0 <pthread_mutex_unlock@plt>
 3d36957:	e8 64 c0 fe 03       	call   7d229c0 <pthread_mutex_unlock@plt>
 3d3696f:	e8 1c 8a d3 ff       	call   3a6f390 <std::unique_lock<std::mutex>::unlock()>
 3d36a1e:	e8 9d bf fe 03       	call   7d229c0 <pthread_mutex_unlock@plt>
 3d36a64:	e8 57 bf fe 03       	call   7d229c0 <pthread_mutex_unlock@plt>
 3d36a7a:	e8 41 bf fe 03       	call   7d229c0 <pthread_mutex_unlock@plt>
 3d36b02:	e8 b9 be fe 03       	call   7d229c0 <pthread_mutex_unlock@plt>
 3d36b6e:	e8 4d be fe 03       	call   7d229c0 <pthread_mutex_unlock@plt>
 3d36c02:	e8 b9 bd fe 03       	call   7d229c0 <pthread_mutex_unlock@plt>
 3d36c75:	e8 46 bd fe 03       	call   7d229c0 <pthread_mutex_unlock@plt>
 3d36c9c:	e8 1f bd fe 03       	call   7d229c0 <pthread_mutex_unlock@plt>
 3d37a1a:	e8 a1 af fe 03       	call   7d229c0 <pthread_mutex_unlock@plt>
 3d39703:	e8 b8 92 fe 03       	call   7d229c0 <pthread_mutex_unlock@plt>
 3d3a143:	e8 48 52 d3 ff       	call   3a6f390 <std::unique_lock<std::mutex>::unlock()>
 3d3f37b:	e8 40 36 fe 03       	call   7d229c0 <pthread_mutex_unlock@plt>
 3d3f5ed:	e8 ce 33 fe 03       	call   7d229c0 <pthread_mutex_unlock@plt>
 3d3fcd2:	e8 e9 2c fe 03       	call   7d229c0 <pthread_mutex_unlock@plt>
 3d4026c:	e8 4f 27 fe 03       	call   7d229c0 <pthread_mutex_unlock@plt>
 3d406a9:	e8 12 23 fe 03       	call   7d229c0 <pthread_mutex_unlock@plt>
 3d42830:	e8 8b 01 fe 03       	call   7d229c0 <pthread_mutex_unlock@plt>
 3d43dbe:	e8 fd eb fd 03       	call   7d229c0 <pthread_mutex_unlock@plt>
 3d45620:	e8 9b d3 fd 03       	call   7d229c0 <pthread_mutex_unlock@plt>
 3d47898:	e8 23 b1 fd 03       	call   7d229c0 <pthread_mutex_unlock@plt>
 3d47941:	e8 4a 7a d2 ff       	call   3a6f390 <std::unique_lock<std::mutex>::unlock()>
 3d479ed:	e8 ce af fd 03       	call   7d229c0 <pthread_mutex_unlock@plt>
 3d47a41:	e8 7a af fd 03       	call   7d229c0 <pthread_mutex_unlock@plt>
 3d47b41:	e8 4a 78 d2 ff       	call   3a6f390 <std::unique_lock<std::mutex>::unlock()>
 3d47b68:	e8 23 78 d2 ff       	call   3a6f390 <std::unique_lock<std::mutex>::unlock()>
 3d47c7b:	e8 40 ad fd 03       	call   7d229c0 <pthread_mutex_unlock@plt>
 3d47d00:	e8 8b 76 d2 ff       	call   3a6f390 <std::unique_lock<std::mutex>::unlock()>
 3d48004:	e8 b7 a9 fd 03       	call   7d229c0 <pthread_mutex_unlock@plt>
 3d48104:	e8 87 72 d2 ff       	call   3a6f390 <std::unique_lock<std::mutex>::unlock()>
 3d490cb:	e9 f0 98 fd 03       	jmp    7d229c0 <pthread_mutex_unlock@plt>
 3d492b6:	e8 05 97 fd 03       	call   7d229c0 <pthread_mutex_unlock@plt>
 3d496fd:	e8 be 92 fd 03       	call   7d229c0 <pthread_mutex_unlock@plt>
 3d49ab6:	e8 05 8f fd 03       	call   7d229c0 <pthread_mutex_unlock@plt>
 3d4b36a:	e8 51 76 fd 03       	call   7d229c0 <pthread_mutex_unlock@plt>
 3d4b3aa:	e8 11 76 fd 03       	call   7d229c0 <pthread_mutex_unlock@plt>
 3d4b52e:	e8 8d 74 fd 03       	call   7d229c0 <pthread_mutex_unlock@plt>
 3d613f8:	e8 c3 15 fc 03       	call   7d229c0 <pthread_mutex_unlock@plt>
 3d61403:	e8 b8 15 fc 03       	call   7d229c0 <pthread_mutex_unlock@plt>
 3d61427:	e8 94 15 fc 03       	call   7d229c0 <pthread_mutex_unlock@plt>
 3d6143d:	e9 7e 15 fc 03       	jmp    7d229c0 <pthread_mutex_unlock@plt>
 3d61508:	e8 b3 14 fc 03       	call   7d229c0 <pthread_mutex_unlock@plt>
 3d61513:	e8 a8 14 fc 03       	call   7d229c0 <pthread_mutex_unlock@plt>
 3d61537:	e8 84 14 fc 03       	call   7d229c0 <pthread_mutex_unlock@plt>
 3d6154d:	e9 6e 14 fc 03       	jmp    7d229c0 <pthread_mutex_unlock@plt>
 3d61618:	e8 a3 13 fc 03       	call   7d229c0 <pthread_mutex_unlock@plt>
 3d61623:	e8 98 13 fc 03       	call   7d229c0 <pthread_mutex_unlock@plt>
 3d61647:	e8 74 13 fc 03       	call   7d229c0 <pthread_mutex_unlock@plt>
 3d6165d:	e9 5e 13 fc 03       	jmp    7d229c0 <pthread_mutex_unlock@plt>
 3d61728:	e8 93 12 fc 03       	call   7d229c0 <pthread_mutex_unlock@plt>
 3d61733:	e8 88 12 fc 03       	call   7d229c0 <pthread_mutex_unlock@plt>
 3d61757:	e8 64 12 fc 03       	call   7d229c0 <pthread_mutex_unlock@plt>
 3d6176d:	e9 4e 12 fc 03       	jmp    7d229c0 <pthread_mutex_unlock@plt>
 3d61838:	e8 83 11 fc 03       	call   7d229c0 <pthread_mutex_unlock@plt>
 3d61843:	e8 78 11 fc 03       	call   7d229c0 <pthread_mutex_unlock@plt>
 3d61867:	e8 54 11 fc 03       	call   7d229c0 <pthread_mutex_unlock@plt>
 3d6187d:	e9 3e 11 fc 03       	jmp    7d229c0 <pthread_mutex_unlock@plt>
 3d618e4:	e8 d7 10 fc 03       	call   7d229c0 <pthread_mutex_unlock@plt>
 3d619ae:	e9 0d 10 fc 03       	jmp    7d229c0 <pthread_mutex_unlock@plt>
 3d61a5e:	e9 5d 0f fc 03       	jmp    7d229c0 <pthread_mutex_unlock@plt>
 3d61b11:	e8 aa 0e fc 03       	call   7d229c0 <pthread_mutex_unlock@plt>
 3d61e74:	e8 47 0b fc 03       	call   7d229c0 <pthread_mutex_unlock@plt>
 3d61f23:	e8 98 0a fc 03       	call   7d229c0 <pthread_mutex_unlock@plt>
 3d61f47:	e8 74 0a fc 03       	call   7d229c0 <pthread_mutex_unlock@plt>
 3d61f57:	e8 64 0a fc 03       	call   7d229c0 <pthread_mutex_unlock@plt>
 3d620ad:	e8 0e 09 fc 03       	call   7d229c0 <pthread_mutex_unlock@plt>
 3d6223b:	e8 80 07 fc 03       	call   7d229c0 <pthread_mutex_unlock@plt>
 3d622b8:	e8 03 07 fc 03       	call   7d229c0 <pthread_mutex_unlock@plt>
 3d62458:	e8 63 05 fc 03       	call   7d229c0 <pthread_mutex_unlock@plt>
 3d627f0:	e9 cb 01 fc 03       	jmp    7d229c0 <pthread_mutex_unlock@plt>
 3d62b2d:	e9 8e fe fb 03       	jmp    7d229c0 <pthread_mutex_unlock@plt>
 3d62beb:	e8 d0 fd fb 03       	call   7d229c0 <pthread_mutex_unlock@plt>
 3d62c2f:	e8 8c fd fb 03       	call   7d229c0 <pthread_mutex_unlock@plt>
 3d62c37:	e8 84 fd fb 03       	call   7d229c0 <pthread_mutex_unlock@plt>
 3d6310c:	e8 af f8 fb 03       	call   7d229c0 <pthread_mutex_unlock@plt>
 3d63140:	e8 7b f8 fb 03       	call   7d229c0 <pthread_mutex_unlock@plt>
 3d63174:	e8 47 f8 fb 03       	call   7d229c0 <pthread_mutex_unlock@plt>
 3d631ba:	e8 01 f8 fb 03       	call   7d229c0 <pthread_mutex_unlock@plt>
 3d63208:	e8 b3 f7 fb 03       	call   7d229c0 <pthread_mutex_unlock@plt>
 3d7b60a:	e8 b1 73 fa 03       	call   7d229c0 <pthread_mutex_unlock@plt>
 3d7f44a:	e8 71 35 fa 03       	call   7d229c0 <pthread_mutex_unlock@plt>
 3d81295:	e8 e6 39 40 03       	call   7184c80 <mongo::Lock::GlobalLock::_unlock()>
 3d812e3:	e8 d8 3e 40 03       	call   71851c0 <mongo::Lock::ResourceLock::_unlock()>
 3d812f7:	e8 c4 3e 40 03       	call   71851c0 <mongo::Lock::ResourceLock::_unlock()>
 3d981aa:	e8 11 a8 f8 03       	call   7d229c0 <pthread_mutex_unlock@plt>
 3d99a99:	e8 22 8f f8 03       	call   7d229c0 <pthread_mutex_unlock@plt>
 3d9a6a8:	e8 13 ab 3e 03       	call   71851c0 <mongo::Lock::ResourceLock::_unlock()>
 3d9b1db:	e8 b0 41 cd ff       	call   3a6f390 <std::unique_lock<std::mutex>::unlock()>
 3d9b77c:	e8 3f 9a 3e 03       	call   71851c0 <mongo::Lock::ResourceLock::_unlock()>
 3d9edb5:	e8 06 3c f8 03       	call   7d229c0 <pthread_mutex_unlock@plt>
 3d9ee7a:	e8 41 3b f8 03       	call   7d229c0 <pthread_mutex_unlock@plt>
 3da04f3:	e8 c8 24 f8 03       	call   7d229c0 <pthread_mutex_unlock@plt>
 3da1f0a:	e8 b1 0a f8 03       	call   7d229c0 <pthread_mutex_unlock@plt>
 3da45fb:	e8 c0 e3 f7 03       	call   7d229c0 <pthread_mutex_unlock@plt>
 3da4835:	e8 86 09 3e 03       	call   71851c0 <mongo::Lock::ResourceLock::_unlock()>
 3da5fef:	e8 cc f1 3d 03       	call   71851c0 <mongo::Lock::ResourceLock::_unlock()>
 3da6e2b:	e8 90 bb f7 03       	call   7d229c0 <pthread_mutex_unlock@plt>
 3da700b:	e8 b0 b9 f7 03       	call   7d229c0 <pthread_mutex_unlock@plt>
 3dace4a:	e8 71 5b f7 03       	call   7d229c0 <pthread_mutex_unlock@plt>
 3dadbc4:	e8 b7 70 3d 03       	call   7184c80 <mongo::Lock::GlobalLock::_unlock()>
 3dadc9a:	e8 21 75 3d 03       	call   71851c0 <mongo::Lock::ResourceLock::_unlock()>
 3dadcab:	e8 10 75 3d 03       	call   71851c0 <mongo::Lock::ResourceLock::_unlock()>
 3dae99c:	e8 1f 40 f7 03       	call   7d229c0 <pthread_mutex_unlock@plt>
 3daeb29:	e8 62 08 cc ff       	call   3a6f390 <std::unique_lock<std::mutex>::unlock()>
 3db74aa:	e8 11 b5 f6 03       	call   7d229c0 <pthread_mutex_unlock@plt>
 3dbdcda:	e8 e1 4c f6 03       	call   7d229c0 <pthread_mutex_unlock@plt>
 3dc03ba:	e8 01 26 f6 03       	call   7d229c0 <pthread_mutex_unlock@plt>
 3dc1515:	e8 a6 14 f6 03       	call   7d229c0 <pthread_mutex_unlock@plt>
 3dc6a34:	e8 87 e7 3b 03       	call   71851c0 <mongo::Lock::ResourceLock::_unlock()>
 3dc7ddc:	e8 df d3 3b 03       	call   71851c0 <mongo::Lock::ResourceLock::_unlock()>
 3dc7fca:	e8 f1 d1 3b 03       	call   71851c0 <mongo::Lock::ResourceLock::_unlock()>
 3dc84ef:	e8 cc cc 3b 03       	call   71851c0 <mongo::Lock::ResourceLock::_unlock()>
 3dc86a5:	e8 16 cb 3b 03       	call   71851c0 <mongo::Lock::ResourceLock::_unlock()>
 3dc8a58:	e8 63 c7 3b 03       	call   71851c0 <mongo::Lock::ResourceLock::_unlock()>
 3dc9df2:	e8 c9 8b f5 03       	call   7d229c0 <pthread_mutex_unlock@plt>
 3dcacc4:	e8 f7 7c f5 03       	call   7d229c0 <pthread_mutex_unlock@plt>
 3dcc18d:	e8 2e 90 3b 03       	call   71851c0 <mongo::Lock::ResourceLock::_unlock()>
 3dcc2dd:	e8 ae 30 ca ff       	call   3a6f390 <std::unique_lock<std::mutex>::unlock()>
 3dcc2f9:	e8 c2 8e 3b 03       	call   71851c0 <mongo::Lock::ResourceLock::_unlock()>
 3dcc30e:	e8 ad 8e 3b 03       	call   71851c0 <mongo::Lock::ResourceLock::_unlock()>
 3dcc3bf:	e8 fc 8d 3b 03       	call   71851c0 <mongo::Lock::ResourceLock::_unlock()>
 3dd3742:	e8 79 f2 f4 03       	call   7d229c0 <pthread_mutex_unlock@plt>
 3dd42d4:	e8 e7 e6 f4 03       	call   7d229c0 <pthread_mutex_unlock@plt>
 3dd515a:	e8 61 d8 f4 03       	call   7d229c0 <pthread_mutex_unlock@plt>
 3dd8978:	e8 03 c3 3a 03       	call   7184c80 <mongo::Lock::GlobalLock::_unlock()>
 3dd8a2c:	e8 8f c7 3a 03       	call   71851c0 <mongo::Lock::ResourceLock::_unlock()>
 3dd8a3f:	e8 7c c7 3a 03       	call   71851c0 <mongo::Lock::ResourceLock::_unlock()>
 3dd8bd8:	e8 a3 c0 3a 03       	call   7184c80 <mongo::Lock::GlobalLock::_unlock()>
 3dd8c9c:	e8 1f c5 3a 03       	call   71851c0 <mongo::Lock::ResourceLock::_unlock()>
 3dd8cb5:	e8 06 c5 3a 03       	call   71851c0 <mongo::Lock::ResourceLock::_unlock()>
 3dd997a:	e8 41 90 f4 03       	call   7d229c0 <pthread_mutex_unlock@plt>
 3ddf86a:	e8 51 31 f4 03       	call   7d229c0 <pthread_mutex_unlock@plt>
 3dece5a:	e8 61 5b f3 03       	call   7d229c0 <pthread_mutex_unlock@plt>
 3df7745:	e9 76 b2 f2 03       	jmp    7d229c0 <pthread_mutex_unlock@plt>
 3df77e9:	e9 d2 b1 f2 03       	jmp    7d229c0 <pthread_mutex_unlock@plt>
 3e0ab39:	e8 52 48 c6 ff       	call   3a6f390 <std::unique_lock<std::mutex>::unlock()>
 3e0ac5d:	e8 2e 47 c6 ff       	call   3a6f390 <std::unique_lock<std::mutex>::unlock()>
 3e2a21a:	e8 a1 87 ef 03       	call   7d229c0 <pthread_mutex_unlock@plt>
 3e2a640:	e8 7b 83 ef 03       	call   7d229c0 <pthread_mutex_unlock@plt>
 3e2aa17:	e8 a4 7f ef 03       	call   7d229c0 <pthread_mutex_unlock@plt>
 3e2baf8:	e8 c3 6e ef 03       	call   7d229c0 <pthread_mutex_unlock@plt>
 3e2bb14:	e8 a7 6e ef 03       	call   7d229c0 <pthread_mutex_unlock@plt>
 3e2bd63:	e8 58 6c ef 03       	call   7d229c0 <pthread_mutex_unlock@plt>
 3e32518:	e8 a3 04 ef 03       	call   7d229c0 <pthread_mutex_unlock@plt>
 3e3541c:	e8 9f d5 ee 03       	call   7d229c0 <pthread_mutex_unlock@plt>
 3e3d333:	e8 88 56 ee 03       	call   7d229c0 <pthread_mutex_unlock@plt>
 3e3dd70:	e9 4b 4c ee 03       	jmp    7d229c0 <pthread_mutex_unlock@plt>
 3e3de9e:	e8 1d 4b ee 03       	call   7d229c0 <pthread_mutex_unlock@plt>
 3e3e3d2:	e9 e9 45 ee 03       	jmp    7d229c0 <pthread_mutex_unlock@plt>
 3e3e46d:	e8 4e 45 ee 03       	call   7d229c0 <pthread_mutex_unlock@plt>
 3e3e4a3:	e8 18 45 ee 03       	call   7d229c0 <pthread_mutex_unlock@plt>
 3e3fc9d:	e8 1e 2d ee 03       	call   7d229c0 <pthread_mutex_unlock@plt>
 3e4026f:	e8 4c 27 ee 03       	call   7d229c0 <pthread_mutex_unlock@plt>
 3e40763:	e8 58 22 ee 03       	call   7d229c0 <pthread_mutex_unlock@plt>
 3e4093c:	e8 7f 20 ee 03       	call   7d229c0 <pthread_mutex_unlock@plt>
 3e40ec8:	e8 f3 1a ee 03       	call   7d229c0 <pthread_mutex_unlock@plt>
 3e40fbd:	e8 fe 19 ee 03       	call   7d229c0 <pthread_mutex_unlock@plt>
 3e413d9:	e8 e2 15 ee 03       	call   7d229c0 <pthread_mutex_unlock@plt>
 3e416fe:	e8 bd 12 ee 03       	call   7d229c0 <pthread_mutex_unlock@plt>
 3e43ed5:	e8 e6 ea ed 03       	call   7d229c0 <pthread_mutex_unlock@plt>
 3e455a1:	e8 1a d4 ed 03       	call   7d229c0 <pthread_mutex_unlock@plt>
 3e45698:	e8 23 d3 ed 03       	call   7d229c0 <pthread_mutex_unlock@plt>
 3e46a46:	e8 75 bf ed 03       	call   7d229c0 <pthread_mutex_unlock@plt>
 3e47677:	e8 44 b3 ed 03       	call   7d229c0 <pthread_mutex_unlock@plt>
 3e477c1:	e8 fa b1 ed 03       	call   7d229c0 <pthread_mutex_unlock@plt>
 3e486a6:	e8 15 a3 ed 03       	call   7d229c0 <pthread_mutex_unlock@plt>
 3e486f8:	e8 c3 a2 ed 03       	call   7d229c0 <pthread_mutex_unlock@plt>
 3e48833:	e8 88 a1 ed 03       	call   7d229c0 <pthread_mutex_unlock@plt>
 3e49177:	e8 44 98 ed 03       	call   7d229c0 <pthread_mutex_unlock@plt>
 3e49757:	e8 64 92 ed 03       	call   7d229c0 <pthread_mutex_unlock@plt>
 3e49ae8:	e8 d3 8e ed 03       	call   7d229c0 <pthread_mutex_unlock@plt>
 3e4a04d:	e8 6e 89 ed 03       	call   7d229c0 <pthread_mutex_unlock@plt>
 3e4a14a:	e8 71 88 ed 03       	call   7d229c0 <pthread_mutex_unlock@plt>
 3e4a346:	e8 75 86 ed 03       	call   7d229c0 <pthread_mutex_unlock@plt>
 3e4b212:	e8 a9 77 ed 03       	call   7d229c0 <pthread_mutex_unlock@plt>
 3e4e6e0:	e8 db 42 ed 03       	call   7d229c0 <pthread_mutex_unlock@plt>
 3e4eacc:	e8 ef 3e ed 03       	call   7d229c0 <pthread_mutex_unlock@plt>
 3e507d3:	e8 e8 21 ed 03       	call   7d229c0 <pthread_mutex_unlock@plt>
 3e50cd2:	e8 e9 1c ed 03       	call   7d229c0 <pthread_mutex_unlock@plt>
 3e50e17:	e8 a4 1b ed 03       	call   7d229c0 <pthread_mutex_unlock@plt>
 3e50edf:	e8 dc 1a ed 03       	call   7d229c0 <pthread_mutex_unlock@plt>
 3e50f7b:	e8 40 1a ed 03       	call   7d229c0 <pthread_mutex_unlock@plt>
 3e51034:	e8 87 19 ed 03       	call   7d229c0 <pthread_mutex_unlock@plt>
 3e5163e:	e8 7d 13 ed 03       	call   7d229c0 <pthread_mutex_unlock@plt>
 3e51ead:	e8 0e 0b ed 03       	call   7d229c0 <pthread_mutex_unlock@plt>
 3e51ef1:	e8 ca 0a ed 03       	call   7d229c0 <pthread_mutex_unlock@plt>
 3e5203c:	e8 7f 09 ed 03       	call   7d229c0 <pthread_mutex_unlock@plt>
 3e521aa:	e8 11 08 ed 03       	call   7d229c0 <pthread_mutex_unlock@plt>
 3e521dd:	e8 de 07 ed 03       	call   7d229c0 <pthread_mutex_unlock@plt>
 3e523cf:	e8 ec 05 ed 03       	call   7d229c0 <pthread_mutex_unlock@plt>
 3e52432:	e8 89 05 ed 03       	call   7d229c0 <pthread_mutex_unlock@plt>
 3e52663:	e8 58 03 ed 03       	call   7d229c0 <pthread_mutex_unlock@plt>
 3e52694:	e8 27 03 ed 03       	call   7d229c0 <pthread_mutex_unlock@plt>
 3e5278e:	e8 2d 02 ed 03       	call   7d229c0 <pthread_mutex_unlock@plt>
 3e527e9:	e8 d2 01 ed 03       	call   7d229c0 <pthread_mutex_unlock@plt>
 3e529df:	e8 dc ff ec 03       	call   7d229c0 <pthread_mutex_unlock@plt>
 3e5ae84:	e8 07 45 c1 ff       	call   3a6f390 <std::unique_lock<std::mutex>::unlock()>
 3e5aecc:	e8 bf 44 c1 ff       	call   3a6f390 <std::unique_lock<std::mutex>::unlock()>
 3e5af65:	e8 26 44 c1 ff       	call   3a6f390 <std::unique_lock<std::mutex>::unlock()>
 3e64404:	e8 87 af c0 ff       	call   3a6f390 <std::unique_lock<std::mutex>::unlock()>
 3e64459:	e8 32 af c0 ff       	call   3a6f390 <std::unique_lock<std::mutex>::unlock()>
 3e64641:	e8 4a ad c0 ff       	call   3a6f390 <std::unique_lock<std::mutex>::unlock()>
 3e64744:	e8 47 ac c0 ff       	call   3a6f390 <std::unique_lock<std::mutex>::unlock()>
 3e64799:	e8 f2 ab c0 ff       	call   3a6f390 <std::unique_lock<std::mutex>::unlock()>
 3e648c8:	e8 c3 aa c0 ff       	call   3a6f390 <std::unique_lock<std::mutex>::unlock()>
 3e6f2ff:	e9 bc 36 eb 03       	jmp    7d229c0 <pthread_mutex_unlock@plt>
 3e73294:	e8 27 f7 ea 03       	call   7d229c0 <pthread_mutex_unlock@plt>
 3e804ba:	e8 01 25 ea 03       	call   7d229c0 <pthread_mutex_unlock@plt>
 3e9d91a:	e8 a1 50 e8 03       	call   7d229c0 <pthread_mutex_unlock@plt>
 3ec0d8a:	e8 31 1c e6 03       	call   7d229c0 <pthread_mutex_unlock@plt>
 3ec6372:	e8 49 c6 e5 03       	call   7d229c0 <pthread_mutex_unlock@plt>
 3ec959d:	e8 1e 94 e5 03       	call   7d229c0 <pthread_mutex_unlock@plt>
 3ecaa68:	e8 53 7f e5 03       	call   7d229c0 <pthread_mutex_unlock@plt>
 3ecaaa1:	e8 1a 7f e5 03       	call   7d229c0 <pthread_mutex_unlock@plt>
 3ecaeab:	e8 10 7b e5 03       	call   7d229c0 <pthread_mutex_unlock@plt>
 3eced24:	e9 97 3c e5 03       	jmp    7d229c0 <pthread_mutex_unlock@plt>
 3ecf7ca:	e8 f1 31 e5 03       	call   7d229c0 <pthread_mutex_unlock@plt>
 3ed0818:	e8 a3 21 e5 03       	call   7d229c0 <pthread_mutex_unlock@plt>
 3ed0b2c:	e8 8f 1e e5 03       	call   7d229c0 <pthread_mutex_unlock@plt>
 3ed18c0:	e8 fb 10 e5 03       	call   7d229c0 <pthread_mutex_unlock@plt>
 3ed1a3a:	e8 81 0f e5 03       	call   7d229c0 <pthread_mutex_unlock@plt>
 3ed20ad:	e8 0e 09 e5 03       	call   7d229c0 <pthread_mutex_unlock@plt>
 3ed2cda:	e8 e1 fc e4 03       	call   7d229c0 <pthread_mutex_unlock@plt>
 3ed49c1:	e8 fa df e4 03       	call   7d229c0 <pthread_mutex_unlock@plt>
 3ed4b8d:	e8 2e de e4 03       	call   7d229c0 <pthread_mutex_unlock@plt>
 3ed4c59:	e8 62 dd e4 03       	call   7d229c0 <pthread_mutex_unlock@plt>
 3ed4dee:	e8 cd db e4 03       	call   7d229c0 <pthread_mutex_unlock@plt>
 3ed75e7:	e9 d4 b3 e4 03       	jmp    7d229c0 <pthread_mutex_unlock@plt>
 3ed8ebb:	e8 00 9b e4 03       	call   7d229c0 <pthread_mutex_unlock@plt>
 3ed90fb:	e8 c0 98 e4 03       	call   7d229c0 <pthread_mutex_unlock@plt>
 3ed9630:	e8 8b 93 e4 03       	call   7d229c0 <pthread_mutex_unlock@plt>
 3edb618:	e9 a3 73 e4 03       	jmp    7d229c0 <pthread_mutex_unlock@plt>
 3edcc81:	e9 3a 5d e4 03       	jmp    7d229c0 <pthread_mutex_unlock@plt>
 3edd9ab:	e8 10 50 e4 03       	call   7d229c0 <pthread_mutex_unlock@plt>
 3edda1b:	e8 a0 4f e4 03       	call   7d229c0 <pthread_mutex_unlock@plt>
 3ede8f0:	e8 cb 40 e4 03       	call   7d229c0 <pthread_mutex_unlock@plt>
 3ede921:	e8 9a 40 e4 03       	call   7d229c0 <pthread_mutex_unlock@plt>
 3eded3d:	e8 7e 3c e4 03       	call   7d229c0 <pthread_mutex_unlock@plt>
 3edf130:	e8 8b 38 e4 03       	call   7d229c0 <pthread_mutex_unlock@plt>
 3edf161:	e8 5a 38 e4 03       	call   7d229c0 <pthread_mutex_unlock@plt>
 3edf57d:	e8 3e 34 e4 03       	call   7d229c0 <pthread_mutex_unlock@plt>
 3ee178c:	e8 2f 12 e4 03       	call   7d229c0 <pthread_mutex_unlock@plt>
 3ee261c:	e8 9f 03 e4 03       	call   7d229c0 <pthread_mutex_unlock@plt>
 3ee3aea:	e8 d1 ee e3 03       	call   7d229c0 <pthread_mutex_unlock@plt>
 3ee3ce9:	e8 d2 ec e3 03       	call   7d229c0 <pthread_mutex_unlock@plt>
 3ee4204:	e8 b7 e7 e3 03       	call   7d229c0 <pthread_mutex_unlock@plt>
 3ee438a:	e8 31 e6 e3 03       	call   7d229c0 <pthread_mutex_unlock@plt>
 3ee46e9:	e8 d2 e2 e3 03       	call   7d229c0 <pthread_mutex_unlock@plt>
 3ee4cfe:	e8 bd dc e3 03       	call   7d229c0 <pthread_mutex_unlock@plt>
 3ee4da4:	e9 17 dc e3 03       	jmp    7d229c0 <pthread_mutex_unlock@plt>
 3ee4e44:	e9 77 db e3 03       	jmp    7d229c0 <pthread_mutex_unlock@plt>
 3eee25a:	e8 61 47 e3 03       	call   7d229c0 <pthread_mutex_unlock@plt>
 3eef773:	e8 48 5a 29 03       	call   71851c0 <mongo::Lock::ResourceLock::_unlock()>
 3ef2f31:	e8 8a 22 29 03       	call   71851c0 <mongo::Lock::ResourceLock::_unlock()>
 3ef4a8a:	e8 31 df e2 03       	call   7d229c0 <pthread_mutex_unlock@plt>
 3efb8ae:	e8 0d 71 e2 03       	call   7d229c0 <pthread_mutex_unlock@plt>
 3efc6b1:	e8 0a 63 e2 03       	call   7d229c0 <pthread_mutex_unlock@plt>
 3f2c40a:	e8 b1 65 df 03       	call   7d229c0 <pthread_mutex_unlock@plt>
 3f2f49a:	e8 21 35 df 03       	call   7d229c0 <pthread_mutex_unlock@plt>
 3f32218:	e8 73 d1 b3 ff       	call   3a6f390 <std::unique_lock<std::mutex>::unlock()>
 3f32d7d:	e9 3e fc de 03       	jmp    7d229c0 <pthread_mutex_unlock@plt>
 3f3359f:	e8 1c f4 de 03       	call   7d229c0 <pthread_mutex_unlock@plt>
 3f34457:	e8 34 af b3 ff       	call   3a6f390 <std::unique_lock<std::mutex>::unlock()>
 3f34de6:	e8 a5 a5 b3 ff       	call   3a6f390 <std::unique_lock<std::mutex>::unlock()>
 3f35383:	e8 38 d6 de 03       	call   7d229c0 <pthread_mutex_unlock@plt>
 3f35629:	e8 62 9d b3 ff       	call   3a6f390 <std::unique_lock<std::mutex>::unlock()>
 3f6d8da:	e8 e1 50 db 03       	call   7d229c0 <pthread_mutex_unlock@plt>
 3f7c71a:	e8 a1 62 da 03       	call   7d229c0 <pthread_mutex_unlock@plt>
 3f8005a:	e8 61 29 da 03       	call   7d229c0 <pthread_mutex_unlock@plt>
 3f8d4aa:	e8 11 55 d9 03       	call   7d229c0 <pthread_mutex_unlock@plt>
 3f90e29:	e8 92 43 1f 03       	call   71851c0 <mongo::Lock::ResourceLock::_unlock()>
 3f919f2:	e8 c9 37 1f 03       	call   71851c0 <mongo::Lock::ResourceLock::_unlock()>
 3f98bca:	e8 f1 9d d8 03       	call   7d229c0 <pthread_mutex_unlock@plt>
 3f9b69c:	e8 1f 9b 1e 03       	call   71851c0 <mongo::Lock::ResourceLock::_unlock()>
 3f9b9e9:	e8 d2 97 1e 03       	call   71851c0 <mongo::Lock::ResourceLock::_unlock()>
 3f9c314:	e8 a7 8e 1e 03       	call   71851c0 <mongo::Lock::ResourceLock::_unlock()>
 3f9c39c:	e8 1f 8e 1e 03       	call   71851c0 <mongo::Lock::ResourceLock::_unlock()>
 3fa637a:	e8 41 c6 d7 03       	call   7d229c0 <pthread_mutex_unlock@plt>
 3fa63ec:	e8 cf c5 d7 03       	call   7d229c0 <pthread_mutex_unlock@plt>
 3fbd5f6:	e8 c5 53 d6 03       	call   7d229c0 <pthread_mutex_unlock@plt>
 3fbd6b9:	e8 02 53 d6 03       	call   7d229c0 <pthread_mutex_unlock@plt>
 3fbdb1b:	e8 a0 4e d6 03       	call   7d229c0 <pthread_mutex_unlock@plt>
 3fbe317:	e8 a4 46 d6 03       	call   7d229c0 <pthread_mutex_unlock@plt>
 3fbe43d:	e8 7e 45 d6 03       	call   7d229c0 <pthread_mutex_unlock@plt>
 3fbfdd4:	e9 e7 2b d6 03       	jmp    7d229c0 <pthread_mutex_unlock@plt>
 3fc0117:	e8 a4 28 d6 03       	call   7d229c0 <pthread_mutex_unlock@plt>
 3fc08ba:	e8 01 21 d6 03       	call   7d229c0 <pthread_mutex_unlock@plt>
 3fc0b5a:	e8 61 1e d6 03       	call   7d229c0 <pthread_mutex_unlock@plt>
 3fc0f65:	e8 56 1a d6 03       	call   7d229c0 <pthread_mutex_unlock@plt>
 3fc103c:	e8 7f 19 d6 03       	call   7d229c0 <pthread_mutex_unlock@plt>
 3fc1c00:	e8 bb 0d d6 03       	call   7d229c0 <pthread_mutex_unlock@plt>
 3fca04a:	e8 71 89 d5 03       	call   7d229c0 <pthread_mutex_unlock@plt>
 3fd1e46:	e8 75 0b d5 03       	call   7d229c0 <pthread_mutex_unlock@plt>
 3fd1f47:	e8 74 0a d5 03       	call   7d229c0 <pthread_mutex_unlock@plt>
 3fd23db:	e8 e0 05 d5 03       	call   7d229c0 <pthread_mutex_unlock@plt>
 3fd25b7:	e8 04 04 d5 03       	call   7d229c0 <pthread_mutex_unlock@plt>
 3fd26dd:	e8 de 02 d5 03       	call   7d229c0 <pthread_mutex_unlock@plt>
 3fd4584:	e9 37 e4 d4 03       	jmp    7d229c0 <pthread_mutex_unlock@plt>
 3fd499b:	e8 20 e0 d4 03       	call   7d229c0 <pthread_mutex_unlock@plt>
 3fd4e81:	e8 3a db d4 03       	call   7d229c0 <pthread_mutex_unlock@plt>
 3fd5a6c:	e8 4f cf d4 03       	call   7d229c0 <pthread_mutex_unlock@plt>
 3fd6818:	e8 a3 c1 d4 03       	call   7d229c0 <pthread_mutex_unlock@plt>
 3fd6905:	e8 b6 c0 d4 03       	call   7d229c0 <pthread_mutex_unlock@plt>
 3fd7019:	e8 a2 b9 d4 03       	call   7d229c0 <pthread_mutex_unlock@plt>
 3fdbb4a:	e8 71 6e d4 03       	call   7d229c0 <pthread_mutex_unlock@plt>
 3fddb24:	e8 97 76 1a 03       	call   71851c0 <mongo::Lock::ResourceLock::_unlock()>
 3fddc33:	e8 88 75 1a 03       	call   71851c0 <mongo::Lock::ResourceLock::_unlock()>
 3fe457e:	e8 3d 0c 1a 03       	call   71851c0 <mongo::Lock::ResourceLock::_unlock()>
 3fe538c:	e8 2f fe 19 03       	call   71851c0 <mongo::Lock::ResourceLock::_unlock()>
 3fe5d14:	e8 a7 f4 19 03       	call   71851c0 <mongo::Lock::ResourceLock::_unlock()>
 3fe6c66:	e8 55 bd d3 03       	call   7d229c0 <pthread_mutex_unlock@plt>
 3fe6d67:	e8 54 bc d3 03       	call   7d229c0 <pthread_mutex_unlock@plt>
 3fe71fb:	e8 c0 b7 d3 03       	call   7d229c0 <pthread_mutex_unlock@plt>
 3fe73d7:	e8 e4 b5 d3 03       	call   7d229c0 <pthread_mutex_unlock@plt>
 3fe74fd:	e8 be b4 d3 03       	call   7d229c0 <pthread_mutex_unlock@plt>
 3fe8d64:	e9 57 9c d3 03       	jmp    7d229c0 <pthread_mutex_unlock@plt>
 3fe8fad:	e8 0e 9a d3 03       	call   7d229c0 <pthread_mutex_unlock@plt>
 3fe92de:	e8 dd 96 d3 03       	call   7d229c0 <pthread_mutex_unlock@plt>
 3fe9d8d:	e8 2e 8c d3 03       	call   7d229c0 <pthread_mutex_unlock@plt>
 3feab43:	e8 78 7e d3 03       	call   7d229c0 <pthread_mutex_unlock@plt>
 3feac92:	e8 29 7d d3 03       	call   7d229c0 <pthread_mutex_unlock@plt>
 3feb115:	e8 a6 78 d3 03       	call   7d229c0 <pthread_mutex_unlock@plt>
 3feb2aa:	e8 11 77 d3 03       	call   7d229c0 <pthread_mutex_unlock@plt>
 3fecfca:	e8 f1 81 19 03       	call   71851c0 <mongo::Lock::ResourceLock::_unlock()>
 3fed76a:	e8 51 7a 19 03       	call   71851c0 <mongo::Lock::ResourceLock::_unlock()>
 3fee717:	e8 a4 6a 19 03       	call   71851c0 <mongo::Lock::ResourceLock::_unlock()>
 3fee8a3:	e8 18 69 19 03       	call   71851c0 <mongo::Lock::ResourceLock::_unlock()>
 3ff2d5a:	e8 61 fc d2 03       	call   7d229c0 <pthread_mutex_unlock@plt>
 3ff7d91:	e8 2a d4 18 03       	call   71851c0 <mongo::Lock::ResourceLock::_unlock()>
 3ff8971:	e8 4a c8 18 03       	call   71851c0 <mongo::Lock::ResourceLock::_unlock()>
 3ffd5fa:	e8 c1 53 d2 03       	call   7d229c0 <pthread_mutex_unlock@plt>
 3fffa00:	e8 bb 2f d2 03       	call   7d229c0 <pthread_mutex_unlock@plt>
 4000e10:	e8 7b e5 a6 ff       	call   3a6f390 <std::unique_lock<std::mutex>::unlock()>
 400c452:	e8 69 65 d1 03       	call   7d229c0 <pthread_mutex_unlock@plt>
 400c4da:	e8 e1 64 d1 03       	call   7d229c0 <pthread_mutex_unlock@plt>
 400c88a:	e8 31 89 17 03       	call   71851c0 <mongo::Lock::ResourceLock::_unlock()>
 400c9b5:	e8 06 88 17 03       	call   71851c0 <mongo::Lock::ResourceLock::_unlock()>
 400cae5:	e8 d6 86 17 03       	call   71851c0 <mongo::Lock::ResourceLock::_unlock()>
 400d92a:	e9 91 50 d1 03       	jmp    7d229c0 <pthread_mutex_unlock@plt>
 400dadd:	e8 de 4e d1 03       	call   7d229c0 <pthread_mutex_unlock@plt>
 401624e:	e8 6d ef 16 03       	call   71851c0 <mongo::Lock::ResourceLock::_unlock()>
 401626a:	e8 51 ef 16 03       	call   71851c0 <mongo::Lock::ResourceLock::_unlock()>
 4016286:	e8 35 ef 16 03       	call   71851c0 <mongo::Lock::ResourceLock::_unlock()>
 4016341:	e8 7a c6 d0 03       	call   7d229c0 <pthread_mutex_unlock@plt>
 40163c4:	e8 f7 c5 d0 03       	call   7d229c0 <pthread_mutex_unlock@plt>
 40192b3:	e8 08 97 d0 03       	call   7d229c0 <pthread_mutex_unlock@plt>
 40192ec:	e8 cf 96 d0 03       	call   7d229c0 <pthread_mutex_unlock@plt>
 40195cd:	e8 ee 93 d0 03       	call   7d229c0 <pthread_mutex_unlock@plt>
 4019877:	e8 44 91 d0 03       	call   7d229c0 <pthread_mutex_unlock@plt>
 40199a5:	e8 16 90 d0 03       	call   7d229c0 <pthread_mutex_unlock@plt>
 401b4c4:	e9 f7 74 d0 03       	jmp    7d229c0 <pthread_mutex_unlock@plt>
 401b8a3:	e8 18 71 d0 03       	call   7d229c0 <pthread_mutex_unlock@plt>
 401bf97:	e8 24 6a d0 03       	call   7d229c0 <pthread_mutex_unlock@plt>
 401c31a:	e8 a1 66 d0 03       	call   7d229c0 <pthread_mutex_unlock@plt>
 401c785:	e8 36 62 d0 03       	call   7d229c0 <pthread_mutex_unlock@plt>
 401c85c:	e8 5f 61 d0 03       	call   7d229c0 <pthread_mutex_unlock@plt>
 401d5c1:	e8 fa 53 d0 03       	call   7d229c0 <pthread_mutex_unlock@plt>
 401d921:	e8 9a 50 d0 03       	call   7d229c0 <pthread_mutex_unlock@plt>
 401da35:	e8 86 4f d0 03       	call   7d229c0 <pthread_mutex_unlock@plt>
 401f13b:	e9 80 38 d0 03       	jmp    7d229c0 <pthread_mutex_unlock@plt>
 4020bdd:	e8 de 1d d0 03       	call   7d229c0 <pthread_mutex_unlock@plt>
 40269ba:	e8 01 c0 cf 03       	call   7d229c0 <pthread_mutex_unlock@plt>
 4029bad:	e8 ce b0 15 03       	call   7184c80 <mongo::Lock::GlobalLock::_unlock()>
 4029bfb:	e8 c0 b5 15 03       	call   71851c0 <mongo::Lock::ResourceLock::_unlock()>
 4029c27:	e8 94 b5 15 03       	call   71851c0 <mongo::Lock::ResourceLock::_unlock()>
 402b4b9:	e8 02 75 cf 03       	call   7d229c0 <pthread_mutex_unlock@plt>
 402b57c:	e8 3f 74 cf 03       	call   7d229c0 <pthread_mutex_unlock@plt>
 402b92b:	e8 90 70 cf 03       	call   7d229c0 <pthread_mutex_unlock@plt>
 402c9da:	e9 e1 5f cf 03       	jmp    7d229c0 <pthread_mutex_unlock@plt>
 402e209:	e8 b2 47 cf 03       	call   7d229c0 <pthread_mutex_unlock@plt>
 402ee9a:	e8 21 3b cf 03       	call   7d229c0 <pthread_mutex_unlock@plt>
 402f261:	e8 5a 37 cf 03       	call   7d229c0 <pthread_mutex_unlock@plt>
 402f8f4:	e8 c7 30 cf 03       	call   7d229c0 <pthread_mutex_unlock@plt>
 403559a:	e8 21 d4 ce 03       	call   7d229c0 <pthread_mutex_unlock@plt>
 4046990:	e8 2b c0 cd 03       	call   7d229c0 <pthread_mutex_unlock@plt>
 4046a53:	e8 68 bf cd 03       	call   7d229c0 <pthread_mutex_unlock@plt>
 4046eab:	e8 10 bb cd 03       	call   7d229c0 <pthread_mutex_unlock@plt>
 4047841:	e8 7a b1 cd 03       	call   7d229c0 <pthread_mutex_unlock@plt>
 4047965:	e8 56 b0 cd 03       	call   7d229c0 <pthread_mutex_unlock@plt>
 40485c4:	e9 f7 a3 cd 03       	jmp    7d229c0 <pthread_mutex_unlock@plt>
 404977c:	e8 3f 92 cd 03       	call   7d229c0 <pthread_mutex_unlock@plt>
 404a6cc:	e8 ef 82 cd 03       	call   7d229c0 <pthread_mutex_unlock@plt>
 404aada:	e8 e1 7e cd 03       	call   7d229c0 <pthread_mutex_unlock@plt>
 404aed5:	e8 e6 7a cd 03       	call   7d229c0 <pthread_mutex_unlock@plt>
 404af8c:	e8 2f 7a cd 03       	call   7d229c0 <pthread_mutex_unlock@plt>
 404bb60:	e8 5b 6e cd 03       	call   7d229c0 <pthread_mutex_unlock@plt>
 404beca:	e8 f1 6a cd 03       	call   7d229c0 <pthread_mutex_unlock@plt>
 404c2c0:	e9 fb 66 cd 03       	jmp    7d229c0 <pthread_mutex_unlock@plt>
 405223e:	e8 7d 07 cd 03       	call   7d229c0 <pthread_mutex_unlock@plt>
 405373f:	e9 7c f2 cc 03       	jmp    7d229c0 <pthread_mutex_unlock@plt>
 4055e2b:	e8 90 cb cc 03       	call   7d229c0 <pthread_mutex_unlock@plt>
 405fe6a:	e8 51 2b cc 03       	call   7d229c0 <pthread_mutex_unlock@plt>
 406204d:	e8 2e 2c 12 03       	call   7184c80 <mongo::Lock::GlobalLock::_unlock()>
 406209b:	e8 20 31 12 03       	call   71851c0 <mongo::Lock::ResourceLock::_unlock()>
 40620c7:	e8 f4 30 12 03       	call   71851c0 <mongo::Lock::ResourceLock::_unlock()>
 4065aa9:	e8 12 cf cb 03       	call   7d229c0 <pthread_mutex_unlock@plt>
 4065b6c:	e8 4f ce cb 03       	call   7d229c0 <pthread_mutex_unlock@plt>
 4065f5b:	e8 60 ca cb 03       	call   7d229c0 <pthread_mutex_unlock@plt>
 4067a1a:	e9 a1 af cb 03       	jmp    7d229c0 <pthread_mutex_unlock@plt>
 4068770:	e8 4b a2 cb 03       	call   7d229c0 <pthread_mutex_unlock@plt>
 4068d5a:	e8 61 9c cb 03       	call   7d229c0 <pthread_mutex_unlock@plt>
 406916c:	e8 4f 98 cb 03       	call   7d229c0 <pthread_mutex_unlock@plt>
 4069930:	e8 8b 90 cb 03       	call   7d229c0 <pthread_mutex_unlock@plt>
 406a1da:	e8 e1 87 cb 03       	call   7d229c0 <pthread_mutex_unlock@plt>
 4076fd1:	e9 ea b9 ca 03       	jmp    7d229c0 <pthread_mutex_unlock@plt>
 40794a2:	e8 19 95 ca 03       	call   7d229c0 <pthread_mutex_unlock@plt>
 4079d4e:	e8 6d 8c ca 03       	call   7d229c0 <pthread_mutex_unlock@plt>
 4079d9b:	e8 20 8c ca 03       	call   7d229c0 <pthread_mutex_unlock@plt>
 407a396:	e9 25 86 ca 03       	jmp    7d229c0 <pthread_mutex_unlock@plt>
 4090a9a:	e8 21 1f c9 03       	call   7d229c0 <pthread_mutex_unlock@plt>
 4090d64:	e9 57 1c c9 03       	jmp    7d229c0 <pthread_mutex_unlock@plt>
 4091787:	e8 34 12 c9 03       	call   7d229c0 <pthread_mutex_unlock@plt>
 40918eb:	e9 d0 10 c9 03       	jmp    7d229c0 <pthread_mutex_unlock@plt>
 4091973:	e8 48 10 c9 03       	call   7d229c0 <pthread_mutex_unlock@plt>
 4091a75:	e8 46 0f c9 03       	call   7d229c0 <pthread_mutex_unlock@plt>
 4092767:	e8 24 cc 9d ff       	call   3a6f390 <std::unique_lock<std::mutex>::unlock()>
 4092bb7:	e8 d4 c7 9d ff       	call   3a6f390 <std::unique_lock<std::mutex>::unlock()>
 4095299:	e8 22 ff 0e 03       	call   71851c0 <mongo::Lock::ResourceLock::_unlock()>
 4095fcb:	e8 f0 c9 c8 03       	call   7d229c0 <pthread_mutex_unlock@plt>
 4095fd3:	e8 e8 c9 c8 03       	call   7d229c0 <pthread_mutex_unlock@plt>
 40960f8:	e8 c3 c8 c8 03       	call   7d229c0 <pthread_mutex_unlock@plt>
 40961a5:	e8 16 c8 c8 03       	call   7d229c0 <pthread_mutex_unlock@plt>
 409733d:	e8 7e b6 c8 03       	call   7d229c0 <pthread_mutex_unlock@plt>
 40989ee:	e8 cd 9f c8 03       	call   7d229c0 <pthread_mutex_unlock@plt>
 4098bee:	e8 cd 9d c8 03       	call   7d229c0 <pthread_mutex_unlock@plt>
 4098d8b:	e8 00 66 9d ff       	call   3a6f390 <std::unique_lock<std::mutex>::unlock()>
 4098de7:	e8 a4 65 9d ff       	call   3a6f390 <std::unique_lock<std::mutex>::unlock()>
 4099077:	e8 44 c1 0e 03       	call   71851c0 <mongo::Lock::ResourceLock::_unlock()>
 409938a:	e8 31 96 c8 03       	call   7d229c0 <pthread_mutex_unlock@plt>
 4099574:	e8 47 94 c8 03       	call   7d229c0 <pthread_mutex_unlock@plt>
 409f46a:	e8 51 35 c8 03       	call   7d229c0 <pthread_mutex_unlock@plt>
 409fd51:	e8 6a 54 0e 03       	call   71851c0 <mongo::Lock::ResourceLock::_unlock()>
 40a3194:	e9 27 f8 c7 03       	jmp    7d229c0 <pthread_mutex_unlock@plt>
 40a3637:	e8 54 bd 9c ff       	call   3a6f390 <std::unique_lock<std::mutex>::unlock()>
 40a888d:	e8 2e a1 c7 03       	call   7d229c0 <pthread_mutex_unlock@plt>
 40a8b50:	e9 6b 9e c7 03       	jmp    7d229c0 <pthread_mutex_unlock@plt>
 40abe86:	e8 35 6b c7 03       	call   7d229c0 <pthread_mutex_unlock@plt>
 40ae448:	e8 73 6d 0d 03       	call   71851c0 <mongo::Lock::ResourceLock::_unlock()>
 40ae99f:	e8 ec 09 9c ff       	call   3a6f390 <std::unique_lock<std::mutex>::unlock()>
 40ae9d3:	e8 e8 3f c7 03       	call   7d229c0 <pthread_mutex_unlock@plt>
 40ba642:	e8 39 a6 0c 03       	call   7184c80 <mongo::Lock::GlobalLock::_unlock()>
 40ba7d4:	e8 a7 a4 0c 03       	call   7184c80 <mongo::Lock::GlobalLock::_unlock()>
 40ba83c:	e8 7f a9 0c 03       	call   71851c0 <mongo::Lock::ResourceLock::_unlock()>
 40ba857:	e8 64 a9 0c 03       	call   71851c0 <mongo::Lock::ResourceLock::_unlock()>
 40ba903:	e8 b8 a8 0c 03       	call   71851c0 <mongo::Lock::ResourceLock::_unlock()>
 40ba914:	e8 a7 a8 0c 03       	call   71851c0 <mongo::Lock::ResourceLock::_unlock()>
 40bbf2a:	e8 91 6a c6 03       	call   7d229c0 <pthread_mutex_unlock@plt>
 40c1fb9:	e8 02 32 0c 03       	call   71851c0 <mongo::Lock::ResourceLock::_unlock()>
 40c3e73:	e8 08 0e 0c 03       	call   7184c80 <mongo::Lock::GlobalLock::_unlock()>
 40c497a:	e8 41 08 0c 03       	call   71851c0 <mongo::Lock::ResourceLock::_unlock()>
 40c4993:	e8 28 08 0c 03       	call   71851c0 <mongo::Lock::ResourceLock::_unlock()>
 40c5c08:	e8 b3 f5 0b 03       	call   71851c0 <mongo::Lock::ResourceLock::_unlock()>
 40d306a:	e8 51 f9 c4 03       	call   7d229c0 <pthread_mutex_unlock@plt>
 40e39ca:	e8 f1 ef c3 03       	call   7d229c0 <pthread_mutex_unlock@plt>
 40e700a:	e8 b1 b9 c3 03       	call   7d229c0 <pthread_mutex_unlock@plt>
 40ec87a:	e8 41 61 c3 03       	call   7d229c0 <pthread_mutex_unlock@plt>
 40f903a:	e8 81 99 c2 03       	call   7d229c0 <pthread_mutex_unlock@plt>
 410326a:	e8 51 f7 c1 03       	call   7d229c0 <pthread_mutex_unlock@plt>
 410d6a2:	e8 19 7b 07 03       	call   71851c0 <mongo::Lock::ResourceLock::_unlock()>
 410f6b5:	e8 06 5b 07 03       	call   71851c0 <mongo::Lock::ResourceLock::_unlock()>
 411e58f:	e8 ec 66 06 03       	call   7184c80 <mongo::Lock::GlobalLock::_unlock()>
 411e609:	e9 02 c7 05 00       	jmp    417ad10 <mongo::ActiveMigrationsRegistry::unlock(mongo::StringData)>
 411e67c:	e8 3f 6b 06 03       	call   71851c0 <mongo::Lock::ResourceLock::_unlock()>
 411e68f:	e8 2c 6b 06 03       	call   71851c0 <mongo::Lock::ResourceLock::_unlock()>
 41274da:	e8 e1 b4 bf 03       	call   7d229c0 <pthread_mutex_unlock@plt>
 412b96a:	e8 51 70 bf 03       	call   7d229c0 <pthread_mutex_unlock@plt>
 412c6c9:	e8 f2 8a 05 03       	call   71851c0 <mongo::Lock::ResourceLock::_unlock()>
 412d371:	e8 4a 7e 05 03       	call   71851c0 <mongo::Lock::ResourceLock::_unlock()>
 412dffe:	e8 bd 71 05 03       	call   71851c0 <mongo::Lock::ResourceLock::_unlock()>
 412fdc5:	e8 f6 53 05 03       	call   71851c0 <mongo::Lock::ResourceLock::_unlock()>
 4131859:	e8 62 39 05 03       	call   71851c0 <mongo::Lock::ResourceLock::_unlock()>
 41326ca:	e8 f1 02 bf 03       	call   7d229c0 <pthread_mutex_unlock@plt>
 413aa3a:	e8 81 7f be 03       	call   7d229c0 <pthread_mutex_unlock@plt>
 4140bea:	e8 d1 1d be 03       	call   7d229c0 <pthread_mutex_unlock@plt>
 4145a1a:	e8 a1 cf bd 03       	call   7d229c0 <pthread_mutex_unlock@plt>
 414783c:	e8 7f b1 bd 03       	call   7d229c0 <pthread_mutex_unlock@plt>
 41489b8:	e8 03 a0 bd 03       	call   7d229c0 <pthread_mutex_unlock@plt>
 414d51a:	e8 a1 54 bd 03       	call   7d229c0 <pthread_mutex_unlock@plt>
 415563a:	e8 81 d3 bc 03       	call   7d229c0 <pthread_mutex_unlock@plt>
 415993a:	e8 81 90 bc 03       	call   7d229c0 <pthread_mutex_unlock@plt>
 415c9ca:	e8 f1 5f bc 03       	call   7d229c0 <pthread_mutex_unlock@plt>
 415d3c7:	e8 f4 55 bc 03       	call   7d229c0 <pthread_mutex_unlock@plt>
 415ec07:	e8 b4 3d bc 03       	call   7d229c0 <pthread_mutex_unlock@plt>
 41666aa:	e8 11 c3 bb 03       	call   7d229c0 <pthread_mutex_unlock@plt>
 41781da:	e8 e1 a7 ba 03       	call   7d229c0 <pthread_mutex_unlock@plt>
 41791dd:	e8 de 97 ba 03       	call   7d229c0 <pthread_mutex_unlock@plt>
 4179e47:	e8 44 55 8f ff       	call   3a6f390 <std::unique_lock<std::mutex>::unlock()>
 417a2c7:	e8 c4 50 8f ff       	call   3a6f390 <std::unique_lock<std::mutex>::unlock()>
 417ac67:	e8 24 47 8f ff       	call   3a6f390 <std::unique_lock<std::mutex>::unlock()>
000000000417ad10 <mongo::ActiveMigrationsRegistry::unlock(mongo::StringData)>:
 417ad3f:	0f 85 1e 01 00 00    	jne    417ae63 <mongo::ActiveMigrationsRegistry::unlock(mongo::StringData)+0x153>
 417adf2:	75 3c                	jne    417ae30 <mongo::ActiveMigrationsRegistry::unlock(mongo::StringData)+0x120>
 417ae14:	75 54                	jne    417ae6a <mongo::ActiveMigrationsRegistry::unlock(mongo::StringData)+0x15a>
 417ae26:	e9 95 7b ba 03       	jmp    7d229c0 <pthread_mutex_unlock@plt>
 417ae33:	76 bf                	jbe    417adf4 <mongo::ActiveMigrationsRegistry::unlock(mongo::StringData)+0xe4>
 417ae38:	74 16                	je     417ae50 <mongo::ActiveMigrationsRegistry::unlock(mongo::StringData)+0x140>
 417ae3d:	75 11                	jne    417ae50 <mongo::ActiveMigrationsRegistry::unlock(mongo::StringData)+0x140>
 417ae4b:	eb a7                	jmp    417adf4 <mongo::ActiveMigrationsRegistry::unlock(mongo::StringData)+0xe4>
 417ae5a:	74 98                	je     417adf4 <mongo::ActiveMigrationsRegistry::unlock(mongo::StringData)+0xe4>
 417ae61:	eb 91                	jmp    417adf4 <mongo::ActiveMigrationsRegistry::unlock(mongo::StringData)+0xe4>
 417ae72:	e9 d7 35 00 00       	jmp    417e44e <mongo::ActiveMigrationsRegistry::unlock(mongo::StringData) [clone .cold]>
 417ae7d:	e9 db 35 00 00       	jmp    417e45d <mongo::ActiveMigrationsRegistry::unlock(mongo::StringData) [clone .cold]+0xf>
 417b090:	e9 2b 79 ba 03       	jmp    7d229c0 <pthread_mutex_unlock@plt>
 417b44d:	e9 6e 75 ba 03       	jmp    7d229c0 <pthread_mutex_unlock@plt>
 417b56b:	e8 50 74 ba 03       	call   7d229c0 <pthread_mutex_unlock@plt>
 417bd5a:	e9 61 6c ba 03       	jmp    7d229c0 <pthread_mutex_unlock@plt>
 417cdc3:	e8 c8 25 8f ff       	call   3a6f390 <std::unique_lock<std::mutex>::unlock()>
 417d667:	e8 24 1d 8f ff       	call   3a6f390 <std::unique_lock<std::mutex>::unlock()>
 417d73e:	e8 7d 52 ba 03       	call   7d229c0 <pthread_mutex_unlock@plt>
 417de86:	e8 35 4b ba 03       	call   7d229c0 <pthread_mutex_unlock@plt>
 417e0f3:	e8 98 12 8f ff       	call   3a6f390 <std::unique_lock<std::mutex>::unlock()>
 417e18b:	e8 00 12 8f ff       	call   3a6f390 <std::unique_lock<std::mutex>::unlock()>
 417e2cf:	e8 bc 10 8f ff       	call   3a6f390 <std::unique_lock<std::mutex>::unlock()>
000000000417e44e <mongo::ActiveMigrationsRegistry::unlock(mongo::StringData) [clone .cold]>:
 417e460:	e8 5b 45 ba 03       	call   7d229c0 <pthread_mutex_unlock@plt>
 417e4cd:	e8 ee 44 ba 03       	call   7d229c0 <pthread_mutex_unlock@plt>
 417e533:	e8 88 44 ba 03       	call   7d229c0 <pthread_mutex_unlock@plt>
 417e626:	e8 95 43 ba 03       	call   7d229c0 <pthread_mutex_unlock@plt>
 417e69a:	e8 f1 0c 8f ff       	call   3a6f390 <std::unique_lock<std::mutex>::unlock()>
 417ea1f:	e8 6c 09 8f ff       	call   3a6f390 <std::unique_lock<std::mutex>::unlock()>
 417eaf6:	e8 c5 3e ba 03       	call   7d229c0 <pthread_mutex_unlock@plt>
 419160a:	e8 b1 13 b9 03       	call   7d229c0 <pthread_mutex_unlock@plt>
 41916b2:	e8 09 13 b9 03       	call   7d229c0 <pthread_mutex_unlock@plt>
 4191f9e:	e8 1d 0a b9 03       	call   7d229c0 <pthread_mutex_unlock@plt>
 4192133:	e8 88 08 b9 03       	call   7d229c0 <pthread_mutex_unlock@plt>
 41926ed:	e8 ce 02 b9 03       	call   7d229c0 <pthread_mutex_unlock@plt>
 4192e64:	e8 57 fb b8 03       	call   7d229c0 <pthread_mutex_unlock@plt>
 41937bf:	e8 fc f1 b8 03       	call   7d229c0 <pthread_mutex_unlock@plt>
 4194252:	e9 69 e7 b8 03       	jmp    7d229c0 <pthread_mutex_unlock@plt>
 4194516:	e8 a5 e4 b8 03       	call   7d229c0 <pthread_mutex_unlock@plt>
 41947df:	e8 dc e1 b8 03       	call   7d229c0 <pthread_mutex_unlock@plt>
 419494a:	e9 71 e0 b8 03       	jmp    7d229c0 <pthread_mutex_unlock@plt>
 419696a:	e8 51 c0 b8 03       	call   7d229c0 <pthread_mutex_unlock@plt>
 4197d28:	e8 93 ac b8 03       	call   7d229c0 <pthread_mutex_unlock@plt>
 4197de4:	e8 d7 ab b8 03       	call   7d229c0 <pthread_mutex_unlock@plt>
 4197e2c:	e8 8f ab b8 03       	call   7d229c0 <pthread_mutex_unlock@plt>
 4197fed:	e8 ce a9 b8 03       	call   7d229c0 <pthread_mutex_unlock@plt>
 41980b7:	e8 04 a9 b8 03       	call   7d229c0 <pthread_mutex_unlock@plt>
 419818c:	e8 ff 71 8d ff       	call   3a6f390 <std::unique_lock<std::mutex>::unlock()>
 4198474:	e8 47 a5 b8 03       	call   7d229c0 <pthread_mutex_unlock@plt>
 41984ca:	e8 f1 a4 b8 03       	call   7d229c0 <pthread_mutex_unlock@plt>
 4198611:	e8 aa a3 b8 03       	call   7d229c0 <pthread_mutex_unlock@plt>
 4199889:	e8 32 91 b8 03       	call   7d229c0 <pthread_mutex_unlock@plt>
 419bf77:	e8 44 6a b8 03       	call   7d229c0 <pthread_mutex_unlock@plt>
 419c746:	e8 75 62 b8 03       	call   7d229c0 <pthread_mutex_unlock@plt>
 41b26a5:	e8 16 03 b7 03       	call   7d229c0 <pthread_mutex_unlock@plt>
 41b279b:	e8 20 02 b7 03       	call   7d229c0 <pthread_mutex_unlock@plt>
 41c88a9:	e9 12 a1 b5 03       	jmp    7d229c0 <pthread_mutex_unlock@plt>
 41c88fe:	e8 bd a0 b5 03       	call   7d229c0 <pthread_mutex_unlock@plt>
 41cd3f0:	e8 cb 55 b5 03       	call   7d229c0 <pthread_mutex_unlock@plt>
 41d81d6:	e8 e5 a7 b4 03       	call   7d229c0 <pthread_mutex_unlock@plt>
 41d8abb:	e8 00 9f b4 03       	call   7d229c0 <pthread_mutex_unlock@plt>
 41db6fd:	e8 be 72 b4 03       	call   7d229c0 <pthread_mutex_unlock@plt>
 41e3bfa:	e8 c1 ed b3 03       	call   7d229c0 <pthread_mutex_unlock@plt>
 41ffdd5:	e8 e6 2b b2 03       	call   7d229c0 <pthread_mutex_unlock@plt>
 42002ae:	e8 0d 27 b2 03       	call   7d229c0 <pthread_mutex_unlock@plt>
 4200326:	e8 95 26 b2 03       	call   7d229c0 <pthread_mutex_unlock@plt>
 42005a0:	e8 1b 24 b2 03       	call   7d229c0 <pthread_mutex_unlock@plt>
 4200618:	e8 a3 23 b2 03       	call   7d229c0 <pthread_mutex_unlock@plt>
 4200634:	e8 87 23 b2 03       	call   7d229c0 <pthread_mutex_unlock@plt>
 420068a:	e8 31 23 b2 03       	call   7d229c0 <pthread_mutex_unlock@plt>
 42010a4:	e9 17 19 b2 03       	jmp    7d229c0 <pthread_mutex_unlock@plt>
 4201adc:	e8 df 0e b2 03       	call   7d229c0 <pthread_mutex_unlock@plt>
 42031f8:	e8 c3 f7 b1 03       	call   7d229c0 <pthread_mutex_unlock@plt>
 4203324:	e8 97 f6 b1 03       	call   7d229c0 <pthread_mutex_unlock@plt>
 4203ebf:	e9 fc ea b1 03       	jmp    7d229c0 <pthread_mutex_unlock@plt>
 420468a:	e8 31 e3 b1 03       	call   7d229c0 <pthread_mutex_unlock@plt>
 4204afb:	e8 c0 de b1 03       	call   7d229c0 <pthread_mutex_unlock@plt>
 4204d11:	e8 aa dc b1 03       	call   7d229c0 <pthread_mutex_unlock@plt>
 4204f4c:	e8 6f da b1 03       	call   7d229c0 <pthread_mutex_unlock@plt>
 4204f61:	e8 5a da b1 03       	call   7d229c0 <pthread_mutex_unlock@plt>
 4205264:	e8 57 d7 b1 03       	call   7d229c0 <pthread_mutex_unlock@plt>
 420540c:	e8 af d5 b1 03       	call   7d229c0 <pthread_mutex_unlock@plt>
 420584d:	e8 6e d1 b1 03       	call   7d229c0 <pthread_mutex_unlock@plt>
 4205a53:	e8 68 cf b1 03       	call   7d229c0 <pthread_mutex_unlock@plt>
 4207dd0:	e8 eb ab b1 03       	call   7d229c0 <pthread_mutex_unlock@plt>
 4207e29:	e8 92 ab b1 03       	call   7d229c0 <pthread_mutex_unlock@plt>
 420909e:	e8 1d 99 b1 03       	call   7d229c0 <pthread_mutex_unlock@plt>
 420943e:	e9 7d 95 b1 03       	jmp    7d229c0 <pthread_mutex_unlock@plt>
 4209794:	e8 27 92 b1 03       	call   7d229c0 <pthread_mutex_unlock@plt>
 4209a04:	e8 b7 8f b1 03       	call   7d229c0 <pthread_mutex_unlock@plt>
 4209b26:	e8 95 8e b1 03       	call   7d229c0 <pthread_mutex_unlock@plt>
 420ebea:	e8 d1 3d b1 03       	call   7d229c0 <pthread_mutex_unlock@plt>
 420f8ae:	e8 0d 31 b1 03       	call   7d229c0 <pthread_mutex_unlock@plt>
 420f8be:	e9 fd 30 b1 03       	jmp    7d229c0 <pthread_mutex_unlock@plt>
 420f8cb:	e8 f0 30 b1 03       	call   7d229c0 <pthread_mutex_unlock@plt>
 420f8ee:	e8 cd 30 b1 03       	call   7d229c0 <pthread_mutex_unlock@plt>
 420f8fe:	e9 bd 30 b1 03       	jmp    7d229c0 <pthread_mutex_unlock@plt>
 420fbbe:	e8 fd 2d b1 03       	call   7d229c0 <pthread_mutex_unlock@plt>
 420fbce:	e9 ed 2d b1 03       	jmp    7d229c0 <pthread_mutex_unlock@plt>
 420fbdb:	e8 e0 2d b1 03       	call   7d229c0 <pthread_mutex_unlock@plt>
 420fbfe:	e8 bd 2d b1 03       	call   7d229c0 <pthread_mutex_unlock@plt>
 420fc0e:	e9 ad 2d b1 03       	jmp    7d229c0 <pthread_mutex_unlock@plt>
 4211c55:	e8 36 d7 85 ff       	call   3a6f390 <std::unique_lock<std::mutex>::unlock()>
 4211d74:	e8 17 d6 85 ff       	call   3a6f390 <std::unique_lock<std::mutex>::unlock()>
 42122b5:	e8 d6 d0 85 ff       	call   3a6f390 <std::unique_lock<std::mutex>::unlock()>
 42123d4:	e8 b7 cf 85 ff       	call   3a6f390 <std::unique_lock<std::mutex>::unlock()>
 421822d:	e8 8e a7 b0 03       	call   7d229c0 <pthread_mutex_unlock@plt>
 4218363:	e8 58 a6 b0 03       	call   7d229c0 <pthread_mutex_unlock@plt>
 421838e:	e8 2d a6 b0 03       	call   7d229c0 <pthread_mutex_unlock@plt>
 421a44a:	e8 71 85 b0 03       	call   7d229c0 <pthread_mutex_unlock@plt>
 421b25d:	e8 5e 77 b0 03       	call   7d229c0 <pthread_mutex_unlock@plt>
 421b2fb:	e8 c0 76 b0 03       	call   7d229c0 <pthread_mutex_unlock@plt>
 421b386:	e9 35 76 b0 03       	jmp    7d229c0 <pthread_mutex_unlock@plt>
 421b3c9:	e8 f2 75 b0 03       	call   7d229c0 <pthread_mutex_unlock@plt>
 421b451:	e8 6a 75 b0 03       	call   7d229c0 <pthread_mutex_unlock@plt>
 421b4cd:	e8 ee 74 b0 03       	call   7d229c0 <pthread_mutex_unlock@plt>
 421b4e5:	e8 d6 74 b0 03       	call   7d229c0 <pthread_mutex_unlock@plt>
 421b8ef:	e9 cc 70 b0 03       	jmp    7d229c0 <pthread_mutex_unlock@plt>
 421b9ba:	e9 01 70 b0 03       	jmp    7d229c0 <pthread_mutex_unlock@plt>
 421bc63:	e8 58 6d b0 03       	call   7d229c0 <pthread_mutex_unlock@plt>
 421bc9c:	e8 1f 6d b0 03       	call   7d229c0 <pthread_mutex_unlock@plt>
 421bd74:	e8 47 6c b0 03       	call   7d229c0 <pthread_mutex_unlock@plt>
 421bd84:	e9 37 6c b0 03       	jmp    7d229c0 <pthread_mutex_unlock@plt>
 421bd93:	e8 28 6c b0 03       	call   7d229c0 <pthread_mutex_unlock@plt>
 421bdbc:	e8 ff 6b b0 03       	call   7d229c0 <pthread_mutex_unlock@plt>
 421bdcc:	e9 ef 6b b0 03       	jmp    7d229c0 <pthread_mutex_unlock@plt>
 421c1e4:	e8 d7 67 b0 03       	call   7d229c0 <pthread_mutex_unlock@plt>
 421c314:	e8 77 30 85 ff       	call   3a6f390 <std::unique_lock<std::mutex>::unlock()>
 421c706:	e8 85 2c 85 ff       	call   3a6f390 <std::unique_lock<std::mutex>::unlock()>
 421cd7b:	e8 40 5c b0 03       	call   7d229c0 <pthread_mutex_unlock@plt>
 421cde9:	e8 d2 5b b0 03       	call   7d229c0 <pthread_mutex_unlock@plt>
 421d2dd:	e8 de 56 b0 03       	call   7d229c0 <pthread_mutex_unlock@plt>
 421d387:	e8 34 56 b0 03       	call   7d229c0 <pthread_mutex_unlock@plt>
 421d3c5:	e8 c6 1f 85 ff       	call   3a6f390 <std::unique_lock<std::mutex>::unlock()>
 421d434:	e8 57 1f 85 ff       	call   3a6f390 <std::unique_lock<std::mutex>::unlock()>
 421d4c3:	e8 c8 1e 85 ff       	call   3a6f390 <std::unique_lock<std::mutex>::unlock()>
 421db33:	e8 88 4e b0 03       	call   7d229c0 <pthread_mutex_unlock@plt>
 421dbe9:	e8 d2 4d b0 03       	call   7d229c0 <pthread_mutex_unlock@plt>
 421dc73:	e8 48 4d b0 03       	call   7d229c0 <pthread_mutex_unlock@plt>
 421e1ff:	e8 8c 11 85 ff       	call   3a6f390 <std::unique_lock<std::mutex>::unlock()>
 421ef43:	e8 48 04 85 ff       	call   3a6f390 <std::unique_lock<std::mutex>::unlock()>
 421fe97:	e9 24 2b b0 03       	jmp    7d229c0 <pthread_mutex_unlock@plt>
 42221a7:	e8 14 08 b0 03       	call   7d229c0 <pthread_mutex_unlock@plt>
 4222568:	e8 53 04 b0 03       	call   7d229c0 <pthread_mutex_unlock@plt>
 4224d1a:	e8 a1 dc af 03       	call   7d229c0 <pthread_mutex_unlock@plt>
 4224d92:	e8 f9 a5 84 ff       	call   3a6f390 <std::unique_lock<std::mutex>::unlock()>
 422517c:	e8 0f a2 84 ff       	call   3a6f390 <std::unique_lock<std::mutex>::unlock()>
 4226080:	e8 3b c9 af 03       	call   7d229c0 <pthread_mutex_unlock@plt>
 422645a:	e8 61 c5 af 03       	call   7d229c0 <pthread_mutex_unlock@plt>
 42269fa:	e8 c1 bf af 03       	call   7d229c0 <pthread_mutex_unlock@plt>
 4226a2a:	e8 91 bf af 03       	call   7d229c0 <pthread_mutex_unlock@plt>
 4226a56:	e8 65 bf af 03       	call   7d229c0 <pthread_mutex_unlock@plt>
 4226b39:	e8 52 88 84 ff       	call   3a6f390 <std::unique_lock<std::mutex>::unlock()>
 4226cb3:	e8 d8 86 84 ff       	call   3a6f390 <std::unique_lock<std::mutex>::unlock()>
 4226f2f:	e8 5c 84 84 ff       	call   3a6f390 <std::unique_lock<std::mutex>::unlock()>
 4226fc1:	e8 ca 83 84 ff       	call   3a6f390 <std::unique_lock<std::mutex>::unlock()>
 422791a:	e8 71 7a 84 ff       	call   3a6f390 <std::unique_lock<std::mutex>::unlock()>
 4227bcc:	e8 ef ad af 03       	call   7d229c0 <pthread_mutex_unlock@plt>
 4227ccf:	e8 ec ac af 03       	call   7d229c0 <pthread_mutex_unlock@plt>
 4228825:	e8 96 a1 af 03       	call   7d229c0 <pthread_mutex_unlock@plt>
 42288a5:	e8 e6 6a 84 ff       	call   3a6f390 <std::unique_lock<std::mutex>::unlock()>
 4228c49:	e8 72 9d af 03       	call   7d229c0 <pthread_mutex_unlock@plt>
 422c4ea:	e8 d1 64 af 03       	call   7d229c0 <pthread_mutex_unlock@plt>
 42358ca:	e8 f1 d0 ae 03       	call   7d229c0 <pthread_mutex_unlock@plt>
 42367fa:	e8 c1 c1 ae 03       	call   7d229c0 <pthread_mutex_unlock@plt>
 4236863:	e9 58 c1 ae 03       	jmp    7d229c0 <pthread_mutex_unlock@plt>
 4236898:	e8 23 c1 ae 03       	call   7d229c0 <pthread_mutex_unlock@plt>
 4236985:	e8 36 c0 ae 03       	call   7d229c0 <pthread_mutex_unlock@plt>
 4236ada:	e9 e1 be ae 03       	jmp    7d229c0 <pthread_mutex_unlock@plt>
 4236bfc:	e9 bf bd ae 03       	jmp    7d229c0 <pthread_mutex_unlock@plt>
 42396f7:	e8 94 5c 83 ff       	call   3a6f390 <std::unique_lock<std::mutex>::unlock()>
 423994a:	e8 71 90 ae 03       	call   7d229c0 <pthread_mutex_unlock@plt>
 4239a3b:	e8 80 8f ae 03       	call   7d229c0 <pthread_mutex_unlock@plt>
 4239cd8:	e8 e3 8c ae 03       	call   7d229c0 <pthread_mutex_unlock@plt>
 423a2ad:	e8 0e 87 ae 03       	call   7d229c0 <pthread_mutex_unlock@plt>
 423a2f3:	e8 c8 86 ae 03       	call   7d229c0 <pthread_mutex_unlock@plt>
 423a365:	e9 56 86 ae 03       	jmp    7d229c0 <pthread_mutex_unlock@plt>
 423ba3f:	e8 4c 39 83 ff       	call   3a6f390 <std::unique_lock<std::mutex>::unlock()>
 423bb52:	e8 69 6e ae 03       	call   7d229c0 <pthread_mutex_unlock@plt>
 423bd25:	e9 96 6c ae 03       	jmp    7d229c0 <pthread_mutex_unlock@plt>
 423c23d:	e8 7e 67 ae 03       	call   7d229c0 <pthread_mutex_unlock@plt>
 423c58e:	e8 2d 64 ae 03       	call   7d229c0 <pthread_mutex_unlock@plt>
 423c7de:	e8 dd 61 ae 03       	call   7d229c0 <pthread_mutex_unlock@plt>
 423c996:	e8 25 60 ae 03       	call   7d229c0 <pthread_mutex_unlock@plt>
 423ca7b:	e8 10 29 83 ff       	call   3a6f390 <std::unique_lock<std::mutex>::unlock()>
 423d1ab:	e8 10 58 ae 03       	call   7d229c0 <pthread_mutex_unlock@plt>
 423d96c:	e8 4f 50 ae 03       	call   7d229c0 <pthread_mutex_unlock@plt>
 423edef:	e8 cc 3b ae 03       	call   7d229c0 <pthread_mutex_unlock@plt>
 424140d:	e8 ae 15 ae 03       	call   7d229c0 <pthread_mutex_unlock@plt>
 4241675:	e8 46 13 ae 03       	call   7d229c0 <pthread_mutex_unlock@plt>
 4243101:	e8 ba f8 ad 03       	call   7d229c0 <pthread_mutex_unlock@plt>
 424350d:	e8 ae f4 ad 03       	call   7d229c0 <pthread_mutex_unlock@plt>
 4243fe6:	e8 d5 e9 ad 03       	call   7d229c0 <pthread_mutex_unlock@plt>
 42454a9:	e8 12 d5 ad 03       	call   7d229c0 <pthread_mutex_unlock@plt>
 4245ac3:	e8 f8 ce ad 03       	call   7d229c0 <pthread_mutex_unlock@plt>
 4245ae6:	e8 d5 ce ad 03       	call   7d229c0 <pthread_mutex_unlock@plt>
 4245b25:	e8 96 ce ad 03       	call   7d229c0 <pthread_mutex_unlock@plt>
 4245e29:	e8 92 cb ad 03       	call   7d229c0 <pthread_mutex_unlock@plt>
 4245e50:	e8 6b cb ad 03       	call   7d229c0 <pthread_mutex_unlock@plt>
 4245e81:	e8 3a cb ad 03       	call   7d229c0 <pthread_mutex_unlock@plt>
 4246312:	e8 a9 c6 ad 03       	call   7d229c0 <pthread_mutex_unlock@plt>
 4246332:	e8 89 c6 ad 03       	call   7d229c0 <pthread_mutex_unlock@plt>
 4246926:	e8 95 c0 ad 03       	call   7d229c0 <pthread_mutex_unlock@plt>
 424694d:	e8 6e c0 ad 03       	call   7d229c0 <pthread_mutex_unlock@plt>
 4246994:	e8 27 c0 ad 03       	call   7d229c0 <pthread_mutex_unlock@plt>
 4247030:	e8 8b b9 ad 03       	call   7d229c0 <pthread_mutex_unlock@plt>
 4247b7c:	e8 3f ae ad 03       	call   7d229c0 <pthread_mutex_unlock@plt>
 424839b:	e8 20 a6 ad 03       	call   7d229c0 <pthread_mutex_unlock@plt>
 42483e1:	e8 da a5 ad 03       	call   7d229c0 <pthread_mutex_unlock@plt>
 4248413:	e8 a8 a5 ad 03       	call   7d229c0 <pthread_mutex_unlock@plt>
 424841b:	e8 a0 a5 ad 03       	call   7d229c0 <pthread_mutex_unlock@plt>
 42484b0:	e8 0b a5 ad 03       	call   7d229c0 <pthread_mutex_unlock@plt>
 42484c4:	e8 f7 a4 ad 03       	call   7d229c0 <pthread_mutex_unlock@plt>
 42484d8:	e8 e3 a4 ad 03       	call   7d229c0 <pthread_mutex_unlock@plt>
 424924a:	e8 71 97 ad 03       	call   7d229c0 <pthread_mutex_unlock@plt>
 424926d:	e8 1e 61 82 ff       	call   3a6f390 <std::unique_lock<std::mutex>::unlock()>
 4249874:	e8 17 5b 82 ff       	call   3a6f390 <std::unique_lock<std::mutex>::unlock()>
 4249ac9:	e8 f2 8e ad 03       	call   7d229c0 <pthread_mutex_unlock@plt>
 4249b3c:	e8 7f 8e ad 03       	call   7d229c0 <pthread_mutex_unlock@plt>
 4249ba8:	e8 13 8e ad 03       	call   7d229c0 <pthread_mutex_unlock@plt>
 4249caa:	e8 11 8d ad 03       	call   7d229c0 <pthread_mutex_unlock@plt>
 4249cbe:	e8 fd 8c ad 03       	call   7d229c0 <pthread_mutex_unlock@plt>
 4249d23:	e8 68 56 82 ff       	call   3a6f390 <std::unique_lock<std::mutex>::unlock()>
 4249d4c:	e8 3f 56 82 ff       	call   3a6f390 <std::unique_lock<std::mutex>::unlock()>
 4249e43:	e8 48 55 82 ff       	call   3a6f390 <std::unique_lock<std::mutex>::unlock()>
 424a3b5:	e8 06 86 ad 03       	call   7d229c0 <pthread_mutex_unlock@plt>
 424a6c8:	e8 f3 82 ad 03       	call   7d229c0 <pthread_mutex_unlock@plt>
 424d2c5:	e8 f6 56 ad 03       	call   7d229c0 <pthread_mutex_unlock@plt>
 424d620:	e8 9b 53 ad 03       	call   7d229c0 <pthread_mutex_unlock@plt>
 424ff87:	e8 04 f4 81 ff       	call   3a6f390 <std::unique_lock<std::mutex>::unlock()>
 42502de:	e8 ad f0 81 ff       	call   3a6f390 <std::unique_lock<std::mutex>::unlock()>
 42503ca:	e8 f1 25 ad 03       	call   7d229c0 <pthread_mutex_unlock@plt>
 4250413:	e8 a8 25 ad 03       	call   7d229c0 <pthread_mutex_unlock@plt>
 425042d:	e8 8e 25 ad 03       	call   7d229c0 <pthread_mutex_unlock@plt>
 4250a86:	e8 05 e9 81 ff       	call   3a6f390 <std::unique_lock<std::mutex>::unlock()>
 425102d:	e8 5e e3 81 ff       	call   3a6f390 <std::unique_lock<std::mutex>::unlock()>
 425634a:	e8 71 c6 ac 03       	call   7d229c0 <pthread_mutex_unlock@plt>
 4262dda:	e8 e1 fb ab 03       	call   7d229c0 <pthread_mutex_unlock@plt>
 426cc7f:	e8 0c 27 80 ff       	call   3a6f390 <std::unique_lock<std::mutex>::unlock()>
 42703b1:	e8 0a 26 ab 03       	call   7d229c0 <pthread_mutex_unlock@plt>
 427047a:	e8 41 25 ab 03       	call   7d229c0 <pthread_mutex_unlock@plt>
 4270a53:	e8 68 1f ab 03       	call   7d229c0 <pthread_mutex_unlock@plt>
 42712cd:	e8 ee 16 ab 03       	call   7d229c0 <pthread_mutex_unlock@plt>
 4271ab4:	e8 07 0f ab 03       	call   7d229c0 <pthread_mutex_unlock@plt>
 4275375:	e8 06 f9 f0 02       	call   7184c80 <mongo::Lock::GlobalLock::_unlock()>
 42753c3:	e8 f8 fd f0 02       	call   71851c0 <mongo::Lock::ResourceLock::_unlock()>
 42753d7:	e8 e4 fd f0 02       	call   71851c0 <mongo::Lock::ResourceLock::_unlock()>
 4276c9d:	e8 de df f0 02       	call   7184c80 <mongo::Lock::GlobalLock::_unlock()>
 4276ceb:	e8 d0 e4 f0 02       	call   71851c0 <mongo::Lock::ResourceLock::_unlock()>
 4276cff:	e8 bc e4 f0 02       	call   71851c0 <mongo::Lock::ResourceLock::_unlock()>
 427975e:	e8 2d 5c 7f ff       	call   3a6f390 <std::unique_lock<std::mutex>::unlock()>
 427b140:	e8 7b 78 aa 03       	call   7d229c0 <pthread_mutex_unlock@plt>
 427b1d6:	e8 e5 77 aa 03       	call   7d229c0 <pthread_mutex_unlock@plt>
 427b335:	e8 86 76 aa 03       	call   7d229c0 <pthread_mutex_unlock@plt>
 427b43b:	e8 80 75 aa 03       	call   7d229c0 <pthread_mutex_unlock@plt>
 428285a:	e8 61 01 aa 03       	call   7d229c0 <pthread_mutex_unlock@plt>
 42834b4:	e8 07 1d f0 02       	call   71851c0 <mongo::Lock::ResourceLock::_unlock()>
 4284d0b:	e8 b0 04 f0 02       	call   71851c0 <mongo::Lock::ResourceLock::_unlock()>
 4285567:	e8 54 fc ef 02       	call   71851c0 <mongo::Lock::ResourceLock::_unlock()>
 428783b:	e8 80 d9 ef 02       	call   71851c0 <mongo::Lock::ResourceLock::_unlock()>
 428825d:	e8 5e cf ef 02       	call   71851c0 <mongo::Lock::ResourceLock::_unlock()>
 42886fa:	e8 c1 ca ef 02       	call   71851c0 <mongo::Lock::ResourceLock::_unlock()>
 4288c10:	e8 ab c5 ef 02       	call   71851c0 <mongo::Lock::ResourceLock::_unlock()>
 428917d:	e8 3e c0 ef 02       	call   71851c0 <mongo::Lock::ResourceLock::_unlock()>
 428969f:	e8 1c bb ef 02       	call   71851c0 <mongo::Lock::ResourceLock::_unlock()>
 428989f:	e8 1c b9 ef 02       	call   71851c0 <mongo::Lock::ResourceLock::_unlock()>
 428dab3:	e8 08 4f a9 03       	call   7d229c0 <pthread_mutex_unlock@plt>
 428db60:	e8 5b 4e a9 03       	call   7d229c0 <pthread_mutex_unlock@plt>
 428db68:	e8 53 4e a9 03       	call   7d229c0 <pthread_mutex_unlock@plt>
 428dc63:	e8 58 4d a9 03       	call   7d229c0 <pthread_mutex_unlock@plt>
 428dcb1:	e9 0a 4d a9 03       	jmp    7d229c0 <pthread_mutex_unlock@plt>
 428de50:	e9 6b 4b a9 03       	jmp    7d229c0 <pthread_mutex_unlock@plt>
 428e4b2:	e8 09 45 a9 03       	call   7d229c0 <pthread_mutex_unlock@plt>
 428e7c5:	e8 f6 41 a9 03       	call   7d229c0 <pthread_mutex_unlock@plt>
 428e7e2:	e8 d9 41 a9 03       	call   7d229c0 <pthread_mutex_unlock@plt>
 429064f:	e8 6c 4b ef 02       	call   71851c0 <mongo::Lock::ResourceLock::_unlock()>
 4291cdb:	e8 e0 34 ef 02       	call   71851c0 <mongo::Lock::ResourceLock::_unlock()>
 4292edc:	e8 df fa a8 03       	call   7d229c0 <pthread_mutex_unlock@plt>
 4292f50:	e9 6b fa a8 03       	jmp    7d229c0 <pthread_mutex_unlock@plt>
 42933b7:	e9 04 f6 a8 03       	jmp    7d229c0 <pthread_mutex_unlock@plt>
 4294073:	e8 48 e9 a8 03       	call   7d229c0 <pthread_mutex_unlock@plt>
 42949b6:	e8 05 e0 a8 03       	call   7d229c0 <pthread_mutex_unlock@plt>
 4294a32:	e8 89 df a8 03       	call   7d229c0 <pthread_mutex_unlock@plt>
 4295ec5:	e9 f6 ca a8 03       	jmp    7d229c0 <pthread_mutex_unlock@plt>
 4296425:	e9 96 c5 a8 03       	jmp    7d229c0 <pthread_mutex_unlock@plt>
 42967fa:	e9 c1 c1 a8 03       	jmp    7d229c0 <pthread_mutex_unlock@plt>
 4296ab0:	e8 0b bf a8 03       	call   7d229c0 <pthread_mutex_unlock@plt>
 4296bd3:	e9 e8 bd a8 03       	jmp    7d229c0 <pthread_mutex_unlock@plt>
 4297010:	e9 ab b9 a8 03       	jmp    7d229c0 <pthread_mutex_unlock@plt>
 4297a84:	e9 37 af a8 03       	jmp    7d229c0 <pthread_mutex_unlock@plt>
 4297e35:	e9 86 ab a8 03       	jmp    7d229c0 <pthread_mutex_unlock@plt>
 429801c:	e9 9f a9 a8 03       	jmp    7d229c0 <pthread_mutex_unlock@plt>
 429922e:	e9 8d 97 a8 03       	jmp    7d229c0 <pthread_mutex_unlock@plt>
 4299ed9:	e8 e2 8a a8 03       	call   7d229c0 <pthread_mutex_unlock@plt>
 429a40e:	e8 ad 85 a8 03       	call   7d229c0 <pthread_mutex_unlock@plt>
 429a42e:	e8 8d 85 a8 03       	call   7d229c0 <pthread_mutex_unlock@plt>
 429a5d0:	e8 eb 83 a8 03       	call   7d229c0 <pthread_mutex_unlock@plt>
 429a610:	e8 ab 83 a8 03       	call   7d229c0 <pthread_mutex_unlock@plt>
 429a673:	e8 48 83 a8 03       	call   7d229c0 <pthread_mutex_unlock@plt>
 429a7bc:	e8 ff 81 a8 03       	call   7d229c0 <pthread_mutex_unlock@plt>
 429a7eb:	e8 d0 81 a8 03       	call   7d229c0 <pthread_mutex_unlock@plt>
 429a88e:	e8 2d 81 a8 03       	call   7d229c0 <pthread_mutex_unlock@plt>
 429aafe:	e8 bd 7e a8 03       	call   7d229c0 <pthread_mutex_unlock@plt>
 42a270a:	e8 b1 02 a8 03       	call   7d229c0 <pthread_mutex_unlock@plt>
 42a2b5d:	e9 5e fe a7 03       	jmp    7d229c0 <pthread_mutex_unlock@plt>
 42a2bb1:	e8 0a fe a7 03       	call   7d229c0 <pthread_mutex_unlock@plt>
 42a2c88:	e9 33 fd a7 03       	jmp    7d229c0 <pthread_mutex_unlock@plt>
 42a385d:	e8 2e bb 7c ff       	call   3a6f390 <std::unique_lock<std::mutex>::unlock()>
 42a3a83:	e8 08 b9 7c ff       	call   3a6f390 <std::unique_lock<std::mutex>::unlock()>
 42a3bb7:	e8 d4 b7 7c ff       	call   3a6f390 <std::unique_lock<std::mutex>::unlock()>
 42a4b44:	e8 47 a8 7c ff       	call   3a6f390 <std::unique_lock<std::mutex>::unlock()>
 42a4b64:	e8 27 a8 7c ff       	call   3a6f390 <std::unique_lock<std::mutex>::unlock()>
 42a4c73:	e8 48 dd a7 03       	call   7d229c0 <pthread_mutex_unlock@plt>
 42a4c7c:	e8 0f a7 7c ff       	call   3a6f390 <std::unique_lock<std::mutex>::unlock()>
 42a4cac:	e8 df a6 7c ff       	call   3a6f390 <std::unique_lock<std::mutex>::unlock()>
 42a4d33:	e8 88 dc a7 03       	call   7d229c0 <pthread_mutex_unlock@plt>
 42a5137:	e8 54 a2 7c ff       	call   3a6f390 <std::unique_lock<std::mutex>::unlock()>
 42a583d:	e8 4e 9b 7c ff       	call   3a6f390 <std::unique_lock<std::mutex>::unlock()>
 42a6d87:	e8 04 86 7c ff       	call   3a6f390 <std::unique_lock<std::mutex>::unlock()>
 42a784f:	e8 3c 7b 7c ff       	call   3a6f390 <std::unique_lock<std::mutex>::unlock()>
 42a7c6e:	e8 1d 77 7c ff       	call   3a6f390 <std::unique_lock<std::mutex>::unlock()>
 42a89da:	e8 b1 69 7c ff       	call   3a6f390 <std::unique_lock<std::mutex>::unlock()>
 42a8ac6:	e8 f5 c6 ed 02       	call   71851c0 <mongo::Lock::ResourceLock::_unlock()>
 42a8b16:	e8 75 68 7c ff       	call   3a6f390 <std::unique_lock<std::mutex>::unlock()>
 42a8cc3:	e8 c8 66 7c ff       	call   3a6f390 <std::unique_lock<std::mutex>::unlock()>
 42a91bf:	e8 fc 97 a7 03       	call   7d229c0 <pthread_mutex_unlock@plt>
 42aa4cf:	e8 bc 4e 7c ff       	call   3a6f390 <std::unique_lock<std::mutex>::unlock()>
 42aab7f:	e8 3c 7e a7 03       	call   7d229c0 <pthread_mutex_unlock@plt>
 42aac0d:	e9 ae 7d a7 03       	jmp    7d229c0 <pthread_mutex_unlock@plt>
 42ab152:	e8 39 42 7c ff       	call   3a6f390 <std::unique_lock<std::mutex>::unlock()>
 42ab551:	e8 6a 74 a7 03       	call   7d229c0 <pthread_mutex_unlock@plt>
 42ab67b:	e8 10 3d 7c ff       	call   3a6f390 <std::unique_lock<std::mutex>::unlock()>
 42ab712:	e8 79 3c 7c ff       	call   3a6f390 <std::unique_lock<std::mutex>::unlock()>
 42ab797:	e8 f4 3b 7c ff       	call   3a6f390 <std::unique_lock<std::mutex>::unlock()>
 42ab895:	e8 f6 3a 7c ff       	call   3a6f390 <std::unique_lock<std::mutex>::unlock()>
 42ab8af:	e8 dc 3a 7c ff       	call   3a6f390 <std::unique_lock<std::mutex>::unlock()>
 42ab949:	e8 42 3a 7c ff       	call   3a6f390 <std::unique_lock<std::mutex>::unlock()>
 42aba39:	e8 52 39 7c ff       	call   3a6f390 <std::unique_lock<std::mutex>::unlock()>
 42abcf7:	e8 94 36 7c ff       	call   3a6f390 <std::unique_lock<std::mutex>::unlock()>
 42ac030:	e8 5b 33 7c ff       	call   3a6f390 <std::unique_lock<std::mutex>::unlock()>
 42ac0e4:	e8 d7 90 ed 02       	call   71851c0 <mongo::Lock::ResourceLock::_unlock()>
 42ac122:	e8 99 68 a7 03       	call   7d229c0 <pthread_mutex_unlock@plt>
 42ac308:	e8 83 30 7c ff       	call   3a6f390 <std::unique_lock<std::mutex>::unlock()>
 42ac46c:	e8 4f 65 a7 03       	call   7d229c0 <pthread_mutex_unlock@plt>
 42ac88f:	e8 2c 61 a7 03       	call   7d229c0 <pthread_mutex_unlock@plt>
 42acc2f:	e8 5c 27 7c ff       	call   3a6f390 <std::unique_lock<std::mutex>::unlock()>
 42acc60:	e8 2b 27 7c ff       	call   3a6f390 <std::unique_lock<std::mutex>::unlock()>
 42acd9d:	e8 ee 25 7c ff       	call   3a6f390 <std::unique_lock<std::mutex>::unlock()>
 42ad3db:	e8 b0 1f 7c ff       	call   3a6f390 <std::unique_lock<std::mutex>::unlock()>
 42b644a:	e8 71 c5 a6 03       	call   7d229c0 <pthread_mutex_unlock@plt>
 42b910e:	e8 ad c0 ec 02       	call   71851c0 <mongo::Lock::ResourceLock::_unlock()>
 42c0cc0:	e8 fb 44 ec 02       	call   71851c0 <mongo::Lock::ResourceLock::_unlock()>
 42f737a:	e8 41 b6 a2 03       	call   7d229c0 <pthread_mutex_unlock@plt>
 42fae15:	e8 76 45 77 ff       	call   3a6f390 <std::unique_lock<std::mutex>::unlock()>
 42fb945:	e8 46 3a 77 ff       	call   3a6f390 <std::unique_lock<std::mutex>::unlock()>
 42ff744:	e9 77 32 a2 03       	jmp    7d229c0 <pthread_mutex_unlock@plt>
 42ff876:	e9 45 31 a2 03       	jmp    7d229c0 <pthread_mutex_unlock@plt>
 42ffa5e:	e8 5d 2f a2 03       	call   7d229c0 <pthread_mutex_unlock@plt>
 42ffeb6:	e8 05 2b a2 03       	call   7d229c0 <pthread_mutex_unlock@plt>
 430054c:	e9 6f 24 a2 03       	jmp    7d229c0 <pthread_mutex_unlock@plt>
 43007b4:	e8 07 22 a2 03       	call   7d229c0 <pthread_mutex_unlock@plt>
 4300c6a:	e8 51 1d a2 03       	call   7d229c0 <pthread_mutex_unlock@plt>
 4302f6a:	e8 51 fa a1 03       	call   7d229c0 <pthread_mutex_unlock@plt>
 43041f9:	e8 c2 e7 a1 03       	call   7d229c0 <pthread_mutex_unlock@plt>
 430cf38:	e8 83 5a a1 03       	call   7d229c0 <pthread_mutex_unlock@plt>
 431df92:	e8 29 4a a0 03       	call   7d229c0 <pthread_mutex_unlock@plt>
 4327634:	e9 87 b3 9f 03       	jmp    7d229c0 <pthread_mutex_unlock@plt>
 432810d:	e8 ae a8 9f 03       	call   7d229c0 <pthread_mutex_unlock@plt>
 4339121:	e8 9a 98 9e 03       	call   7d229c0 <pthread_mutex_unlock@plt>
 433f171:	e8 4a 38 9e 03       	call   7d229c0 <pthread_mutex_unlock@plt>
 43419da:	e8 e1 0f 9e 03       	call   7d229c0 <pthread_mutex_unlock@plt>
 4356534:	e8 57 8e 71 ff       	call   3a6f390 <std::unique_lock<std::mutex>::unlock()>
 4356589:	e8 02 8e 71 ff       	call   3a6f390 <std::unique_lock<std::mutex>::unlock()>
 43566b3:	e8 d8 8c 71 ff       	call   3a6f390 <std::unique_lock<std::mutex>::unlock()>
 435df2d:	e8 4e 6d e2 02       	call   7184c80 <mongo::Lock::GlobalLock::_unlock()>
 435df7f:	e8 3c 72 e2 02       	call   71851c0 <mongo::Lock::ResourceLock::_unlock()>
 435e077:	e8 44 71 e2 02       	call   71851c0 <mongo::Lock::ResourceLock::_unlock()>
 437345a:	e8 61 f5 9a 03       	call   7d229c0 <pthread_mutex_unlock@plt>
 437cb7a:	e8 41 5e 9a 03       	call   7d229c0 <pthread_mutex_unlock@plt>
 437d4f5:	e9 c6 54 9a 03       	jmp    7d229c0 <pthread_mutex_unlock@plt>
 437d828:	e9 93 51 9a 03       	jmp    7d229c0 <pthread_mutex_unlock@plt>
 437d845:	e8 76 51 9a 03       	call   7d229c0 <pthread_mutex_unlock@plt>
 437da46:	e8 75 4f 9a 03       	call   7d229c0 <pthread_mutex_unlock@plt>
 437dbc8:	e9 f3 4d 9a 03       	jmp    7d229c0 <pthread_mutex_unlock@plt>
 437e9ad:	e8 0e 40 9a 03       	call   7d229c0 <pthread_mutex_unlock@plt>
 437fd3d:	e9 7e 2c 9a 03       	jmp    7d229c0 <pthread_mutex_unlock@plt>
 4380711:	e8 aa 22 9a 03       	call   7d229c0 <pthread_mutex_unlock@plt>
 438332e:	e8 8d f6 99 03       	call   7d229c0 <pthread_mutex_unlock@plt>
 438827d:	e8 3e a7 99 03       	call   7d229c0 <pthread_mutex_unlock@plt>
 438a991:	e8 2a 80 99 03       	call   7d229c0 <pthread_mutex_unlock@plt>
 438b195:	e8 26 78 99 03       	call   7d229c0 <pthread_mutex_unlock@plt>
 438b2d0:	e9 eb 76 99 03       	jmp    7d229c0 <pthread_mutex_unlock@plt>
 438d565:	e8 16 77 df 02       	call   7184c80 <mongo::Lock::GlobalLock::_unlock()>
 438d5b3:	e8 08 7c df 02       	call   71851c0 <mongo::Lock::ResourceLock::_unlock()>
 438d5c7:	e8 f4 7b df 02       	call   71851c0 <mongo::Lock::ResourceLock::_unlock()>
 438d6dc:	e8 df 52 99 03       	call   7d229c0 <pthread_mutex_unlock@plt>
 438df7f:	e8 3c 4a 99 03       	call   7d229c0 <pthread_mutex_unlock@plt>
 438e150:	e9 6b 48 99 03       	jmp    7d229c0 <pthread_mutex_unlock@plt>
 438e415:	e8 66 68 df 02       	call   7184c80 <mongo::Lock::GlobalLock::_unlock()>
 438e463:	e8 58 6d df 02       	call   71851c0 <mongo::Lock::ResourceLock::_unlock()>
 438e477:	e8 44 6d df 02       	call   71851c0 <mongo::Lock::ResourceLock::_unlock()>
 438ea65:	e8 16 62 df 02       	call   7184c80 <mongo::Lock::GlobalLock::_unlock()>
 438eab3:	e8 08 67 df 02       	call   71851c0 <mongo::Lock::ResourceLock::_unlock()>
 438eadf:	e8 dc 66 df 02       	call   71851c0 <mongo::Lock::ResourceLock::_unlock()>
 4391a40:	e8 7b 0f 99 03       	call   7d229c0 <pthread_mutex_unlock@plt>
 4391bd3:	e8 e8 0d 99 03       	call   7d229c0 <pthread_mutex_unlock@plt>
 4391ecc:	e8 ef 0a 99 03       	call   7d229c0 <pthread_mutex_unlock@plt>
 4393a89:	e8 32 ef 98 03       	call   7d229c0 <pthread_mutex_unlock@plt>
 4393acb:	e8 f0 ee 98 03       	call   7d229c0 <pthread_mutex_unlock@plt>
 439409f:	e8 1c e9 98 03       	call   7d229c0 <pthread_mutex_unlock@plt>
 439439a:	e8 21 e6 98 03       	call   7d229c0 <pthread_mutex_unlock@plt>
 43943e5:	e8 d6 e5 98 03       	call   7d229c0 <pthread_mutex_unlock@plt>
 439ee3a:	e8 81 3b 98 03       	call   7d229c0 <pthread_mutex_unlock@plt>
 43d709d:	e8 1e b9 94 03       	call   7d229c0 <pthread_mutex_unlock@plt>
 43d7606:	e8 b5 b3 94 03       	call   7d229c0 <pthread_mutex_unlock@plt>
 43d78ea:	e9 d1 b0 94 03       	jmp    7d229c0 <pthread_mutex_unlock@plt>
 43dd035:	e8 86 59 94 03       	call   7d229c0 <pthread_mutex_unlock@plt>
 43de454:	e8 67 45 94 03       	call   7d229c0 <pthread_mutex_unlock@plt>
 43e1abf:	e8 bc 31 da 02       	call   7184c80 <mongo::Lock::GlobalLock::_unlock()>
 43e1b0e:	e8 ad 36 da 02       	call   71851c0 <mongo::Lock::ResourceLock::_unlock()>
 43e1b27:	e8 94 36 da 02       	call   71851c0 <mongo::Lock::ResourceLock::_unlock()>
 43e57a2:	e9 19 d2 93 03       	jmp    7d229c0 <pthread_mutex_unlock@plt>
 43e5b3a:	e8 81 ce 93 03       	call   7d229c0 <pthread_mutex_unlock@plt>
 43e69b5:	e9 06 c0 93 03       	jmp    7d229c0 <pthread_mutex_unlock@plt>
 43e6e93:	e8 28 bb 93 03       	call   7d229c0 <pthread_mutex_unlock@plt>
 43e6fe8:	e9 d3 b9 93 03       	jmp    7d229c0 <pthread_mutex_unlock@plt>
 43e70df:	e9 dc b8 93 03       	jmp    7d229c0 <pthread_mutex_unlock@plt>
 43e70fd:	e8 be b8 93 03       	call   7d229c0 <pthread_mutex_unlock@plt>
 43e7fdd:	e8 de a9 93 03       	call   7d229c0 <pthread_mutex_unlock@plt>
 43e978a:	e9 31 92 93 03       	jmp    7d229c0 <pthread_mutex_unlock@plt>
 43eae21:	e8 9a 7b 93 03       	call   7d229c0 <pthread_mutex_unlock@plt>
 43f086b:	e8 50 21 93 03       	call   7d229c0 <pthread_mutex_unlock@plt>
 43f159f:	e8 1c 14 93 03       	call   7d229c0 <pthread_mutex_unlock@plt>
 43fe395:	e8 e6 68 d8 02       	call   7184c80 <mongo::Lock::GlobalLock::_unlock()>
 43fe3e3:	e8 d8 6d d8 02       	call   71851c0 <mongo::Lock::ResourceLock::_unlock()>
 43fe3f7:	e8 c4 6d d8 02       	call   71851c0 <mongo::Lock::ResourceLock::_unlock()>
 43fef70:	e8 4b 3a 92 03       	call   7d229c0 <pthread_mutex_unlock@plt>
 43ff239:	e8 82 37 92 03       	call   7d229c0 <pthread_mutex_unlock@plt>
 43ff2db:	e8 e0 36 92 03       	call   7d229c0 <pthread_mutex_unlock@plt>
 43ff575:	e8 46 34 92 03       	call   7d229c0 <pthread_mutex_unlock@plt>
 43ff840:	e8 7b 31 92 03       	call   7d229c0 <pthread_mutex_unlock@plt>
 4408144:	e8 47 72 66 ff       	call   3a6f390 <std::unique_lock<std::mutex>::unlock()>
 4408199:	e8 f2 71 66 ff       	call   3a6f390 <std::unique_lock<std::mutex>::unlock()>
 4408326:	e8 65 70 66 ff       	call   3a6f390 <std::unique_lock<std::mutex>::unlock()>
 442509d:	e8 de fb d5 02       	call   7184c80 <mongo::Lock::GlobalLock::_unlock()>
 44250eb:	e8 d0 00 d6 02       	call   71851c0 <mongo::Lock::ResourceLock::_unlock()>
 4425127:	e8 94 00 d6 02       	call   71851c0 <mongo::Lock::ResourceLock::_unlock()>
 442b0f7:	e8 c4 78 8f 03       	call   7d229c0 <pthread_mutex_unlock@plt>
 442b254:	e9 67 77 8f 03       	jmp    7d229c0 <pthread_mutex_unlock@plt>
 442b2e6:	e8 d5 76 8f 03       	call   7d229c0 <pthread_mutex_unlock@plt>
 442b39a:	e8 21 76 8f 03       	call   7d229c0 <pthread_mutex_unlock@plt>
 442d419:	e8 a2 55 8f 03       	call   7d229c0 <pthread_mutex_unlock@plt>
 442d918:	e8 a3 50 8f 03       	call   7d229c0 <pthread_mutex_unlock@plt>
 442d985:	e8 36 50 8f 03       	call   7d229c0 <pthread_mutex_unlock@plt>
 442e590:	e8 2b 44 8f 03       	call   7d229c0 <pthread_mutex_unlock@plt>
 442eb73:	e8 48 3e 8f 03       	call   7d229c0 <pthread_mutex_unlock@plt>
 442ecc7:	e8 f4 3c 8f 03       	call   7d229c0 <pthread_mutex_unlock@plt>
 442f57c:	e9 3f 34 8f 03       	jmp    7d229c0 <pthread_mutex_unlock@plt>
 442f8d4:	e8 e7 30 8f 03       	call   7d229c0 <pthread_mutex_unlock@plt>
 4430d81:	e8 3a 1c 8f 03       	call   7d229c0 <pthread_mutex_unlock@plt>
 4430ff1:	e8 ca 19 8f 03       	call   7d229c0 <pthread_mutex_unlock@plt>
 44312be:	e8 fd 16 8f 03       	call   7d229c0 <pthread_mutex_unlock@plt>
 4432563:	e8 58 04 8f 03       	call   7d229c0 <pthread_mutex_unlock@plt>
 44326d3:	e8 e8 02 8f 03       	call   7d229c0 <pthread_mutex_unlock@plt>
 4432799:	e8 22 02 8f 03       	call   7d229c0 <pthread_mutex_unlock@plt>
 4432812:	e8 a9 01 8f 03       	call   7d229c0 <pthread_mutex_unlock@plt>
 4432f83:	e9 38 fa 8e 03       	jmp    7d229c0 <pthread_mutex_unlock@plt>
 4433013:	e8 a8 f9 8e 03       	call   7d229c0 <pthread_mutex_unlock@plt>
 4433277:	e9 44 f7 8e 03       	jmp    7d229c0 <pthread_mutex_unlock@plt>
 4433307:	e9 b4 f6 8e 03       	jmp    7d229c0 <pthread_mutex_unlock@plt>
 44343dc:	e8 df e5 8e 03       	call   7d229c0 <pthread_mutex_unlock@plt>
 443441a:	e8 a1 e5 8e 03       	call   7d229c0 <pthread_mutex_unlock@plt>
 4437a7a:	e8 41 af 8e 03       	call   7d229c0 <pthread_mutex_unlock@plt>
 4438105:	e8 b6 a8 8e 03       	call   7d229c0 <pthread_mutex_unlock@plt>
 44381d9:	e8 e2 a7 8e 03       	call   7d229c0 <pthread_mutex_unlock@plt>
 443835b:	e8 30 70 63 ff       	call   3a6f390 <std::unique_lock<std::mutex>::unlock()>
 44383f7:	e8 94 6f 63 ff       	call   3a6f390 <std::unique_lock<std::mutex>::unlock()>
 4438453:	e8 38 6f 63 ff       	call   3a6f390 <std::unique_lock<std::mutex>::unlock()>
 4438e58:	e8 33 65 63 ff       	call   3a6f390 <std::unique_lock<std::mutex>::unlock()>
 443b462:	e8 19 98 d4 02       	call   7184c80 <mongo::Lock::GlobalLock::_unlock()>
 443b4b4:	e8 07 9d d4 02       	call   71851c0 <mongo::Lock::ResourceLock::_unlock()>
 443b667:	e8 54 9b d4 02       	call   71851c0 <mongo::Lock::ResourceLock::_unlock()>
 443bbe4:	e8 d7 6d 8e 03       	call   7d229c0 <pthread_mutex_unlock@plt>
 443bc18:	e8 a3 6d 8e 03       	call   7d229c0 <pthread_mutex_unlock@plt>
 443bc46:	e8 75 6d 8e 03       	call   7d229c0 <pthread_mutex_unlock@plt>
 443bc5a:	e8 61 6d 8e 03       	call   7d229c0 <pthread_mutex_unlock@plt>
 443bcd0:	e8 eb 6c 8e 03       	call   7d229c0 <pthread_mutex_unlock@plt>
 443c7e3:	e8 a8 2b 63 ff       	call   3a6f390 <std::unique_lock<std::mutex>::unlock()>
 443c7f6:	e8 c5 61 8e 03       	call   7d229c0 <pthread_mutex_unlock@plt>
 443c889:	e8 02 2b 63 ff       	call   3a6f390 <std::unique_lock<std::mutex>::unlock()>
 443d364:	e8 57 56 8e 03       	call   7d229c0 <pthread_mutex_unlock@plt>
 443d37a:	e9 41 56 8e 03       	jmp    7d229c0 <pthread_mutex_unlock@plt>
 443d402:	e8 b9 55 8e 03       	call   7d229c0 <pthread_mutex_unlock@plt>
 443eb1a:	e8 a1 3e 8e 03       	call   7d229c0 <pthread_mutex_unlock@plt>
 4440bc0:	e8 fb 1d 8e 03       	call   7d229c0 <pthread_mutex_unlock@plt>
 4442883:	e8 38 29 d4 02       	call   71851c0 <mongo::Lock::ResourceLock::_unlock()>
 4442921:	e8 9a 28 d4 02       	call   71851c0 <mongo::Lock::ResourceLock::_unlock()>
 4442a48:	e8 73 27 d4 02       	call   71851c0 <mongo::Lock::ResourceLock::_unlock()>
 4442ee9:	e8 d2 22 d4 02       	call   71851c0 <mongo::Lock::ResourceLock::_unlock()>
 444531f:	e8 9c fe d3 02       	call   71851c0 <mongo::Lock::ResourceLock::_unlock()>
 44455d2:	e8 e9 fb d3 02       	call   71851c0 <mongo::Lock::ResourceLock::_unlock()>
 4445ee7:	e8 d4 f2 d3 02       	call   71851c0 <mongo::Lock::ResourceLock::_unlock()>
 4445f0f:	e8 ac f2 d3 02       	call   71851c0 <mongo::Lock::ResourceLock::_unlock()>
 4446b4f:	e8 6c e6 d3 02       	call   71851c0 <mongo::Lock::ResourceLock::_unlock()>
 444727f:	e8 3c df d3 02       	call   71851c0 <mongo::Lock::ResourceLock::_unlock()>
 44472a7:	e8 14 df d3 02       	call   71851c0 <mongo::Lock::ResourceLock::_unlock()>
 44472d7:	e8 e4 de d3 02       	call   71851c0 <mongo::Lock::ResourceLock::_unlock()>
 44473b7:	e8 04 de d3 02       	call   71851c0 <mongo::Lock::ResourceLock::_unlock()>
 444766f:	e8 4c db d3 02       	call   71851c0 <mongo::Lock::ResourceLock::_unlock()>
 44478c9:	e8 f2 d8 d3 02       	call   71851c0 <mongo::Lock::ResourceLock::_unlock()>
 4447fef:	e8 9c 73 62 ff       	call   3a6f390 <std::unique_lock<std::mutex>::unlock()>
 44485b4:	e8 07 cc d3 02       	call   71851c0 <mongo::Lock::ResourceLock::_unlock()>
 4448624:	e8 97 cb d3 02       	call   71851c0 <mongo::Lock::ResourceLock::_unlock()>
 4448659:	e8 62 cb d3 02       	call   71851c0 <mongo::Lock::ResourceLock::_unlock()>
 44486f8:	e8 c3 ca d3 02       	call   71851c0 <mongo::Lock::ResourceLock::_unlock()>
 444880f:	e8 ac c9 d3 02       	call   71851c0 <mongo::Lock::ResourceLock::_unlock()>
 4449093:	e8 28 c1 d3 02       	call   71851c0 <mongo::Lock::ResourceLock::_unlock()>
 44492cd:	e8 ee be d3 02       	call   71851c0 <mongo::Lock::ResourceLock::_unlock()>
 445da4e:	e9 6d 4f 8c 03       	jmp    7d229c0 <pthread_mutex_unlock@plt>
 445db06:	e9 b5 4e 8c 03       	jmp    7d229c0 <pthread_mutex_unlock@plt>
 445db6d:	e9 4e 4e 8c 03       	jmp    7d229c0 <pthread_mutex_unlock@plt>
 445dbde:	e9 dd 4d 8c 03       	jmp    7d229c0 <pthread_mutex_unlock@plt>
 445dc5e:	e9 5d 4d 8c 03       	jmp    7d229c0 <pthread_mutex_unlock@plt>
 445dc9a:	e8 21 4d 8c 03       	call   7d229c0 <pthread_mutex_unlock@plt>
 445e520:	e9 9b 44 8c 03       	jmp    7d229c0 <pthread_mutex_unlock@plt>
 445e5a7:	e8 14 44 8c 03       	call   7d229c0 <pthread_mutex_unlock@plt>
 445f2b4:	e8 07 37 8c 03       	call   7d229c0 <pthread_mutex_unlock@plt>
 445ff50:	e9 6b 2a 8c 03       	jmp    7d229c0 <pthread_mutex_unlock@plt>
 445ffd7:	e8 e4 29 8c 03       	call   7d229c0 <pthread_mutex_unlock@plt>
 4460771:	e8 1a ec 60 ff       	call   3a6f390 <std::unique_lock<std::mutex>::unlock()>
 44618ac:	e8 0f 11 8c 03       	call   7d229c0 <pthread_mutex_unlock@plt>
 44629f3:	e8 98 c9 60 ff       	call   3a6f390 <std::unique_lock<std::mutex>::unlock()>
 4462a23:	e8 68 c9 60 ff       	call   3a6f390 <std::unique_lock<std::mutex>::unlock()>
 4462d41:	e8 4a c6 60 ff       	call   3a6f390 <std::unique_lock<std::mutex>::unlock()>
 44637d1:	e8 ba bb 60 ff       	call   3a6f390 <std::unique_lock<std::mutex>::unlock()>
 4464b1f:	e8 6c a8 60 ff       	call   3a6f390 <std::unique_lock<std::mutex>::unlock()>
 44658c0:	e8 cb 9a 60 ff       	call   3a6f390 <std::unique_lock<std::mutex>::unlock()>
 44658f3:	e8 98 9a 60 ff       	call   3a6f390 <std::unique_lock<std::mutex>::unlock()>
 4466069:	e8 22 93 60 ff       	call   3a6f390 <std::unique_lock<std::mutex>::unlock()>
 44685f3:	e8 c8 a3 8b 03       	call   7d229c0 <pthread_mutex_unlock@plt>
 44695a7:	e8 14 94 8b 03       	call   7d229c0 <pthread_mutex_unlock@plt>
 44695e0:	e8 db 93 8b 03       	call   7d229c0 <pthread_mutex_unlock@plt>
 4469625:	e9 96 93 8b 03       	jmp    7d229c0 <pthread_mutex_unlock@plt>
 4469dd7:	e8 e4 8b 8b 03       	call   7d229c0 <pthread_mutex_unlock@plt>
 4469e26:	e8 95 8b 8b 03       	call   7d229c0 <pthread_mutex_unlock@plt>
 446a307:	e8 b4 86 8b 03       	call   7d229c0 <pthread_mutex_unlock@plt>
 446a5e8:	e8 d3 83 8b 03       	call   7d229c0 <pthread_mutex_unlock@plt>
 446a63e:	e8 7d 83 8b 03       	call   7d229c0 <pthread_mutex_unlock@plt>
 446ab31:	e8 8a 7e 8b 03       	call   7d229c0 <pthread_mutex_unlock@plt>
 446b09d:	e8 de 9b d1 02       	call   7184c80 <mongo::Lock::GlobalLock::_unlock()>
 446b0eb:	e8 d0 a0 d1 02       	call   71851c0 <mongo::Lock::ResourceLock::_unlock()>
 446b0ff:	e8 bc a0 d1 02       	call   71851c0 <mongo::Lock::ResourceLock::_unlock()>
 446b37e:	e9 3d 76 8b 03       	jmp    7d229c0 <pthread_mutex_unlock@plt>
 446b38b:	e8 30 76 8b 03       	call   7d229c0 <pthread_mutex_unlock@plt>
 446b676:	e8 45 73 8b 03       	call   7d229c0 <pthread_mutex_unlock@plt>
 446bd6d:	e8 4e 6c 8b 03       	call   7d229c0 <pthread_mutex_unlock@plt>
 446c2b9:	e8 02 67 8b 03       	call   7d229c0 <pthread_mutex_unlock@plt>
 446c8ac:	e8 0f 61 8b 03       	call   7d229c0 <pthread_mutex_unlock@plt>
 446cb32:	e9 89 5e 8b 03       	jmp    7d229c0 <pthread_mutex_unlock@plt>
 446cb86:	e8 35 5e 8b 03       	call   7d229c0 <pthread_mutex_unlock@plt>
 446d31c:	e8 9f 56 8b 03       	call   7d229c0 <pthread_mutex_unlock@plt>
 446d678:	e8 43 53 8b 03       	call   7d229c0 <pthread_mutex_unlock@plt>
 446d68c:	e8 2f 53 8b 03       	call   7d229c0 <pthread_mutex_unlock@plt>
 446d6d0:	e8 eb 52 8b 03       	call   7d229c0 <pthread_mutex_unlock@plt>
 446d6fc:	e8 bf 52 8b 03       	call   7d229c0 <pthread_mutex_unlock@plt>
 446df78:	e8 13 14 60 ff       	call   3a6f390 <std::unique_lock<std::mutex>::unlock()>
 446e729:	e8 62 0c 60 ff       	call   3a6f390 <std::unique_lock<std::mutex>::unlock()>
 446ea6d:	e8 1e 09 60 ff       	call   3a6f390 <std::unique_lock<std::mutex>::unlock()>
 446effd:	e8 8e 03 60 ff       	call   3a6f390 <std::unique_lock<std::mutex>::unlock()>
 446f27c:	e8 0f 01 60 ff       	call   3a6f390 <std::unique_lock<std::mutex>::unlock()>
 446f7e7:	e8 a4 fb 5f ff       	call   3a6f390 <std::unique_lock<std::mutex>::unlock()>
 446fc74:	e8 47 2d 8b 03       	call   7d229c0 <pthread_mutex_unlock@plt>
 446fe75:	e8 46 2b 8b 03       	call   7d229c0 <pthread_mutex_unlock@plt>
 44703b2:	e8 09 26 8b 03       	call   7d229c0 <pthread_mutex_unlock@plt>
 44708eb:	e8 d0 20 8b 03       	call   7d229c0 <pthread_mutex_unlock@plt>
 4470d48:	e8 73 1c 8b 03       	call   7d229c0 <pthread_mutex_unlock@plt>
 4470e29:	e8 92 1b 8b 03       	call   7d229c0 <pthread_mutex_unlock@plt>
 4470f1e:	e8 9d 1a 8b 03       	call   7d229c0 <pthread_mutex_unlock@plt>
 447f814:	e8 a7 59 d0 02       	call   71851c0 <mongo::Lock::ResourceLock::_unlock()>
 4480253:	e8 68 4f d0 02       	call   71851c0 <mongo::Lock::ResourceLock::_unlock()>
 4480cd3:	e8 e8 44 d0 02       	call   71851c0 <mongo::Lock::ResourceLock::_unlock()>
 4481063:	e8 58 41 d0 02       	call   71851c0 <mongo::Lock::ResourceLock::_unlock()>
 44813f3:	e8 c8 3d d0 02       	call   71851c0 <mongo::Lock::ResourceLock::_unlock()>
 4482477:	e8 44 2d d0 02       	call   71851c0 <mongo::Lock::ResourceLock::_unlock()>
 44826fc:	e8 bf 2a d0 02       	call   71851c0 <mongo::Lock::ResourceLock::_unlock()>
 4482916:	e8 a5 28 d0 02       	call   71851c0 <mongo::Lock::ResourceLock::_unlock()>
 4482976:	e8 45 28 d0 02       	call   71851c0 <mongo::Lock::ResourceLock::_unlock()>
 4482a10:	e8 ab 27 d0 02       	call   71851c0 <mongo::Lock::ResourceLock::_unlock()>
 448439a:	e8 21 e6 89 03       	call   7d229c0 <pthread_mutex_unlock@plt>
 44860fc:	e8 bf c8 89 03       	call   7d229c0 <pthread_mutex_unlock@plt>
 4486264:	e9 57 c7 89 03       	jmp    7d229c0 <pthread_mutex_unlock@plt>
 4486787:	e8 04 8c 5e ff       	call   3a6f390 <std::unique_lock<std::mutex>::unlock()>
 4489972:	e8 49 90 89 03       	call   7d229c0 <pthread_mutex_unlock@plt>
 4489a08:	e8 b3 8f 89 03       	call   7d229c0 <pthread_mutex_unlock@plt>
 448a14a:	e8 71 88 89 03       	call   7d229c0 <pthread_mutex_unlock@plt>
 448a603:	e9 b8 83 89 03       	jmp    7d229c0 <pthread_mutex_unlock@plt>
 448a613:	e8 a8 83 89 03       	call   7d229c0 <pthread_mutex_unlock@plt>
 448ace4:	e9 d7 7c 89 03       	jmp    7d229c0 <pthread_mutex_unlock@plt>
 448b6a5:	e8 e6 3c 5e ff       	call   3a6f390 <std::unique_lock<std::mutex>::unlock()>
 448b8ef:	e8 9c 3a 5e ff       	call   3a6f390 <std::unique_lock<std::mutex>::unlock()>
 448ca06:	e8 b5 5f 89 03       	call   7d229c0 <pthread_mutex_unlock@plt>
 448cbd6:	e8 e5 5d 89 03       	call   7d229c0 <pthread_mutex_unlock@plt>
 448cdf2:	e8 c9 5b 89 03       	call   7d229c0 <pthread_mutex_unlock@plt>
 4490969:	e8 52 48 cf 02       	call   71851c0 <mongo::Lock::ResourceLock::_unlock()>
 4491037:	e8 84 41 cf 02       	call   71851c0 <mongo::Lock::ResourceLock::_unlock()>
 449696c:	e8 4f e8 ce 02       	call   71851c0 <mongo::Lock::ResourceLock::_unlock()>
 4496a96:	e8 25 e7 ce 02       	call   71851c0 <mongo::Lock::ResourceLock::_unlock()>
 44bbe0f:	e8 ac 6b 86 03       	call   7d229c0 <pthread_mutex_unlock@plt>
 44bc597:	e8 24 64 86 03       	call   7d229c0 <pthread_mutex_unlock@plt>
 44bcd35:	e8 86 5c 86 03       	call   7d229c0 <pthread_mutex_unlock@plt>
 44bddd0:	e8 eb 4b 86 03       	call   7d229c0 <pthread_mutex_unlock@plt>
 44be262:	e8 59 47 86 03       	call   7d229c0 <pthread_mutex_unlock@plt>
 44be318:	e8 a3 46 86 03       	call   7d229c0 <pthread_mutex_unlock@plt>
 44be583:	e8 38 44 86 03       	call   7d229c0 <pthread_mutex_unlock@plt>
 44bead0:	e9 eb 3e 86 03       	jmp    7d229c0 <pthread_mutex_unlock@plt>
 44c06f7:	e9 c4 22 86 03       	jmp    7d229c0 <pthread_mutex_unlock@plt>
 44c2682:	e8 39 03 86 03       	call   7d229c0 <pthread_mutex_unlock@plt>
 44c279b:	e8 f0 cb 5a ff       	call   3a6f390 <std::unique_lock<std::mutex>::unlock()>
 44c2974:	e8 47 00 86 03       	call   7d229c0 <pthread_mutex_unlock@plt>
 44c2bc7:	e8 c4 c7 5a ff       	call   3a6f390 <std::unique_lock<std::mutex>::unlock()>
 44c2c53:	e8 68 fd 85 03       	call   7d229c0 <pthread_mutex_unlock@plt>
 44c2ced:	e8 ce fc 85 03       	call   7d229c0 <pthread_mutex_unlock@plt>
 44c2e31:	e8 5a c5 5a ff       	call   3a6f390 <std::unique_lock<std::mutex>::unlock()>
 44c2e58:	e8 33 c5 5a ff       	call   3a6f390 <std::unique_lock<std::mutex>::unlock()>
 44c3fdb:	e8 e0 e9 85 03       	call   7d229c0 <pthread_mutex_unlock@plt>
 44c4063:	e8 28 b3 5a ff       	call   3a6f390 <std::unique_lock<std::mutex>::unlock()>
 44c870a:	e8 b1 a2 85 03       	call   7d229c0 <pthread_mutex_unlock@plt>
 44c88ba:	e8 01 a1 85 03       	call   7d229c0 <pthread_mutex_unlock@plt>
 44c8afc:	e9 bf 9e 85 03       	jmp    7d229c0 <pthread_mutex_unlock@plt>
 44c8b84:	e8 37 9e 85 03       	call   7d229c0 <pthread_mutex_unlock@plt>
 44c8b93:	e8 28 9e 85 03       	call   7d229c0 <pthread_mutex_unlock@plt>
 44c8bba:	e8 01 9e 85 03       	call   7d229c0 <pthread_mutex_unlock@plt>
 44c8c70:	e9 4b 9d 85 03       	jmp    7d229c0 <pthread_mutex_unlock@plt>
 44c8ced:	e8 ce 9c 85 03       	call   7d229c0 <pthread_mutex_unlock@plt>
 44c8d83:	e8 38 9c 85 03       	call   7d229c0 <pthread_mutex_unlock@plt>
 44c8dc5:	e9 f6 9b 85 03       	jmp    7d229c0 <pthread_mutex_unlock@plt>
 44c9467:	e8 54 95 85 03       	call   7d229c0 <pthread_mutex_unlock@plt>
 44c95d7:	e8 e4 93 85 03       	call   7d229c0 <pthread_mutex_unlock@plt>
 44c9651:	e8 6a 93 85 03       	call   7d229c0 <pthread_mutex_unlock@plt>
 44c96e4:	e8 d7 92 85 03       	call   7d229c0 <pthread_mutex_unlock@plt>
 44c997e:	e8 3d 90 85 03       	call   7d229c0 <pthread_mutex_unlock@plt>
 44c9a05:	e8 b6 8f 85 03       	call   7d229c0 <pthread_mutex_unlock@plt>
 44c9b2e:	e8 8d 8e 85 03       	call   7d229c0 <pthread_mutex_unlock@plt>
 44c9b45:	e8 76 8e 85 03       	call   7d229c0 <pthread_mutex_unlock@plt>
 44c9c8a:	e8 31 8d 85 03       	call   7d229c0 <pthread_mutex_unlock@plt>
 44ca111:	e8 aa 88 85 03       	call   7d229c0 <pthread_mutex_unlock@plt>
 44ca279:	e8 42 87 85 03       	call   7d229c0 <pthread_mutex_unlock@plt>
 44ca2b2:	e8 09 87 85 03       	call   7d229c0 <pthread_mutex_unlock@plt>
 44ca3bb:	e8 00 86 85 03       	call   7d229c0 <pthread_mutex_unlock@plt>
 44ca4c3:	e8 f8 84 85 03       	call   7d229c0 <pthread_mutex_unlock@plt>
 44ca69b:	e8 20 83 85 03       	call   7d229c0 <pthread_mutex_unlock@plt>
 44ca752:	e8 69 82 85 03       	call   7d229c0 <pthread_mutex_unlock@plt>
 44ca8bc:	e8 ff 80 85 03       	call   7d229c0 <pthread_mutex_unlock@plt>
 44ca8e9:	e8 d2 80 85 03       	call   7d229c0 <pthread_mutex_unlock@plt>
 44ca91f:	e8 6c 4a 5a ff       	call   3a6f390 <std::unique_lock<std::mutex>::unlock()>
 44caa01:	e8 8a 49 5a ff       	call   3a6f390 <std::unique_lock<std::mutex>::unlock()>
 44cab33:	e8 88 7e 85 03       	call   7d229c0 <pthread_mutex_unlock@plt>
 44d1f9a:	e8 21 0a 85 03       	call   7d229c0 <pthread_mutex_unlock@plt>
 44d2e5f:	e8 5c fb 84 03       	call   7d229c0 <pthread_mutex_unlock@plt>
 44d3293:	e8 f8 c0 59 ff       	call   3a6f390 <std::unique_lock<std::mutex>::unlock()>
 44d38d4:	e9 e7 f0 84 03       	jmp    7d229c0 <pthread_mutex_unlock@plt>
 44d3b96:	e8 f5 b7 59 ff       	call   3a6f390 <std::unique_lock<std::mutex>::unlock()>
 44d3c4b:	e8 40 b7 59 ff       	call   3a6f390 <std::unique_lock<std::mutex>::unlock()>
 44d4103:	e8 88 b2 59 ff       	call   3a6f390 <std::unique_lock<std::mutex>::unlock()>
 44d43d2:	e8 e9 e5 84 03       	call   7d229c0 <pthread_mutex_unlock@plt>
 44d442e:	e8 8d e5 84 03       	call   7d229c0 <pthread_mutex_unlock@plt>
 44d4553:	e8 68 e4 84 03       	call   7d229c0 <pthread_mutex_unlock@plt>
 44d4831:	e8 5a ab 59 ff       	call   3a6f390 <std::unique_lock<std::mutex>::unlock()>
 44d4d35:	e9 86 dc 84 03       	jmp    7d229c0 <pthread_mutex_unlock@plt>
 44d5146:	e9 75 d8 84 03       	jmp    7d229c0 <pthread_mutex_unlock@plt>
 44d56f3:	e8 98 9c 59 ff       	call   3a6f390 <std::unique_lock<std::mutex>::unlock()>
 44d5e67:	e8 24 95 59 ff       	call   3a6f390 <std::unique_lock<std::mutex>::unlock()>
 44d615c:	e8 5f c8 84 03       	call   7d229c0 <pthread_mutex_unlock@plt>
 44d6218:	e8 73 91 59 ff       	call   3a6f390 <std::unique_lock<std::mutex>::unlock()>
 44d6256:	e8 65 c7 84 03       	call   7d229c0 <pthread_mutex_unlock@plt>
 44d62cd:	e8 be 90 59 ff       	call   3a6f390 <std::unique_lock<std::mutex>::unlock()>
 44d631c:	e8 6f 90 59 ff       	call   3a6f390 <std::unique_lock<std::mutex>::unlock()>
 44d63ae:	e8 dd 8f 59 ff       	call   3a6f390 <std::unique_lock<std::mutex>::unlock()>
 44d63d3:	e8 b8 8f 59 ff       	call   3a6f390 <std::unique_lock<std::mutex>::unlock()>
 44d65e2:	e8 d9 c3 84 03       	call   7d229c0 <pthread_mutex_unlock@plt>
 44d66ac:	e8 df 8c 59 ff       	call   3a6f390 <std::unique_lock<std::mutex>::unlock()>
 44d6918:	e8 a3 c0 84 03       	call   7d229c0 <pthread_mutex_unlock@plt>
 44d6a1a:	e8 a1 bf 84 03       	call   7d229c0 <pthread_mutex_unlock@plt>
 44d6a57:	e8 34 89 59 ff       	call   3a6f390 <std::unique_lock<std::mutex>::unlock()>
 44d6a75:	e8 16 89 59 ff       	call   3a6f390 <std::unique_lock<std::mutex>::unlock()>
 44d6b11:	e8 aa be 84 03       	call   7d229c0 <pthread_mutex_unlock@plt>
 44d8024:	e8 67 73 59 ff       	call   3a6f390 <std::unique_lock<std::mutex>::unlock()>
 44d806c:	e8 1f 73 59 ff       	call   3a6f390 <std::unique_lock<std::mutex>::unlock()>
 44d8125:	e8 66 72 59 ff       	call   3a6f390 <std::unique_lock<std::mutex>::unlock()>
 44e014a:	e8 71 28 84 03       	call   7d229c0 <pthread_mutex_unlock@plt>
 44e03cf:	e9 ec 25 84 03       	jmp    7d229c0 <pthread_mutex_unlock@plt>
 44e0453:	e8 68 25 84 03       	call   7d229c0 <pthread_mutex_unlock@plt>
 44e0811:	e9 aa 21 84 03       	jmp    7d229c0 <pthread_mutex_unlock@plt>
 44e0aca:	e8 c1 e8 58 ff       	call   3a6f390 <std::unique_lock<std::mutex>::unlock()>
 44e0bbe:	e8 cd e7 58 ff       	call   3a6f390 <std::unique_lock<std::mutex>::unlock()>
 44e0c13:	e8 78 e7 58 ff       	call   3a6f390 <std::unique_lock<std::mutex>::unlock()>
 44e0e07:	e8 84 e5 58 ff       	call   3a6f390 <std::unique_lock<std::mutex>::unlock()>
 44e1147:	e8 74 18 84 03       	call   7d229c0 <pthread_mutex_unlock@plt>
 44e124b:	e8 40 e1 58 ff       	call   3a6f390 <std::unique_lock<std::mutex>::unlock()>
 44e1268:	e8 23 e1 58 ff       	call   3a6f390 <std::unique_lock<std::mutex>::unlock()>
 44e1aa2:	e8 19 0f 84 03       	call   7d229c0 <pthread_mutex_unlock@plt>
 44e1b20:	e8 9b 0e 84 03       	call   7d229c0 <pthread_mutex_unlock@plt>
 44e1c45:	e8 76 0d 84 03       	call   7d229c0 <pthread_mutex_unlock@plt>
 44e1fb6:	e8 d5 d3 58 ff       	call   3a6f390 <std::unique_lock<std::mutex>::unlock()>
 44e2041:	e8 7a 09 84 03       	call   7d229c0 <pthread_mutex_unlock@plt>
 44e20b0:	e8 0b 09 84 03       	call   7d229c0 <pthread_mutex_unlock@plt>
 44e24bd:	e8 fe 04 84 03       	call   7d229c0 <pthread_mutex_unlock@plt>
 44e28b1:	e8 0a 01 84 03       	call   7d229c0 <pthread_mutex_unlock@plt>
 44e2930:	e8 8b 00 84 03       	call   7d229c0 <pthread_mutex_unlock@plt>
 44e2a15:	e8 a6 ff 83 03       	call   7d229c0 <pthread_mutex_unlock@plt>
 44e2b91:	e8 2a fe 83 03       	call   7d229c0 <pthread_mutex_unlock@plt>
 44e2c10:	e8 ab fd 83 03       	call   7d229c0 <pthread_mutex_unlock@plt>
 44e2cf5:	e8 c6 fc 83 03       	call   7d229c0 <pthread_mutex_unlock@plt>
 44e336a:	e8 51 f6 83 03       	call   7d229c0 <pthread_mutex_unlock@plt>
 44e33c3:	e8 c8 bf 58 ff       	call   3a6f390 <std::unique_lock<std::mutex>::unlock()>
 44e37ab:	e8 10 f2 83 03       	call   7d229c0 <pthread_mutex_unlock@plt>
 44e3fdc:	e8 af b3 58 ff       	call   3a6f390 <std::unique_lock<std::mutex>::unlock()>
 44e40c6:	e8 f5 e8 83 03       	call   7d229c0 <pthread_mutex_unlock@plt>
 44e4722:	e8 99 e2 83 03       	call   7d229c0 <pthread_mutex_unlock@plt>
 44e4803:	e8 88 ab 58 ff       	call   3a6f390 <std::unique_lock<std::mutex>::unlock()>
 44e4943:	e8 78 e0 83 03       	call   7d229c0 <pthread_mutex_unlock@plt>
 44e5279:	e8 42 d7 83 03       	call   7d229c0 <pthread_mutex_unlock@plt>
 44e5350:	e8 6b d6 83 03       	call   7d229c0 <pthread_mutex_unlock@plt>
 44e572a:	e8 91 d2 83 03       	call   7d229c0 <pthread_mutex_unlock@plt>
 44e63df:	e8 ac 8f 58 ff       	call   3a6f390 <std::unique_lock<std::mutex>::unlock()>
 44e64c2:	e8 f9 c4 83 03       	call   7d229c0 <pthread_mutex_unlock@plt>
 44e6997:	e8 24 c0 83 03       	call   7d229c0 <pthread_mutex_unlock@plt>
 44e6a53:	e8 38 89 58 ff       	call   3a6f390 <std::unique_lock<std::mutex>::unlock()>
 44e6cdd:	e8 de bc 83 03       	call   7d229c0 <pthread_mutex_unlock@plt>
 44e740d:	e8 7e 7f 58 ff       	call   3a6f390 <std::unique_lock<std::mutex>::unlock()>
 44e74f7:	e8 c4 b4 83 03       	call   7d229c0 <pthread_mutex_unlock@plt>
 44e7c8f:	e8 fc 76 58 ff       	call   3a6f390 <std::unique_lock<std::mutex>::unlock()>
 44e7fcb:	e8 f0 a9 83 03       	call   7d229c0 <pthread_mutex_unlock@plt>
 44e829c:	e8 1f a7 83 03       	call   7d229c0 <pthread_mutex_unlock@plt>
 44e8af9:	e8 c2 9e 83 03       	call   7d229c0 <pthread_mutex_unlock@plt>
 44e8bd3:	e8 e8 9d 83 03       	call   7d229c0 <pthread_mutex_unlock@plt>
 44e901a:	e8 a1 99 83 03       	call   7d229c0 <pthread_mutex_unlock@plt>
 44ea3a5:	e8 16 86 83 03       	call   7d229c0 <pthread_mutex_unlock@plt>
 44ea4d5:	e8 b6 4e 58 ff       	call   3a6f390 <std::unique_lock<std::mutex>::unlock()>
 44ea5a5:	e8 e6 4d 58 ff       	call   3a6f390 <std::unique_lock<std::mutex>::unlock()>
 44ea5c1:	e8 ca 4d 58 ff       	call   3a6f390 <std::unique_lock<std::mutex>::unlock()>
 44ea7bb:	e8 00 82 83 03       	call   7d229c0 <pthread_mutex_unlock@plt>
 44eacdf:	e8 ac 46 58 ff       	call   3a6f390 <std::unique_lock<std::mutex>::unlock()>
 44eaf97:	e8 24 7a 83 03       	call   7d229c0 <pthread_mutex_unlock@plt>
 44eb02f:	e8 8c 79 83 03       	call   7d229c0 <pthread_mutex_unlock@plt>
 44eb042:	e8 79 79 83 03       	call   7d229c0 <pthread_mutex_unlock@plt>
 44eb314:	e8 77 40 58 ff       	call   3a6f390 <std::unique_lock<std::mutex>::unlock()>
 44eb647:	e8 44 3d 58 ff       	call   3a6f390 <std::unique_lock<std::mutex>::unlock()>
 44eb960:	e8 5b 70 83 03       	call   7d229c0 <pthread_mutex_unlock@plt>
 44eba52:	e8 69 6f 83 03       	call   7d229c0 <pthread_mutex_unlock@plt>
 44ebbed:	e8 ce 6d 83 03       	call   7d229c0 <pthread_mutex_unlock@plt>
 44f0e2a:	e8 91 1b 83 03       	call   7d229c0 <pthread_mutex_unlock@plt>
 44f1289:	e8 32 17 83 03       	call   7d229c0 <pthread_mutex_unlock@plt>
 44f18b6:	e9 05 11 83 03       	jmp    7d229c0 <pthread_mutex_unlock@plt>
 44f195f:	e8 5c 10 83 03       	call   7d229c0 <pthread_mutex_unlock@plt>
 44f1977:	e9 44 10 83 03       	jmp    7d229c0 <pthread_mutex_unlock@plt>
 44f1cff:	e8 bc 0c 83 03       	call   7d229c0 <pthread_mutex_unlock@plt>
 44f1dc7:	e8 f4 0b 83 03       	call   7d229c0 <pthread_mutex_unlock@plt>
 44f257b:	e8 40 04 83 03       	call   7d229c0 <pthread_mutex_unlock@plt>
 44f2695:	e8 f6 cc 57 ff       	call   3a6f390 <std::unique_lock<std::mutex>::unlock()>
 44f272f:	e8 5c cc 57 ff       	call   3a6f390 <std::unique_lock<std::mutex>::unlock()>
 44f2804:	e8 b7 01 83 03       	call   7d229c0 <pthread_mutex_unlock@plt>
 44f2b06:	e8 b5 fe 82 03       	call   7d229c0 <pthread_mutex_unlock@plt>
 44f2be8:	e8 d3 fd 82 03       	call   7d229c0 <pthread_mutex_unlock@plt>
 44f2eb7:	e9 04 fb 82 03       	jmp    7d229c0 <pthread_mutex_unlock@plt>
 44f3017:	e8 74 c3 57 ff       	call   3a6f390 <std::unique_lock<std::mutex>::unlock()>
 44f3185:	e8 36 f8 82 03       	call   7d229c0 <pthread_mutex_unlock@plt>
 44f4280:	e8 3b e7 82 03       	call   7d229c0 <pthread_mutex_unlock@plt>
 44f433a:	e8 81 e6 82 03       	call   7d229c0 <pthread_mutex_unlock@plt>
 44f4391:	e8 2a e6 82 03       	call   7d229c0 <pthread_mutex_unlock@plt>
 44f4937:	e8 54 aa 57 ff       	call   3a6f390 <std::unique_lock<std::mutex>::unlock()>
 44f4b6a:	e8 51 de 82 03       	call   7d229c0 <pthread_mutex_unlock@plt>
 44f4c22:	e8 99 dd 82 03       	call   7d229c0 <pthread_mutex_unlock@plt>
 44f4c3a:	e8 81 dd 82 03       	call   7d229c0 <pthread_mutex_unlock@plt>
 44f4f16:	e8 75 a4 57 ff       	call   3a6f390 <std::unique_lock<std::mutex>::unlock()>
 44f4f63:	e8 58 da 82 03       	call   7d229c0 <pthread_mutex_unlock@plt>
 44f505c:	e8 5f d9 82 03       	call   7d229c0 <pthread_mutex_unlock@plt>
 44f50ec:	e8 9f a2 57 ff       	call   3a6f390 <std::unique_lock<std::mutex>::unlock()>
 44f519f:	e8 1c d8 82 03       	call   7d229c0 <pthread_mutex_unlock@plt>
 44f5541:	e8 7a d4 82 03       	call   7d229c0 <pthread_mutex_unlock@plt>
 44f555f:	e8 5c d4 82 03       	call   7d229c0 <pthread_mutex_unlock@plt>
 44f55cd:	e8 ee d3 82 03       	call   7d229c0 <pthread_mutex_unlock@plt>
 44f760a:	e8 b1 b3 82 03       	call   7d229c0 <pthread_mutex_unlock@plt>
 44f8fb6:	e8 d5 63 57 ff       	call   3a6f390 <std::unique_lock<std::mutex>::unlock()>
 44f9013:	e8 78 63 57 ff       	call   3a6f390 <std::unique_lock<std::mutex>::unlock()>
 44f926b:	e8 50 97 82 03       	call   7d229c0 <pthread_mutex_unlock@plt>
 44fa0d6:	e8 e5 88 82 03       	call   7d229c0 <pthread_mutex_unlock@plt>
 44fa1d3:	e8 e8 87 82 03       	call   7d229c0 <pthread_mutex_unlock@plt>
 44fa2a6:	e8 15 87 82 03       	call   7d229c0 <pthread_mutex_unlock@plt>
 44fa3a3:	e8 18 86 82 03       	call   7d229c0 <pthread_mutex_unlock@plt>
 44fa489:	e8 32 85 82 03       	call   7d229c0 <pthread_mutex_unlock@plt>
 44fa669:	e8 52 83 82 03       	call   7d229c0 <pthread_mutex_unlock@plt>
 44fa849:	e8 72 81 82 03       	call   7d229c0 <pthread_mutex_unlock@plt>
 44faa29:	e8 92 7f 82 03       	call   7d229c0 <pthread_mutex_unlock@plt>
 44fac09:	e8 b2 7d 82 03       	call   7d229c0 <pthread_mutex_unlock@plt>
 44fade9:	e8 d2 7b 82 03       	call   7d229c0 <pthread_mutex_unlock@plt>
 44fee1f:	e8 6c 05 57 ff       	call   3a6f390 <std::unique_lock<std::mutex>::unlock()>
 44ff0f8:	e8 c3 38 82 03       	call   7d229c0 <pthread_mutex_unlock@plt>
 44ff1ac:	e8 0f 38 82 03       	call   7d229c0 <pthread_mutex_unlock@plt>
 44ff1ef:	e8 cc 37 82 03       	call   7d229c0 <pthread_mutex_unlock@plt>
 44ff368:	e8 53 36 82 03       	call   7d229c0 <pthread_mutex_unlock@plt>
 44ff41c:	e8 9f 35 82 03       	call   7d229c0 <pthread_mutex_unlock@plt>
 44ff45f:	e8 5c 35 82 03       	call   7d229c0 <pthread_mutex_unlock@plt>
 44ff5d8:	e8 e3 33 82 03       	call   7d229c0 <pthread_mutex_unlock@plt>
 44ff68a:	e8 31 33 82 03       	call   7d229c0 <pthread_mutex_unlock@plt>
 44ff726:	e8 95 32 82 03       	call   7d229c0 <pthread_mutex_unlock@plt>
 44ff8a8:	e8 13 31 82 03       	call   7d229c0 <pthread_mutex_unlock@plt>
 44ff95c:	e8 5f 30 82 03       	call   7d229c0 <pthread_mutex_unlock@plt>
 44ff99f:	e8 1c 30 82 03       	call   7d229c0 <pthread_mutex_unlock@plt>
 44ffb18:	e8 a3 2e 82 03       	call   7d229c0 <pthread_mutex_unlock@plt>
 44ffbcc:	e8 ef 2d 82 03       	call   7d229c0 <pthread_mutex_unlock@plt>
 44ffc0f:	e8 ac 2d 82 03       	call   7d229c0 <pthread_mutex_unlock@plt>
 44ffd88:	e8 33 2c 82 03       	call   7d229c0 <pthread_mutex_unlock@plt>
 44ffe3c:	e8 7f 2b 82 03       	call   7d229c0 <pthread_mutex_unlock@plt>
 44ffe7f:	e8 3c 2b 82 03       	call   7d229c0 <pthread_mutex_unlock@plt>
 4500256:	e8 35 f1 56 ff       	call   3a6f390 <std::unique_lock<std::mutex>::unlock()>
 4500360:	e8 5b 26 82 03       	call   7d229c0 <pthread_mutex_unlock@plt>
 45004d6:	e8 e5 24 82 03       	call   7d229c0 <pthread_mutex_unlock@plt>
 45006af:	e8 dc ec 56 ff       	call   3a6f390 <std::unique_lock<std::mutex>::unlock()>
 4500bed:	e8 ce 1d 82 03       	call   7d229c0 <pthread_mutex_unlock@plt>
 450121f:	e8 6c e1 56 ff       	call   3a6f390 <std::unique_lock<std::mutex>::unlock()>
 450130f:	e8 ac 16 82 03       	call   7d229c0 <pthread_mutex_unlock@plt>
 4501546:	e8 75 14 82 03       	call   7d229c0 <pthread_mutex_unlock@plt>
 450175f:	e8 2c dc 56 ff       	call   3a6f390 <std::unique_lock<std::mutex>::unlock()>
 4501b16:	e8 a5 0e 82 03       	call   7d229c0 <pthread_mutex_unlock@plt>
 4502023:	e8 68 d3 56 ff       	call   3a6f390 <std::unique_lock<std::mutex>::unlock()>
 450212d:	e8 8e 08 82 03       	call   7d229c0 <pthread_mutex_unlock@plt>
 4502607:	e8 84 cd 56 ff       	call   3a6f390 <std::unique_lock<std::mutex>::unlock()>
 45026b6:	e8 05 03 82 03       	call   7d229c0 <pthread_mutex_unlock@plt>
 4502bcd:	e8 ee fd 81 03       	call   7d229c0 <pthread_mutex_unlock@plt>
 4505cf1:	e8 9a 96 56 ff       	call   3a6f390 <std::unique_lock<std::mutex>::unlock()>
 4507808:	e8 b3 b1 81 03       	call   7d229c0 <pthread_mutex_unlock@plt>
 45078ba:	e8 01 b1 81 03       	call   7d229c0 <pthread_mutex_unlock@plt>
 4507993:	e8 28 b0 81 03       	call   7d229c0 <pthread_mutex_unlock@plt>
 4509138:	e8 83 98 81 03       	call   7d229c0 <pthread_mutex_unlock@plt>
 45091ea:	e8 d1 97 81 03       	call   7d229c0 <pthread_mutex_unlock@plt>
 45092b9:	e8 02 97 81 03       	call   7d229c0 <pthread_mutex_unlock@plt>
 45099cf:	e8 bc 59 56 ff       	call   3a6f390 <std::unique_lock<std::mutex>::unlock()>
 4509a74:	e8 47 8f 81 03       	call   7d229c0 <pthread_mutex_unlock@plt>
 450a071:	e8 4a 89 81 03       	call   7d229c0 <pthread_mutex_unlock@plt>
 450a0d5:	e8 e6 88 81 03       	call   7d229c0 <pthread_mutex_unlock@plt>
 450a13f:	e8 4c 52 56 ff       	call   3a6f390 <std::unique_lock<std::mutex>::unlock()>
 450ad36:	e8 55 46 56 ff       	call   3a6f390 <std::unique_lock<std::mutex>::unlock()>
 450ae40:	e8 7b 7b 81 03       	call   7d229c0 <pthread_mutex_unlock@plt>
 450b407:	e8 84 3f 56 ff       	call   3a6f390 <std::unique_lock<std::mutex>::unlock()>
 450b4b6:	e8 05 75 81 03       	call   7d229c0 <pthread_mutex_unlock@plt>
 450ba3d:	e8 7e 6f 81 03       	call   7d229c0 <pthread_mutex_unlock@plt>
 450c15d:	e8 2e 32 56 ff       	call   3a6f390 <std::unique_lock<std::mutex>::unlock()>
 450c201:	e8 ba 67 81 03       	call   7d229c0 <pthread_mutex_unlock@plt>
 450c6f1:	e8 ca 62 81 03       	call   7d229c0 <pthread_mutex_unlock@plt>
 450c756:	e8 65 62 81 03       	call   7d229c0 <pthread_mutex_unlock@plt>
 450c7bf:	e8 cc 2b 56 ff       	call   3a6f390 <std::unique_lock<std::mutex>::unlock()>
 450d196:	e8 f5 21 56 ff       	call   3a6f390 <std::unique_lock<std::mutex>::unlock()>
 450d2a0:	e8 1b 57 81 03       	call   7d229c0 <pthread_mutex_unlock@plt>
 450d7a7:	e8 e4 1b 56 ff       	call   3a6f390 <std::unique_lock<std::mutex>::unlock()>
 450d856:	e8 65 51 81 03       	call   7d229c0 <pthread_mutex_unlock@plt>
 450dbfd:	e8 be 4d 81 03       	call   7d229c0 <pthread_mutex_unlock@plt>
 4512ebe:	e8 cd c4 55 ff       	call   3a6f390 <std::unique_lock<std::mutex>::unlock()>
 45130e1:	e8 aa c2 55 ff       	call   3a6f390 <std::unique_lock<std::mutex>::unlock()>
 451383c:	e8 7f f1 80 03       	call   7d229c0 <pthread_mutex_unlock@plt>
 4513ad0:	e8 bb b8 55 ff       	call   3a6f390 <std::unique_lock<std::mutex>::unlock()>
 4514616:	e8 75 ad 55 ff       	call   3a6f390 <std::unique_lock<std::mutex>::unlock()>
 4514720:	e8 9b e2 80 03       	call   7d229c0 <pthread_mutex_unlock@plt>
 45148ae:	e8 0d e1 80 03       	call   7d229c0 <pthread_mutex_unlock@plt>
 4514b17:	e8 74 a8 55 ff       	call   3a6f390 <std::unique_lock<std::mutex>::unlock()>
 4515055:	e8 66 d9 80 03       	call   7d229c0 <pthread_mutex_unlock@plt>
 4515820:	e8 6b 9b 55 ff       	call   3a6f390 <std::unique_lock<std::mutex>::unlock()>
 4515a52:	e8 69 cf 80 03       	call   7d229c0 <pthread_mutex_unlock@plt>
 4515a72:	e8 49 cf 80 03       	call   7d229c0 <pthread_mutex_unlock@plt>
 4515a82:	e8 39 cf 80 03       	call   7d229c0 <pthread_mutex_unlock@plt>
 4515aa2:	e8 19 cf 80 03       	call   7d229c0 <pthread_mutex_unlock@plt>
 4515ab2:	e8 09 cf 80 03       	call   7d229c0 <pthread_mutex_unlock@plt>
 4515ad0:	e8 eb ce 80 03       	call   7d229c0 <pthread_mutex_unlock@plt>
 4515aee:	e8 cd ce 80 03       	call   7d229c0 <pthread_mutex_unlock@plt>
 4515b0c:	e8 af ce 80 03       	call   7d229c0 <pthread_mutex_unlock@plt>
 4515b2a:	e8 91 ce 80 03       	call   7d229c0 <pthread_mutex_unlock@plt>
 4515b48:	e8 73 ce 80 03       	call   7d229c0 <pthread_mutex_unlock@plt>
 4515b66:	e8 55 ce 80 03       	call   7d229c0 <pthread_mutex_unlock@plt>
 4515b84:	e8 37 ce 80 03       	call   7d229c0 <pthread_mutex_unlock@plt>
 4515ba2:	e8 19 ce 80 03       	call   7d229c0 <pthread_mutex_unlock@plt>
 4515bc0:	e8 fb cd 80 03       	call   7d229c0 <pthread_mutex_unlock@plt>
 4515bde:	e8 dd cd 80 03       	call   7d229c0 <pthread_mutex_unlock@plt>
 4515bfc:	e8 bf cd 80 03       	call   7d229c0 <pthread_mutex_unlock@plt>
 451648f:	e8 fc 8e 55 ff       	call   3a6f390 <std::unique_lock<std::mutex>::unlock()>
 45165cf:	e8 ec c3 80 03       	call   7d229c0 <pthread_mutex_unlock@plt>
 4516602:	e8 b9 c3 80 03       	call   7d229c0 <pthread_mutex_unlock@plt>
 451668b:	e8 30 c3 80 03       	call   7d229c0 <pthread_mutex_unlock@plt>
 45166be:	e8 fd c2 80 03       	call   7d229c0 <pthread_mutex_unlock@plt>
 4516782:	e8 39 c2 80 03       	call   7d229c0 <pthread_mutex_unlock@plt>
 45167fa:	e8 c1 c1 80 03       	call   7d229c0 <pthread_mutex_unlock@plt>
 4516823:	e8 98 c1 80 03       	call   7d229c0 <pthread_mutex_unlock@plt>
 4516873:	e8 48 c1 80 03       	call   7d229c0 <pthread_mutex_unlock@plt>
 45168a6:	e8 15 c1 80 03       	call   7d229c0 <pthread_mutex_unlock@plt>
 451692f:	e8 8c c0 80 03       	call   7d229c0 <pthread_mutex_unlock@plt>
 4516962:	e8 59 c0 80 03       	call   7d229c0 <pthread_mutex_unlock@plt>
 45169eb:	e8 d0 bf 80 03       	call   7d229c0 <pthread_mutex_unlock@plt>
 4516a1e:	e8 9d bf 80 03       	call   7d229c0 <pthread_mutex_unlock@plt>
 4516abf:	e8 fc be 80 03       	call   7d229c0 <pthread_mutex_unlock@plt>
 4516bb4:	e8 07 be 80 03       	call   7d229c0 <pthread_mutex_unlock@plt>
 4516c58:	e8 33 87 55 ff       	call   3a6f390 <std::unique_lock<std::mutex>::unlock()>
 4516d45:	e8 76 bc 80 03       	call   7d229c0 <pthread_mutex_unlock@plt>
 4516e8e:	e8 2d bb 80 03       	call   7d229c0 <pthread_mutex_unlock@plt>
 4516edd:	e8 de ba 80 03       	call   7d229c0 <pthread_mutex_unlock@plt>
 4516fef:	e8 9c 83 55 ff       	call   3a6f390 <std::unique_lock<std::mutex>::unlock()>
 451711c:	e8 9f b8 80 03       	call   7d229c0 <pthread_mutex_unlock@plt>
 45171a0:	e8 1b b8 80 03       	call   7d229c0 <pthread_mutex_unlock@plt>
 4517257:	e8 34 81 55 ff       	call   3a6f390 <std::unique_lock<std::mutex>::unlock()>
 45173b5:	e8 06 b6 80 03       	call   7d229c0 <pthread_mutex_unlock@plt>
 4517473:	e8 48 b5 80 03       	call   7d229c0 <pthread_mutex_unlock@plt>
 4517dff:	e8 8c 75 55 ff       	call   3a6f390 <std::unique_lock<std::mutex>::unlock()>
 451840b:	e8 b0 a5 80 03       	call   7d229c0 <pthread_mutex_unlock@plt>
 451847b:	e8 40 a5 80 03       	call   7d229c0 <pthread_mutex_unlock@plt>
 45184ab:	e8 10 a5 80 03       	call   7d229c0 <pthread_mutex_unlock@plt>
 4518931:	e8 8a a0 80 03       	call   7d229c0 <pthread_mutex_unlock@plt>
 45189a1:	e8 1a a0 80 03       	call   7d229c0 <pthread_mutex_unlock@plt>
 45189d1:	e8 ea 9f 80 03       	call   7d229c0 <pthread_mutex_unlock@plt>
 4518b22:	e8 69 68 55 ff       	call   3a6f390 <std::unique_lock<std::mutex>::unlock()>
 4518c3a:	e8 81 9d 80 03       	call   7d229c0 <pthread_mutex_unlock@plt>
 4518ce9:	e8 d2 9c 80 03       	call   7d229c0 <pthread_mutex_unlock@plt>
 4518dff:	e8 bc 9b 80 03       	call   7d229c0 <pthread_mutex_unlock@plt>
 4518fd6:	e8 b5 63 55 ff       	call   3a6f390 <std::unique_lock<std::mutex>::unlock()>
 451904b:	e8 70 99 80 03       	call   7d229c0 <pthread_mutex_unlock@plt>
 4519070:	e8 4b 99 80 03       	call   7d229c0 <pthread_mutex_unlock@plt>
 4519236:	e8 85 97 80 03       	call   7d229c0 <pthread_mutex_unlock@plt>
 45194ca:	e8 f1 94 80 03       	call   7d229c0 <pthread_mutex_unlock@plt>
 45194ef:	e8 cc 94 80 03       	call   7d229c0 <pthread_mutex_unlock@plt>
 45197a1:	e8 1a 92 80 03       	call   7d229c0 <pthread_mutex_unlock@plt>
 45197db:	e8 b0 5b 55 ff       	call   3a6f390 <std::unique_lock<std::mutex>::unlock()>
 4519974:	e8 17 5a 55 ff       	call   3a6f390 <std::unique_lock<std::mutex>::unlock()>
 4519a1a:	e8 a1 8f 80 03       	call   7d229c0 <pthread_mutex_unlock@plt>
 4519aa3:	e8 18 8f 80 03       	call   7d229c0 <pthread_mutex_unlock@plt>
 4519acd:	e8 ee 8e 80 03       	call   7d229c0 <pthread_mutex_unlock@plt>
 451ae7e:	e8 0d 45 55 ff       	call   3a6f390 <std::unique_lock<std::mutex>::unlock()>
 451aeeb:	e8 a0 44 55 ff       	call   3a6f390 <std::unique_lock<std::mutex>::unlock()>
 451b597:	e8 24 74 80 03       	call   7d229c0 <pthread_mutex_unlock@plt>
 451b5e3:	e8 d8 73 80 03       	call   7d229c0 <pthread_mutex_unlock@plt>
 451b6da:	e8 b1 3c 55 ff       	call   3a6f390 <std::unique_lock<std::mutex>::unlock()>
 451b74b:	e8 70 72 80 03       	call   7d229c0 <pthread_mutex_unlock@plt>
 452366a:	e8 51 f3 7f 03       	call   7d229c0 <pthread_mutex_unlock@plt>
 452372e:	e8 8d f2 7f 03       	call   7d229c0 <pthread_mutex_unlock@plt>
 4523848:	e8 73 f1 7f 03       	call   7d229c0 <pthread_mutex_unlock@plt>
 45238bb:	e8 00 f1 7f 03       	call   7d229c0 <pthread_mutex_unlock@plt>
 4523998:	e8 23 f0 7f 03       	call   7d229c0 <pthread_mutex_unlock@plt>
 4523a13:	e8 a8 ef 7f 03       	call   7d229c0 <pthread_mutex_unlock@plt>
 4523c4d:	e8 6e ed 7f 03       	call   7d229c0 <pthread_mutex_unlock@plt>
 4523cd9:	e8 e2 ec 7f 03       	call   7d229c0 <pthread_mutex_unlock@plt>
 452601f:	e8 9c c9 7f 03       	call   7d229c0 <pthread_mutex_unlock@plt>
 452606d:	e8 4e c9 7f 03       	call   7d229c0 <pthread_mutex_unlock@plt>
 4526192:	e9 29 c8 7f 03       	jmp    7d229c0 <pthread_mutex_unlock@plt>
 4526231:	e8 8a c7 7f 03       	call   7d229c0 <pthread_mutex_unlock@plt>
 4526293:	e8 28 c7 7f 03       	call   7d229c0 <pthread_mutex_unlock@plt>
 4526678:	e8 43 c3 7f 03       	call   7d229c0 <pthread_mutex_unlock@plt>
 45266b5:	e8 06 c3 7f 03       	call   7d229c0 <pthread_mutex_unlock@plt>
 4526761:	e9 5a c2 7f 03       	jmp    7d229c0 <pthread_mutex_unlock@plt>
 45268c5:	e9 f6 c0 7f 03       	jmp    7d229c0 <pthread_mutex_unlock@plt>
 4526b11:	e8 aa be 7f 03       	call   7d229c0 <pthread_mutex_unlock@plt>
 4528cd3:	e8 e8 9c 7f 03       	call   7d229c0 <pthread_mutex_unlock@plt>
 4529727:	e8 64 5c 54 ff       	call   3a6f390 <std::unique_lock<std::mutex>::unlock()>
 452a802:	e8 89 4b 54 ff       	call   3a6f390 <std::unique_lock<std::mutex>::unlock()>
 452a8e0:	e8 db 80 7f 03       	call   7d229c0 <pthread_mutex_unlock@plt>
 452ab27:	e8 94 7e 7f 03       	call   7d229c0 <pthread_mutex_unlock@plt>
 452ac79:	e8 42 7d 7f 03       	call   7d229c0 <pthread_mutex_unlock@plt>
 452acd7:	e8 b4 46 54 ff       	call   3a6f390 <std::unique_lock<std::mutex>::unlock()>
 452c72b:	e8 90 62 7f 03       	call   7d229c0 <pthread_mutex_unlock@plt>
 452caf3:	e8 c8 5e 7f 03       	call   7d229c0 <pthread_mutex_unlock@plt>
 452cec9:	e8 c2 24 54 ff       	call   3a6f390 <std::unique_lock<std::mutex>::unlock()>
 452d053:	e8 38 23 54 ff       	call   3a6f390 <std::unique_lock<std::mutex>::unlock()>
 452e309:	e8 b2 46 7f 03       	call   7d229c0 <pthread_mutex_unlock@plt>
 452e3df:	e8 dc 45 7f 03       	call   7d229c0 <pthread_mutex_unlock@plt>
 452e481:	e8 3a 45 7f 03       	call   7d229c0 <pthread_mutex_unlock@plt>
 452f655:	e8 66 33 7f 03       	call   7d229c0 <pthread_mutex_unlock@plt>
 452fbee:	e8 cd 2d 7f 03       	call   7d229c0 <pthread_mutex_unlock@plt>
 452fc8f:	e8 2c 2d 7f 03       	call   7d229c0 <pthread_mutex_unlock@plt>
 452fcc3:	e8 f8 2c 7f 03       	call   7d229c0 <pthread_mutex_unlock@plt>
 4530194:	e8 27 28 7f 03       	call   7d229c0 <pthread_mutex_unlock@plt>
 45304dc:	e9 df 24 7f 03       	jmp    7d229c0 <pthread_mutex_unlock@plt>
 4530a14:	e8 a7 1f 7f 03       	call   7d229c0 <pthread_mutex_unlock@plt>
 4530a40:	e8 7b 1f 7f 03       	call   7d229c0 <pthread_mutex_unlock@plt>
 4530a6c:	e8 4f 1f 7f 03       	call   7d229c0 <pthread_mutex_unlock@plt>
 4530ab0:	e8 0b 1f 7f 03       	call   7d229c0 <pthread_mutex_unlock@plt>
 4530b5e:	e8 5d 1e 7f 03       	call   7d229c0 <pthread_mutex_unlock@plt>
 4530bb5:	e8 06 1e 7f 03       	call   7d229c0 <pthread_mutex_unlock@plt>
 4530c72:	e8 49 1d 7f 03       	call   7d229c0 <pthread_mutex_unlock@plt>
 4530cb6:	e8 05 1d 7f 03       	call   7d229c0 <pthread_mutex_unlock@plt>
 4530cd4:	e8 e7 1c 7f 03       	call   7d229c0 <pthread_mutex_unlock@plt>
 4530f81:	e8 3a 1a 7f 03       	call   7d229c0 <pthread_mutex_unlock@plt>
 4531195:	e8 f6 e1 53 ff       	call   3a6f390 <std::unique_lock<std::mutex>::unlock()>
 453143f:	e8 7c 15 7f 03       	call   7d229c0 <pthread_mutex_unlock@plt>
 453153e:	e8 7d 14 7f 03       	call   7d229c0 <pthread_mutex_unlock@plt>
 453179e:	e8 ed db 53 ff       	call   3a6f390 <std::unique_lock<std::mutex>::unlock()>
 4531930:	e8 8b 10 7f 03       	call   7d229c0 <pthread_mutex_unlock@plt>
 4531c64:	e8 27 d7 53 ff       	call   3a6f390 <std::unique_lock<std::mutex>::unlock()>
 4532075:	e9 46 09 7f 03       	jmp    7d229c0 <pthread_mutex_unlock@plt>
 453208f:	e8 2c 09 7f 03       	call   7d229c0 <pthread_mutex_unlock@plt>
 453216e:	e8 4d 08 7f 03       	call   7d229c0 <pthread_mutex_unlock@plt>
 4532195:	e8 26 08 7f 03       	call   7d229c0 <pthread_mutex_unlock@plt>
 45321b5:	e8 06 08 7f 03       	call   7d229c0 <pthread_mutex_unlock@plt>
 45321da:	e8 e1 07 7f 03       	call   7d229c0 <pthread_mutex_unlock@plt>
 4532279:	e8 42 07 7f 03       	call   7d229c0 <pthread_mutex_unlock@plt>
 45327b0:	e8 0b 02 7f 03       	call   7d229c0 <pthread_mutex_unlock@plt>
 4532925:	e8 96 00 7f 03       	call   7d229c0 <pthread_mutex_unlock@plt>
 453837a:	e8 41 a6 7e 03       	call   7d229c0 <pthread_mutex_unlock@plt>
 45542f1:	e9 ca e6 7c 03       	jmp    7d229c0 <pthread_mutex_unlock@plt>
 4554352:	e9 69 e6 7c 03       	jmp    7d229c0 <pthread_mutex_unlock@plt>
 45543b7:	e8 04 e6 7c 03       	call   7d229c0 <pthread_mutex_unlock@plt>
 4554e1b:	e8 a0 db 7c 03       	call   7d229c0 <pthread_mutex_unlock@plt>
 455574e:	e8 6d d2 7c 03       	call   7d229c0 <pthread_mutex_unlock@plt>
 45589d5:	e8 a6 c2 c2 02       	call   7184c80 <mongo::Lock::GlobalLock::_unlock()>
 4558a23:	e8 98 c7 c2 02       	call   71851c0 <mongo::Lock::ResourceLock::_unlock()>
 4558a37:	e8 84 c7 c2 02       	call   71851c0 <mongo::Lock::ResourceLock::_unlock()>
 456f7d3:	e9 e8 31 7b 03       	jmp    7d229c0 <pthread_mutex_unlock@plt>
 456f8c1:	e9 fa 30 7b 03       	jmp    7d229c0 <pthread_mutex_unlock@plt>
 456fa2a:	e9 91 2f 7b 03       	jmp    7d229c0 <pthread_mutex_unlock@plt>
 456ff41:	e9 7a 2a 7b 03       	jmp    7d229c0 <pthread_mutex_unlock@plt>
 4572c31:	e8 8a fd 7a 03       	call   7d229c0 <pthread_mutex_unlock@plt>
 4573096:	e8 25 f9 7a 03       	call   7d229c0 <pthread_mutex_unlock@plt>
 45730aa:	e8 11 f9 7a 03       	call   7d229c0 <pthread_mutex_unlock@plt>
 4573301:	e8 ba f6 7a 03       	call   7d229c0 <pthread_mutex_unlock@plt>
 4573a81:	e8 3a ef 7a 03       	call   7d229c0 <pthread_mutex_unlock@plt>
 4588117:	e9 a4 a8 79 03       	jmp    7d229c0 <pthread_mutex_unlock@plt>
 45885c8:	e8 f3 a3 79 03       	call   7d229c0 <pthread_mutex_unlock@plt>
 4588615:	e9 a6 a3 79 03       	jmp    7d229c0 <pthread_mutex_unlock@plt>
 4588a06:	e8 b5 9f 79 03       	call   7d229c0 <pthread_mutex_unlock@plt>
 4589c16:	e8 a5 8d 79 03       	call   7d229c0 <pthread_mutex_unlock@plt>
 458ade2:	e8 d9 7b 79 03       	call   7d229c0 <pthread_mutex_unlock@plt>
 458ae38:	e8 83 7b 79 03       	call   7d229c0 <pthread_mutex_unlock@plt>
 458aee0:	e8 db 7a 79 03       	call   7d229c0 <pthread_mutex_unlock@plt>
 458b6dd:	e8 ae 3c 4e ff       	call   3a6f390 <std::unique_lock<std::mutex>::unlock()>
 458df05:	e8 b6 4a 79 03       	call   7d229c0 <pthread_mutex_unlock@plt>
 458e374:	e8 47 46 79 03       	call   7d229c0 <pthread_mutex_unlock@plt>
 458e4e4:	e8 a7 0e 4e ff       	call   3a6f390 <std::unique_lock<std::mutex>::unlock()>
 458e74e:	e8 6d 42 79 03       	call   7d229c0 <pthread_mutex_unlock@plt>
 458e9ac:	e8 df 09 4e ff       	call   3a6f390 <std::unique_lock<std::mutex>::unlock()>
 4594b0a:	e8 b1 de 78 03       	call   7d229c0 <pthread_mutex_unlock@plt>
 4594c0f:	e9 ac dd 78 03       	jmp    7d229c0 <pthread_mutex_unlock@plt>
 4594cc7:	e9 f4 dc 78 03       	jmp    7d229c0 <pthread_mutex_unlock@plt>
 459502d:	e8 8e d9 78 03       	call   7d229c0 <pthread_mutex_unlock@plt>
 4597d19:	e8 a2 ac 78 03       	call   7d229c0 <pthread_mutex_unlock@plt>
 4598881:	e8 3a a1 78 03       	call   7d229c0 <pthread_mutex_unlock@plt>
 4598d8e:	e8 2d 9c 78 03       	call   7d229c0 <pthread_mutex_unlock@plt>
 4598f32:	e8 89 9a 78 03       	call   7d229c0 <pthread_mutex_unlock@plt>
 459e59b:	e8 20 44 78 03       	call   7d229c0 <pthread_mutex_unlock@plt>
 45a196f:	e8 1c da 4c ff       	call   3a6f390 <std::unique_lock<std::mutex>::unlock()>
 45a396d:	e8 4e f0 77 03       	call   7d229c0 <pthread_mutex_unlock@plt>
 45a4622:	e9 99 e3 77 03       	jmp    7d229c0 <pthread_mutex_unlock@plt>
 45a565a:	e8 61 d3 77 03       	call   7d229c0 <pthread_mutex_unlock@plt>
 45a59af:	e8 0c d0 77 03       	call   7d229c0 <pthread_mutex_unlock@plt>
 45a5a1e:	e8 9d cf 77 03       	call   7d229c0 <pthread_mutex_unlock@plt>
 45a5bec:	e8 cf cd 77 03       	call   7d229c0 <pthread_mutex_unlock@plt>
 45a63e4:	e8 d7 c5 77 03       	call   7d229c0 <pthread_mutex_unlock@plt>
 45a6b7a:	e8 11 88 4c ff       	call   3a6f390 <std::unique_lock<std::mutex>::unlock()>
 45a706d:	e8 4e b9 77 03       	call   7d229c0 <pthread_mutex_unlock@plt>
 45a718a:	e8 31 b8 77 03       	call   7d229c0 <pthread_mutex_unlock@plt>
 45b9dca:	e8 f1 8b 76 03       	call   7d229c0 <pthread_mutex_unlock@plt>
 45ba977:	e9 44 80 76 03       	jmp    7d229c0 <pthread_mutex_unlock@plt>
 45bac8c:	e9 2f 7d 76 03       	jmp    7d229c0 <pthread_mutex_unlock@plt>
 45badeb:	e8 d0 7b 76 03       	call   7d229c0 <pthread_mutex_unlock@plt>
 45bae44:	e9 77 7b 76 03       	jmp    7d229c0 <pthread_mutex_unlock@plt>
 45bd537:	e8 54 1e 4b ff       	call   3a6f390 <std::unique_lock<std::mutex>::unlock()>
 45bd854:	e8 67 51 76 03       	call   7d229c0 <pthread_mutex_unlock@plt>
 45bd8c9:	e8 f2 50 76 03       	call   7d229c0 <pthread_mutex_unlock@plt>
 45bd924:	e8 67 1a 4b ff       	call   3a6f390 <std::unique_lock<std::mutex>::unlock()>
 45c0112:	e8 a9 28 76 03       	call   7d229c0 <pthread_mutex_unlock@plt>
 45c0159:	e8 62 28 76 03       	call   7d229c0 <pthread_mutex_unlock@plt>
 45c0258:	e8 63 27 76 03       	call   7d229c0 <pthread_mutex_unlock@plt>
 45c02dc:	e8 af f0 4a ff       	call   3a6f390 <std::unique_lock<std::mutex>::unlock()>
 45c03a7:	e8 14 26 76 03       	call   7d229c0 <pthread_mutex_unlock@plt>
 45c0fc0:	e9 fb 19 76 03       	jmp    7d229c0 <pthread_mutex_unlock@plt>
 45c12f8:	e8 c3 16 76 03       	call   7d229c0 <pthread_mutex_unlock@plt>
 45c2526:	e8 65 ce 4a ff       	call   3a6f390 <std::unique_lock<std::mutex>::unlock()>
 45c2610:	e8 7b cd 4a ff       	call   3a6f390 <std::unique_lock<std::mutex>::unlock()>
 45c2a03:	e8 b8 ff 75 03       	call   7d229c0 <pthread_mutex_unlock@plt>
 45c2a5f:	e8 5c ff 75 03       	call   7d229c0 <pthread_mutex_unlock@plt>
 45c2b60:	e8 5b fe 75 03       	call   7d229c0 <pthread_mutex_unlock@plt>
 45c3fcb:	e8 f0 e9 75 03       	call   7d229c0 <pthread_mutex_unlock@plt>
 45c405c:	e8 5f e9 75 03       	call   7d229c0 <pthread_mutex_unlock@plt>
 45c4f53:	e8 68 da 75 03       	call   7d229c0 <pthread_mutex_unlock@plt>
 45c6865:	e8 56 c1 75 03       	call   7d229c0 <pthread_mutex_unlock@plt>
 45c8e98:	e8 23 9b 75 03       	call   7d229c0 <pthread_mutex_unlock@plt>
 45c8ec6:	e8 f5 9a 75 03       	call   7d229c0 <pthread_mutex_unlock@plt>
 45c9397:	e8 24 96 75 03       	call   7d229c0 <pthread_mutex_unlock@plt>
 45c9418:	e8 a3 95 75 03       	call   7d229c0 <pthread_mutex_unlock@plt>
 45c985a:	e8 61 91 75 03       	call   7d229c0 <pthread_mutex_unlock@plt>
 45c99c6:	e8 f5 8f 75 03       	call   7d229c0 <pthread_mutex_unlock@plt>
 45c99f7:	e8 c4 8f 75 03       	call   7d229c0 <pthread_mutex_unlock@plt>
 45cb590:	e8 2b 74 75 03       	call   7d229c0 <pthread_mutex_unlock@plt>
 45cb5a4:	e8 17 74 75 03       	call   7d229c0 <pthread_mutex_unlock@plt>
 45cb7e3:	e8 a8 3b 4a ff       	call   3a6f390 <std::unique_lock<std::mutex>::unlock()>
 45cb887:	e8 04 3b 4a ff       	call   3a6f390 <std::unique_lock<std::mutex>::unlock()>
 45cb8a3:	e8 e8 3a 4a ff       	call   3a6f390 <std::unique_lock<std::mutex>::unlock()>
 45cbd64:	e8 27 36 4a ff       	call   3a6f390 <std::unique_lock<std::mutex>::unlock()>
 45cbd8d:	e8 fe 35 4a ff       	call   3a6f390 <std::unique_lock<std::mutex>::unlock()>
 45cbfb4:	e8 07 6a 75 03       	call   7d229c0 <pthread_mutex_unlock@plt>
 45cc27a:	e8 11 31 4a ff       	call   3a6f390 <std::unique_lock<std::mutex>::unlock()>
 45cc298:	e8 f3 30 4a ff       	call   3a6f390 <std::unique_lock<std::mutex>::unlock()>
 45cc2ba:	e8 d1 30 4a ff       	call   3a6f390 <std::unique_lock<std::mutex>::unlock()>
 45e56d1:	e9 ea d2 73 03       	jmp    7d229c0 <pthread_mutex_unlock@plt>
 45e5a61:	e9 5a cf 73 03       	jmp    7d229c0 <pthread_mutex_unlock@plt>
 45e72f8:	e8 c3 b6 73 03       	call   7d229c0 <pthread_mutex_unlock@plt>
 45e732d:	e8 8e b6 73 03       	call   7d229c0 <pthread_mutex_unlock@plt>
 45eb4cc:	e8 ef 9c b9 02       	call   71851c0 <mongo::Lock::ResourceLock::_unlock()>
 45ecc90:	e8 2b 85 b9 02       	call   71851c0 <mongo::Lock::ResourceLock::_unlock()>
 45eecd6:	e8 e5 64 b9 02       	call   71851c0 <mongo::Lock::ResourceLock::_unlock()>
 45f0717:	e8 a4 4a b9 02       	call   71851c0 <mongo::Lock::ResourceLock::_unlock()>
 45f0dc8:	e8 f3 43 b9 02       	call   71851c0 <mongo::Lock::ResourceLock::_unlock()>
 45f1ccc:	e8 ef 34 b9 02       	call   71851c0 <mongo::Lock::ResourceLock::_unlock()>
 45f2c1a:	e8 a1 25 b9 02       	call   71851c0 <mongo::Lock::ResourceLock::_unlock()>
 45fed9d:	e8 1e 64 b8 02       	call   71851c0 <mongo::Lock::ResourceLock::_unlock()>
 460029f:	e8 1c 4f b8 02       	call   71851c0 <mongo::Lock::ResourceLock::_unlock()>
 460043c:	e8 7f 4d b8 02       	call   71851c0 <mongo::Lock::ResourceLock::_unlock()>
 4603278:	e8 43 1f b8 02       	call   71851c0 <mongo::Lock::ResourceLock::_unlock()>
 460429a:	e8 21 0f b8 02       	call   71851c0 <mongo::Lock::ResourceLock::_unlock()>
 460547e:	e8 3d fd b7 02       	call   71851c0 <mongo::Lock::ResourceLock::_unlock()>
 4607657:	e8 64 db b7 02       	call   71851c0 <mongo::Lock::ResourceLock::_unlock()>
 46084dc:	e8 df cc b7 02       	call   71851c0 <mongo::Lock::ResourceLock::_unlock()>
 4609d18:	e8 a3 b4 b7 02       	call   71851c0 <mongo::Lock::ResourceLock::_unlock()>
 4609d3c:	e8 7f b4 b7 02       	call   71851c0 <mongo::Lock::ResourceLock::_unlock()>
 460bbe5:	e8 d6 95 b7 02       	call   71851c0 <mongo::Lock::ResourceLock::_unlock()>
 460c601:	e8 ba 8b b7 02       	call   71851c0 <mongo::Lock::ResourceLock::_unlock()>
 460cd5c:	e8 5f 84 b7 02       	call   71851c0 <mongo::Lock::ResourceLock::_unlock()>
 460d5f7:	e8 c4 7b b7 02       	call   71851c0 <mongo::Lock::ResourceLock::_unlock()>
 460dea0:	e8 1b 73 b7 02       	call   71851c0 <mongo::Lock::ResourceLock::_unlock()>
 460e0a2:	e8 19 71 b7 02       	call   71851c0 <mongo::Lock::ResourceLock::_unlock()>
 460fbc1:	e8 fa 55 b7 02       	call   71851c0 <mongo::Lock::ResourceLock::_unlock()>
 460ff59:	e8 62 52 b7 02       	call   71851c0 <mongo::Lock::ResourceLock::_unlock()>
 46109fe:	e8 bd 47 b7 02       	call   71851c0 <mongo::Lock::ResourceLock::_unlock()>
 4610c0a:	e8 b1 45 b7 02       	call   71851c0 <mongo::Lock::ResourceLock::_unlock()>
 461131d:	e8 9e 3e b7 02       	call   71851c0 <mongo::Lock::ResourceLock::_unlock()>
 4611b3f:	e8 7c 36 b7 02       	call   71851c0 <mongo::Lock::ResourceLock::_unlock()>
 461224f:	e8 6c 2f b7 02       	call   71851c0 <mongo::Lock::ResourceLock::_unlock()>
 4612273:	e8 48 2f b7 02       	call   71851c0 <mongo::Lock::ResourceLock::_unlock()>
 4619c9a:	e8 21 8d 70 03       	call   7d229c0 <pthread_mutex_unlock@plt>
 461b033:	e8 88 a1 b6 02       	call   71851c0 <mongo::Lock::ResourceLock::_unlock()>
 461e18b:	e8 30 70 b6 02       	call   71851c0 <mongo::Lock::ResourceLock::_unlock()>
 462124e:	e8 6d 3f b6 02       	call   71851c0 <mongo::Lock::ResourceLock::_unlock()>
 462125a:	e8 61 3f b6 02       	call   71851c0 <mongo::Lock::ResourceLock::_unlock()>
 4623ef2:	e8 c9 12 b6 02       	call   71851c0 <mongo::Lock::ResourceLock::_unlock()>
 4623efe:	e8 bd 12 b6 02       	call   71851c0 <mongo::Lock::ResourceLock::_unlock()>
 46248e3:	e8 d8 08 b6 02       	call   71851c0 <mongo::Lock::ResourceLock::_unlock()>
 46250ef:	e8 cc 00 b6 02       	call   71851c0 <mongo::Lock::ResourceLock::_unlock()>
 46256ae:	e8 0d fb b5 02       	call   71851c0 <mongo::Lock::ResourceLock::_unlock()>
 46256ba:	e8 01 fb b5 02       	call   71851c0 <mongo::Lock::ResourceLock::_unlock()>
 4625b83:	e8 38 f6 b5 02       	call   71851c0 <mongo::Lock::ResourceLock::_unlock()>
 4625b8f:	e8 2c f6 b5 02       	call   71851c0 <mongo::Lock::ResourceLock::_unlock()>
 46282fc:	e8 bf ce b5 02       	call   71851c0 <mongo::Lock::ResourceLock::_unlock()>
 462f51b:	e8 a0 5c b5 02       	call   71851c0 <mongo::Lock::ResourceLock::_unlock()>
 4631aba:	e8 01 0f 6f 03       	call   7d229c0 <pthread_mutex_unlock@plt>
 463c673:	e8 48 8b b4 02       	call   71851c0 <mongo::Lock::ResourceLock::_unlock()>
 463ca9a:	e8 21 87 b4 02       	call   71851c0 <mongo::Lock::ResourceLock::_unlock()>
 463d3fa:	e8 c1 7d b4 02       	call   71851c0 <mongo::Lock::ResourceLock::_unlock()>
 46454b5:	e8 06 fd b3 02       	call   71851c0 <mongo::Lock::ResourceLock::_unlock()>
 4649db5:	e8 06 b4 b3 02       	call   71851c0 <mongo::Lock::ResourceLock::_unlock()>
 464c8c0:	e8 fb 88 b3 02       	call   71851c0 <mongo::Lock::ResourceLock::_unlock()>
 4651243:	e8 78 3f b3 02       	call   71851c0 <mongo::Lock::ResourceLock::_unlock()>
 4651b4c:	e8 6f 36 b3 02       	call   71851c0 <mongo::Lock::ResourceLock::_unlock()>
 4652365:	e8 56 2e b3 02       	call   71851c0 <mongo::Lock::ResourceLock::_unlock()>
 4653f1e:	e8 9d 12 b3 02       	call   71851c0 <mongo::Lock::ResourceLock::_unlock()>
 4654ca1:	e8 1a 05 b3 02       	call   71851c0 <mongo::Lock::ResourceLock::_unlock()>
 4654ec8:	e8 f3 02 b3 02       	call   71851c0 <mongo::Lock::ResourceLock::_unlock()>
 4654f80:	e8 3b 02 b3 02       	call   71851c0 <mongo::Lock::ResourceLock::_unlock()>
 465523f:	e8 7c ff b2 02       	call   71851c0 <mongo::Lock::ResourceLock::_unlock()>
 46568ba:	e8 01 c1 6c 03       	call   7d229c0 <pthread_mutex_unlock@plt>
 4658082:	e9 39 a9 6c 03       	jmp    7d229c0 <pthread_mutex_unlock@plt>
 4658245:	e9 76 a7 6c 03       	jmp    7d229c0 <pthread_mutex_unlock@plt>
 465ab30:	e8 8b a6 b2 02       	call   71851c0 <mongo::Lock::ResourceLock::_unlock()>
 465c0a8:	e8 13 69 6c 03       	call   7d229c0 <pthread_mutex_unlock@plt>
 465c218:	e8 a3 67 6c 03       	call   7d229c0 <pthread_mutex_unlock@plt>
 46687cd:	e8 ee c9 b1 02       	call   71851c0 <mongo::Lock::ResourceLock::_unlock()>
 4668e4e:	e8 6d c3 b1 02       	call   71851c0 <mongo::Lock::ResourceLock::_unlock()>
 466946b:	e8 20 5f 40 ff       	call   3a6f390 <std::unique_lock<std::mutex>::unlock()>
 466b56b:	e8 50 74 6b 03       	call   7d229c0 <pthread_mutex_unlock@plt>
 466bb38:	e8 83 96 b1 02       	call   71851c0 <mongo::Lock::ResourceLock::_unlock()>
 466bf02:	e8 b9 6a 6b 03       	call   7d229c0 <pthread_mutex_unlock@plt>
 466bf36:	e8 85 6a 6b 03       	call   7d229c0 <pthread_mutex_unlock@plt>
 466d5bf:	e8 fc 7b b1 02       	call   71851c0 <mongo::Lock::ResourceLock::_unlock()>
 466d6e6:	e8 a5 1c 40 ff       	call   3a6f390 <std::unique_lock<std::mutex>::unlock()>
 466d873:	e8 48 79 b1 02       	call   71851c0 <mongo::Lock::ResourceLock::_unlock()>
 467057a:	e8 41 24 6b 03       	call   7d229c0 <pthread_mutex_unlock@plt>
 4671415:	e8 a6 15 6b 03       	call   7d229c0 <pthread_mutex_unlock@plt>
 467142b:	e9 90 15 6b 03       	jmp    7d229c0 <pthread_mutex_unlock@plt>
 46714b2:	e8 09 15 6b 03       	call   7d229c0 <pthread_mutex_unlock@plt>
 46715f5:	e8 c6 13 6b 03       	call   7d229c0 <pthread_mutex_unlock@plt>
 467170f:	e8 ac 12 6b 03       	call   7d229c0 <pthread_mutex_unlock@plt>
 4671802:	e8 b9 11 6b 03       	call   7d229c0 <pthread_mutex_unlock@plt>
 46719eb:	e8 d0 0f 6b 03       	call   7d229c0 <pthread_mutex_unlock@plt>
 46725d0:	e8 eb 03 6b 03       	call   7d229c0 <pthread_mutex_unlock@plt>
 4673376:	e8 15 c0 3f ff       	call   3a6f390 <std::unique_lock<std::mutex>::unlock()>
 468fc5b:	e8 60 2d 69 03       	call   7d229c0 <pthread_mutex_unlock@plt>
 468fecd:	e8 ee 2a 69 03       	call   7d229c0 <pthread_mutex_unlock@plt>
 46905b2:	e8 09 24 69 03       	call   7d229c0 <pthread_mutex_unlock@plt>
 4690b4d:	e8 6e 1e 69 03       	call   7d229c0 <pthread_mutex_unlock@plt>
 4690f89:	e8 32 1a 69 03       	call   7d229c0 <pthread_mutex_unlock@plt>
 4691d40:	e8 7b 0c 69 03       	call   7d229c0 <pthread_mutex_unlock@plt>
 4691d70:	e8 4b 0c 69 03       	call   7d229c0 <pthread_mutex_unlock@plt>
 46920c3:	e8 f8 08 69 03       	call   7d229c0 <pthread_mutex_unlock@plt>
 4692377:	e8 44 06 69 03       	call   7d229c0 <pthread_mutex_unlock@plt>
 4692f93:	e8 28 fa 68 03       	call   7d229c0 <pthread_mutex_unlock@plt>
 46e9a81:	e9 3a 8f 63 03       	jmp    7d229c0 <pthread_mutex_unlock@plt>
 46e9b28:	e9 93 8e 63 03       	jmp    7d229c0 <pthread_mutex_unlock@plt>
 46e9bc4:	e8 f7 8d 63 03       	call   7d229c0 <pthread_mutex_unlock@plt>
 46e9e86:	e8 35 8b 63 03       	call   7d229c0 <pthread_mutex_unlock@plt>
 46e9ed5:	e8 e6 8a 63 03       	call   7d229c0 <pthread_mutex_unlock@plt>
 46eae81:	e9 3a 7b 63 03       	jmp    7d229c0 <pthread_mutex_unlock@plt>
 46eaec1:	e9 fa 7a 63 03       	jmp    7d229c0 <pthread_mutex_unlock@plt>
 46eaefb:	e9 c0 7a 63 03       	jmp    7d229c0 <pthread_mutex_unlock@plt>
 46eaf3b:	e9 80 7a 63 03       	jmp    7d229c0 <pthread_mutex_unlock@plt>
 46ec465:	e9 56 65 63 03       	jmp    7d229c0 <pthread_mutex_unlock@plt>
 46ed5f6:	e8 95 1d 38 ff       	call   3a6f390 <std::unique_lock<std::mutex>::unlock()>
 46ed6a1:	e8 ea 1c 38 ff       	call   3a6f390 <std::unique_lock<std::mutex>::unlock()>
 46edacb:	e8 c0 18 38 ff       	call   3a6f390 <std::unique_lock<std::mutex>::unlock()>
 46edbb1:	e8 da 17 38 ff       	call   3a6f390 <std::unique_lock<std::mutex>::unlock()>
 46edd0d:	e8 ae 4c 63 03       	call   7d229c0 <pthread_mutex_unlock@plt>
 46ef95e:	e8 5d 30 63 03       	call   7d229c0 <pthread_mutex_unlock@plt>
 46ef9c0:	e8 fb 2f 63 03       	call   7d229c0 <pthread_mutex_unlock@plt>
 46f0427:	e8 94 25 63 03       	call   7d229c0 <pthread_mutex_unlock@plt>
 46f0482:	e8 09 ef 37 ff       	call   3a6f390 <std::unique_lock<std::mutex>::unlock()>
 46f0557:	e8 64 24 63 03       	call   7d229c0 <pthread_mutex_unlock@plt>
 46f05b2:	e8 d9 ed 37 ff       	call   3a6f390 <std::unique_lock<std::mutex>::unlock()>
 46f0687:	e8 34 23 63 03       	call   7d229c0 <pthread_mutex_unlock@plt>
 46f0706:	e8 85 ec 37 ff       	call   3a6f390 <std::unique_lock<std::mutex>::unlock()>
 46f0c2a:	e8 91 1d 63 03       	call   7d229c0 <pthread_mutex_unlock@plt>
 46f0e8f:	e8 2c 1b 63 03       	call   7d229c0 <pthread_mutex_unlock@plt>
 46f2067:	e8 24 d3 37 ff       	call   3a6f390 <std::unique_lock<std::mutex>::unlock()>
 46f2076:	e8 15 d3 37 ff       	call   3a6f390 <std::unique_lock<std::mutex>::unlock()>
 46f208b:	e8 00 d3 37 ff       	call   3a6f390 <std::unique_lock<std::mutex>::unlock()>
 46f209a:	e8 f1 d2 37 ff       	call   3a6f390 <std::unique_lock<std::mutex>::unlock()>
 46f20af:	e8 dc d2 37 ff       	call   3a6f390 <std::unique_lock<std::mutex>::unlock()>
 46f20be:	e8 cd d2 37 ff       	call   3a6f390 <std::unique_lock<std::mutex>::unlock()>
 46ff8ea:	e8 d1 30 62 03       	call   7d229c0 <pthread_mutex_unlock@plt>
 4700a54:	e8 87 de 47 00       	call   4b7e8e0 <mongo::repl::ReplSyncSharedData::unlock()>
 470237c:	e9 3f 06 62 03       	jmp    7d229c0 <pthread_mutex_unlock@plt>
 4703438:	e9 83 f5 61 03       	jmp    7d229c0 <pthread_mutex_unlock@plt>
 4704546:	e8 75 e4 61 03       	call   7d229c0 <pthread_mutex_unlock@plt>
 47045e0:	e8 db e3 61 03       	call   7d229c0 <pthread_mutex_unlock@plt>
 470482d:	e8 8e e1 61 03       	call   7d229c0 <pthread_mutex_unlock@plt>
 47048b8:	e8 03 e1 61 03       	call   7d229c0 <pthread_mutex_unlock@plt>
 47072a4:	e8 17 b7 61 03       	call   7d229c0 <pthread_mutex_unlock@plt>
 4707934:	e8 87 b0 61 03       	call   7d229c0 <pthread_mutex_unlock@plt>
 4708503:	e8 b8 a4 61 03       	call   7d229c0 <pthread_mutex_unlock@plt>
 470902d:	e8 ae 58 47 00       	call   4b7e8e0 <mongo::repl::ReplSyncSharedData::unlock()>
 470a9be:	e8 fd 7f 61 03       	call   7d229c0 <pthread_mutex_unlock@plt>
 470aa4b:	e8 70 7f 61 03       	call   7d229c0 <pthread_mutex_unlock@plt>
 470afd3:	e8 e8 79 61 03       	call   7d229c0 <pthread_mutex_unlock@plt>
 470d305:	e8 b6 56 61 03       	call   7d229c0 <pthread_mutex_unlock@plt>
 470d463:	e8 58 55 61 03       	call   7d229c0 <pthread_mutex_unlock@plt>
 470e628:	e8 63 0d 36 ff       	call   3a6f390 <std::unique_lock<std::mutex>::unlock()>
 470e6bf:	e8 cc 0c 36 ff       	call   3a6f390 <std::unique_lock<std::mutex>::unlock()>
 470ee11:	e8 aa 3b 61 03       	call   7d229c0 <pthread_mutex_unlock@plt>
 470eeb0:	e8 0b 3b 61 03       	call   7d229c0 <pthread_mutex_unlock@plt>
 470ef91:	e8 2a 3a 61 03       	call   7d229c0 <pthread_mutex_unlock@plt>
 470f034:	e8 a7 f8 46 00       	call   4b7e8e0 <mongo::repl::ReplSyncSharedData::unlock()>
 470f2f3:	e8 c8 36 61 03       	call   7d229c0 <pthread_mutex_unlock@plt>
 470f530:	e8 8b 34 61 03       	call   7d229c0 <pthread_mutex_unlock@plt>
 4713c98:	e8 23 ed 60 03       	call   7d229c0 <pthread_mutex_unlock@plt>
 4714d54:	e8 67 04 a7 02       	call   71851c0 <mongo::Lock::ResourceLock::_unlock()>
 4716431:	e8 8a c5 60 03       	call   7d229c0 <pthread_mutex_unlock@plt>
 471790d:	e8 7e 7a 35 ff       	call   3a6f390 <std::unique_lock<std::mutex>::unlock()>
 4717a9b:	e8 f0 78 35 ff       	call   3a6f390 <std::unique_lock<std::mutex>::unlock()>
 4717b02:	e8 89 78 35 ff       	call   3a6f390 <std::unique_lock<std::mutex>::unlock()>
 47187d2:	e8 b9 6b 35 ff       	call   3a6f390 <std::unique_lock<std::mutex>::unlock()>
 4718a66:	e8 55 9f 60 03       	call   7d229c0 <pthread_mutex_unlock@plt>
 4718b57:	e8 34 68 35 ff       	call   3a6f390 <std::unique_lock<std::mutex>::unlock()>
 4718cdf:	e8 ac 66 35 ff       	call   3a6f390 <std::unique_lock<std::mutex>::unlock()>
 471932c:	e8 af 55 46 00       	call   4b7e8e0 <mongo::repl::ReplSyncSharedData::unlock()>
 4719380:	e8 3b 96 60 03       	call   7d229c0 <pthread_mutex_unlock@plt>
 47195fa:	e8 c1 93 60 03       	call   7d229c0 <pthread_mutex_unlock@plt>
 471a765:	e8 56 82 60 03       	call   7d229c0 <pthread_mutex_unlock@plt>
 471af23:	e9 98 7a 60 03       	jmp    7d229c0 <pthread_mutex_unlock@plt>
 471b462:	e8 59 75 60 03       	call   7d229c0 <pthread_mutex_unlock@plt>
 471b518:	e8 a3 74 60 03       	call   7d229c0 <pthread_mutex_unlock@plt>
 471b92b:	e8 90 70 60 03       	call   7d229c0 <pthread_mutex_unlock@plt>
 471bb31:	e8 aa 2d 46 00       	call   4b7e8e0 <mongo::repl::ReplSyncSharedData::unlock()>
 471bcd4:	e9 e7 6c 60 03       	jmp    7d229c0 <pthread_mutex_unlock@plt>
 471c384:	e8 07 30 35 ff       	call   3a6f390 <std::unique_lock<std::mutex>::unlock()>
 471c57a:	e8 11 2e 35 ff       	call   3a6f390 <std::unique_lock<std::mutex>::unlock()>
 471d851:	e8 6a 51 60 03       	call   7d229c0 <pthread_mutex_unlock@plt>
 471d943:	e9 78 50 60 03       	jmp    7d229c0 <pthread_mutex_unlock@plt>
 471e273:	e8 48 47 60 03       	call   7d229c0 <pthread_mutex_unlock@plt>
 471e7a8:	e8 13 42 60 03       	call   7d229c0 <pthread_mutex_unlock@plt>
 471f119:	e9 a2 38 60 03       	jmp    7d229c0 <pthread_mutex_unlock@plt>
 471f6ec:	e8 cf 32 60 03       	call   7d229c0 <pthread_mutex_unlock@plt>
 471fa58:	e8 63 2f 60 03       	call   7d229c0 <pthread_mutex_unlock@plt>
 4720087:	e8 34 29 60 03       	call   7d229c0 <pthread_mutex_unlock@plt>
 4720b26:	e8 95 1e 60 03       	call   7d229c0 <pthread_mutex_unlock@plt>
 4721465:	e8 56 15 60 03       	call   7d229c0 <pthread_mutex_unlock@plt>
 472219f:	e8 1c 08 60 03       	call   7d229c0 <pthread_mutex_unlock@plt>
 4722264:	e8 57 07 60 03       	call   7d229c0 <pthread_mutex_unlock@plt>
 4722ece:	e8 0d ba 45 00       	call   4b7e8e0 <mongo::repl::ReplSyncSharedData::unlock()>
 4722ed6:	e8 e5 fa 5f 03       	call   7d229c0 <pthread_mutex_unlock@plt>
 4724bbd:	e8 fe dd 5f 03       	call   7d229c0 <pthread_mutex_unlock@plt>
 4724bc5:	e8 c6 a7 34 ff       	call   3a6f390 <std::unique_lock<std::mutex>::unlock()>
 4724c6b:	e8 20 a7 34 ff       	call   3a6f390 <std::unique_lock<std::mutex>::unlock()>
 4724cf8:	e8 c3 dc 5f 03       	call   7d229c0 <pthread_mutex_unlock@plt>
 4724d42:	e8 49 a6 34 ff       	call   3a6f390 <std::unique_lock<std::mutex>::unlock()>
 4725859:	e8 62 d1 5f 03       	call   7d229c0 <pthread_mutex_unlock@plt>
 4726224:	e8 97 c7 5f 03       	call   7d229c0 <pthread_mutex_unlock@plt>
 4726bfc:	e8 bf bd 5f 03       	call   7d229c0 <pthread_mutex_unlock@plt>
 47271d8:	e8 e3 b7 5f 03       	call   7d229c0 <pthread_mutex_unlock@plt>
 472734d:	e8 6e b6 5f 03       	call   7d229c0 <pthread_mutex_unlock@plt>
 47279fd:	e8 be af 5f 03       	call   7d229c0 <pthread_mutex_unlock@plt>
 47288ff:	e8 8c 6a 34 ff       	call   3a6f390 <std::unique_lock<std::mutex>::unlock()>
 4728c97:	e8 f4 66 34 ff       	call   3a6f390 <std::unique_lock<std::mutex>::unlock()>
 47293e7:	e8 d4 95 5f 03       	call   7d229c0 <pthread_mutex_unlock@plt>
 47295ae:	e9 0d 94 5f 03       	jmp    7d229c0 <pthread_mutex_unlock@plt>
 472ae09:	e8 b2 7b 5f 03       	call   7d229c0 <pthread_mutex_unlock@plt>
 472edb2:	e8 29 fb 44 00       	call   4b7e8e0 <mongo::repl::ReplSyncSharedData::unlock()>
 472edcc:	e8 ef 3b 5f 03       	call   7d229c0 <pthread_mutex_unlock@plt>
 4730cf3:	e8 c8 1c 5f 03       	call   7d229c0 <pthread_mutex_unlock@plt>
 4730d7d:	e8 3e 1c 5f 03       	call   7d229c0 <pthread_mutex_unlock@plt>
 4730fa7:	e8 14 1a 5f 03       	call   7d229c0 <pthread_mutex_unlock@plt>
 47310fb:	e8 c0 18 5f 03       	call   7d229c0 <pthread_mutex_unlock@plt>
 4731565:	e8 56 14 5f 03       	call   7d229c0 <pthread_mutex_unlock@plt>
 47315db:	e8 e0 13 5f 03       	call   7d229c0 <pthread_mutex_unlock@plt>
 47317f4:	e8 c7 11 5f 03       	call   7d229c0 <pthread_mutex_unlock@plt>
 4731a4e:	e8 6d 0f 5f 03       	call   7d229c0 <pthread_mutex_unlock@plt>
 4731ad6:	e8 e5 0e 5f 03       	call   7d229c0 <pthread_mutex_unlock@plt>
 473270a:	e8 d1 c1 44 00       	call   4b7e8e0 <mongo::repl::ReplSyncSharedData::unlock()>
 47328ea:	e8 f1 bf 44 00       	call   4b7e8e0 <mongo::repl::ReplSyncSharedData::unlock()>
 473291b:	e8 c0 bf 44 00       	call   4b7e8e0 <mongo::repl::ReplSyncSharedData::unlock()>
 473299e:	e8 1d 00 5f 03       	call   7d229c0 <pthread_mutex_unlock@plt>
 473315c:	e8 5f f8 5e 03       	call   7d229c0 <pthread_mutex_unlock@plt>
 47337f9:	e8 c2 f1 5e 03       	call   7d229c0 <pthread_mutex_unlock@plt>
 4733ca2:	e8 39 ac 44 00       	call   4b7e8e0 <mongo::repl::ReplSyncSharedData::unlock()>
 4733eae:	e8 0d eb 5e 03       	call   7d229c0 <pthread_mutex_unlock@plt>
 47345bc:	e8 ff e3 5e 03       	call   7d229c0 <pthread_mutex_unlock@plt>
 4734753:	e8 68 e2 5e 03       	call   7d229c0 <pthread_mutex_unlock@plt>
 47349a8:	e8 e3 a9 33 ff       	call   3a6f390 <std::unique_lock<std::mutex>::unlock()>
 4734b70:	e8 4b de 5e 03       	call   7d229c0 <pthread_mutex_unlock@plt>
 4734b84:	e8 37 de 5e 03       	call   7d229c0 <pthread_mutex_unlock@plt>
 4734b98:	e8 23 de 5e 03       	call   7d229c0 <pthread_mutex_unlock@plt>
 4734bb1:	e8 2a 9d 44 00       	call   4b7e8e0 <mongo::repl::ReplSyncSharedData::unlock()>
 4734bb9:	e8 02 de 5e 03       	call   7d229c0 <pthread_mutex_unlock@plt>
 4734c93:	e8 28 dd 5e 03       	call   7d229c0 <pthread_mutex_unlock@plt>
 4735643:	e8 78 d3 5e 03       	call   7d229c0 <pthread_mutex_unlock@plt>
 473581f:	e8 9c f9 a4 02       	call   71851c0 <mongo::Lock::ResourceLock::_unlock()>
 4735b8b:	e8 30 ce 5e 03       	call   7d229c0 <pthread_mutex_unlock@plt>
 4736040:	e8 4b 93 33 ff       	call   3a6f390 <std::unique_lock<std::mutex>::unlock()>
 47361df:	e8 ac 91 33 ff       	call   3a6f390 <std::unique_lock<std::mutex>::unlock()>
 473622f:	e8 5c 91 33 ff       	call   3a6f390 <std::unique_lock<std::mutex>::unlock()>
 4736534:	e8 a7 83 44 00       	call   4b7e8e0 <mongo::repl::ReplSyncSharedData::unlock()>
 473653c:	e8 7f c4 5e 03       	call   7d229c0 <pthread_mutex_unlock@plt>
 47366e8:	e8 d3 c2 5e 03       	call   7d229c0 <pthread_mutex_unlock@plt>
 47367a8:	e8 13 c2 5e 03       	call   7d229c0 <pthread_mutex_unlock@plt>
 47368b5:	e8 06 c1 5e 03       	call   7d229c0 <pthread_mutex_unlock@plt>
 47368d4:	e8 e7 c0 5e 03       	call   7d229c0 <pthread_mutex_unlock@plt>
 4736978:	e8 43 c0 5e 03       	call   7d229c0 <pthread_mutex_unlock@plt>
 47369f1:	e8 ea 7e 44 00       	call   4b7e8e0 <mongo::repl::ReplSyncSharedData::unlock()>
 47369fd:	e8 be bf 5e 03       	call   7d229c0 <pthread_mutex_unlock@plt>
 4736b7b:	e8 10 88 33 ff       	call   3a6f390 <std::unique_lock<std::mutex>::unlock()>
 47371ea:	e8 d1 b7 5e 03       	call   7d229c0 <pthread_mutex_unlock@plt>
 4737480:	e8 3b b5 5e 03       	call   7d229c0 <pthread_mutex_unlock@plt>
 4737545:	e8 76 b4 5e 03       	call   7d229c0 <pthread_mutex_unlock@plt>
 4737681:	e8 3a b3 5e 03       	call   7d229c0 <pthread_mutex_unlock@plt>
 473774f:	e8 6c b2 5e 03       	call   7d229c0 <pthread_mutex_unlock@plt>
 47378a9:	e8 12 b1 5e 03       	call   7d229c0 <pthread_mutex_unlock@plt>
 4737a0f:	e8 ac af 5e 03       	call   7d229c0 <pthread_mutex_unlock@plt>
 4737b76:	e8 45 ae 5e 03       	call   7d229c0 <pthread_mutex_unlock@plt>
 4737f2b:	e8 90 aa 5e 03       	call   7d229c0 <pthread_mutex_unlock@plt>
 4738166:	e8 55 a8 5e 03       	call   7d229c0 <pthread_mutex_unlock@plt>
 473831c:	e8 9f a6 5e 03       	call   7d229c0 <pthread_mutex_unlock@plt>
 4738751:	e8 8a 61 44 00       	call   4b7e8e0 <mongo::repl::ReplSyncSharedData::unlock()>
 473875c:	e8 5f a2 5e 03       	call   7d229c0 <pthread_mutex_unlock@plt>
 473893e:	e8 4d 6a 33 ff       	call   3a6f390 <std::unique_lock<std::mutex>::unlock()>
 4738c7f:	e8 0c 67 33 ff       	call   3a6f390 <std::unique_lock<std::mutex>::unlock()>
 4738d4d:	e8 6e 9c 5e 03       	call   7d229c0 <pthread_mutex_unlock@plt>
 4738d6c:	e8 4f 9c 5e 03       	call   7d229c0 <pthread_mutex_unlock@plt>
 47390bf:	e8 cc 62 33 ff       	call   3a6f390 <std::unique_lock<std::mutex>::unlock()>
 47391d5:	e8 e6 97 5e 03       	call   7d229c0 <pthread_mutex_unlock@plt>
 4739245:	e8 76 97 5e 03       	call   7d229c0 <pthread_mutex_unlock@plt>
 473947e:	e8 3d 95 5e 03       	call   7d229c0 <pthread_mutex_unlock@plt>
 47394a3:	e8 18 95 5e 03       	call   7d229c0 <pthread_mutex_unlock@plt>
 4739bdb:	e8 e0 8d 5e 03       	call   7d229c0 <pthread_mutex_unlock@plt>
 473a92d:	e8 ae 3f 44 00       	call   4b7e8e0 <mongo::repl::ReplSyncSharedData::unlock()>
 473a935:	e8 86 80 5e 03       	call   7d229c0 <pthread_mutex_unlock@plt>
 473b4d3:	e8 e8 74 5e 03       	call   7d229c0 <pthread_mutex_unlock@plt>
 473b50f:	e8 ac 74 5e 03       	call   7d229c0 <pthread_mutex_unlock@plt>
 473b534:	e8 87 74 5e 03       	call   7d229c0 <pthread_mutex_unlock@plt>
 473b575:	e8 46 74 5e 03       	call   7d229c0 <pthread_mutex_unlock@plt>
 473b699:	e8 22 73 5e 03       	call   7d229c0 <pthread_mutex_unlock@plt>
 473b74d:	e8 6e 72 5e 03       	call   7d229c0 <pthread_mutex_unlock@plt>
 473c1fe:	e8 bd 67 5e 03       	call   7d229c0 <pthread_mutex_unlock@plt>
 473c2fa:	e8 c1 66 5e 03       	call   7d229c0 <pthread_mutex_unlock@plt>
 473c395:	e8 26 66 5e 03       	call   7d229c0 <pthread_mutex_unlock@plt>
 473c47e:	e8 3d 65 5e 03       	call   7d229c0 <pthread_mutex_unlock@plt>
 473c5a2:	e8 19 64 5e 03       	call   7d229c0 <pthread_mutex_unlock@plt>
 473c635:	e8 86 63 5e 03       	call   7d229c0 <pthread_mutex_unlock@plt>
 4744414:	e8 77 af 32 ff       	call   3a6f390 <std::unique_lock<std::mutex>::unlock()>
 474445c:	e8 2f af 32 ff       	call   3a6f390 <std::unique_lock<std::mutex>::unlock()>
 474451c:	e8 6f ae 32 ff       	call   3a6f390 <std::unique_lock<std::mutex>::unlock()>
 474cc6a:	e8 51 5d 5d 03       	call   7d229c0 <pthread_mutex_unlock@plt>
 474d4b4:	e8 07 55 5d 03       	call   7d229c0 <pthread_mutex_unlock@plt>
 474d71b:	e8 a0 52 5d 03       	call   7d229c0 <pthread_mutex_unlock@plt>
 474dd44:	e9 77 4c 5d 03       	jmp    7d229c0 <pthread_mutex_unlock@plt>
 474de88:	e9 33 4b 5d 03       	jmp    7d229c0 <pthread_mutex_unlock@plt>
 474ded0:	e9 eb 4a 5d 03       	jmp    7d229c0 <pthread_mutex_unlock@plt>
 474e5d6:	e8 e5 43 5d 03       	call   7d229c0 <pthread_mutex_unlock@plt>
 474e6c0:	e9 fb 42 5d 03       	jmp    7d229c0 <pthread_mutex_unlock@plt>
 474e9d2:	e9 e9 3f 5d 03       	jmp    7d229c0 <pthread_mutex_unlock@plt>
 474ea72:	e9 49 3f 5d 03       	jmp    7d229c0 <pthread_mutex_unlock@plt>
 4750788:	e8 33 22 5d 03       	call   7d229c0 <pthread_mutex_unlock@plt>
 47548d5:	e8 e6 e0 5c 03       	call   7d229c0 <pthread_mutex_unlock@plt>
 4754abb:	e8 00 df 5c 03       	call   7d229c0 <pthread_mutex_unlock@plt>
 4755136:	e8 85 d8 5c 03       	call   7d229c0 <pthread_mutex_unlock@plt>
 4756330:	e9 8b c6 5c 03       	jmp    7d229c0 <pthread_mutex_unlock@plt>
 475717b:	e8 40 b8 5c 03       	call   7d229c0 <pthread_mutex_unlock@plt>
 47571be:	e8 fd b7 5c 03       	call   7d229c0 <pthread_mutex_unlock@plt>
 47584f8:	e8 c3 a4 5c 03       	call   7d229c0 <pthread_mutex_unlock@plt>
 4759aa0:	e8 1b 8f 5c 03       	call   7d229c0 <pthread_mutex_unlock@plt>
 4760bcf:	e8 ec 1d 5c 03       	call   7d229c0 <pthread_mutex_unlock@plt>
 4763cd7:	e8 e4 ec 5b 03       	call   7d229c0 <pthread_mutex_unlock@plt>
 4763ddc:	e8 df eb 5b 03       	call   7d229c0 <pthread_mutex_unlock@plt>
 47644bf:	e8 fc e4 5b 03       	call   7d229c0 <pthread_mutex_unlock@plt>
 4764580:	e8 3b e4 5b 03       	call   7d229c0 <pthread_mutex_unlock@plt>
 4764fb2:	e8 09 da 5b 03       	call   7d229c0 <pthread_mutex_unlock@plt>
 476882e:	e9 8d a1 5b 03       	jmp    7d229c0 <pthread_mutex_unlock@plt>
 4768d3f:	e8 7c 9c 5b 03       	call   7d229c0 <pthread_mutex_unlock@plt>
 47692ca:	e8 f1 96 5b 03       	call   7d229c0 <pthread_mutex_unlock@plt>
 476b20f:	e8 ac 77 5b 03       	call   7d229c0 <pthread_mutex_unlock@plt>
 476b415:	e8 a6 75 5b 03       	call   7d229c0 <pthread_mutex_unlock@plt>
 476b44b:	e8 70 75 5b 03       	call   7d229c0 <pthread_mutex_unlock@plt>
 476c2ab:	e8 10 67 5b 03       	call   7d229c0 <pthread_mutex_unlock@plt>
 476c4f7:	e8 c4 64 5b 03       	call   7d229c0 <pthread_mutex_unlock@plt>
 476c5b3:	e8 08 64 5b 03       	call   7d229c0 <pthread_mutex_unlock@plt>
 476d58e:	e8 2d 54 5b 03       	call   7d229c0 <pthread_mutex_unlock@plt>
 476de94:	e8 27 4b 5b 03       	call   7d229c0 <pthread_mutex_unlock@plt>
 476ec09:	e8 b2 3d 5b 03       	call   7d229c0 <pthread_mutex_unlock@plt>
 476ec43:	e8 78 3d 5b 03       	call   7d229c0 <pthread_mutex_unlock@plt>
 476fa54:	e8 67 2f 5b 03       	call   7d229c0 <pthread_mutex_unlock@plt>
 476fefb:	e8 c0 2a 5b 03       	call   7d229c0 <pthread_mutex_unlock@plt>
 476ff33:	e8 88 2a 5b 03       	call   7d229c0 <pthread_mutex_unlock@plt>
 4770cc7:	e8 f4 1c 5b 03       	call   7d229c0 <pthread_mutex_unlock@plt>
 4771d4a:	e8 71 0c 5b 03       	call   7d229c0 <pthread_mutex_unlock@plt>
 47720cd:	e8 ee 08 5b 03       	call   7d229c0 <pthread_mutex_unlock@plt>
 4772643:	e8 78 03 5b 03       	call   7d229c0 <pthread_mutex_unlock@plt>
 4773780:	e8 3b f2 5a 03       	call   7d229c0 <pthread_mutex_unlock@plt>
 47737c0:	e8 fb f1 5a 03       	call   7d229c0 <pthread_mutex_unlock@plt>
 4778846:	e8 75 a1 5a 03       	call   7d229c0 <pthread_mutex_unlock@plt>
 4778d5a:	e8 61 9c 5a 03       	call   7d229c0 <pthread_mutex_unlock@plt>
 4778d7b:	e8 40 9c 5a 03       	call   7d229c0 <pthread_mutex_unlock@plt>
 4778f05:	e8 b6 9a 5a 03       	call   7d229c0 <pthread_mutex_unlock@plt>
 4778f73:	e8 48 9a 5a 03       	call   7d229c0 <pthread_mutex_unlock@plt>
 47794d5:	e8 e6 94 5a 03       	call   7d229c0 <pthread_mutex_unlock@plt>
 47795d9:	e8 e2 93 5a 03       	call   7d229c0 <pthread_mutex_unlock@plt>
 477977b:	e8 40 92 5a 03       	call   7d229c0 <pthread_mutex_unlock@plt>
 477a466:	e8 55 85 5a 03       	call   7d229c0 <pthread_mutex_unlock@plt>
 477afc5:	e8 f6 79 5a 03       	call   7d229c0 <pthread_mutex_unlock@plt>
 477b08e:	e8 2d 79 5a 03       	call   7d229c0 <pthread_mutex_unlock@plt>
 477ba60:	e8 5b 6f 5a 03       	call   7d229c0 <pthread_mutex_unlock@plt>
 477bc8d:	e8 2e 6d 5a 03       	call   7d229c0 <pthread_mutex_unlock@plt>
 477bfc1:	e8 fa 69 5a 03       	call   7d229c0 <pthread_mutex_unlock@plt>
 477c5e6:	e8 d5 63 5a 03       	call   7d229c0 <pthread_mutex_unlock@plt>
 477c97b:	e8 40 60 5a 03       	call   7d229c0 <pthread_mutex_unlock@plt>
 478095b:	e8 60 20 5a 03       	call   7d229c0 <pthread_mutex_unlock@plt>
 4786bb5:	e8 06 be 59 03       	call   7d229c0 <pthread_mutex_unlock@plt>
 4786dd0:	e8 eb bb 59 03       	call   7d229c0 <pthread_mutex_unlock@plt>
 47b44da:	e8 e1 e4 56 03       	call   7d229c0 <pthread_mutex_unlock@plt>
 47b4700:	e9 bb e2 56 03       	jmp    7d229c0 <pthread_mutex_unlock@plt>
 47b5794:	e8 47 91 3c 00       	call   4b7e8e0 <mongo::repl::ReplSyncSharedData::unlock()>
 47b5c4d:	e9 6e cd 56 03       	jmp    7d229c0 <pthread_mutex_unlock@plt>
 47b5d48:	e9 73 cc 56 03       	jmp    7d229c0 <pthread_mutex_unlock@plt>
 47b5e2a:	e9 91 cb 56 03       	jmp    7d229c0 <pthread_mutex_unlock@plt>
 47ba1a3:	e8 18 88 56 03       	call   7d229c0 <pthread_mutex_unlock@plt>
 47bb5b8:	e8 03 74 56 03       	call   7d229c0 <pthread_mutex_unlock@plt>
 47bb6c2:	e8 f9 72 56 03       	call   7d229c0 <pthread_mutex_unlock@plt>
 47bc195:	e8 26 68 56 03       	call   7d229c0 <pthread_mutex_unlock@plt>
 47bc73a:	e8 81 62 56 03       	call   7d229c0 <pthread_mutex_unlock@plt>
 47befe4:	e8 f7 f8 3b 00       	call   4b7e8e0 <mongo::repl::ReplSyncSharedData::unlock()>
 47bf2a3:	e8 18 37 56 03       	call   7d229c0 <pthread_mutex_unlock@plt>
 47bfd9e:	e8 1d 2c 56 03       	call   7d229c0 <pthread_mutex_unlock@plt>
 47c0a17:	e8 a4 1f 56 03       	call   7d229c0 <pthread_mutex_unlock@plt>
 47c1c72:	e8 49 0d 56 03       	call   7d229c0 <pthread_mutex_unlock@plt>
 47c46fc:	e8 df a1 3b 00       	call   4b7e8e0 <mongo::repl::ReplSyncSharedData::unlock()>
 47c4717:	e8 a4 e2 55 03       	call   7d229c0 <pthread_mutex_unlock@plt>
 47c4840:	e8 4b ab 2a ff       	call   3a6f390 <std::unique_lock<std::mutex>::unlock()>
 47c4da9:	e8 12 dc 55 03       	call   7d229c0 <pthread_mutex_unlock@plt>
 47c5ce9:	e8 d2 cc 55 03       	call   7d229c0 <pthread_mutex_unlock@plt>
 47c6e16:	e8 75 85 2a ff       	call   3a6f390 <std::unique_lock<std::mutex>::unlock()>
 47c84ff:	e8 bc a4 55 03       	call   7d229c0 <pthread_mutex_unlock@plt>
 47c8edd:	e8 de 9a 55 03       	call   7d229c0 <pthread_mutex_unlock@plt>
 47c921d:	e8 9e 97 55 03       	call   7d229c0 <pthread_mutex_unlock@plt>
 47c9555:	e8 66 94 55 03       	call   7d229c0 <pthread_mutex_unlock@plt>
 47cb191:	e9 2a 78 55 03       	jmp    7d229c0 <pthread_mutex_unlock@plt>
 47cb744:	e8 77 72 55 03       	call   7d229c0 <pthread_mutex_unlock@plt>
 47cb759:	e8 62 72 55 03       	call   7d229c0 <pthread_mutex_unlock@plt>
 47cb808:	e8 83 3b 2a ff       	call   3a6f390 <std::unique_lock<std::mutex>::unlock()>
 47cb898:	e8 23 71 55 03       	call   7d229c0 <pthread_mutex_unlock@plt>
 47cc2a1:	e9 1a 67 55 03       	jmp    7d229c0 <pthread_mutex_unlock@plt>
 47cc8f1:	e8 ea 1f 3b 00       	call   4b7e8e0 <mongo::repl::ReplSyncSharedData::unlock()>
 47cca94:	e9 27 5f 55 03       	jmp    7d229c0 <pthread_mutex_unlock@plt>
 47ccf8c:	e8 2f 5a 55 03       	call   7d229c0 <pthread_mutex_unlock@plt>
 47ceafc:	e9 bf 3e 55 03       	jmp    7d229c0 <pthread_mutex_unlock@plt>
 47cee58:	e8 63 3b 55 03       	call   7d229c0 <pthread_mutex_unlock@plt>
 47cf696:	e8 25 33 55 03       	call   7d229c0 <pthread_mutex_unlock@plt>
 47d020b:	e8 b0 27 55 03       	call   7d229c0 <pthread_mutex_unlock@plt>
 47d0de0:	e8 db 1b 55 03       	call   7d229c0 <pthread_mutex_unlock@plt>
 47d20f1:	e8 ea c7 3a 00       	call   4b7e8e0 <mongo::repl::ReplSyncSharedData::unlock()>
 47d20fd:	e8 be 08 55 03       	call   7d229c0 <pthread_mutex_unlock@plt>
 47d3aa6:	e8 15 ef 54 03       	call   7d229c0 <pthread_mutex_unlock@plt>
 47d3af1:	e8 ca ee 54 03       	call   7d229c0 <pthread_mutex_unlock@plt>
 47d4594:	e8 27 e4 54 03       	call   7d229c0 <pthread_mutex_unlock@plt>
 47d5209:	e8 b2 d7 54 03       	call   7d229c0 <pthread_mutex_unlock@plt>
 47d6ce9:	e8 d2 bc 54 03       	call   7d229c0 <pthread_mutex_unlock@plt>
 47d71de:	e9 dd b7 54 03       	jmp    7d229c0 <pthread_mutex_unlock@plt>
 47d8b05:	e8 b6 9e 54 03       	call   7d229c0 <pthread_mutex_unlock@plt>
 47d9fa2:	e8 39 49 3a 00       	call   4b7e8e0 <mongo::repl::ReplSyncSharedData::unlock()>
 47d9fbc:	e8 ff 89 54 03       	call   7d229c0 <pthread_mutex_unlock@plt>
 47dbb00:	e8 bb 6e 54 03       	call   7d229c0 <pthread_mutex_unlock@plt>
 47dbb3b:	e8 80 6e 54 03       	call   7d229c0 <pthread_mutex_unlock@plt>
 47dbc2b:	e8 90 6d 54 03       	call   7d229c0 <pthread_mutex_unlock@plt>
 47dc76d:	e8 1e 2c 29 ff       	call   3a6f390 <std::unique_lock<std::mutex>::unlock()>
 47dcc37:	e8 54 27 29 ff       	call   3a6f390 <std::unique_lock<std::mutex>::unlock()>
 47dcd37:	e8 54 26 29 ff       	call   3a6f390 <std::unique_lock<std::mutex>::unlock()>
 47dd218:	e8 a3 57 54 03       	call   7d229c0 <pthread_mutex_unlock@plt>
 47dd65b:	e8 60 53 54 03       	call   7d229c0 <pthread_mutex_unlock@plt>
 47dd9c0:	e8 fb 4f 54 03       	call   7d229c0 <pthread_mutex_unlock@plt>
 47dda36:	e8 85 4f 54 03       	call   7d229c0 <pthread_mutex_unlock@plt>
 47ddc44:	e8 77 4d 54 03       	call   7d229c0 <pthread_mutex_unlock@plt>
 47de792:	e8 49 01 3a 00       	call   4b7e8e0 <mongo::repl::ReplSyncSharedData::unlock()>
 47de8aa:	e8 11 41 54 03       	call   7d229c0 <pthread_mutex_unlock@plt>
 47de8e8:	e8 d3 40 54 03       	call   7d229c0 <pthread_mutex_unlock@plt>
 47df5c4:	e8 f7 33 54 03       	call   7d229c0 <pthread_mutex_unlock@plt>
 47df7cd:	e8 ee 31 54 03       	call   7d229c0 <pthread_mutex_unlock@plt>
 47e013f:	e8 9c e7 39 00       	call   4b7e8e0 <mongo::repl::ReplSyncSharedData::unlock()>
 47e0147:	e8 74 28 54 03       	call   7d229c0 <pthread_mutex_unlock@plt>
 47e024a:	e8 71 27 54 03       	call   7d229c0 <pthread_mutex_unlock@plt>
 47e0556:	e8 65 24 54 03       	call   7d229c0 <pthread_mutex_unlock@plt>
 47e07c0:	e8 fb 21 54 03       	call   7d229c0 <pthread_mutex_unlock@plt>
 47e0a54:	e8 87 de 39 00       	call   4b7e8e0 <mongo::repl::ReplSyncSharedData::unlock()>
 47e0a69:	e8 22 e9 28 ff       	call   3a6f390 <std::unique_lock<std::mutex>::unlock()>
 47e0ac5:	e8 f6 1e 54 03       	call   7d229c0 <pthread_mutex_unlock@plt>
 47e0c86:	e8 35 1d 54 03       	call   7d229c0 <pthread_mutex_unlock@plt>
 47e1074:	e8 17 e3 28 ff       	call   3a6f390 <std::unique_lock<std::mutex>::unlock()>
 47e162d:	e8 8e 13 54 03       	call   7d229c0 <pthread_mutex_unlock@plt>
 47e175a:	e8 61 12 54 03       	call   7d229c0 <pthread_mutex_unlock@plt>
 47e19e2:	e8 d9 0f 54 03       	call   7d229c0 <pthread_mutex_unlock@plt>
 47e1a53:	e8 68 0f 54 03       	call   7d229c0 <pthread_mutex_unlock@plt>
 47e1a8a:	e8 31 0f 54 03       	call   7d229c0 <pthread_mutex_unlock@plt>
 47e1f27:	e8 94 0a 54 03       	call   7d229c0 <pthread_mutex_unlock@plt>
 47e1fb3:	e8 d8 d3 28 ff       	call   3a6f390 <std::unique_lock<std::mutex>::unlock()>
 47e21cb:	e8 f0 07 54 03       	call   7d229c0 <pthread_mutex_unlock@plt>
 47e22a5:	e8 36 c6 39 00       	call   4b7e8e0 <mongo::repl::ReplSyncSharedData::unlock()>
 47e22b1:	e8 0a 07 54 03       	call   7d229c0 <pthread_mutex_unlock@plt>
 47e2327:	e8 94 06 54 03       	call   7d229c0 <pthread_mutex_unlock@plt>
 47e23fb:	e8 c0 05 54 03       	call   7d229c0 <pthread_mutex_unlock@plt>
 47e2485:	e9 36 05 54 03       	jmp    7d229c0 <pthread_mutex_unlock@plt>
 47e2933:	e8 88 00 54 03       	call   7d229c0 <pthread_mutex_unlock@plt>
 47e2fd3:	e8 e8 f9 53 03       	call   7d229c0 <pthread_mutex_unlock@plt>
 47e34cb:	e8 10 b4 39 00       	call   4b7e8e0 <mongo::repl::ReplSyncSharedData::unlock()>
 47e34d7:	e8 e4 f4 53 03       	call   7d229c0 <pthread_mutex_unlock@plt>
 47e3bb0:	e8 0b ee 53 03       	call   7d229c0 <pthread_mutex_unlock@plt>
 47e3d8d:	e8 2e ec 53 03       	call   7d229c0 <pthread_mutex_unlock@plt>
 47e3f00:	e8 bb ea 53 03       	call   7d229c0 <pthread_mutex_unlock@plt>
 47e40c1:	e8 fa e8 53 03       	call   7d229c0 <pthread_mutex_unlock@plt>
 47e47d6:	e8 e5 e1 53 03       	call   7d229c0 <pthread_mutex_unlock@plt>
 47e4d49:	e8 92 9b 39 00       	call   4b7e8e0 <mongo::repl::ReplSyncSharedData::unlock()>
 47e4d51:	e8 6a dc 53 03       	call   7d229c0 <pthread_mutex_unlock@plt>
 47e54e1:	e8 da d4 53 03       	call   7d229c0 <pthread_mutex_unlock@plt>
 47e5551:	e8 6a d4 53 03       	call   7d229c0 <pthread_mutex_unlock@plt>
 47e5876:	e8 15 9b 28 ff       	call   3a6f390 <std::unique_lock<std::mutex>::unlock()>
 47e58d4:	e8 b7 9a 28 ff       	call   3a6f390 <std::unique_lock<std::mutex>::unlock()>
 47e5ff1:	e8 ca c9 53 03       	call   7d229c0 <pthread_mutex_unlock@plt>
 47e632e:	e8 8d c6 53 03       	call   7d229c0 <pthread_mutex_unlock@plt>
 47e642a:	e8 91 c5 53 03       	call   7d229c0 <pthread_mutex_unlock@plt>
 47e64c5:	e8 f6 c4 53 03       	call   7d229c0 <pthread_mutex_unlock@plt>
 47e7bf4:	e8 97 77 28 ff       	call   3a6f390 <std::unique_lock<std::mutex>::unlock()>
 47e7c49:	e8 42 77 28 ff       	call   3a6f390 <std::unique_lock<std::mutex>::unlock()>
 47e7d0c:	e8 7f 76 28 ff       	call   3a6f390 <std::unique_lock<std::mutex>::unlock()>
 47ea078:	e8 43 89 53 03       	call   7d229c0 <pthread_mutex_unlock@plt>
 47ea238:	e8 83 87 53 03       	call   7d229c0 <pthread_mutex_unlock@plt>
 47eadd2:	e8 e9 7b 53 03       	call   7d229c0 <pthread_mutex_unlock@plt>
 47eb514:	e9 a7 74 53 03       	jmp    7d229c0 <pthread_mutex_unlock@plt>
 47eb678:	e8 43 73 53 03       	call   7d229c0 <pthread_mutex_unlock@plt>
 47ec6e0:	e8 db 62 53 03       	call   7d229c0 <pthread_mutex_unlock@plt>
 47ecc27:	e8 94 5d 53 03       	call   7d229c0 <pthread_mutex_unlock@plt>
 47ecd06:	e8 b5 5c 53 03       	call   7d229c0 <pthread_mutex_unlock@plt>
 47f0a2a:	e8 91 1f 53 03       	call   7d229c0 <pthread_mutex_unlock@plt>
 47f183b:	e9 80 11 53 03       	jmp    7d229c0 <pthread_mutex_unlock@plt>
 47f5d6e:	e8 4d cc 52 03       	call   7d229c0 <pthread_mutex_unlock@plt>
 47f5de2:	e8 d9 cb 52 03       	call   7d229c0 <pthread_mutex_unlock@plt>
 47f6844:	e8 77 c1 52 03       	call   7d229c0 <pthread_mutex_unlock@plt>
 47f8926:	e8 95 a0 52 03       	call   7d229c0 <pthread_mutex_unlock@plt>
 47f927f:	e8 0c 61 27 ff       	call   3a6f390 <std::unique_lock<std::mutex>::unlock()>
 47f97da:	e8 e1 91 52 03       	call   7d229c0 <pthread_mutex_unlock@plt>
 47f9e07:	e9 b4 8b 52 03       	jmp    7d229c0 <pthread_mutex_unlock@plt>
 47fb46d:	e8 0e 98 98 02       	call   7184c80 <mongo::Lock::GlobalLock::_unlock()>
 47fb4bb:	e8 00 9d 98 02       	call   71851c0 <mongo::Lock::ResourceLock::_unlock()>
 47fb4cf:	e8 ec 9c 98 02       	call   71851c0 <mongo::Lock::ResourceLock::_unlock()>
 47fc9ae:	e8 cd 82 98 02       	call   7184c80 <mongo::Lock::GlobalLock::_unlock()>
 47fca00:	e8 bb 87 98 02       	call   71851c0 <mongo::Lock::ResourceLock::_unlock()>
 47fd437:	e8 84 7d 98 02       	call   71851c0 <mongo::Lock::ResourceLock::_unlock()>
 47ffbe1:	e8 da 2d 52 03       	call   7d229c0 <pthread_mutex_unlock@plt>
 47ffe34:	e8 87 2b 52 03       	call   7d229c0 <pthread_mutex_unlock@plt>
 4800668:	e8 23 ed 26 ff       	call   3a6f390 <std::unique_lock<std::mutex>::unlock()>
 4800771:	e8 4a 22 52 03       	call   7d229c0 <pthread_mutex_unlock@plt>
 48033a7:	e8 14 f6 51 03       	call   7d229c0 <pthread_mutex_unlock@plt>
 48033f2:	e8 c9 f5 51 03       	call   7d229c0 <pthread_mutex_unlock@plt>
 4803504:	e8 87 be 26 ff       	call   3a6f390 <std::unique_lock<std::mutex>::unlock()>
 48072fa:	e8 c1 b6 51 03       	call   7d229c0 <pthread_mutex_unlock@plt>
 4807844:	e8 77 b1 51 03       	call   7d229c0 <pthread_mutex_unlock@plt>
 480785a:	e9 61 b1 51 03       	jmp    7d229c0 <pthread_mutex_unlock@plt>
 48078e1:	e8 da b0 51 03       	call   7d229c0 <pthread_mutex_unlock@plt>
 4807e09:	e8 b2 ab 51 03       	call   7d229c0 <pthread_mutex_unlock@plt>
 4807e81:	e8 3a ab 51 03       	call   7d229c0 <pthread_mutex_unlock@plt>
 480803d:	e8 7e a9 51 03       	call   7d229c0 <pthread_mutex_unlock@plt>
 4808054:	e8 37 73 26 ff       	call   3a6f390 <std::unique_lock<std::mutex>::unlock()>
 4808166:	e8 55 a8 51 03       	call   7d229c0 <pthread_mutex_unlock@plt>
 4808178:	e8 43 a8 51 03       	call   7d229c0 <pthread_mutex_unlock@plt>
 4808211:	e8 7a 71 26 ff       	call   3a6f390 <std::unique_lock<std::mutex>::unlock()>
