 3a5b64a:	e8 61 73 2c 04       	call   7d229b0 <pthread_mutex_lock@plt>
 3a5b69a:	e8 21 73 2c 04       	call   7d229c0 <pthread_mutex_unlock@plt>
 3a62113:	e8 08 09 2c 04       	call   7d22a20 <pthread_mutex_init@plt>
 3a6c1eb:	e8 c0 67 2b 04       	call   7d229b0 <pthread_mutex_lock@plt>
 3a6c21c:	e8 9f 67 2b 04       	call   7d229c0 <pthread_mutex_unlock@plt>
 3a6c2f1:	e8 ba 66 2b 04       	call   7d229b0 <pthread_mutex_lock@plt>
 3a6c30a:	e8 b1 66 2b 04       	call   7d229c0 <pthread_mutex_unlock@plt>
 3a6c33e:	e8 6d 66 2b 04       	call   7d229b0 <pthread_mutex_lock@plt>
 3a6c3b5:	e8 06 66 2b 04       	call   7d229c0 <pthread_mutex_unlock@plt>
 3a6dbe8:	e8 c3 4d 2b 04       	call   7d229b0 <pthread_mutex_lock@plt>
 3a6dc1c:	e8 9f 4d 2b 04       	call   7d229c0 <pthread_mutex_unlock@plt>
 3a6dce8:	e8 c3 4c 2b 04       	call   7d229b0 <pthread_mutex_lock@plt>
 3a6dd02:	e8 b9 4c 2b 04       	call   7d229c0 <pthread_mutex_unlock@plt>
 3a6dd0a:	e8 b1 4c 2b 04       	call   7d229c0 <pthread_mutex_unlock@plt>
 3a6dd2f:	e8 7c 4c 2b 04       	call   7d229b0 <pthread_mutex_lock@plt>
 3a6dda2:	e8 19 4c 2b 04       	call   7d229c0 <pthread_mutex_unlock@plt>
 3a6ed9d:	e8 1e 3c 2b 04       	call   7d229c0 <pthread_mutex_unlock@plt>
 3a6f327:	e8 94 37 2b 04       	call   7d22ac0 <pthread_once@plt>
 3a6f3aa:	e8 11 36 2b 04       	call   7d229c0 <pthread_mutex_unlock@plt>
 3a6f447:	e8 64 35 2b 04       	call   7d229b0 <pthread_mutex_lock@plt>
 3a6f4be:	e8 fd 34 2b 04       	call   7d229c0 <pthread_mutex_unlock@plt>
 3a6f51d:	e8 8e 34 2b 04       	call   7d229b0 <pthread_mutex_lock@plt>
 3a71b27:	e8 84 0e 2b 04       	call   7d229b0 <pthread_mutex_lock@plt>
 3a71bf3:	e8 b8 0d 2b 04       	call   7d229b0 <pthread_mutex_lock@plt>
 3a71c5b:	e8 70 0e 2b 04       	call   7d22ad0 <pthread_cond_timedwait@plt>
 3a71c70:	e8 4b 0d 2b 04       	call   7d229c0 <pthread_mutex_unlock@plt>
 3a71d1d:	e8 9e 0c 2b 04       	call   7d229c0 <pthread_mutex_unlock@plt>
 3a7231d:	e8 9e 07 2b 04       	call   7d22ac0 <pthread_once@plt>
 3a737bf:	e8 ec f1 2a 04       	call   7d229b0 <pthread_mutex_lock@plt>
 3a738b8:	e8 03 f1 2a 04       	call   7d229c0 <pthread_mutex_unlock@plt>
 3a7caab:	e8 10 60 2a 04       	call   7d22ac0 <pthread_once@plt>
 3a7d5f1:	e8 ca 54 2a 04       	call   7d22ac0 <pthread_once@plt>
 3a7f52e:	e8 8d 35 2a 04       	call   7d22ac0 <pthread_once@plt>
 3a7fa7e:	e8 3d 30 2a 04       	call   7d22ac0 <pthread_once@plt>
 3a800a4:	e8 17 2a 2a 04       	call   7d22ac0 <pthread_once@plt>
 3a80e3c:	e8 7f 1c 2a 04       	call   7d22ac0 <pthread_once@plt>
 3a81d36:	e8 85 0d 2a 04       	call   7d22ac0 <pthread_once@plt>
 3a82c2a:	e8 81 fd 29 04       	call   7d229b0 <pthread_mutex_lock@plt>
 3a82d9a:	e8 21 fc 29 04       	call   7d229c0 <pthread_mutex_unlock@plt>
 3a89b9b:	e8 10 8e 29 04       	call   7d229b0 <pthread_mutex_lock@plt>
 3a89e64:	e8 57 8b 29 04       	call   7d229c0 <pthread_mutex_unlock@plt>
 3a8a7f3:	e8 c8 82 29 04       	call   7d22ac0 <pthread_once@plt>
 3a8adc7:	e8 e4 7b 29 04       	call   7d229b0 <pthread_mutex_lock@plt>
 3a8adef:	e8 cc 7b 29 04       	call   7d229c0 <pthread_mutex_unlock@plt>
 3a8af4c:	e8 5f 7a 29 04       	call   7d229b0 <pthread_mutex_lock@plt>
 3a8b0f5:	e8 c6 78 29 04       	call   7d229c0 <pthread_mutex_unlock@plt>
 3a8b1eb:	e8 d0 77 29 04       	call   7d229c0 <pthread_mutex_unlock@plt>
 3a8b22d:	e8 8e 77 29 04       	call   7d229c0 <pthread_mutex_unlock@plt>
 3a8b4b8:	e8 03 75 29 04       	call   7d229c0 <pthread_mutex_unlock@plt>
 3a8b5c6:	e8 e5 73 29 04       	call   7d229b0 <pthread_mutex_lock@plt>
 3a8b629:	e9 92 73 29 04       	jmp    7d229c0 <pthread_mutex_unlock@plt>
 3a8b736:	e8 75 72 29 04       	call   7d229b0 <pthread_mutex_lock@plt>
 3a8b7a1:	e9 1a 72 29 04       	jmp    7d229c0 <pthread_mutex_unlock@plt>
 3a8b7fb:	e8 b0 71 29 04       	call   7d229b0 <pthread_mutex_lock@plt>
 3a8ba10:	e8 ab 6f 29 04       	call   7d229c0 <pthread_mutex_unlock@plt>
 3a8bba8:	e8 13 6e 29 04       	call   7d229c0 <pthread_mutex_unlock@plt>
 3a8ce42:	e8 69 5b 29 04       	call   7d229b0 <pthread_mutex_lock@plt>
 3a8cefc:	e8 bf 5a 29 04       	call   7d229c0 <pthread_mutex_unlock@plt>
 3a8d3fa:	e8 b1 55 29 04       	call   7d229b0 <pthread_mutex_lock@plt>
 3a8d44a:	e8 71 55 29 04       	call   7d229c0 <pthread_mutex_unlock@plt>
 3a8d497:	e8 14 55 29 04       	call   7d229b0 <pthread_mutex_lock@plt>
 3a8d4c2:	e9 f9 54 29 04       	jmp    7d229c0 <pthread_mutex_unlock@plt>
 3a8d4eb:	e8 c0 54 29 04       	call   7d229b0 <pthread_mutex_lock@plt>
 3a8d548:	e8 73 54 29 04       	call   7d229c0 <pthread_mutex_unlock@plt>
 3a8d55b:	e8 60 54 29 04       	call   7d229c0 <pthread_mutex_unlock@plt>
 3a8d567:	e8 44 54 29 04       	call   7d229b0 <pthread_mutex_lock@plt>
 3a8d57c:	e8 3f 54 29 04       	call   7d229c0 <pthread_mutex_unlock@plt>
 3a8d5cf:	e8 dc 53 29 04       	call   7d229b0 <pthread_mutex_lock@plt>
 3a8d6c5:	e9 f6 52 29 04       	jmp    7d229c0 <pthread_mutex_unlock@plt>
 3a8d895:	e8 16 51 29 04       	call   7d229b0 <pthread_mutex_lock@plt>
 3a8d8ae:	e8 0d 51 29 04       	call   7d229c0 <pthread_mutex_unlock@plt>
 3a8d8cd:	e8 de 50 29 04       	call   7d229b0 <pthread_mutex_lock@plt>
 3a8d8e7:	e8 d4 50 29 04       	call   7d229c0 <pthread_mutex_unlock@plt>
 3a8d958:	e8 53 50 29 04       	call   7d229b0 <pthread_mutex_lock@plt>
 3a8d9b9:	e8 02 50 29 04       	call   7d229c0 <pthread_mutex_unlock@plt>
 3a8d9cb:	e8 f0 4f 29 04       	call   7d229c0 <pthread_mutex_unlock@plt>
 3a8da00:	e9 bb 4f 29 04       	jmp    7d229c0 <pthread_mutex_unlock@plt>
 3a8da5b:	e8 50 4f 29 04       	call   7d229b0 <pthread_mutex_lock@plt>
 3a8dad9:	e8 e2 4e 29 04       	call   7d229c0 <pthread_mutex_unlock@plt>
 3a8db67:	e8 44 4e 29 04       	call   7d229b0 <pthread_mutex_lock@plt>
 3a8dcad:	e8 0e 4d 29 04       	call   7d229c0 <pthread_mutex_unlock@plt>
 3a8e726:	e8 95 43 29 04       	call   7d22ac0 <pthread_once@plt>
 3a90b4a:	e8 71 1f 29 04       	call   7d22ac0 <pthread_once@plt>
 3a923d2:	e8 e9 06 29 04       	call   7d22ac0 <pthread_once@plt>
 3a93121:	e8 8a f8 28 04       	call   7d229b0 <pthread_mutex_lock@plt>
 3a93183:	e9 38 f8 28 04       	jmp    7d229c0 <pthread_mutex_unlock@plt>
 3a931aa:	e8 01 f8 28 04       	call   7d229b0 <pthread_mutex_lock@plt>
 3a931de:	e9 dd f7 28 04       	jmp    7d229c0 <pthread_mutex_unlock@plt>
 3a943c0:	e8 fb e5 28 04       	call   7d229c0 <pthread_mutex_unlock@plt>
 3a95ad0:	e8 eb cf 28 04       	call   7d22ac0 <pthread_once@plt>
 3a95c09:	e8 b2 ce 28 04       	call   7d22ac0 <pthread_once@plt>
 3a9628f:	e8 2c c8 28 04       	call   7d22ac0 <pthread_once@plt>
 3a962f1:	e8 ca c7 28 04       	call   7d22ac0 <pthread_once@plt>
 3a96c50:	e8 5b bd 28 04       	call   7d229b0 <pthread_mutex_lock@plt>
 3a96e87:	e8 34 bc 28 04       	call   7d22ac0 <pthread_once@plt>
 3a9739b:	e8 20 b6 28 04       	call   7d229c0 <pthread_mutex_unlock@plt>
 3a98913:	e8 a8 a0 28 04       	call   7d229c0 <pthread_mutex_unlock@plt>
 3a9c209:	e8 b2 68 28 04       	call   7d22ac0 <pthread_once@plt>
 3a9c3ca:	e8 f1 66 28 04       	call   7d22ac0 <pthread_once@plt>
 3a9d079:	e8 42 5a 28 04       	call   7d22ac0 <pthread_once@plt>
 3aa2beb:	e8 c0 fd 27 04       	call   7d229b0 <pthread_mutex_lock@plt>
 3aa2c08:	e8 b3 fd 27 04       	call   7d229c0 <pthread_mutex_unlock@plt>
 3aa2c2d:	e8 7e fd 27 04       	call   7d229b0 <pthread_mutex_lock@plt>
 3aa2c5c:	e8 5f fd 27 04       	call   7d229c0 <pthread_mutex_unlock@plt>
 3aa2d3a:	e8 71 fc 27 04       	call   7d229b0 <pthread_mutex_lock@plt>
 3aa2de3:	e8 d8 fb 27 04       	call   7d229c0 <pthread_mutex_unlock@plt>
 3aa3159:	e8 52 f8 27 04       	call   7d229b0 <pthread_mutex_lock@plt>
 3aa31da:	e8 e1 f7 27 04       	call   7d229c0 <pthread_mutex_unlock@plt>
 3aa3228:	e8 a3 f8 27 04       	call   7d22ad0 <pthread_cond_timedwait@plt>
 3aa3238:	e8 83 f7 27 04       	call   7d229c0 <pthread_mutex_unlock@plt>
 3aa3261:	e8 4a f7 27 04       	call   7d229b0 <pthread_mutex_lock@plt>
 3aa32f9:	e8 b2 f6 27 04       	call   7d229b0 <pthread_mutex_lock@plt>
 3aa3367:	e8 64 f7 27 04       	call   7d22ad0 <pthread_cond_timedwait@plt>
 3aa3377:	e8 44 f6 27 04       	call   7d229c0 <pthread_mutex_unlock@plt>
 3aa33a8:	e8 03 f6 27 04       	call   7d229b0 <pthread_mutex_lock@plt>
 3aa343a:	e8 81 f5 27 04       	call   7d229c0 <pthread_mutex_unlock@plt>
 3aa3575:	e8 46 f4 27 04       	call   7d229c0 <pthread_mutex_unlock@plt>
 3aa3e3b:	e8 80 ec 27 04       	call   7d22ac0 <pthread_once@plt>
 3aa46a9:	e8 12 e4 27 04       	call   7d22ac0 <pthread_once@plt>
 3aa4803:	e8 b8 e2 27 04       	call   7d22ac0 <pthread_once@plt>
 3aa4ce3:	e8 d8 dd 27 04       	call   7d22ac0 <pthread_once@plt>
 3aa4fc8:	e8 f3 da 27 04       	call   7d22ac0 <pthread_once@plt>
 3aa52e8:	e8 d3 d7 27 04       	call   7d22ac0 <pthread_once@plt>
 3aa5b90:	e8 2b cf 27 04       	call   7d22ac0 <pthread_once@plt>
 3aa5f80:	e8 3b cb 27 04       	call   7d22ac0 <pthread_once@plt>
 3aa6413:	e8 a8 c6 27 04       	call   7d22ac0 <pthread_once@plt>
 3aa70ba:	e8 01 ba 27 04       	call   7d22ac0 <pthread_once@plt>
 3aa84ea:	e8 d1 a5 27 04       	call   7d22ac0 <pthread_once@plt>
 3aa92ca:	e8 f1 97 27 04       	call   7d22ac0 <pthread_once@plt>
 3aa95ba:	e8 f1 93 27 04       	call   7d229b0 <pthread_mutex_lock@plt>
 3aa960a:	e8 b1 93 27 04       	call   7d229c0 <pthread_mutex_unlock@plt>
 3aab062:	e8 49 79 27 04       	call   7d229b0 <pthread_mutex_lock@plt>
 3aab884:	e8 37 72 27 04       	call   7d22ac0 <pthread_once@plt>
 3aacba3:	e8 18 5f 27 04       	call   7d22ac0 <pthread_once@plt>
 3aadf87:	e8 34 4b 27 04       	call   7d22ac0 <pthread_once@plt>
 3ab4a24:	e8 97 e0 26 04       	call   7d22ac0 <pthread_once@plt>
 3ab636e:	e8 4d c7 26 04       	call   7d22ac0 <pthread_once@plt>
 3aba0f1:	e8 ca 89 26 04       	call   7d22ac0 <pthread_once@plt>
 3aba17f:	e8 3c 89 26 04       	call   7d22ac0 <pthread_once@plt>
 3abaf79:	e8 42 7b 26 04       	call   7d22ac0 <pthread_once@plt>
 3abafee:	e8 cd 7a 26 04       	call   7d22ac0 <pthread_once@plt>
 3abb063:	e8 58 7a 26 04       	call   7d22ac0 <pthread_once@plt>
 3abb0e9:	e8 d2 79 26 04       	call   7d22ac0 <pthread_once@plt>
 3ac3cfa:	e8 c1 ed 25 04       	call   7d22ac0 <pthread_once@plt>
 3ac4fda:	e8 d1 d9 25 04       	call   7d229b0 <pthread_mutex_lock@plt>
 3ac505a:	e8 61 d9 25 04       	call   7d229c0 <pthread_mutex_unlock@plt>
 3acbb78:	e8 43 6f 25 04       	call   7d22ac0 <pthread_once@plt>
 3ada074:	e8 37 89 24 04       	call   7d229b0 <pthread_mutex_lock@plt>
 3ada094:	e8 27 89 24 04       	call   7d229c0 <pthread_mutex_unlock@plt>
 3ae239b:	e8 20 06 24 04       	call   7d229c0 <pthread_mutex_unlock@plt>
 3ae34e5:	e8 c6 f4 23 04       	call   7d229b0 <pthread_mutex_lock@plt>
 3ae3516:	e8 a5 f4 23 04       	call   7d229c0 <pthread_mutex_unlock@plt>
 3ae3645:	e8 66 f3 23 04       	call   7d229b0 <pthread_mutex_lock@plt>
 3ae365e:	e8 5d f3 23 04       	call   7d229c0 <pthread_mutex_unlock@plt>
 3ae3706:	e8 a5 f2 23 04       	call   7d229b0 <pthread_mutex_lock@plt>
 3ae3785:	e8 36 f2 23 04       	call   7d229c0 <pthread_mutex_unlock@plt>
 3ae5251:	e8 5a d7 23 04       	call   7d229b0 <pthread_mutex_lock@plt>
 3ae79ea:	e8 d1 b0 23 04       	call   7d22ac0 <pthread_once@plt>
 3aeae7d:	e8 3e 7c 23 04       	call   7d22ac0 <pthread_once@plt>
 3af278b:	e8 30 03 23 04       	call   7d22ac0 <pthread_once@plt>
 3af8e4c:	e8 5f 9b 22 04       	call   7d229b0 <pthread_mutex_lock@plt>
 3af8eb2:	e8 09 9b 22 04       	call   7d229c0 <pthread_mutex_unlock@plt>
 3af9106:	e8 b5 98 22 04       	call   7d229c0 <pthread_mutex_unlock@plt>
 3af97e9:	e8 c2 91 22 04       	call   7d229b0 <pthread_mutex_lock@plt>
 3af9806:	e8 b5 91 22 04       	call   7d229c0 <pthread_mutex_unlock@plt>
 3af9826:	e8 85 91 22 04       	call   7d229b0 <pthread_mutex_lock@plt>
 3af9888:	e8 33 91 22 04       	call   7d229c0 <pthread_mutex_unlock@plt>
 3af99d8:	e8 e3 8f 22 04       	call   7d229c0 <pthread_mutex_unlock@plt>
 3af9b82:	e8 29 8e 22 04       	call   7d229b0 <pthread_mutex_lock@plt>
 3af9ba2:	e8 19 8e 22 04       	call   7d229c0 <pthread_mutex_unlock@plt>
 3af9c40:	e8 7b 8d 22 04       	call   7d229c0 <pthread_mutex_unlock@plt>
 3af9ff6:	e8 c5 8a 22 04       	call   7d22ac0 <pthread_once@plt>
 3afac82:	e8 29 7d 22 04       	call   7d229b0 <pthread_mutex_lock@plt>
 3afac9e:	e8 1d 7d 22 04       	call   7d229c0 <pthread_mutex_unlock@plt>
 3afad25:	e8 96 7c 22 04       	call   7d229c0 <pthread_mutex_unlock@plt>
 3afe90d:	e8 ae 41 22 04       	call   7d22ac0 <pthread_once@plt>
 3affa46:	e8 75 30 22 04       	call   7d22ac0 <pthread_once@plt>
 3b0014a:	e8 61 28 22 04       	call   7d229b0 <pthread_mutex_lock@plt>
 3b0019a:	e8 21 28 22 04       	call   7d229c0 <pthread_mutex_unlock@plt>
 3b009f8:	e8 b3 1f 22 04       	call   7d229b0 <pthread_mutex_lock@plt>
 3b00ae4:	e9 d7 1e 22 04       	jmp    7d229c0 <pthread_mutex_unlock@plt>
 3b00b72:	e8 39 1e 22 04       	call   7d229b0 <pthread_mutex_lock@plt>
 3b00b95:	e8 26 1e 22 04       	call   7d229c0 <pthread_mutex_unlock@plt>
 3b00bfd:	e8 ae 1d 22 04       	call   7d229b0 <pthread_mutex_lock@plt>
 3b00c5d:	e8 5e 1d 22 04       	call   7d229c0 <pthread_mutex_unlock@plt>
 3b00c6b:	e8 50 1d 22 04       	call   7d229c0 <pthread_mutex_unlock@plt>
 3b00c7a:	e8 31 1d 22 04       	call   7d229b0 <pthread_mutex_lock@plt>
 3b00c8f:	e8 2c 1d 22 04       	call   7d229c0 <pthread_mutex_unlock@plt>
 3b00c97:	e8 24 1d 22 04       	call   7d229c0 <pthread_mutex_unlock@plt>
 3b00cf1:	e8 ba 1c 22 04       	call   7d229b0 <pthread_mutex_lock@plt>
 3b00d14:	e9 a7 1c 22 04       	jmp    7d229c0 <pthread_mutex_unlock@plt>
 3b00d2a:	e8 91 1c 22 04       	call   7d229c0 <pthread_mutex_unlock@plt>
 3b0152e:	e8 7d 14 22 04       	call   7d229b0 <pthread_mutex_lock@plt>
 3b01572:	e8 39 14 22 04       	call   7d229b0 <pthread_mutex_lock@plt>
 3b015d4:	e8 e7 13 22 04       	call   7d229c0 <pthread_mutex_unlock@plt>
 3b015e3:	e8 d8 13 22 04       	call   7d229c0 <pthread_mutex_unlock@plt>
 3b015f2:	e8 b9 13 22 04       	call   7d229b0 <pthread_mutex_lock@plt>
 3b01607:	e8 b4 13 22 04       	call   7d229c0 <pthread_mutex_unlock@plt>
 3b0161d:	e9 9e 13 22 04       	jmp    7d229c0 <pthread_mutex_unlock@plt>
 3b019f7:	e8 b4 0f 22 04       	call   7d229b0 <pthread_mutex_lock@plt>
 3b01a30:	e9 8b 0f 22 04       	jmp    7d229c0 <pthread_mutex_unlock@plt>
 3b01b37:	e8 74 0e 22 04       	call   7d229b0 <pthread_mutex_lock@plt>
 3b01b70:	e9 4b 0e 22 04       	jmp    7d229c0 <pthread_mutex_unlock@plt>
 3b01d2d:	e8 7e 0c 22 04       	call   7d229b0 <pthread_mutex_lock@plt>
 3b01d65:	e9 56 0c 22 04       	jmp    7d229c0 <pthread_mutex_unlock@plt>
 3b01e2e:	e8 7d 0b 22 04       	call   7d229b0 <pthread_mutex_lock@plt>
 3b01e4b:	e8 70 0b 22 04       	call   7d229c0 <pthread_mutex_unlock@plt>
 3b01e9f:	e8 0c 0b 22 04       	call   7d229b0 <pthread_mutex_lock@plt>
 3b02330:	e8 8b 06 22 04       	call   7d229c0 <pthread_mutex_unlock@plt>
 3b02350:	e8 6b 06 22 04       	call   7d229c0 <pthread_mutex_unlock@plt>
 3b0248e:	e8 2d 05 22 04       	call   7d229c0 <pthread_mutex_unlock@plt>
 3b03a9c:	e8 0f ef 21 04       	call   7d229b0 <pthread_mutex_lock@plt>
 3b03b91:	e9 2a ee 21 04       	jmp    7d229c0 <pthread_mutex_unlock@plt>
 3b03fd2:	e8 e9 e9 21 04       	call   7d229c0 <pthread_mutex_unlock@plt>
 3b0405e:	e8 5d e9 21 04       	call   7d229c0 <pthread_mutex_unlock@plt>
 3b0407e:	e8 3d e9 21 04       	call   7d229c0 <pthread_mutex_unlock@plt>
 3b041a4:	e8 17 e8 21 04       	call   7d229c0 <pthread_mutex_unlock@plt>
 3b049a2:	e8 19 e0 21 04       	call   7d229c0 <pthread_mutex_unlock@plt>
 3b05deb:	e8 d0 cc 21 04       	call   7d22ac0 <pthread_once@plt>
 3b0b057:	e8 64 7a 21 04       	call   7d22ac0 <pthread_once@plt>
 3b0e4e7:	e8 c4 44 21 04       	call   7d229b0 <pthread_mutex_lock@plt>
 3b0e501:	e8 ba 44 21 04       	call   7d229c0 <pthread_mutex_unlock@plt>
 3b0e51e:	e8 8d 44 21 04       	call   7d229b0 <pthread_mutex_lock@plt>
 3b0e532:	e8 89 44 21 04       	call   7d229c0 <pthread_mutex_unlock@plt>
 3b0e6bc:	e8 ef 42 21 04       	call   7d229b0 <pthread_mutex_lock@plt>
 3b0e6d4:	e8 e7 42 21 04       	call   7d229c0 <pthread_mutex_unlock@plt>
 3b0e8fc:	e8 af 40 21 04       	call   7d229b0 <pthread_mutex_lock@plt>
 3b0e913:	e8 a8 40 21 04       	call   7d229c0 <pthread_mutex_unlock@plt>
 3b0edb7:	e8 f4 3b 21 04       	call   7d229b0 <pthread_mutex_lock@plt>
 3b0edd2:	e8 e9 3b 21 04       	call   7d229c0 <pthread_mutex_unlock@plt>
 3b0edef:	e8 bc 3b 21 04       	call   7d229b0 <pthread_mutex_lock@plt>
 3b0ee02:	e8 b9 3b 21 04       	call   7d229c0 <pthread_mutex_unlock@plt>
 3b0eff6:	e8 b5 39 21 04       	call   7d229b0 <pthread_mutex_lock@plt>
 3b0f011:	e8 aa 39 21 04       	call   7d229c0 <pthread_mutex_unlock@plt>
 3b0f241:	e8 6a 37 21 04       	call   7d229b0 <pthread_mutex_lock@plt>
 3b0f262:	e8 59 37 21 04       	call   7d229c0 <pthread_mutex_unlock@plt>
 3b0f6d6:	e8 e5 33 21 04       	call   7d22ac0 <pthread_once@plt>
 3b0ff2e:	e8 7d 2a 21 04       	call   7d229b0 <pthread_mutex_lock@plt>
 3b0ff44:	e8 77 2a 21 04       	call   7d229c0 <pthread_mutex_unlock@plt>
 3b109de:	e8 cd 1f 21 04       	call   7d229b0 <pthread_mutex_lock@plt>
 3b109f5:	e8 c6 1f 21 04       	call   7d229c0 <pthread_mutex_unlock@plt>
 3b10ce6:	e8 c5 1c 21 04       	call   7d229b0 <pthread_mutex_lock@plt>
 3b10d7e:	e8 3d 1c 21 04       	call   7d229c0 <pthread_mutex_unlock@plt>
 3b11d50:	e8 5b 0c 21 04       	call   7d229b0 <pthread_mutex_lock@plt>
 3b12ee2:	e8 d9 fa 20 04       	call   7d229c0 <pthread_mutex_unlock@plt>
 3b14e32:	e8 79 db 20 04       	call   7d229b0 <pthread_mutex_lock@plt>
 3b14f4f:	e8 6c da 20 04       	call   7d229c0 <pthread_mutex_unlock@plt>
 3b1509b:	e8 20 d9 20 04       	call   7d229c0 <pthread_mutex_unlock@plt>
 3b15255:	e8 66 d7 20 04       	call   7d229c0 <pthread_mutex_unlock@plt>
 3b15550:	e8 6b d4 20 04       	call   7d229c0 <pthread_mutex_unlock@plt>
 3b15c01:	e8 ba ce 20 04       	call   7d22ac0 <pthread_once@plt>
 3b17f76:	e8 45 ab 20 04       	call   7d22ac0 <pthread_once@plt>
 3b190d9:	e8 e2 99 20 04       	call   7d22ac0 <pthread_once@plt>
 3b1b88a:	e8 31 72 20 04       	call   7d22ac0 <pthread_once@plt>
 3b1d957:	e8 64 51 20 04       	call   7d22ac0 <pthread_once@plt>
 3b2774a:	e8 71 b3 1f 04       	call   7d22ac0 <pthread_once@plt>
 3b28d9d:	e8 1e 9d 1f 04       	call   7d22ac0 <pthread_once@plt>
 3b2a5da:	e8 e1 84 1f 04       	call   7d22ac0 <pthread_once@plt>
 3b31245:	e8 76 18 1f 04       	call   7d22ac0 <pthread_once@plt>
 3b314d1:	e8 da 14 1f 04       	call   7d229b0 <pthread_mutex_lock@plt>
 3b31509:	e8 b2 14 1f 04       	call   7d229c0 <pthread_mutex_unlock@plt>
 3b31d02:	e8 a9 0c 1f 04       	call   7d229b0 <pthread_mutex_lock@plt>
 3b31ecb:	e8 f0 0a 1f 04       	call   7d229c0 <pthread_mutex_unlock@plt>
 3b321cb:	e8 e0 07 1f 04       	call   7d229b0 <pthread_mutex_lock@plt>
 3b3249b:	e8 20 05 1f 04       	call   7d229c0 <pthread_mutex_unlock@plt>
 3b327aa:	e8 01 02 1f 04       	call   7d229b0 <pthread_mutex_lock@plt>
 3b32abb:	e9 00 ff 1e 04       	jmp    7d229c0 <pthread_mutex_unlock@plt>
 3b3350f:	e8 9c f4 1e 04       	call   7d229b0 <pthread_mutex_lock@plt>
 3b33561:	e8 5a f4 1e 04       	call   7d229c0 <pthread_mutex_unlock@plt>
 3b335ad:	e8 fe f3 1e 04       	call   7d229b0 <pthread_mutex_lock@plt>
 3b3362c:	e9 8f f3 1e 04       	jmp    7d229c0 <pthread_mutex_unlock@plt>
 3b33d51:	e8 5a ec 1e 04       	call   7d229b0 <pthread_mutex_lock@plt>
 3b33d8b:	e9 30 ec 1e 04       	jmp    7d229c0 <pthread_mutex_unlock@plt>
 3b34243:	e8 78 e7 1e 04       	call   7d229c0 <pthread_mutex_unlock@plt>
 3b3427b:	e8 30 e7 1e 04       	call   7d229b0 <pthread_mutex_lock@plt>
 3b354ea:	e8 d1 d4 1e 04       	call   7d229c0 <pthread_mutex_unlock@plt>
 3b355c0:	e8 fb d3 1e 04       	call   7d229c0 <pthread_mutex_unlock@plt>
 3b35610:	e8 ab d3 1e 04       	call   7d229c0 <pthread_mutex_unlock@plt>
 3b35685:	e8 36 d3 1e 04       	call   7d229c0 <pthread_mutex_unlock@plt>
 3b3599e:	e8 1d d0 1e 04       	call   7d229c0 <pthread_mutex_unlock@plt>
 3b35a50:	e8 6b cf 1e 04       	call   7d229c0 <pthread_mutex_unlock@plt>
 3b35ccf:	e8 dc cc 1e 04       	call   7d229b0 <pthread_mutex_lock@plt>
 3b35cf0:	e9 cb cc 1e 04       	jmp    7d229c0 <pthread_mutex_unlock@plt>
 3b38697:	e8 14 a3 1e 04       	call   7d229b0 <pthread_mutex_lock@plt>
 3b38816:	e9 a5 a1 1e 04       	jmp    7d229c0 <pthread_mutex_unlock@plt>
 3b38b25:	e8 96 9e 1e 04       	call   7d229c0 <pthread_mutex_unlock@plt>
 3b38b7c:	e8 2f 9e 1e 04       	call   7d229b0 <pthread_mutex_lock@plt>
 3b38caa:	e9 11 9d 1e 04       	jmp    7d229c0 <pthread_mutex_unlock@plt>
 3b38ec8:	e8 f3 9a 1e 04       	call   7d229c0 <pthread_mutex_unlock@plt>
 3b38f03:	e8 a8 9a 1e 04       	call   7d229b0 <pthread_mutex_lock@plt>
 3b38fff:	e9 bc 99 1e 04       	jmp    7d229c0 <pthread_mutex_unlock@plt>
 3b3941b:	e8 a0 96 1e 04       	call   7d22ac0 <pthread_once@plt>
 3b3a4aa:	e8 11 86 1e 04       	call   7d22ac0 <pthread_once@plt>
 3b3b0bf:	e8 fc 79 1e 04       	call   7d22ac0 <pthread_once@plt>
 3b3b701:	e8 ba 73 1e 04       	call   7d22ac0 <pthread_once@plt>
 3b3b78f:	e8 2c 73 1e 04       	call   7d22ac0 <pthread_once@plt>
 3b3bab9:	e8 02 70 1e 04       	call   7d22ac0 <pthread_once@plt>
 3b3bb39:	e8 82 6f 1e 04       	call   7d22ac0 <pthread_once@plt>
 3b3c06d:	e8 4e 6a 1e 04       	call   7d22ac0 <pthread_once@plt>
 3b3c0e1:	e8 da 69 1e 04       	call   7d22ac0 <pthread_once@plt>
 3b3ce9d:	e8 1e 5c 1e 04       	call   7d22ac0 <pthread_once@plt>
 3b3dd7e:	e8 3d 4d 1e 04       	call   7d22ac0 <pthread_once@plt>
 3b3df1f:	e8 9c 4b 1e 04       	call   7d22ac0 <pthread_once@plt>
 3b3e487:	e8 24 45 1e 04       	call   7d229b0 <pthread_mutex_lock@plt>
 3b3e4b0:	e8 0b 45 1e 04       	call   7d229c0 <pthread_mutex_unlock@plt>
 3b3e8f8:	e8 c3 41 1e 04       	call   7d22ac0 <pthread_once@plt>
 3b3ecf7:	e8 c4 3d 1e 04       	call   7d22ac0 <pthread_once@plt>
 3b3edc0:	e8 fb 3c 1e 04       	call   7d22ac0 <pthread_once@plt>
 3b3ee31:	e8 8a 3c 1e 04       	call   7d22ac0 <pthread_once@plt>
 3b3f09e:	e8 1d 3a 1e 04       	call   7d22ac0 <pthread_once@plt>
 3b3f112:	e8 a9 39 1e 04       	call   7d22ac0 <pthread_once@plt>
 3b3f465:	e8 56 36 1e 04       	call   7d22ac0 <pthread_once@plt>
 3b3f52a:	e8 91 35 1e 04       	call   7d22ac0 <pthread_once@plt>
 3b3f5aa:	e8 11 35 1e 04       	call   7d22ac0 <pthread_once@plt>
 3b3f6f5:	e8 c6 33 1e 04       	call   7d22ac0 <pthread_once@plt>
 3b3f775:	e8 46 33 1e 04       	call   7d22ac0 <pthread_once@plt>
 3b3fa7d:	e8 3e 30 1e 04       	call   7d22ac0 <pthread_once@plt>
 3b3fb10:	e8 ab 2f 1e 04       	call   7d22ac0 <pthread_once@plt>
 3b3fb90:	e8 2b 2f 1e 04       	call   7d22ac0 <pthread_once@plt>
 3b3fd47:	e8 74 2d 1e 04       	call   7d22ac0 <pthread_once@plt>
 3b3fdc7:	e8 f4 2c 1e 04       	call   7d22ac0 <pthread_once@plt>
 3b40489:	e8 32 25 1e 04       	call   7d229c0 <pthread_mutex_unlock@plt>
 3b4a519:	e8 a2 85 1d 04       	call   7d22ac0 <pthread_once@plt>
 3b4ae6a:	e8 41 7b 1d 04       	call   7d229b0 <pthread_mutex_lock@plt>
 3b4aeba:	e8 01 7b 1d 04       	call   7d229c0 <pthread_mutex_unlock@plt>
 3b4ffe8:	e8 d3 2a 1d 04       	call   7d22ac0 <pthread_once@plt>
 3b5070a:	e8 a1 22 1d 04       	call   7d229b0 <pthread_mutex_lock@plt>
 3b5081a:	e8 a1 21 1d 04       	call   7d229c0 <pthread_mutex_unlock@plt>
 3b6c445:	e8 76 66 1b 04       	call   7d22ac0 <pthread_once@plt>
 3b6c84a:	e8 61 61 1b 04       	call   7d229b0 <pthread_mutex_lock@plt>
 3b6c89a:	e8 21 61 1b 04       	call   7d229c0 <pthread_mutex_unlock@plt>
 3b6d8dc:	e8 cf 50 1b 04       	call   7d229b0 <pthread_mutex_lock@plt>
 3b6dc30:	e8 8b 4d 1b 04       	call   7d229c0 <pthread_mutex_unlock@plt>
 3b6e884:	e8 37 42 1b 04       	call   7d22ac0 <pthread_once@plt>
 3b6edda:	e8 e1 3c 1b 04       	call   7d22ac0 <pthread_once@plt>
 3b76fa5:	e8 16 bb 1a 04       	call   7d22ac0 <pthread_once@plt>
 3b79daa:	e8 11 8d 1a 04       	call   7d22ac0 <pthread_once@plt>
 3b7a53b:	e8 70 84 1a 04       	call   7d229b0 <pthread_mutex_lock@plt>
 3b7a565:	e8 46 84 1a 04       	call   7d229b0 <pthread_mutex_lock@plt>
 3b7a596:	e8 15 84 1a 04       	call   7d229b0 <pthread_mutex_lock@plt>
 3b7a5b7:	e8 04 84 1a 04       	call   7d229c0 <pthread_mutex_unlock@plt>
 3b7a5bf:	e8 fc 83 1a 04       	call   7d229c0 <pthread_mutex_unlock@plt>
 3b7a679:	e8 42 83 1a 04       	call   7d229c0 <pthread_mutex_unlock@plt>
 3b7a693:	e8 18 83 1a 04       	call   7d229b0 <pthread_mutex_lock@plt>
 3b7a6c0:	e8 eb 82 1a 04       	call   7d229b0 <pthread_mutex_lock@plt>
 3b7a6dd:	e8 de 82 1a 04       	call   7d229c0 <pthread_mutex_unlock@plt>
 3b7a6e5:	e8 d6 82 1a 04       	call   7d229c0 <pthread_mutex_unlock@plt>
 3b7a7cc:	e8 df 81 1a 04       	call   7d229b0 <pthread_mutex_lock@plt>
 3b7a84f:	e8 6c 81 1a 04       	call   7d229c0 <pthread_mutex_unlock@plt>
 3b7a86c:	e8 3f 81 1a 04       	call   7d229b0 <pthread_mutex_lock@plt>
 3b7a8e2:	e8 d9 80 1a 04       	call   7d229c0 <pthread_mutex_unlock@plt>
 3b7a9ce:	e8 dd 7f 1a 04       	call   7d229b0 <pthread_mutex_lock@plt>
 3b7ad7a:	e8 31 7c 1a 04       	call   7d229b0 <pthread_mutex_lock@plt>
 3b7adaa:	e8 01 7c 1a 04       	call   7d229b0 <pthread_mutex_lock@plt>
 3b7adcd:	e8 ee 7b 1a 04       	call   7d229c0 <pthread_mutex_unlock@plt>
 3b7add5:	e8 e6 7b 1a 04       	call   7d229c0 <pthread_mutex_unlock@plt>
 3b7aea4:	e8 17 7b 1a 04       	call   7d229c0 <pthread_mutex_unlock@plt>
 3b7af36:	e8 75 7a 1a 04       	call   7d229b0 <pthread_mutex_lock@plt>
 3b7afc4:	e8 f7 79 1a 04       	call   7d229c0 <pthread_mutex_unlock@plt>
 3b7b06b:	e8 40 79 1a 04       	call   7d229b0 <pthread_mutex_lock@plt>
 3b7b095:	e8 16 79 1a 04       	call   7d229b0 <pthread_mutex_lock@plt>
 3b7b0c2:	e8 e9 78 1a 04       	call   7d229b0 <pthread_mutex_lock@plt>
 3b7b0df:	e8 dc 78 1a 04       	call   7d229c0 <pthread_mutex_unlock@plt>
 3b7b0e7:	e8 d4 78 1a 04       	call   7d229c0 <pthread_mutex_unlock@plt>
 3b7b1b6:	e9 05 78 1a 04       	jmp    7d229c0 <pthread_mutex_unlock@plt>
 3b7b1cc:	e8 df 77 1a 04       	call   7d229b0 <pthread_mutex_lock@plt>
 3b7b24b:	e8 70 77 1a 04       	call   7d229c0 <pthread_mutex_unlock@plt>
 3b7bb5e:	e8 5d 6f 1a 04       	call   7d22ac0 <pthread_once@plt>
 3b7c071:	e8 4a 69 1a 04       	call   7d229c0 <pthread_mutex_unlock@plt>
 3b7c17d:	e8 2e 68 1a 04       	call   7d229b0 <pthread_mutex_lock@plt>
 3b7c1b6:	e8 f5 67 1a 04       	call   7d229b0 <pthread_mutex_lock@plt>
 3b7c1d5:	e8 e6 67 1a 04       	call   7d229c0 <pthread_mutex_unlock@plt>
 3b7c1dd:	e8 de 67 1a 04       	call   7d229c0 <pthread_mutex_unlock@plt>
 3b7c252:	e8 59 67 1a 04       	call   7d229b0 <pthread_mutex_lock@plt>
 3b7c26d:	e8 4e 67 1a 04       	call   7d229c0 <pthread_mutex_unlock@plt>
 3b7cb65:	e8 56 5f 1a 04       	call   7d22ac0 <pthread_once@plt>
 3b7d1d3:	e8 d8 57 1a 04       	call   7d229b0 <pthread_mutex_lock@plt>
 3b7d25a:	e8 61 57 1a 04       	call   7d229c0 <pthread_mutex_unlock@plt>
 3b7d29a:	e8 b1 5a 1a 04       	call   7d22d50 <pthread_cond_clockwait@plt>
 3b7d2aa:	e8 11 57 1a 04       	call   7d229c0 <pthread_mutex_unlock@plt>
 3b7d2d3:	e8 d8 56 1a 04       	call   7d229b0 <pthread_mutex_lock@plt>
 3b7d362:	e8 49 56 1a 04       	call   7d229b0 <pthread_mutex_lock@plt>
 3b7d3bf:	e8 8c 59 1a 04       	call   7d22d50 <pthread_cond_clockwait@plt>
 3b7d3cf:	e8 ec 55 1a 04       	call   7d229c0 <pthread_mutex_unlock@plt>
 3b7d400:	e8 ab 55 1a 04       	call   7d229b0 <pthread_mutex_lock@plt>
 3b7d520:	e8 9b 54 1a 04       	call   7d229c0 <pthread_mutex_unlock@plt>
 3b7d589:	e8 32 54 1a 04       	call   7d229c0 <pthread_mutex_unlock@plt>
 3b7e317:	e8 94 46 1a 04       	call   7d229b0 <pthread_mutex_lock@plt>
 3b7e33e:	e9 7d 46 1a 04       	jmp    7d229c0 <pthread_mutex_unlock@plt>
 3b7e377:	e8 34 46 1a 04       	call   7d229b0 <pthread_mutex_lock@plt>
 3b7e39e:	e9 1d 46 1a 04       	jmp    7d229c0 <pthread_mutex_unlock@plt>
 3b7e407:	e8 a4 45 1a 04       	call   7d229b0 <pthread_mutex_lock@plt>
 3b7e427:	e8 94 45 1a 04       	call   7d229c0 <pthread_mutex_unlock@plt>
 3b7e4b7:	e8 f4 44 1a 04       	call   7d229b0 <pthread_mutex_lock@plt>
 3b7e4f3:	e9 c8 44 1a 04       	jmp    7d229c0 <pthread_mutex_unlock@plt>
 3b7e527:	e8 84 44 1a 04       	call   7d229b0 <pthread_mutex_lock@plt>
 3b7e565:	e9 56 44 1a 04       	jmp    7d229c0 <pthread_mutex_unlock@plt>
 3b7e6fa:	e8 b1 42 1a 04       	call   7d229b0 <pthread_mutex_lock@plt>
 3b7e74a:	e8 71 42 1a 04       	call   7d229c0 <pthread_mutex_unlock@plt>
 3b8222e:	e8 7d 07 1a 04       	call   7d229b0 <pthread_mutex_lock@plt>
 3b82826:	e9 95 01 1a 04       	jmp    7d229c0 <pthread_mutex_unlock@plt>
 3b82dc1:	e8 ea fb 19 04       	call   7d229b0 <pthread_mutex_lock@plt>
 3b833aa:	e8 11 f7 19 04       	call   7d22ac0 <pthread_once@plt>
 3b8452d:	e8 7e e4 19 04       	call   7d229b0 <pthread_mutex_lock@plt>
 3b84848:	e9 73 e1 19 04       	jmp    7d229c0 <pthread_mutex_unlock@plt>
 3b848fd:	e8 ae e0 19 04       	call   7d229b0 <pthread_mutex_lock@plt>
 3b84963:	e8 48 e0 19 04       	call   7d229b0 <pthread_mutex_lock@plt>
 3b8498c:	e8 2f e0 19 04       	call   7d229c0 <pthread_mutex_unlock@plt>
 3b849f2:	e8 b9 df 19 04       	call   7d229b0 <pthread_mutex_lock@plt>
 3b84a1c:	e8 9f df 19 04       	call   7d229c0 <pthread_mutex_unlock@plt>
 3b84f0f:	e8 9c da 19 04       	call   7d229b0 <pthread_mutex_lock@plt>
 3b84f44:	e8 67 da 19 04       	call   7d229b0 <pthread_mutex_lock@plt>
 3b84f5d:	e8 5e da 19 04       	call   7d229c0 <pthread_mutex_unlock@plt>
 3b85199:	e8 12 d8 19 04       	call   7d229b0 <pthread_mutex_lock@plt>
 3b8521e:	e8 9d d7 19 04       	call   7d229c0 <pthread_mutex_unlock@plt>
 3b85324:	e8 87 d6 19 04       	call   7d229b0 <pthread_mutex_lock@plt>
 3b8538c:	e8 2f d6 19 04       	call   7d229c0 <pthread_mutex_unlock@plt>
 3b85530:	e9 8b d4 19 04       	jmp    7d229c0 <pthread_mutex_unlock@plt>
 3b879f4:	e8 c7 b0 19 04       	call   7d22ac0 <pthread_once@plt>
 3b87caa:	e8 11 ad 19 04       	call   7d229c0 <pthread_mutex_unlock@plt>
 3b87cbe:	e8 fd ac 19 04       	call   7d229c0 <pthread_mutex_unlock@plt>
 3b87cd2:	e8 e9 ac 19 04       	call   7d229c0 <pthread_mutex_unlock@plt>
 3b87ce6:	e8 d5 ac 19 04       	call   7d229c0 <pthread_mutex_unlock@plt>
 3b87cfa:	e8 c1 ac 19 04       	call   7d229c0 <pthread_mutex_unlock@plt>
 3b89015:	e8 a6 99 19 04       	call   7d229c0 <pthread_mutex_unlock@plt>
 3b89752:	e8 69 92 19 04       	call   7d229c0 <pthread_mutex_unlock@plt>
 3b8a8c7:	e8 f4 81 19 04       	call   7d22ac0 <pthread_once@plt>
 3b8c837:	e8 74 61 19 04       	call   7d229b0 <pthread_mutex_lock@plt>
 3b8c878:	e8 33 61 19 04       	call   7d229b0 <pthread_mutex_lock@plt>
 3b8c891:	e8 2a 61 19 04       	call   7d229c0 <pthread_mutex_unlock@plt>
 3b8c8c0:	e9 fb 60 19 04       	jmp    7d229c0 <pthread_mutex_unlock@plt>
 3b8c8f7:	e8 b4 60 19 04       	call   7d229b0 <pthread_mutex_lock@plt>
 3b8c973:	e8 48 60 19 04       	call   7d229c0 <pthread_mutex_unlock@plt>
 3b8cd5d:	e8 4e 5c 19 04       	call   7d229b0 <pthread_mutex_lock@plt>
 3b8cd90:	e8 1b 5c 19 04       	call   7d229b0 <pthread_mutex_lock@plt>
 3b8cda9:	e8 12 5c 19 04       	call   7d229c0 <pthread_mutex_unlock@plt>
 3b8cf28:	e9 93 5a 19 04       	jmp    7d229c0 <pthread_mutex_unlock@plt>
 3b8cff7:	e8 b4 59 19 04       	call   7d229b0 <pthread_mutex_lock@plt>
 3b8d079:	e8 42 59 19 04       	call   7d229c0 <pthread_mutex_unlock@plt>
 3b8d56b:	e8 40 54 19 04       	call   7d229b0 <pthread_mutex_lock@plt>
 3b8d628:	e8 83 53 19 04       	call   7d229b0 <pthread_mutex_lock@plt>
 3b8d65f:	e8 5c 53 19 04       	call   7d229c0 <pthread_mutex_unlock@plt>
 3b8d6c9:	e8 82 56 19 04       	call   7d22d50 <pthread_cond_clockwait@plt>
 3b8d6d9:	e8 e2 52 19 04       	call   7d229c0 <pthread_mutex_unlock@plt>
 3b8d702:	e8 a9 52 19 04       	call   7d229b0 <pthread_mutex_lock@plt>
 3b8d78a:	e8 21 52 19 04       	call   7d229b0 <pthread_mutex_lock@plt>
 3b8d7b0:	e8 0b 52 19 04       	call   7d229c0 <pthread_mutex_unlock@plt>
 3b8d810:	e8 9b 51 19 04       	call   7d229b0 <pthread_mutex_lock@plt>
 3b8d886:	e8 c5 54 19 04       	call   7d22d50 <pthread_cond_clockwait@plt>
 3b8d896:	e8 25 51 19 04       	call   7d229c0 <pthread_mutex_unlock@plt>
 3b8d988:	e8 33 50 19 04       	call   7d229c0 <pthread_mutex_unlock@plt>
 3b8da20:	e8 9b 4f 19 04       	call   7d229c0 <pthread_mutex_unlock@plt>
 3b8dd25:	e8 86 4c 19 04       	call   7d229b0 <pthread_mutex_lock@plt>
 3b8dd51:	e8 6a 4c 19 04       	call   7d229c0 <pthread_mutex_unlock@plt>
 3b8ddf0:	e8 bb 4b 19 04       	call   7d229b0 <pthread_mutex_lock@plt>
 3b8de0b:	e8 b0 4b 19 04       	call   7d229c0 <pthread_mutex_unlock@plt>
 3b8e0b0:	e8 0b 49 19 04       	call   7d229c0 <pthread_mutex_unlock@plt>
 3b8e0bd:	e8 fe 48 19 04       	call   7d229c0 <pthread_mutex_unlock@plt>
 3b8e685:	e8 26 43 19 04       	call   7d229b0 <pthread_mutex_lock@plt>
 3b8e6a2:	e8 19 43 19 04       	call   7d229c0 <pthread_mutex_unlock@plt>
 3b8e6e9:	e8 d2 42 19 04       	call   7d229c0 <pthread_mutex_unlock@plt>
 3b8ef3b:	e8 80 3b 19 04       	call   7d22ac0 <pthread_once@plt>
 3b8f58a:	e8 21 34 19 04       	call   7d229b0 <pthread_mutex_lock@plt>
 3b8f5da:	e8 e1 33 19 04       	call   7d229c0 <pthread_mutex_unlock@plt>
 3b96067:	e8 44 c9 18 04       	call   7d229b0 <pthread_mutex_lock@plt>
 3b9abea:	e8 c1 7d 18 04       	call   7d229b0 <pthread_mutex_lock@plt>
 3b9ac3a:	e8 81 7d 18 04       	call   7d229c0 <pthread_mutex_unlock@plt>
 3ba24ab:	e8 10 06 18 04       	call   7d22ac0 <pthread_once@plt>
 3ba3217:	e8 94 f7 17 04       	call   7d229b0 <pthread_mutex_lock@plt>
 3ba3287:	e9 34 f7 17 04       	jmp    7d229c0 <pthread_mutex_unlock@plt>
 3ba32e7:	e8 c4 f6 17 04       	call   7d229b0 <pthread_mutex_lock@plt>
 3ba32fb:	e8 c0 f6 17 04       	call   7d229c0 <pthread_mutex_unlock@plt>
 3ba3351:	e8 5a f6 17 04       	call   7d229b0 <pthread_mutex_lock@plt>
 3ba336a:	e9 51 f6 17 04       	jmp    7d229c0 <pthread_mutex_unlock@plt>
 3ba338a:	e9 31 f6 17 04       	jmp    7d229c0 <pthread_mutex_unlock@plt>
 3ba33e7:	e8 c4 f5 17 04       	call   7d229b0 <pthread_mutex_lock@plt>
 3ba33fa:	e8 c1 f5 17 04       	call   7d229c0 <pthread_mutex_unlock@plt>
 3ba3441:	e8 6a f5 17 04       	call   7d229b0 <pthread_mutex_lock@plt>
 3ba345a:	e9 61 f5 17 04       	jmp    7d229c0 <pthread_mutex_unlock@plt>
 3ba347a:	e9 41 f5 17 04       	jmp    7d229c0 <pthread_mutex_unlock@plt>
 3ba365d:	e8 4e f3 17 04       	call   7d229b0 <pthread_mutex_lock@plt>
 3ba3687:	e8 34 f3 17 04       	call   7d229c0 <pthread_mutex_unlock@plt>
 3ba3dc8:	e8 e3 eb 17 04       	call   7d229b0 <pthread_mutex_lock@plt>
 3ba3dfc:	e9 bf eb 17 04       	jmp    7d229c0 <pthread_mutex_unlock@plt>
 3ba3e49:	e8 62 eb 17 04       	call   7d229b0 <pthread_mutex_lock@plt>
 3ba3e61:	e8 5a eb 17 04       	call   7d229c0 <pthread_mutex_unlock@plt>
 3ba42e8:	e8 c3 e6 17 04       	call   7d229b0 <pthread_mutex_lock@plt>
 3ba447f:	e8 2c e5 17 04       	call   7d229b0 <pthread_mutex_lock@plt>
 3ba44ee:	e8 5d e8 17 04       	call   7d22d50 <pthread_cond_clockwait@plt>
 3ba4533:	e8 78 e4 17 04       	call   7d229b0 <pthread_mutex_lock@plt>
 3ba45be:	e8 ed e3 17 04       	call   7d229b0 <pthread_mutex_lock@plt>
 3ba47d5:	e8 e6 e2 17 04       	call   7d22ac0 <pthread_once@plt>
 3ba4ed0:	e8 db da 17 04       	call   7d229b0 <pthread_mutex_lock@plt>
 3ba4efd:	e8 be da 17 04       	call   7d229c0 <pthread_mutex_unlock@plt>
 3ba51a8:	e8 03 d8 17 04       	call   7d229b0 <pthread_mutex_lock@plt>
 3ba5332:	e8 89 d6 17 04       	call   7d229c0 <pthread_mutex_unlock@plt>
 3ba5613:	e8 a8 d3 17 04       	call   7d229c0 <pthread_mutex_unlock@plt>
 3ba56d2:	e8 d9 d2 17 04       	call   7d229b0 <pthread_mutex_lock@plt>
 3ba586a:	e9 51 d1 17 04       	jmp    7d229c0 <pthread_mutex_unlock@plt>
 3ba5a8c:	e8 1f cf 17 04       	call   7d229b0 <pthread_mutex_lock@plt>
 3ba5b25:	e8 96 ce 17 04       	call   7d229c0 <pthread_mutex_unlock@plt>
 3ba5c5b:	e8 60 cd 17 04       	call   7d229c0 <pthread_mutex_unlock@plt>
 3ba5e1a:	e8 a1 cc 17 04       	call   7d22ac0 <pthread_once@plt>
 3ba613f:	e8 7c c8 17 04       	call   7d229c0 <pthread_mutex_unlock@plt>
 3ba65cf:	e8 ec c3 17 04       	call   7d229c0 <pthread_mutex_unlock@plt>
 3ba66ab:	e8 00 c3 17 04       	call   7d229b0 <pthread_mutex_lock@plt>
 3ba66c2:	e8 f9 c2 17 04       	call   7d229c0 <pthread_mutex_unlock@plt>
 3ba6b6c:	e8 4f be 17 04       	call   7d229c0 <pthread_mutex_unlock@plt>
 3ba6ea2:	e8 09 bb 17 04       	call   7d229b0 <pthread_mutex_lock@plt>
 3ba6f2d:	e8 7e ba 17 04       	call   7d229b0 <pthread_mutex_lock@plt>
 3ba7008:	e8 a3 b9 17 04       	call   7d229b0 <pthread_mutex_lock@plt>
 3ba7020:	e8 9b b9 17 04       	call   7d229c0 <pthread_mutex_unlock@plt>
 3ba71eb:	e8 c0 b7 17 04       	call   7d229b0 <pthread_mutex_lock@plt>
 3ba7200:	e8 bb b7 17 04       	call   7d229c0 <pthread_mutex_unlock@plt>
 3ba720c:	e8 9f b7 17 04       	call   7d229b0 <pthread_mutex_lock@plt>
 3ba7245:	e9 76 b7 17 04       	jmp    7d229c0 <pthread_mutex_unlock@plt>
 3ba752c:	e8 8f b4 17 04       	call   7d229c0 <pthread_mutex_unlock@plt>
 3ba76c6:	e8 f5 b2 17 04       	call   7d229c0 <pthread_mutex_unlock@plt>
 3ba7bf0:	e8 cb ad 17 04       	call   7d229c0 <pthread_mutex_unlock@plt>
 3ba7ee0:	e8 db aa 17 04       	call   7d229c0 <pthread_mutex_unlock@plt>
 3ba8166:	e8 55 a8 17 04       	call   7d229c0 <pthread_mutex_unlock@plt>
 3ba82f1:	e8 ba a6 17 04       	call   7d229b0 <pthread_mutex_lock@plt>
 3ba8402:	e8 b9 a5 17 04       	call   7d229c0 <pthread_mutex_unlock@plt>
 3ba85a4:	e8 17 a4 17 04       	call   7d229c0 <pthread_mutex_unlock@plt>
 3ba865d:	e8 5e a3 17 04       	call   7d229c0 <pthread_mutex_unlock@plt>
 3ba8721:	e8 9a a2 17 04       	call   7d229c0 <pthread_mutex_unlock@plt>
 3ba8b1f:	e8 9c 9e 17 04       	call   7d229c0 <pthread_mutex_unlock@plt>
 3ba90b7:	e8 04 99 17 04       	call   7d229c0 <pthread_mutex_unlock@plt>
 3ba939a:	e8 21 96 17 04       	call   7d229c0 <pthread_mutex_unlock@plt>
 3ba9ace:	e8 ed 8e 17 04       	call   7d229c0 <pthread_mutex_unlock@plt>
 3ba9bd6:	e8 e5 8d 17 04       	call   7d229c0 <pthread_mutex_unlock@plt>
 3ba9ed3:	e8 e8 8a 17 04       	call   7d229c0 <pthread_mutex_unlock@plt>
 3baa481:	e8 3a 85 17 04       	call   7d229c0 <pthread_mutex_unlock@plt>
 3baa81e:	e8 9d 81 17 04       	call   7d229c0 <pthread_mutex_unlock@plt>
 3baad72:	e8 49 7c 17 04       	call   7d229c0 <pthread_mutex_unlock@plt>
 3bab0a4:	e8 07 79 17 04       	call   7d229b0 <pthread_mutex_lock@plt>
 3bab0e2:	e8 c9 78 17 04       	call   7d229b0 <pthread_mutex_lock@plt>
 3bab145:	e9 76 78 17 04       	jmp    7d229c0 <pthread_mutex_unlock@plt>
 3bab153:	e8 68 78 17 04       	call   7d229c0 <pthread_mutex_unlock@plt>
 3bab160:	e8 4b 78 17 04       	call   7d229b0 <pthread_mutex_lock@plt>
 3bab17c:	e9 3f 78 17 04       	jmp    7d229c0 <pthread_mutex_unlock@plt>
 3bac354:	e8 57 66 17 04       	call   7d229b0 <pthread_mutex_lock@plt>
 3bac373:	e8 38 66 17 04       	call   7d229b0 <pthread_mutex_lock@plt>
 3bb0fb7:	e8 f4 19 17 04       	call   7d229b0 <pthread_mutex_lock@plt>
 3bb0fd3:	e8 e8 19 17 04       	call   7d229c0 <pthread_mutex_unlock@plt>
 3bb1017:	e8 94 19 17 04       	call   7d229b0 <pthread_mutex_lock@plt>
 3bb1081:	e9 3a 19 17 04       	jmp    7d229c0 <pthread_mutex_unlock@plt>
 3bb10c7:	e8 e4 18 17 04       	call   7d229b0 <pthread_mutex_lock@plt>
 3bb10de:	e8 dd 18 17 04       	call   7d229c0 <pthread_mutex_unlock@plt>
 3bb13ce:	e8 dd 15 17 04       	call   7d229b0 <pthread_mutex_lock@plt>
 3bb1416:	e8 95 15 17 04       	call   7d229b0 <pthread_mutex_lock@plt>
 3bb1485:	e8 26 15 17 04       	call   7d229b0 <pthread_mutex_lock@plt>
 3bb14ab:	e8 10 15 17 04       	call   7d229c0 <pthread_mutex_unlock@plt>
 3bb1502:	e8 a9 14 17 04       	call   7d229b0 <pthread_mutex_lock@plt>
 3bb1529:	e8 92 14 17 04       	call   7d229c0 <pthread_mutex_unlock@plt>
 3bb1595:	e9 26 14 17 04       	jmp    7d229c0 <pthread_mutex_unlock@plt>
 3bb16d5:	e8 d6 12 17 04       	call   7d229b0 <pthread_mutex_lock@plt>
 3bb16ef:	e8 cc 12 17 04       	call   7d229c0 <pthread_mutex_unlock@plt>
 3bb1f64:	e8 47 0a 17 04       	call   7d229b0 <pthread_mutex_lock@plt>
 3bb2369:	e8 52 06 17 04       	call   7d229c0 <pthread_mutex_unlock@plt>
 3bb3763:	e8 48 f2 16 04       	call   7d229b0 <pthread_mutex_lock@plt>
 3bb3a0c:	e8 af ef 16 04       	call   7d229c0 <pthread_mutex_unlock@plt>
 3bb40b8:	e8 f3 e8 16 04       	call   7d229b0 <pthread_mutex_lock@plt>
 3bb4100:	e8 ab e8 16 04       	call   7d229b0 <pthread_mutex_lock@plt>
 3bb411c:	e8 9f e8 16 04       	call   7d229c0 <pthread_mutex_unlock@plt>
 3bb4135:	e8 86 e8 16 04       	call   7d229c0 <pthread_mutex_unlock@plt>
 3bb4179:	e8 32 e8 16 04       	call   7d229b0 <pthread_mutex_lock@plt>
 3bb4207:	e8 b4 e7 16 04       	call   7d229c0 <pthread_mutex_unlock@plt>
 3bb43ec:	e8 bf e5 16 04       	call   7d229b0 <pthread_mutex_lock@plt>
 3bb4406:	e8 b5 e5 16 04       	call   7d229c0 <pthread_mutex_unlock@plt>
 3bb4798:	e8 13 e2 16 04       	call   7d229b0 <pthread_mutex_lock@plt>
 3bb47b0:	e8 0b e2 16 04       	call   7d229c0 <pthread_mutex_unlock@plt>
 3bb5043:	e8 68 d9 16 04       	call   7d229b0 <pthread_mutex_lock@plt>
 3bb505b:	e8 60 d9 16 04       	call   7d229c0 <pthread_mutex_unlock@plt>
 3bb59c6:	e8 f5 cf 16 04       	call   7d229c0 <pthread_mutex_unlock@plt>
 3bb6124:	e8 97 c8 16 04       	call   7d229c0 <pthread_mutex_unlock@plt>
 3bb672b:	e8 90 c2 16 04       	call   7d229c0 <pthread_mutex_unlock@plt>
 3bb6e06:	e8 b5 bb 16 04       	call   7d229c0 <pthread_mutex_unlock@plt>
 3bb6e5c:	e8 5f bb 16 04       	call   7d229c0 <pthread_mutex_unlock@plt>
 3bb8a2a:	e8 81 9f 16 04       	call   7d229b0 <pthread_mutex_lock@plt>
 3bb8b6a:	e8 51 9e 16 04       	call   7d229c0 <pthread_mutex_unlock@plt>
 3bb8f59:	e8 62 9b 16 04       	call   7d22ac0 <pthread_once@plt>
 3bbeb9a:	e8 21 3f 16 04       	call   7d22ac0 <pthread_once@plt>
 3bdd2d4:	e8 e7 57 14 04       	call   7d22ac0 <pthread_once@plt>
 3bdd78a:	e8 21 52 14 04       	call   7d229b0 <pthread_mutex_lock@plt>
 3bdd7da:	e8 e1 51 14 04       	call   7d229c0 <pthread_mutex_unlock@plt>
 3bdec71:	e8 3a 3d 14 04       	call   7d229b0 <pthread_mutex_lock@plt>
 3bdec85:	e9 36 3d 14 04       	jmp    7d229c0 <pthread_mutex_unlock@plt>
 3bdecb7:	e8 f4 3c 14 04       	call   7d229b0 <pthread_mutex_lock@plt>
 3bdecc8:	e8 f3 3c 14 04       	call   7d229c0 <pthread_mutex_unlock@plt>
 3bdef29:	e8 92 3a 14 04       	call   7d229c0 <pthread_mutex_unlock@plt>
 3bdef75:	e8 36 3a 14 04       	call   7d229b0 <pthread_mutex_lock@plt>
 3bdef89:	e8 32 3a 14 04       	call   7d229c0 <pthread_mutex_unlock@plt>
 3bdf8f8:	e8 b3 30 14 04       	call   7d229b0 <pthread_mutex_lock@plt>
 3bdf969:	e8 52 30 14 04       	call   7d229c0 <pthread_mutex_unlock@plt>
 3bdfae0:	e8 cb 2e 14 04       	call   7d229b0 <pthread_mutex_lock@plt>
 3bdfaf5:	e8 c6 2e 14 04       	call   7d229c0 <pthread_mutex_unlock@plt>
 3be09e3:	e8 c8 1f 14 04       	call   7d229b0 <pthread_mutex_lock@plt>
 3be09f8:	e8 c3 1f 14 04       	call   7d229c0 <pthread_mutex_unlock@plt>
 3be6373:	e8 38 c6 13 04       	call   7d229b0 <pthread_mutex_lock@plt>
 3be6388:	e8 33 c6 13 04       	call   7d229c0 <pthread_mutex_unlock@plt>
 3be6777:	e8 34 c2 13 04       	call   7d229b0 <pthread_mutex_lock@plt>
 3be6793:	e8 28 c2 13 04       	call   7d229c0 <pthread_mutex_unlock@plt>
 3bf0acb:	e8 e0 1e 13 04       	call   7d229b0 <pthread_mutex_lock@plt>
 3bf0af0:	e8 cb 1e 13 04       	call   7d229c0 <pthread_mutex_unlock@plt>
 3bfa976:	e8 45 81 12 04       	call   7d22ac0 <pthread_once@plt>
 3c00424:	e8 97 26 12 04       	call   7d22ac0 <pthread_once@plt>
 3c01007:	e8 a4 19 12 04       	call   7d229b0 <pthread_mutex_lock@plt>
 3c01042:	e9 79 19 12 04       	jmp    7d229c0 <pthread_mutex_unlock@plt>
 3c010fa:	e8 b1 18 12 04       	call   7d229b0 <pthread_mutex_lock@plt>
 3c0111c:	e9 9f 18 12 04       	jmp    7d229c0 <pthread_mutex_unlock@plt>
 3c01150:	e8 5b 18 12 04       	call   7d229b0 <pthread_mutex_lock@plt>
 3c01172:	e9 49 18 12 04       	jmp    7d229c0 <pthread_mutex_unlock@plt>
 3c01483:	e8 28 15 12 04       	call   7d229b0 <pthread_mutex_lock@plt>
 3c01694:	e9 27 13 12 04       	jmp    7d229c0 <pthread_mutex_unlock@plt>
 3c01d55:	e8 56 0c 12 04       	call   7d229b0 <pthread_mutex_lock@plt>
 3c01eca:	e8 f1 0a 12 04       	call   7d229c0 <pthread_mutex_unlock@plt>
 3c01ee9:	e8 c2 0a 12 04       	call   7d229b0 <pthread_mutex_lock@plt>
 3c01f46:	e8 75 0a 12 04       	call   7d229c0 <pthread_mutex_unlock@plt>
 3c02297:	e8 14 07 12 04       	call   7d229b0 <pthread_mutex_lock@plt>
 3c022d4:	e8 e7 06 12 04       	call   7d229c0 <pthread_mutex_unlock@plt>
 3c02f64:	e8 47 fa 11 04       	call   7d229b0 <pthread_mutex_lock@plt>
 3c031ad:	e9 0e f8 11 04       	jmp    7d229c0 <pthread_mutex_unlock@plt>
 3c0343e:	e8 7d f5 11 04       	call   7d229c0 <pthread_mutex_unlock@plt>
 3c034bd:	e8 fe f4 11 04       	call   7d229c0 <pthread_mutex_unlock@plt>
 3c03690:	e8 2b f3 11 04       	call   7d229c0 <pthread_mutex_unlock@plt>
 3c037f7:	e8 b4 f1 11 04       	call   7d229b0 <pthread_mutex_lock@plt>
 3c03a09:	e8 b2 ef 11 04       	call   7d229c0 <pthread_mutex_unlock@plt>
 3c04c7a:	e8 41 de 11 04       	call   7d22ac0 <pthread_once@plt>
 3c05e2b:	e8 90 cc 11 04       	call   7d22ac0 <pthread_once@plt>
 3c06c5a:	e8 61 be 11 04       	call   7d22ac0 <pthread_once@plt>
 3c0a78b:	e8 30 83 11 04       	call   7d22ac0 <pthread_once@plt>
 3c0e612:	e8 a9 44 11 04       	call   7d22ac0 <pthread_once@plt>
 3c149c4:	e8 f7 e0 10 04       	call   7d22ac0 <pthread_once@plt>
 3c1cfd4:	e8 e7 5a 10 04       	call   7d22ac0 <pthread_once@plt>
 3c1f1a7:	e8 04 38 10 04       	call   7d229b0 <pthread_mutex_lock@plt>
 3c1f1ba:	e8 01 38 10 04       	call   7d229c0 <pthread_mutex_unlock@plt>
 3c1f1f7:	e8 b4 37 10 04       	call   7d229b0 <pthread_mutex_lock@plt>
 3c1f20a:	e8 b1 37 10 04       	call   7d229c0 <pthread_mutex_unlock@plt>
 3c1f247:	e8 64 37 10 04       	call   7d229b0 <pthread_mutex_lock@plt>
 3c1f25b:	e8 60 37 10 04       	call   7d229c0 <pthread_mutex_unlock@plt>
 3c1f297:	e8 14 37 10 04       	call   7d229b0 <pthread_mutex_lock@plt>
 3c1f2aa:	e8 11 37 10 04       	call   7d229c0 <pthread_mutex_unlock@plt>
 3c1f337:	e8 74 36 10 04       	call   7d229b0 <pthread_mutex_lock@plt>
 3c1f34a:	e8 71 36 10 04       	call   7d229c0 <pthread_mutex_unlock@plt>
 3c1f387:	e8 24 36 10 04       	call   7d229b0 <pthread_mutex_lock@plt>
 3c1f39a:	e8 21 36 10 04       	call   7d229c0 <pthread_mutex_unlock@plt>
 3c1f775:	e8 36 32 10 04       	call   7d229b0 <pthread_mutex_lock@plt>
 3c1f78f:	e8 2c 32 10 04       	call   7d229c0 <pthread_mutex_unlock@plt>
 3c1f7c7:	e8 e4 31 10 04       	call   7d229b0 <pthread_mutex_lock@plt>
 3c1f7e1:	e8 da 31 10 04       	call   7d229c0 <pthread_mutex_unlock@plt>
 3c1f86a:	e8 41 31 10 04       	call   7d229b0 <pthread_mutex_lock@plt>
 3c1f890:	e9 2b 31 10 04       	jmp    7d229c0 <pthread_mutex_unlock@plt>
 3c1f8b1:	e8 fa 30 10 04       	call   7d229b0 <pthread_mutex_lock@plt>
 3c1f8c7:	e8 f4 30 10 04       	call   7d229c0 <pthread_mutex_unlock@plt>
 3c1f8f2:	e8 b9 30 10 04       	call   7d229b0 <pthread_mutex_lock@plt>
 3c1f90b:	e9 b0 30 10 04       	jmp    7d229c0 <pthread_mutex_unlock@plt>
 3c1f937:	e8 74 30 10 04       	call   7d229b0 <pthread_mutex_lock@plt>
 3c1f959:	e9 62 30 10 04       	jmp    7d229c0 <pthread_mutex_unlock@plt>
 3c1f999:	e8 12 30 10 04       	call   7d229b0 <pthread_mutex_lock@plt>
 3c1f9b4:	e8 07 30 10 04       	call   7d229c0 <pthread_mutex_unlock@plt>
 3c1fa07:	e8 a4 2f 10 04       	call   7d229b0 <pthread_mutex_lock@plt>
 3c1fa22:	e8 99 2f 10 04       	call   7d229c0 <pthread_mutex_unlock@plt>
 3c1fa67:	e8 44 2f 10 04       	call   7d229b0 <pthread_mutex_lock@plt>
 3c1fa82:	e8 39 2f 10 04       	call   7d229c0 <pthread_mutex_unlock@plt>
 3c1fac7:	e8 e4 2e 10 04       	call   7d229b0 <pthread_mutex_lock@plt>
 3c1fae2:	e8 d9 2e 10 04       	call   7d229c0 <pthread_mutex_unlock@plt>
 3c1fb2a:	e8 91 2e 10 04       	call   7d229c0 <pthread_mutex_unlock@plt>
 3c1fb7e:	e8 2d 2e 10 04       	call   7d229b0 <pthread_mutex_lock@plt>
 3c1fb9c:	e8 1f 2e 10 04       	call   7d229c0 <pthread_mutex_unlock@plt>
 3c1fbfa:	e8 b1 2d 10 04       	call   7d229b0 <pthread_mutex_lock@plt>
 3c1fc1f:	e9 9c 2d 10 04       	jmp    7d229c0 <pthread_mutex_unlock@plt>
 3c1fc5a:	e8 51 2d 10 04       	call   7d229b0 <pthread_mutex_lock@plt>
 3c1fc78:	e8 43 2d 10 04       	call   7d229c0 <pthread_mutex_unlock@plt>
 3c1fd19:	e8 92 2c 10 04       	call   7d229b0 <pthread_mutex_lock@plt>
 3c1fd34:	e8 87 2c 10 04       	call   7d229c0 <pthread_mutex_unlock@plt>
 3c1fd99:	e8 12 2c 10 04       	call   7d229b0 <pthread_mutex_lock@plt>
 3c1fdb4:	e8 07 2c 10 04       	call   7d229c0 <pthread_mutex_unlock@plt>
 3c1fe05:	e8 a6 2b 10 04       	call   7d229b0 <pthread_mutex_lock@plt>
 3c1fe2d:	e8 8e 2b 10 04       	call   7d229c0 <pthread_mutex_unlock@plt>
 3c1fe87:	e8 24 2b 10 04       	call   7d229b0 <pthread_mutex_lock@plt>
 3c1fea1:	e8 1a 2b 10 04       	call   7d229c0 <pthread_mutex_unlock@plt>
 3c1ff25:	e8 86 2a 10 04       	call   7d229b0 <pthread_mutex_lock@plt>
 3c1ff43:	e8 78 2a 10 04       	call   7d229c0 <pthread_mutex_unlock@plt>
 3c1ff85:	e8 26 2a 10 04       	call   7d229b0 <pthread_mutex_lock@plt>
 3c1ffa3:	e8 18 2a 10 04       	call   7d229c0 <pthread_mutex_unlock@plt>
 3c20002:	e8 a9 29 10 04       	call   7d229b0 <pthread_mutex_lock@plt>
 3c20024:	e8 97 29 10 04       	call   7d229c0 <pthread_mutex_unlock@plt>
 3c2008a:	e8 21 29 10 04       	call   7d229b0 <pthread_mutex_lock@plt>
 3c200ae:	e9 0d 29 10 04       	jmp    7d229c0 <pthread_mutex_unlock@plt>
 3c200d7:	e8 d4 28 10 04       	call   7d229b0 <pthread_mutex_lock@plt>
 3c20100:	e8 bb 28 10 04       	call   7d229c0 <pthread_mutex_unlock@plt>
 3c20147:	e8 64 28 10 04       	call   7d229b0 <pthread_mutex_lock@plt>
 3c2015b:	e8 60 28 10 04       	call   7d229c0 <pthread_mutex_unlock@plt>
 3c20197:	e8 14 28 10 04       	call   7d229b0 <pthread_mutex_lock@plt>
 3c201c4:	e8 f7 27 10 04       	call   7d229c0 <pthread_mutex_unlock@plt>
 3c20207:	e8 a4 27 10 04       	call   7d229b0 <pthread_mutex_lock@plt>
 3c20236:	e9 85 27 10 04       	jmp    7d229c0 <pthread_mutex_unlock@plt>
 3c2030e:	e8 9d 26 10 04       	call   7d229b0 <pthread_mutex_lock@plt>
 3c20337:	e8 84 26 10 04       	call   7d229c0 <pthread_mutex_unlock@plt>
 3c203b9:	e8 f2 25 10 04       	call   7d229b0 <pthread_mutex_lock@plt>
 3c203ef:	e8 cc 25 10 04       	call   7d229c0 <pthread_mutex_unlock@plt>
 3c20467:	e8 44 25 10 04       	call   7d229b0 <pthread_mutex_lock@plt>
 3c2048f:	e8 2c 25 10 04       	call   7d229c0 <pthread_mutex_unlock@plt>
 3c2066d:	e8 3e 23 10 04       	call   7d229b0 <pthread_mutex_lock@plt>
 3c20693:	e8 28 23 10 04       	call   7d229c0 <pthread_mutex_unlock@plt>
 3c2075a:	e8 51 22 10 04       	call   7d229b0 <pthread_mutex_lock@plt>
 3c207f7:	e8 b4 21 10 04       	call   7d229b0 <pthread_mutex_lock@plt>
 3c20846:	e8 75 21 10 04       	call   7d229c0 <pthread_mutex_unlock@plt>
 3c208bf:	e8 ec 20 10 04       	call   7d229b0 <pthread_mutex_lock@plt>
 3c208f8:	e8 c3 20 10 04       	call   7d229c0 <pthread_mutex_unlock@plt>
 3c20c4b:	e8 60 1d 10 04       	call   7d229b0 <pthread_mutex_lock@plt>
 3c20c7c:	e8 2f 1d 10 04       	call   7d229b0 <pthread_mutex_lock@plt>
 3c20c95:	e8 26 1d 10 04       	call   7d229c0 <pthread_mutex_unlock@plt>
 3c20c9d:	e8 1e 1d 10 04       	call   7d229c0 <pthread_mutex_unlock@plt>
 3c20cfe:	e8 ad 1c 10 04       	call   7d229b0 <pthread_mutex_lock@plt>
 3c20d71:	e8 4a 1c 10 04       	call   7d229c0 <pthread_mutex_unlock@plt>
 3c20eb3:	e8 f8 1a 10 04       	call   7d229b0 <pthread_mutex_lock@plt>
 3c20edb:	e9 e0 1a 10 04       	jmp    7d229c0 <pthread_mutex_unlock@plt>
 3c20fe3:	e8 c8 19 10 04       	call   7d229b0 <pthread_mutex_lock@plt>
 3c21023:	e8 98 19 10 04       	call   7d229c0 <pthread_mutex_unlock@plt>
 3c21c17:	e8 94 0d 10 04       	call   7d229b0 <pthread_mutex_lock@plt>
 3c21c32:	e8 89 0d 10 04       	call   7d229c0 <pthread_mutex_unlock@plt>
 3c21c72:	e8 39 0d 10 04       	call   7d229b0 <pthread_mutex_lock@plt>
 3c21c89:	e8 32 0d 10 04       	call   7d229c0 <pthread_mutex_unlock@plt>
 3c21cca:	e8 e1 0c 10 04       	call   7d229b0 <pthread_mutex_lock@plt>
 3c21cf1:	e8 ca 0c 10 04       	call   7d229c0 <pthread_mutex_unlock@plt>
 3c21d3a:	e8 71 0c 10 04       	call   7d229b0 <pthread_mutex_lock@plt>
 3c21d61:	e8 5a 0c 10 04       	call   7d229c0 <pthread_mutex_unlock@plt>
 3c21eaf:	e8 0c 0b 10 04       	call   7d229c0 <pthread_mutex_unlock@plt>
 3c22296:	e8 15 07 10 04       	call   7d229b0 <pthread_mutex_lock@plt>
 3c22325:	e8 96 06 10 04       	call   7d229c0 <pthread_mutex_unlock@plt>
 3c22930:	e8 7b 00 10 04       	call   7d229b0 <pthread_mutex_lock@plt>
 3c22973:	e8 48 00 10 04       	call   7d229c0 <pthread_mutex_unlock@plt>
 3c22a27:	e8 84 ff 0f 04       	call   7d229b0 <pthread_mutex_lock@plt>
 3c22a5d:	e9 5e ff 0f 04       	jmp    7d229c0 <pthread_mutex_unlock@plt>
 3c2313c:	e8 6f f8 0f 04       	call   7d229b0 <pthread_mutex_lock@plt>
 3c2315e:	e8 5d f8 0f 04       	call   7d229c0 <pthread_mutex_unlock@plt>
 3c231cd:	e8 de f7 0f 04       	call   7d229b0 <pthread_mutex_lock@plt>
 3c231ec:	e8 cf f7 0f 04       	call   7d229c0 <pthread_mutex_unlock@plt>
 3c2325f:	e8 4c f7 0f 04       	call   7d229b0 <pthread_mutex_lock@plt>
 3c232ac:	e9 0f f7 0f 04       	jmp    7d229c0 <pthread_mutex_unlock@plt>
 3c247bf:	e8 ec e1 0f 04       	call   7d229b0 <pthread_mutex_lock@plt>
 3c2498a:	e8 31 e0 0f 04       	call   7d229c0 <pthread_mutex_unlock@plt>
 3c24c66:	e8 45 dd 0f 04       	call   7d229b0 <pthread_mutex_lock@plt>
 3c24e03:	e8 b8 db 0f 04       	call   7d229c0 <pthread_mutex_unlock@plt>
 3c254cf:	e8 dc d4 0f 04       	call   7d229b0 <pthread_mutex_lock@plt>
 3c254e9:	e8 d2 d4 0f 04       	call   7d229c0 <pthread_mutex_unlock@plt>
 3c2560f:	e8 9c d3 0f 04       	call   7d229b0 <pthread_mutex_lock@plt>
 3c2562d:	e8 8e d3 0f 04       	call   7d229c0 <pthread_mutex_unlock@plt>
 3c25b05:	e8 a6 ce 0f 04       	call   7d229b0 <pthread_mutex_lock@plt>
 3c25b1d:	e8 9e ce 0f 04       	call   7d229c0 <pthread_mutex_unlock@plt>
 3c266ec:	e8 cf c3 0f 04       	call   7d22ac0 <pthread_once@plt>
 3c26b0e:	e8 ad be 0f 04       	call   7d229c0 <pthread_mutex_unlock@plt>
 3c26d42:	e8 69 bc 0f 04       	call   7d229b0 <pthread_mutex_lock@plt>
 3c26da7:	e8 14 bc 0f 04       	call   7d229c0 <pthread_mutex_unlock@plt>
 3c26eec:	e8 bf ba 0f 04       	call   7d229b0 <pthread_mutex_lock@plt>
 3c26f4c:	e8 6f ba 0f 04       	call   7d229c0 <pthread_mutex_unlock@plt>
 3c26fef:	e8 bc b9 0f 04       	call   7d229b0 <pthread_mutex_lock@plt>
 3c2702e:	e8 7d b9 0f 04       	call   7d229b0 <pthread_mutex_lock@plt>
 3c2709b:	e8 10 b9 0f 04       	call   7d229b0 <pthread_mutex_lock@plt>
 3c270c1:	e8 fa b8 0f 04       	call   7d229c0 <pthread_mutex_unlock@plt>
 3c27119:	e8 92 b8 0f 04       	call   7d229b0 <pthread_mutex_lock@plt>
 3c27139:	e8 82 b8 0f 04       	call   7d229c0 <pthread_mutex_unlock@plt>
 3c27af0:	e8 bb ae 0f 04       	call   7d229b0 <pthread_mutex_lock@plt>
 3c27bda:	e9 e1 ad 0f 04       	jmp    7d229c0 <pthread_mutex_unlock@plt>
 3c27f63:	e8 58 aa 0f 04       	call   7d229c0 <pthread_mutex_unlock@plt>
 3c27fc4:	e8 f7 a9 0f 04       	call   7d229c0 <pthread_mutex_unlock@plt>
 3c284ad:	e8 fe a4 0f 04       	call   7d229b0 <pthread_mutex_lock@plt>
 3c28541:	e8 7a a4 0f 04       	call   7d229c0 <pthread_mutex_unlock@plt>
 3c28e66:	e8 45 9b 0f 04       	call   7d229b0 <pthread_mutex_lock@plt>
 3c28e7f:	e8 3c 9b 0f 04       	call   7d229c0 <pthread_mutex_unlock@plt>
 3c28ef9:	e8 b2 9a 0f 04       	call   7d229b0 <pthread_mutex_lock@plt>
 3c28f17:	e8 a4 9a 0f 04       	call   7d229c0 <pthread_mutex_unlock@plt>
 3c29170:	e8 3b 98 0f 04       	call   7d229b0 <pthread_mutex_lock@plt>
 3c29236:	e8 85 97 0f 04       	call   7d229c0 <pthread_mutex_unlock@plt>
 3c2939b:	e8 10 96 0f 04       	call   7d229b0 <pthread_mutex_lock@plt>
 3c293bf:	e8 fc 95 0f 04       	call   7d229c0 <pthread_mutex_unlock@plt>
 3c2ad6b:	e8 40 7c 0f 04       	call   7d229b0 <pthread_mutex_lock@plt>
 3c2adee:	e8 cd 7b 0f 04       	call   7d229c0 <pthread_mutex_unlock@plt>
 3c2aeb5:	e8 f6 7a 0f 04       	call   7d229b0 <pthread_mutex_lock@plt>
 3c2aee2:	e8 d9 7a 0f 04       	call   7d229c0 <pthread_mutex_unlock@plt>
 3c2afd8:	e8 d3 79 0f 04       	call   7d229b0 <pthread_mutex_lock@plt>
 3c2b025:	e8 96 79 0f 04       	call   7d229c0 <pthread_mutex_unlock@plt>
 3c2bdad:	e8 fe 6b 0f 04       	call   7d229b0 <pthread_mutex_lock@plt>
 3c2be78:	e9 43 6b 0f 04       	jmp    7d229c0 <pthread_mutex_unlock@plt>
 3c2bebb:	e8 f0 6a 0f 04       	call   7d229b0 <pthread_mutex_lock@plt>
 3c2bee7:	e8 d4 6a 0f 04       	call   7d229c0 <pthread_mutex_unlock@plt>
 3c2c6a8:	e8 13 63 0f 04       	call   7d229c0 <pthread_mutex_unlock@plt>
 3c2c733:	e8 88 62 0f 04       	call   7d229c0 <pthread_mutex_unlock@plt>
 3c2cbe7:	e8 c4 5d 0f 04       	call   7d229b0 <pthread_mutex_lock@plt>
 3c2cc42:	e8 79 5d 0f 04       	call   7d229c0 <pthread_mutex_unlock@plt>
 3c2ccc3:	e8 e8 5c 0f 04       	call   7d229b0 <pthread_mutex_lock@plt>
 3c2cd2b:	e8 90 5c 0f 04       	call   7d229c0 <pthread_mutex_unlock@plt>
 3c2ce95:	e8 26 5b 0f 04       	call   7d229c0 <pthread_mutex_unlock@plt>
 3c2d48d:	e8 2e 55 0f 04       	call   7d229c0 <pthread_mutex_unlock@plt>
 3c30c50:	e8 6b 1e 0f 04       	call   7d22ac0 <pthread_once@plt>
 3c31b67:	e8 54 0e 0f 04       	call   7d229c0 <pthread_mutex_unlock@plt>
 3c31e07:	e8 b4 0b 0f 04       	call   7d229c0 <pthread_mutex_unlock@plt>
 3c32735:	e8 86 02 0f 04       	call   7d229c0 <pthread_mutex_unlock@plt>
 3c32ca8:	e8 03 fd 0e 04       	call   7d229b0 <pthread_mutex_lock@plt>
 3c32ce9:	e8 d2 fc 0e 04       	call   7d229c0 <pthread_mutex_unlock@plt>
 3c32dc3:	e8 f8 fb 0e 04       	call   7d229c0 <pthread_mutex_unlock@plt>
 3c32fbf:	e8 fc f9 0e 04       	call   7d229c0 <pthread_mutex_unlock@plt>
 3c3322b:	e9 90 f7 0e 04       	jmp    7d229c0 <pthread_mutex_unlock@plt>
 3c33db6:	e8 f5 eb 0e 04       	call   7d229b0 <pthread_mutex_lock@plt>
 3c33fc2:	e9 f9 e9 0e 04       	jmp    7d229c0 <pthread_mutex_unlock@plt>
 3c34866:	e8 45 e1 0e 04       	call   7d229b0 <pthread_mutex_lock@plt>
 3c348c1:	e9 fa e0 0e 04       	jmp    7d229c0 <pthread_mutex_unlock@plt>
 3c34a93:	e8 18 df 0e 04       	call   7d229b0 <pthread_mutex_lock@plt>
 3c34bbf:	e8 fc dd 0e 04       	call   7d229c0 <pthread_mutex_unlock@plt>
 3c34d29:	e8 82 dc 0e 04       	call   7d229b0 <pthread_mutex_lock@plt>
 3c34d8c:	e8 2f dc 0e 04       	call   7d229c0 <pthread_mutex_unlock@plt>
 3c34efe:	e8 ad da 0e 04       	call   7d229b0 <pthread_mutex_lock@plt>
 3c35189:	e8 32 d8 0e 04       	call   7d229c0 <pthread_mutex_unlock@plt>
 3c35d68:	e8 43 cc 0e 04       	call   7d229b0 <pthread_mutex_lock@plt>
 3c35df1:	e8 ca cb 0e 04       	call   7d229c0 <pthread_mutex_unlock@plt>
 3c35e5a:	e8 51 cb 0e 04       	call   7d229b0 <pthread_mutex_lock@plt>
 3c35ea7:	e8 14 cb 0e 04       	call   7d229c0 <pthread_mutex_unlock@plt>
 3c35f0d:	e8 9e ca 0e 04       	call   7d229b0 <pthread_mutex_lock@plt>
 3c35f69:	e8 52 ca 0e 04       	call   7d229c0 <pthread_mutex_unlock@plt>
 3c35fe4:	e8 c7 c9 0e 04       	call   7d229b0 <pthread_mutex_lock@plt>
 3c36093:	e8 28 c9 0e 04       	call   7d229c0 <pthread_mutex_unlock@plt>
 3c36f40:	e8 7b ba 0e 04       	call   7d229c0 <pthread_mutex_unlock@plt>
 3c37054:	e9 67 b9 0e 04       	jmp    7d229c0 <pthread_mutex_unlock@plt>
 3c37ab9:	e8 f2 ae 0e 04       	call   7d229b0 <pthread_mutex_lock@plt>
 3c37aed:	e9 ce ae 0e 04       	jmp    7d229c0 <pthread_mutex_unlock@plt>
 3c37bfc:	e8 af ad 0e 04       	call   7d229b0 <pthread_mutex_lock@plt>
 3c37cde:	e8 dd ac 0e 04       	call   7d229c0 <pthread_mutex_unlock@plt>
 3c37dbc:	e8 ef ab 0e 04       	call   7d229b0 <pthread_mutex_lock@plt>
 3c37e9e:	e8 1d ab 0e 04       	call   7d229c0 <pthread_mutex_unlock@plt>
 3c37f65:	e8 46 aa 0e 04       	call   7d229b0 <pthread_mutex_lock@plt>
 3c380e8:	e8 d3 a8 0e 04       	call   7d229c0 <pthread_mutex_unlock@plt>
 3c3831c:	e8 8f a6 0e 04       	call   7d229b0 <pthread_mutex_lock@plt>
 3c3854f:	e8 5c a4 0e 04       	call   7d229b0 <pthread_mutex_lock@plt>
 3c385dc:	e9 df a3 0e 04       	jmp    7d229c0 <pthread_mutex_unlock@plt>
 3c38b74:	e8 37 9e 0e 04       	call   7d229b0 <pthread_mutex_lock@plt>
 3c38c06:	e9 b5 9d 0e 04       	jmp    7d229c0 <pthread_mutex_unlock@plt>
 3c38ccb:	e8 e0 9c 0e 04       	call   7d229b0 <pthread_mutex_lock@plt>
 3c38fe1:	e8 ca 99 0e 04       	call   7d229b0 <pthread_mutex_lock@plt>
 3c39021:	e9 9a 99 0e 04       	jmp    7d229c0 <pthread_mutex_unlock@plt>
 3c391fa:	e8 b1 97 0e 04       	call   7d229b0 <pthread_mutex_lock@plt>
 3c39282:	e9 39 97 0e 04       	jmp    7d229c0 <pthread_mutex_unlock@plt>
 3c393b1:	e8 fa 95 0e 04       	call   7d229b0 <pthread_mutex_lock@plt>
 3c3a090:	e8 2b 89 0e 04       	call   7d229c0 <pthread_mutex_unlock@plt>
 3c3a983:	e8 38 80 0e 04       	call   7d229c0 <pthread_mutex_unlock@plt>
 3c3ac6a:	e8 41 7d 0e 04       	call   7d229b0 <pthread_mutex_lock@plt>
 3c3ac85:	e8 36 7d 0e 04       	call   7d229c0 <pthread_mutex_unlock@plt>
 3c3b255:	e8 66 77 0e 04       	call   7d229c0 <pthread_mutex_unlock@plt>
 3c3c1a2:	e8 19 68 0e 04       	call   7d229c0 <pthread_mutex_unlock@plt>
 3c3d06b:	e8 50 59 0e 04       	call   7d229c0 <pthread_mutex_unlock@plt>
 3c3d2fa:	e8 c1 56 0e 04       	call   7d229c0 <pthread_mutex_unlock@plt>
 3c3d4ba:	e8 f1 54 0e 04       	call   7d229b0 <pthread_mutex_lock@plt>
 3c3d64c:	e8 6f 53 0e 04       	call   7d229c0 <pthread_mutex_unlock@plt>
 3c3e1b2:	e8 f9 47 0e 04       	call   7d229b0 <pthread_mutex_lock@plt>
 3c3e58b:	e8 30 44 0e 04       	call   7d229c0 <pthread_mutex_unlock@plt>
 3c3efaf:	e8 fc 39 0e 04       	call   7d229b0 <pthread_mutex_lock@plt>
 3c3efd4:	e8 e7 39 0e 04       	call   7d229c0 <pthread_mutex_unlock@plt>
 3c3f0c5:	e8 e6 38 0e 04       	call   7d229b0 <pthread_mutex_lock@plt>
 3c3f0f5:	e9 c6 38 0e 04       	jmp    7d229c0 <pthread_mutex_unlock@plt>
 3c408e0:	e8 db 21 0e 04       	call   7d22ac0 <pthread_once@plt>
 3c436fc:	e8 bf f2 0d 04       	call   7d229c0 <pthread_mutex_unlock@plt>
 3c43865:	e8 56 f1 0d 04       	call   7d229c0 <pthread_mutex_unlock@plt>
 3c446c9:	e8 e2 e2 0d 04       	call   7d229b0 <pthread_mutex_lock@plt>
 3c44746:	e8 65 e2 0d 04       	call   7d229b0 <pthread_mutex_lock@plt>
 3c447e3:	e8 c8 e1 0d 04       	call   7d229b0 <pthread_mutex_lock@plt>
 3c44810:	e8 ab e1 0d 04       	call   7d229c0 <pthread_mutex_unlock@plt>
 3c44863:	e8 e8 e4 0d 04       	call   7d22d50 <pthread_cond_clockwait@plt>
 3c44878:	e8 43 e1 0d 04       	call   7d229c0 <pthread_mutex_unlock@plt>
 3c448a7:	e8 04 e1 0d 04       	call   7d229b0 <pthread_mutex_lock@plt>
 3c45853:	e8 68 d1 0d 04       	call   7d229c0 <pthread_mutex_unlock@plt>
 3c459a8:	e9 13 d0 0d 04       	jmp    7d229c0 <pthread_mutex_unlock@plt>
 3c46c21:	e8 8a bd 0d 04       	call   7d229b0 <pthread_mutex_lock@plt>
 3c46d65:	e8 56 bc 0d 04       	call   7d229c0 <pthread_mutex_unlock@plt>
 3c47143:	e8 68 b8 0d 04       	call   7d229b0 <pthread_mutex_lock@plt>
 3c4715f:	e8 5c b8 0d 04       	call   7d229c0 <pthread_mutex_unlock@plt>
 3c47930:	e8 8b b0 0d 04       	call   7d229c0 <pthread_mutex_unlock@plt>
 3c4840e:	e8 9d a5 0d 04       	call   7d229b0 <pthread_mutex_lock@plt>
 3c4842c:	e8 8f a5 0d 04       	call   7d229c0 <pthread_mutex_unlock@plt>
 3c4869e:	e8 0d a3 0d 04       	call   7d229b0 <pthread_mutex_lock@plt>
 3c486bb:	e8 00 a3 0d 04       	call   7d229c0 <pthread_mutex_unlock@plt>
 3c4890d:	e8 9e a0 0d 04       	call   7d229b0 <pthread_mutex_lock@plt>
 3c48925:	e8 96 a0 0d 04       	call   7d229c0 <pthread_mutex_unlock@plt>
 3c49176:	e8 45 98 0d 04       	call   7d229c0 <pthread_mutex_unlock@plt>
 3c49349:	e8 72 96 0d 04       	call   7d229c0 <pthread_mutex_unlock@plt>
 3c49350:	e8 6b 96 0d 04       	call   7d229c0 <pthread_mutex_unlock@plt>
 3c4942e:	e8 7d 95 0d 04       	call   7d229b0 <pthread_mutex_lock@plt>
 3c49445:	e8 76 95 0d 04       	call   7d229c0 <pthread_mutex_unlock@plt>
 3c49492:	e8 29 95 0d 04       	call   7d229c0 <pthread_mutex_unlock@plt>
 3c49789:	e8 32 92 0d 04       	call   7d229c0 <pthread_mutex_unlock@plt>
 3c497ec:	e8 bf 91 0d 04       	call   7d229b0 <pthread_mutex_lock@plt>
 3c49875:	e8 46 91 0d 04       	call   7d229c0 <pthread_mutex_unlock@plt>
 3c4a519:	e8 a2 84 0d 04       	call   7d229c0 <pthread_mutex_unlock@plt>
 3c4a7d3:	e8 e8 81 0d 04       	call   7d229c0 <pthread_mutex_unlock@plt>
 3c4b589:	e8 22 74 0d 04       	call   7d229b0 <pthread_mutex_lock@plt>
 3c4b5b2:	e8 09 74 0d 04       	call   7d229c0 <pthread_mutex_unlock@plt>
 3c4bb40:	e8 7b 6e 0d 04       	call   7d229c0 <pthread_mutex_unlock@plt>
 3c4cf26:	e8 85 5a 0d 04       	call   7d229b0 <pthread_mutex_lock@plt>
 3c4cf70:	e8 4b 5a 0d 04       	call   7d229c0 <pthread_mutex_unlock@plt>
 3c4df8e:	e8 2d 4a 0d 04       	call   7d229c0 <pthread_mutex_unlock@plt>
 3c4dfa2:	e8 19 4a 0d 04       	call   7d229c0 <pthread_mutex_unlock@plt>
 3c4dfb6:	e8 05 4a 0d 04       	call   7d229c0 <pthread_mutex_unlock@plt>
 3c4dfca:	e8 f1 49 0d 04       	call   7d229c0 <pthread_mutex_unlock@plt>
 3c4dfde:	e8 dd 49 0d 04       	call   7d229c0 <pthread_mutex_unlock@plt>
 3c4dff2:	e8 c9 49 0d 04       	call   7d229c0 <pthread_mutex_unlock@plt>
 3c4e006:	e8 b5 49 0d 04       	call   7d229c0 <pthread_mutex_unlock@plt>
 3c4e01a:	e8 a1 49 0d 04       	call   7d229c0 <pthread_mutex_unlock@plt>
 3c4e02e:	e8 8d 49 0d 04       	call   7d229c0 <pthread_mutex_unlock@plt>
 3c4e042:	e8 79 49 0d 04       	call   7d229c0 <pthread_mutex_unlock@plt>
 3c4e056:	e8 65 49 0d 04       	call   7d229c0 <pthread_mutex_unlock@plt>
 3c4e06a:	e8 51 49 0d 04       	call   7d229c0 <pthread_mutex_unlock@plt>
 3c4e07e:	e8 3d 49 0d 04       	call   7d229c0 <pthread_mutex_unlock@plt>
 3c4e092:	e8 29 49 0d 04       	call   7d229c0 <pthread_mutex_unlock@plt>
 3c4e0a6:	e8 15 49 0d 04       	call   7d229c0 <pthread_mutex_unlock@plt>
 3c4e0ba:	e8 01 49 0d 04       	call   7d229c0 <pthread_mutex_unlock@plt>
 3c4e0d3:	e8 e8 48 0d 04       	call   7d229c0 <pthread_mutex_unlock@plt>
 3c4e0e6:	e8 d5 48 0d 04       	call   7d229c0 <pthread_mutex_unlock@plt>
 3c4e0fa:	e8 c1 48 0d 04       	call   7d229c0 <pthread_mutex_unlock@plt>
 3c4e10e:	e8 ad 48 0d 04       	call   7d229c0 <pthread_mutex_unlock@plt>
 3c4e13a:	e8 81 48 0d 04       	call   7d229c0 <pthread_mutex_unlock@plt>
 3c4e171:	e8 4a 48 0d 04       	call   7d229c0 <pthread_mutex_unlock@plt>
 3c4e19c:	e8 1f 48 0d 04       	call   7d229c0 <pthread_mutex_unlock@plt>
 3c4e219:	e8 a2 47 0d 04       	call   7d229c0 <pthread_mutex_unlock@plt>
 3c4e43a:	e8 81 45 0d 04       	call   7d229c0 <pthread_mutex_unlock@plt>
 3c4e44e:	e8 6d 45 0d 04       	call   7d229c0 <pthread_mutex_unlock@plt>
 3c4e500:	e8 bb 44 0d 04       	call   7d229c0 <pthread_mutex_unlock@plt>
 3c4e5cc:	e8 ef 43 0d 04       	call   7d229c0 <pthread_mutex_unlock@plt>
 3c4e5e0:	e8 db 43 0d 04       	call   7d229c0 <pthread_mutex_unlock@plt>
 3c4ea06:	e8 b5 3f 0d 04       	call   7d229c0 <pthread_mutex_unlock@plt>
 3c4ea71:	e8 4a 3f 0d 04       	call   7d229c0 <pthread_mutex_unlock@plt>
 3c4eb56:	e8 65 3e 0d 04       	call   7d229c0 <pthread_mutex_unlock@plt>
 3c4eb9c:	e8 1f 3e 0d 04       	call   7d229c0 <pthread_mutex_unlock@plt>
 3c4f042:	e8 79 39 0d 04       	call   7d229c0 <pthread_mutex_unlock@plt>
 3c4f08b:	e8 30 39 0d 04       	call   7d229c0 <pthread_mutex_unlock@plt>
 3c4f1ba:	e8 01 38 0d 04       	call   7d229c0 <pthread_mutex_unlock@plt>
 3c4f1de:	e8 dd 37 0d 04       	call   7d229c0 <pthread_mutex_unlock@plt>
 3c4f878:	e8 43 31 0d 04       	call   7d229c0 <pthread_mutex_unlock@plt>
 3c4f9a6:	e8 15 30 0d 04       	call   7d229c0 <pthread_mutex_unlock@plt>
 3c4f9d6:	e8 e5 2f 0d 04       	call   7d229c0 <pthread_mutex_unlock@plt>
 3c4f9f8:	e8 c3 2f 0d 04       	call   7d229c0 <pthread_mutex_unlock@plt>
 3c4fa3d:	e8 7e 2f 0d 04       	call   7d229c0 <pthread_mutex_unlock@plt>
 3c4fbac:	e8 0f 2e 0d 04       	call   7d229c0 <pthread_mutex_unlock@plt>
 3c4fcac:	e8 0f 2d 0d 04       	call   7d229c0 <pthread_mutex_unlock@plt>
 3c4fd9a:	e8 21 2c 0d 04       	call   7d229c0 <pthread_mutex_unlock@plt>
 3c50647:	e8 74 23 0d 04       	call   7d229c0 <pthread_mutex_unlock@plt>
 3c5065a:	e8 61 23 0d 04       	call   7d229c0 <pthread_mutex_unlock@plt>
 3c506ae:	e8 0d 23 0d 04       	call   7d229c0 <pthread_mutex_unlock@plt>
 3c506f7:	e8 c4 22 0d 04       	call   7d229c0 <pthread_mutex_unlock@plt>
 3c507e6:	e8 d5 21 0d 04       	call   7d229c0 <pthread_mutex_unlock@plt>
 3c50816:	e8 a5 21 0d 04       	call   7d229c0 <pthread_mutex_unlock@plt>
 3c50c0a:	e8 b1 1d 0d 04       	call   7d229c0 <pthread_mutex_unlock@plt>
 3c50d04:	e8 b7 1c 0d 04       	call   7d229c0 <pthread_mutex_unlock@plt>
 3c50d4a:	e8 71 1c 0d 04       	call   7d229c0 <pthread_mutex_unlock@plt>
 3c50d7b:	e8 40 1c 0d 04       	call   7d229c0 <pthread_mutex_unlock@plt>
 3c50dd5:	e8 e6 1b 0d 04       	call   7d229c0 <pthread_mutex_unlock@plt>
 3c5166a:	e8 51 13 0d 04       	call   7d229c0 <pthread_mutex_unlock@plt>
 3c51827:	e8 94 11 0d 04       	call   7d229c0 <pthread_mutex_unlock@plt>
 3c51854:	e8 67 11 0d 04       	call   7d229c0 <pthread_mutex_unlock@plt>
 3c5193d:	e8 7e 10 0d 04       	call   7d229c0 <pthread_mutex_unlock@plt>
 3c51d36:	e8 85 0c 0d 04       	call   7d229c0 <pthread_mutex_unlock@plt>
 3c51efc:	e8 bf 0a 0d 04       	call   7d229c0 <pthread_mutex_unlock@plt>
 3c51f44:	e8 77 0a 0d 04       	call   7d229c0 <pthread_mutex_unlock@plt>
 3c51f60:	e8 5b 0a 0d 04       	call   7d229c0 <pthread_mutex_unlock@plt>
 3c51f82:	e8 39 0a 0d 04       	call   7d229c0 <pthread_mutex_unlock@plt>
 3c522b3:	e8 08 07 0d 04       	call   7d229c0 <pthread_mutex_unlock@plt>
 3c522c6:	e8 f5 06 0d 04       	call   7d229c0 <pthread_mutex_unlock@plt>
 3c5231e:	e8 9d 06 0d 04       	call   7d229c0 <pthread_mutex_unlock@plt>
 3c5273c:	e8 7f 02 0d 04       	call   7d229c0 <pthread_mutex_unlock@plt>
 3c52906:	e8 b5 00 0d 04       	call   7d229c0 <pthread_mutex_unlock@plt>
 3c52944:	e8 77 00 0d 04       	call   7d229c0 <pthread_mutex_unlock@plt>
 3c52cf3:	e8 c8 fc 0c 04       	call   7d229c0 <pthread_mutex_unlock@plt>
 3c5311f:	e8 9c f8 0c 04       	call   7d229c0 <pthread_mutex_unlock@plt>
 3c53206:	e8 b5 f7 0c 04       	call   7d229c0 <pthread_mutex_unlock@plt>
 3c539bd:	e8 fe ef 0c 04       	call   7d229c0 <pthread_mutex_unlock@plt>
 3c53ae0:	e8 db ee 0c 04       	call   7d229c0 <pthread_mutex_unlock@plt>
 3c53b66:	e8 55 ee 0c 04       	call   7d229c0 <pthread_mutex_unlock@plt>
 3c53dbd:	e8 fe eb 0c 04       	call   7d229c0 <pthread_mutex_unlock@plt>
 3c53fb7:	e8 04 ea 0c 04       	call   7d229c0 <pthread_mutex_unlock@plt>
 3c53fe2:	e8 d9 e9 0c 04       	call   7d229c0 <pthread_mutex_unlock@plt>
 3c54a35:	e8 86 df 0c 04       	call   7d229c0 <pthread_mutex_unlock@plt>
 3c54afe:	e8 bd de 0c 04       	call   7d229c0 <pthread_mutex_unlock@plt>
 3c54b19:	e8 a2 de 0c 04       	call   7d229c0 <pthread_mutex_unlock@plt>
 3c55122:	e8 99 d8 0c 04       	call   7d229c0 <pthread_mutex_unlock@plt>
 3c551bb:	e8 00 d8 0c 04       	call   7d229c0 <pthread_mutex_unlock@plt>
 3c551d1:	e8 ea d7 0c 04       	call   7d229c0 <pthread_mutex_unlock@plt>
 3c55cb5:	e8 06 cd 0c 04       	call   7d229c0 <pthread_mutex_unlock@plt>
 3c55d88:	e8 33 cc 0c 04       	call   7d229c0 <pthread_mutex_unlock@plt>
 3c56083:	e8 28 c9 0c 04       	call   7d229b0 <pthread_mutex_lock@plt>
 3c560b1:	e8 0a c9 0c 04       	call   7d229c0 <pthread_mutex_unlock@plt>
 3c56121:	e8 9a c8 0c 04       	call   7d229c0 <pthread_mutex_unlock@plt>
 3c56230:	e8 8b c7 0c 04       	call   7d229c0 <pthread_mutex_unlock@plt>
 3c56313:	e8 98 c6 0c 04       	call   7d229b0 <pthread_mutex_lock@plt>
 3c564ff:	e8 bc c4 0c 04       	call   7d229c0 <pthread_mutex_unlock@plt>
 3c56911:	e8 aa c0 0c 04       	call   7d229c0 <pthread_mutex_unlock@plt>
 3c57f37:	e8 74 aa 0c 04       	call   7d229b0 <pthread_mutex_lock@plt>
 3c57f58:	e8 63 aa 0c 04       	call   7d229c0 <pthread_mutex_unlock@plt>
 3c57f91:	e8 1a aa 0c 04       	call   7d229b0 <pthread_mutex_lock@plt>
 3c57fb2:	e9 09 aa 0c 04       	jmp    7d229c0 <pthread_mutex_unlock@plt>
 3c57ff7:	e8 b4 a9 0c 04       	call   7d229b0 <pthread_mutex_lock@plt>
 3c58018:	e8 a3 a9 0c 04       	call   7d229c0 <pthread_mutex_unlock@plt>
 3c580b1:	e8 fa a8 0c 04       	call   7d229b0 <pthread_mutex_lock@plt>
 3c580d2:	e9 e9 a8 0c 04       	jmp    7d229c0 <pthread_mutex_unlock@plt>
 3c58604:	e8 a7 a3 0c 04       	call   7d229b0 <pthread_mutex_lock@plt>
 3c5862a:	e9 91 a3 0c 04       	jmp    7d229c0 <pthread_mutex_unlock@plt>
 3c5863b:	e8 70 a3 0c 04       	call   7d229b0 <pthread_mutex_lock@plt>
 3c586a7:	e8 14 a3 0c 04       	call   7d229c0 <pthread_mutex_unlock@plt>
 3c58a49:	e8 62 9f 0c 04       	call   7d229b0 <pthread_mutex_lock@plt>
 3c58b5a:	e9 61 9e 0c 04       	jmp    7d229c0 <pthread_mutex_unlock@plt>
 3c58d8a:	e8 21 9c 0c 04       	call   7d229b0 <pthread_mutex_lock@plt>
 3c59039:	e8 72 99 0c 04       	call   7d229b0 <pthread_mutex_lock@plt>
 3c5905f:	e8 5c 99 0c 04       	call   7d229c0 <pthread_mutex_unlock@plt>
 3c59ef5:	e8 b6 8a 0c 04       	call   7d229b0 <pthread_mutex_lock@plt>
 3c59f26:	e8 95 8a 0c 04       	call   7d229c0 <pthread_mutex_unlock@plt>
 3c5a059:	e8 52 89 0c 04       	call   7d229b0 <pthread_mutex_lock@plt>
 3c5a072:	e8 49 89 0c 04       	call   7d229c0 <pthread_mutex_unlock@plt>
 3c5a115:	e8 a6 88 0c 04       	call   7d229c0 <pthread_mutex_unlock@plt>
 3c5e06d:	e8 4e 4a 0c 04       	call   7d22ac0 <pthread_once@plt>
 3c602ba:	e8 f1 26 0c 04       	call   7d229b0 <pthread_mutex_lock@plt>
 3c6030a:	e8 b1 26 0c 04       	call   7d229c0 <pthread_mutex_unlock@plt>
 3c60737:	e8 74 22 0c 04       	call   7d229b0 <pthread_mutex_lock@plt>
 3c6076f:	e9 4c 22 0c 04       	jmp    7d229c0 <pthread_mutex_unlock@plt>
 3c60ad4:	e8 d7 1e 0c 04       	call   7d229b0 <pthread_mutex_lock@plt>
 3c60cd8:	e9 e3 1c 0c 04       	jmp    7d229c0 <pthread_mutex_unlock@plt>
 3c61635:	e8 76 13 0c 04       	call   7d229b0 <pthread_mutex_lock@plt>
 3c62424:	e8 87 05 0c 04       	call   7d229b0 <pthread_mutex_lock@plt>
 3c6255f:	e9 5c 04 0c 04       	jmp    7d229c0 <pthread_mutex_unlock@plt>
 3c62965:	e8 46 00 0c 04       	call   7d229b0 <pthread_mutex_lock@plt>
 3c62b3d:	e8 7e fe 0b 04       	call   7d229c0 <pthread_mutex_unlock@plt>
 3c6314e:	e8 6d f8 0b 04       	call   7d229c0 <pthread_mutex_unlock@plt>
 3c631c6:	e8 f5 f7 0b 04       	call   7d229c0 <pthread_mutex_unlock@plt>
 3c6366a:	e8 51 f3 0b 04       	call   7d229c0 <pthread_mutex_unlock@plt>
 3c636e5:	e8 d6 f2 0b 04       	call   7d229c0 <pthread_mutex_unlock@plt>
 3c63ec6:	e8 f5 eb 0b 04       	call   7d22ac0 <pthread_once@plt>
 3c649ea:	e8 c1 df 0b 04       	call   7d229b0 <pthread_mutex_lock@plt>
 3c64c6a:	e8 51 dd 0b 04       	call   7d229c0 <pthread_mutex_unlock@plt>
 3c66355:	e8 56 c6 0b 04       	call   7d229b0 <pthread_mutex_lock@plt>
 3c66a9e:	e9 1d bf 0b 04       	jmp    7d229c0 <pthread_mutex_unlock@plt>
 3c672e4:	e8 c7 b6 0b 04       	call   7d229b0 <pthread_mutex_lock@plt>
 3c67323:	e8 98 b6 0b 04       	call   7d229c0 <pthread_mutex_unlock@plt>
 3c673e3:	e8 d8 b5 0b 04       	call   7d229c0 <pthread_mutex_unlock@plt>
 3c6740a:	e8 a1 b5 0b 04       	call   7d229b0 <pthread_mutex_lock@plt>
 3c677ca:	e8 e1 b1 0b 04       	call   7d229b0 <pthread_mutex_lock@plt>
 3c677e5:	e8 d6 b1 0b 04       	call   7d229c0 <pthread_mutex_unlock@plt>
 3c694ba:	e8 f1 94 0b 04       	call   7d229b0 <pthread_mutex_lock@plt>
 3c694ef:	e9 cc 94 0b 04       	jmp    7d229c0 <pthread_mutex_unlock@plt>
 3c69536:	e8 75 94 0b 04       	call   7d229b0 <pthread_mutex_lock@plt>
 3c6956b:	e9 50 94 0b 04       	jmp    7d229c0 <pthread_mutex_unlock@plt>
 3c695b6:	e8 f5 93 0b 04       	call   7d229b0 <pthread_mutex_lock@plt>
 3c695eb:	e9 d0 93 0b 04       	jmp    7d229c0 <pthread_mutex_unlock@plt>
 3c69a36:	e8 75 8f 0b 04       	call   7d229b0 <pthread_mutex_lock@plt>
 3c69a7c:	e9 3f 8f 0b 04       	jmp    7d229c0 <pthread_mutex_unlock@plt>
 3c6a354:	e8 57 86 0b 04       	call   7d229b0 <pthread_mutex_lock@plt>
 3c6ab1b:	e8 90 7e 0b 04       	call   7d229b0 <pthread_mutex_lock@plt>
 3c6d21c:	e8 8f 57 0b 04       	call   7d229b0 <pthread_mutex_lock@plt>
 3c6d38b:	e8 30 56 0b 04       	call   7d229c0 <pthread_mutex_unlock@plt>
 3c6dd6b:	e8 40 4c 0b 04       	call   7d229b0 <pthread_mutex_lock@plt>
 3c6e3f7:	e9 c4 45 0b 04       	jmp    7d229c0 <pthread_mutex_unlock@plt>
 3c6e60b:	e8 a0 43 0b 04       	call   7d229b0 <pthread_mutex_lock@plt>
 3c6efec:	e8 bf 39 0b 04       	call   7d229b0 <pthread_mutex_lock@plt>
 3c6f06c:	e9 4f 39 0b 04       	jmp    7d229c0 <pthread_mutex_unlock@plt>
 3c6f100:	e8 ab 38 0b 04       	call   7d229b0 <pthread_mutex_lock@plt>
 3c6f310:	e9 ab 36 0b 04       	jmp    7d229c0 <pthread_mutex_unlock@plt>
 3c6f330:	e8 8b 36 0b 04       	call   7d229c0 <pthread_mutex_unlock@plt>
 3c7008c:	e8 1f 29 0b 04       	call   7d229b0 <pthread_mutex_lock@plt>
 3c700ca:	e8 f1 28 0b 04       	call   7d229c0 <pthread_mutex_unlock@plt>
 3c70303:	e8 b8 26 0b 04       	call   7d229c0 <pthread_mutex_unlock@plt>
 3c70498:	e8 13 25 0b 04       	call   7d229b0 <pthread_mutex_lock@plt>
 3c7055d:	e8 5e 24 0b 04       	call   7d229c0 <pthread_mutex_unlock@plt>
 3c7083e:	e8 7d 21 0b 04       	call   7d229c0 <pthread_mutex_unlock@plt>
 3c7086b:	e8 50 21 0b 04       	call   7d229c0 <pthread_mutex_unlock@plt>
 3c70a13:	e8 98 1f 0b 04       	call   7d229b0 <pthread_mutex_lock@plt>
 3c70b3d:	e8 7e 1e 0b 04       	call   7d229c0 <pthread_mutex_unlock@plt>
 3c70fc0:	e8 eb 19 0b 04       	call   7d229b0 <pthread_mutex_lock@plt>
 3c70ff4:	e8 c7 19 0b 04       	call   7d229c0 <pthread_mutex_unlock@plt>
 3c716ed:	e8 ce 12 0b 04       	call   7d229c0 <pthread_mutex_unlock@plt>
 3c71b3e:	e8 7d 0e 0b 04       	call   7d229c0 <pthread_mutex_unlock@plt>
 3c71b52:	e8 69 0e 0b 04       	call   7d229c0 <pthread_mutex_unlock@plt>
 3c71b66:	e8 55 0e 0b 04       	call   7d229c0 <pthread_mutex_unlock@plt>
 3c71d2a:	e8 91 0c 0b 04       	call   7d229c0 <pthread_mutex_unlock@plt>
 3c72b52:	e8 69 fe 0a 04       	call   7d229c0 <pthread_mutex_unlock@plt>
 3c72caa:	e8 11 fd 0a 04       	call   7d229c0 <pthread_mutex_unlock@plt>
 3c72e96:	e8 25 fb 0a 04       	call   7d229c0 <pthread_mutex_unlock@plt>
 3c72ec0:	e8 fb fa 0a 04       	call   7d229c0 <pthread_mutex_unlock@plt>
 3c7319b:	e8 20 f8 0a 04       	call   7d229c0 <pthread_mutex_unlock@plt>
 3c73eef:	e8 cc eb 0a 04       	call   7d22ac0 <pthread_once@plt>
 3c78692:	e8 29 a4 0a 04       	call   7d22ac0 <pthread_once@plt>
 3c7c886:	e8 35 62 0a 04       	call   7d22ac0 <pthread_once@plt>
 3c7dbda:	e8 e1 4e 0a 04       	call   7d22ac0 <pthread_once@plt>
 3c7e642:	e8 69 43 0a 04       	call   7d229b0 <pthread_mutex_lock@plt>
 3c7e667:	e9 54 43 0a 04       	jmp    7d229c0 <pthread_mutex_unlock@plt>
 3c7e6ae:	e8 fd 42 0a 04       	call   7d229b0 <pthread_mutex_lock@plt>
 3c7e848:	e9 73 41 0a 04       	jmp    7d229c0 <pthread_mutex_unlock@plt>
 3c7ed22:	e8 89 3c 0a 04       	call   7d229b0 <pthread_mutex_lock@plt>
 3c7edc6:	e8 f5 3b 0a 04       	call   7d229c0 <pthread_mutex_unlock@plt>
 3c7fb3c:	e8 7f 2e 0a 04       	call   7d229c0 <pthread_mutex_unlock@plt>
 3c7fb80:	e8 3b 2e 0a 04       	call   7d229c0 <pthread_mutex_unlock@plt>
 3c7fda9:	e8 12 2c 0a 04       	call   7d229c0 <pthread_mutex_unlock@plt>
 3c8065a:	e8 61 24 0a 04       	call   7d22ac0 <pthread_once@plt>
 3c80d8e:	e8 1d 1c 0a 04       	call   7d229b0 <pthread_mutex_lock@plt>
 3c80de3:	e8 d8 1b 0a 04       	call   7d229c0 <pthread_mutex_unlock@plt>
 3c80e87:	e8 24 1b 0a 04       	call   7d229b0 <pthread_mutex_lock@plt>
 3c80e97:	e8 24 1b 0a 04       	call   7d229c0 <pthread_mutex_unlock@plt>
 3c81028:	e8 83 19 0a 04       	call   7d229b0 <pthread_mutex_lock@plt>
 3c81065:	e9 56 19 0a 04       	jmp    7d229c0 <pthread_mutex_unlock@plt>
 3c8107a:	e8 31 19 0a 04       	call   7d229b0 <pthread_mutex_lock@plt>
 3c810f3:	e8 c8 18 0a 04       	call   7d229c0 <pthread_mutex_unlock@plt>
 3c812d7:	e8 d4 16 0a 04       	call   7d229b0 <pthread_mutex_lock@plt>
 3c812f3:	e8 c8 16 0a 04       	call   7d229c0 <pthread_mutex_unlock@plt>
 3c81367:	e8 44 16 0a 04       	call   7d229b0 <pthread_mutex_lock@plt>
 3c8137b:	e8 40 16 0a 04       	call   7d229c0 <pthread_mutex_unlock@plt>
 3c813b7:	e8 f4 15 0a 04       	call   7d229b0 <pthread_mutex_lock@plt>
 3c813ca:	e8 f1 15 0a 04       	call   7d229c0 <pthread_mutex_unlock@plt>
 3c8143d:	e8 6e 15 0a 04       	call   7d229b0 <pthread_mutex_lock@plt>
 3c814a5:	e8 16 15 0a 04       	call   7d229c0 <pthread_mutex_unlock@plt>
 3c815af:	e8 fc 13 0a 04       	call   7d229b0 <pthread_mutex_lock@plt>
 3c81615:	e8 96 13 0a 04       	call   7d229b0 <pthread_mutex_lock@plt>
 3c8163b:	e8 80 13 0a 04       	call   7d229c0 <pthread_mutex_unlock@plt>
 3c81694:	e8 17 13 0a 04       	call   7d229b0 <pthread_mutex_lock@plt>
 3c81798:	e8 13 12 0a 04       	call   7d229b0 <pthread_mutex_lock@plt>
 3c817bd:	e8 fe 11 0a 04       	call   7d229c0 <pthread_mutex_unlock@plt>
 3c8181d:	e8 9e 11 0a 04       	call   7d229c0 <pthread_mutex_unlock@plt>
 3c818ca:	e8 e1 10 0a 04       	call   7d229b0 <pthread_mutex_lock@plt>
 3c8276c:	e8 3f 02 0a 04       	call   7d229b0 <pthread_mutex_lock@plt>
 3c828af:	e8 0c 01 0a 04       	call   7d229c0 <pthread_mutex_unlock@plt>
 3c82a0d:	e8 9e ff 09 04       	call   7d229b0 <pthread_mutex_lock@plt>
 3c82a5d:	e9 5e ff 09 04       	jmp    7d229c0 <pthread_mutex_unlock@plt>
 3c82df7:	e8 c4 fb 09 04       	call   7d229c0 <pthread_mutex_unlock@plt>
 3c82e0a:	e8 a1 fb 09 04       	call   7d229b0 <pthread_mutex_lock@plt>
 3c82e2d:	e8 8e fb 09 04       	call   7d229c0 <pthread_mutex_unlock@plt>
 3c82eef:	e8 cc fa 09 04       	call   7d229c0 <pthread_mutex_unlock@plt>
 3c83120:	e8 8b f8 09 04       	call   7d229b0 <pthread_mutex_lock@plt>
 3c83164:	e9 57 f8 09 04       	jmp    7d229c0 <pthread_mutex_unlock@plt>
 3c8320f:	e8 ac f7 09 04       	call   7d229c0 <pthread_mutex_unlock@plt>
 3c83222:	e8 89 f7 09 04       	call   7d229b0 <pthread_mutex_lock@plt>
 3c83245:	e8 76 f7 09 04       	call   7d229c0 <pthread_mutex_unlock@plt>
 3c833c7:	e8 f4 f5 09 04       	call   7d229c0 <pthread_mutex_unlock@plt>
 3c83540:	e8 6b f4 09 04       	call   7d229b0 <pthread_mutex_lock@plt>
 3c83565:	e8 56 f4 09 04       	call   7d229c0 <pthread_mutex_unlock@plt>
 3c83992:	e8 29 f0 09 04       	call   7d229c0 <pthread_mutex_unlock@plt>
 3c839a6:	e8 15 f0 09 04       	call   7d229c0 <pthread_mutex_unlock@plt>
 3c83b77:	e9 44 ee 09 04       	jmp    7d229c0 <pthread_mutex_unlock@plt>
 3c83b85:	e8 36 ee 09 04       	call   7d229c0 <pthread_mutex_unlock@plt>
 3c84304:	e8 b7 e6 09 04       	call   7d229c0 <pthread_mutex_unlock@plt>
 3c84346:	e8 75 e6 09 04       	call   7d229c0 <pthread_mutex_unlock@plt>
 3c84369:	e8 52 e6 09 04       	call   7d229c0 <pthread_mutex_unlock@plt>
 3c843e4:	e8 d7 e5 09 04       	call   7d229c0 <pthread_mutex_unlock@plt>
 3c84405:	e8 b6 e5 09 04       	call   7d229c0 <pthread_mutex_unlock@plt>
 3c84456:	e8 65 e5 09 04       	call   7d229c0 <pthread_mutex_unlock@plt>
 3c84d6a:	e8 51 dd 09 04       	call   7d22ac0 <pthread_once@plt>
 3c8571e:	e8 8d d2 09 04       	call   7d229b0 <pthread_mutex_lock@plt>
 3c8574e:	e9 6d d2 09 04       	jmp    7d229c0 <pthread_mutex_unlock@plt>
 3c8578c:	e8 1f d2 09 04       	call   7d229b0 <pthread_mutex_lock@plt>
 3c857a8:	e8 13 d2 09 04       	call   7d229c0 <pthread_mutex_unlock@plt>
 3c8589b:	e8 10 d1 09 04       	call   7d229b0 <pthread_mutex_lock@plt>
 3c858ac:	e8 0f d1 09 04       	call   7d229c0 <pthread_mutex_unlock@plt>
 3c858da:	e8 d1 d0 09 04       	call   7d229b0 <pthread_mutex_lock@plt>
 3c858eb:	e8 d0 d0 09 04       	call   7d229c0 <pthread_mutex_unlock@plt>
 3c86619:	e8 92 c3 09 04       	call   7d229b0 <pthread_mutex_lock@plt>
 3c86637:	e8 84 c3 09 04       	call   7d229c0 <pthread_mutex_unlock@plt>
 3c86699:	e8 12 c3 09 04       	call   7d229b0 <pthread_mutex_lock@plt>
 3c866cf:	e8 ec c2 09 04       	call   7d229c0 <pthread_mutex_unlock@plt>
 3c86739:	e8 72 c2 09 04       	call   7d229b0 <pthread_mutex_lock@plt>
 3c86757:	e8 64 c2 09 04       	call   7d229c0 <pthread_mutex_unlock@plt>
 3c867b9:	e8 f2 c1 09 04       	call   7d229b0 <pthread_mutex_lock@plt>
 3c867ef:	e8 cc c1 09 04       	call   7d229c0 <pthread_mutex_unlock@plt>
 3c86868:	e8 43 c1 09 04       	call   7d229b0 <pthread_mutex_lock@plt>
 3c86905:	e8 b6 c0 09 04       	call   7d229c0 <pthread_mutex_unlock@plt>
 3c869a1:	e8 0a c0 09 04       	call   7d229b0 <pthread_mutex_lock@plt>
 3c86a4a:	e9 71 bf 09 04       	jmp    7d229c0 <pthread_mutex_unlock@plt>
 3c86b17:	e8 a4 be 09 04       	call   7d229c0 <pthread_mutex_unlock@plt>
 3c8717c:	e8 3f b8 09 04       	call   7d229c0 <pthread_mutex_unlock@plt>
 3c87190:	e8 2b b8 09 04       	call   7d229c0 <pthread_mutex_unlock@plt>
 3c8723c:	e8 7f b7 09 04       	call   7d229c0 <pthread_mutex_unlock@plt>
 3c87250:	e8 6b b7 09 04       	call   7d229c0 <pthread_mutex_unlock@plt>
 3c87264:	e8 57 b7 09 04       	call   7d229c0 <pthread_mutex_unlock@plt>
 3c87278:	e8 43 b7 09 04       	call   7d229c0 <pthread_mutex_unlock@plt>
 3c872a7:	e8 14 b7 09 04       	call   7d229c0 <pthread_mutex_unlock@plt>
 3c87322:	e8 99 b6 09 04       	call   7d229c0 <pthread_mutex_unlock@plt>
 3c878ba:	e8 01 b2 09 04       	call   7d22ac0 <pthread_once@plt>
 3c8856b:	e8 50 a5 09 04       	call   7d22ac0 <pthread_once@plt>
 3c8a69e:	e8 1d 84 09 04       	call   7d22ac0 <pthread_once@plt>
 3c8acbd:	e8 ee 7c 09 04       	call   7d229b0 <pthread_mutex_lock@plt>
 3c8ad1e:	e9 9d 7c 09 04       	jmp    7d229c0 <pthread_mutex_unlock@plt>
 3c8ad8a:	e8 21 7c 09 04       	call   7d229b0 <pthread_mutex_lock@plt>
 3c8ada1:	e8 1a 7c 09 04       	call   7d229c0 <pthread_mutex_unlock@plt>
 3c8ae11:	e8 9a 7b 09 04       	call   7d229b0 <pthread_mutex_lock@plt>
 3c8ae27:	e8 94 7b 09 04       	call   7d229c0 <pthread_mutex_unlock@plt>
 3c8ae50:	e8 6b 7b 09 04       	call   7d229c0 <pthread_mutex_unlock@plt>
 3c8ae91:	e8 1a 7b 09 04       	call   7d229b0 <pthread_mutex_lock@plt>
 3c8aea7:	e8 14 7b 09 04       	call   7d229c0 <pthread_mutex_unlock@plt>
 3c8aed0:	e8 eb 7a 09 04       	call   7d229c0 <pthread_mutex_unlock@plt>
 3c8af08:	e8 a3 7a 09 04       	call   7d229b0 <pthread_mutex_lock@plt>
 3c8af1c:	e8 8f 7a 09 04       	call   7d229b0 <pthread_mutex_lock@plt>
 3c8af5d:	e8 5e 7a 09 04       	call   7d229c0 <pthread_mutex_unlock@plt>
 3c8af65:	e8 56 7a 09 04       	call   7d229c0 <pthread_mutex_unlock@plt>
 3c8afc8:	e8 e3 79 09 04       	call   7d229b0 <pthread_mutex_lock@plt>
 3c8afdc:	e8 cf 79 09 04       	call   7d229b0 <pthread_mutex_lock@plt>
 3c8b02a:	e8 91 79 09 04       	call   7d229c0 <pthread_mutex_unlock@plt>
 3c8b03a:	e9 81 79 09 04       	jmp    7d229c0 <pthread_mutex_unlock@plt>
 3c8b0a1:	e8 0a 79 09 04       	call   7d229b0 <pthread_mutex_lock@plt>
 3c8b0d2:	e8 e9 78 09 04       	call   7d229c0 <pthread_mutex_unlock@plt>
 3c8b1e1:	e8 ca 77 09 04       	call   7d229b0 <pthread_mutex_lock@plt>
 3c8b1f5:	e8 b6 77 09 04       	call   7d229b0 <pthread_mutex_lock@plt>
 3c8b2ac:	e8 0f 77 09 04       	call   7d229c0 <pthread_mutex_unlock@plt>
 3c8b2b4:	e8 07 77 09 04       	call   7d229c0 <pthread_mutex_unlock@plt>
 3c8b7ea:	e8 c1 71 09 04       	call   7d229b0 <pthread_mutex_lock@plt>
 3c8b801:	e8 ba 71 09 04       	call   7d229c0 <pthread_mutex_unlock@plt>
 3c8b96e:	e8 4d 70 09 04       	call   7d229c0 <pthread_mutex_unlock@plt>
 3c8b982:	e8 39 70 09 04       	call   7d229c0 <pthread_mutex_unlock@plt>
 3c8b996:	e8 25 70 09 04       	call   7d229c0 <pthread_mutex_unlock@plt>
 3c8b99e:	e8 1d 70 09 04       	call   7d229c0 <pthread_mutex_unlock@plt>
 3c8b9b2:	e8 09 70 09 04       	call   7d229c0 <pthread_mutex_unlock@plt>
 3c8b9c6:	e8 f5 6f 09 04       	call   7d229c0 <pthread_mutex_unlock@plt>
 3c8b9ce:	e8 ed 6f 09 04       	call   7d229c0 <pthread_mutex_unlock@plt>
 3c8be9a:	e8 11 6b 09 04       	call   7d229b0 <pthread_mutex_lock@plt>
 3c8beea:	e8 d1 6a 09 04       	call   7d229c0 <pthread_mutex_unlock@plt>
 3c8cc80:	e8 2b 5d 09 04       	call   7d229b0 <pthread_mutex_lock@plt>
 3c8cc9e:	e8 1d 5d 09 04       	call   7d229c0 <pthread_mutex_unlock@plt>
 3c8ccb6:	e8 f5 5c 09 04       	call   7d229b0 <pthread_mutex_lock@plt>
 3c8cccf:	e8 ec 5c 09 04       	call   7d229c0 <pthread_mutex_unlock@plt>
 3c8ccfe:	e8 ad 5c 09 04       	call   7d229b0 <pthread_mutex_lock@plt>
 3c8cd71:	e8 4a 5c 09 04       	call   7d229c0 <pthread_mutex_unlock@plt>
 3c8cdae:	e8 fd 5b 09 04       	call   7d229b0 <pthread_mutex_lock@plt>
 3c8cdcc:	e8 ef 5b 09 04       	call   7d229c0 <pthread_mutex_unlock@plt>
 3c8cde4:	e8 c7 5b 09 04       	call   7d229b0 <pthread_mutex_lock@plt>
 3c8ce0b:	e9 b0 5b 09 04       	jmp    7d229c0 <pthread_mutex_unlock@plt>
 3c8ce1a:	e8 91 5b 09 04       	call   7d229b0 <pthread_mutex_lock@plt>
 3c8ce93:	e8 28 5b 09 04       	call   7d229c0 <pthread_mutex_unlock@plt>
 3c8d799:	e8 12 52 09 04       	call   7d229b0 <pthread_mutex_lock@plt>
 3c8d7de:	e8 cd 51 09 04       	call   7d229b0 <pthread_mutex_lock@plt>
 3c8d80a:	e8 b1 51 09 04       	call   7d229c0 <pthread_mutex_unlock@plt>
 3c8d812:	e8 a9 51 09 04       	call   7d229c0 <pthread_mutex_unlock@plt>
 3c8d8f2:	e8 b9 50 09 04       	call   7d229b0 <pthread_mutex_lock@plt>
 3c8d991:	e8 2a 50 09 04       	call   7d229c0 <pthread_mutex_unlock@plt>
 3c93be4:	e8 c7 ed 08 04       	call   7d229b0 <pthread_mutex_lock@plt>
 3c94338:	e8 83 e6 08 04       	call   7d229c0 <pthread_mutex_unlock@plt>
 3c9741c:	e8 8f b5 08 04       	call   7d229b0 <pthread_mutex_lock@plt>
 3c9743f:	e8 7c b5 08 04       	call   7d229c0 <pthread_mutex_unlock@plt>
 3c97492:	e8 39 b6 08 04       	call   7d22ad0 <pthread_cond_timedwait@plt>
 3c974a7:	e8 14 b5 08 04       	call   7d229c0 <pthread_mutex_unlock@plt>
 3c974cf:	e8 dc b4 08 04       	call   7d229b0 <pthread_mutex_lock@plt>
 3c9751b:	e8 90 b4 08 04       	call   7d229b0 <pthread_mutex_lock@plt>
 3c9950a:	e8 b1 95 08 04       	call   7d22ac0 <pthread_once@plt>
 3c9c7c6:	e8 f5 62 08 04       	call   7d22ac0 <pthread_once@plt>
 3ca1bba:	e8 01 0f 08 04       	call   7d22ac0 <pthread_once@plt>
 3ca2cea:	e8 d1 fd 07 04       	call   7d22ac0 <pthread_once@plt>
 3ca304b:	e8 60 f9 07 04       	call   7d229b0 <pthread_mutex_lock@plt>
 3ca307f:	e8 3c f9 07 04       	call   7d229c0 <pthread_mutex_unlock@plt>
 3ca364d:	e8 5e f3 07 04       	call   7d229b0 <pthread_mutex_lock@plt>
 3ca36a2:	e8 19 f3 07 04       	call   7d229c0 <pthread_mutex_unlock@plt>
 3ca39e8:	e8 d3 ef 07 04       	call   7d229c0 <pthread_mutex_unlock@plt>
 3ca3a7c:	e8 3f ef 07 04       	call   7d229c0 <pthread_mutex_unlock@plt>
 3ca3c70:	e8 4b ed 07 04       	call   7d229c0 <pthread_mutex_unlock@plt>
 3ca445a:	e8 61 e6 07 04       	call   7d22ac0 <pthread_once@plt>
 3ca54aa:	e8 01 d5 07 04       	call   7d229b0 <pthread_mutex_lock@plt>
 3ca54fa:	e8 c1 d4 07 04       	call   7d229c0 <pthread_mutex_unlock@plt>
 3ca5dc1:	e8 ea cb 07 04       	call   7d229b0 <pthread_mutex_lock@plt>
 3ca5e90:	e9 2b cb 07 04       	jmp    7d229c0 <pthread_mutex_unlock@plt>
 3ca6b7a:	e8 31 be 07 04       	call   7d229b0 <pthread_mutex_lock@plt>
 3ca6bf8:	e8 c3 bd 07 04       	call   7d229c0 <pthread_mutex_unlock@plt>
 3ca6d64:	e8 47 bc 07 04       	call   7d229b0 <pthread_mutex_lock@plt>
 3ca7225:	e8 96 b7 07 04       	call   7d229c0 <pthread_mutex_unlock@plt>
 3ca7792:	e8 29 b3 07 04       	call   7d22ac0 <pthread_once@plt>
 3ca78f1:	e8 ba b0 07 04       	call   7d229b0 <pthread_mutex_lock@plt>
 3ca7939:	e8 72 b0 07 04       	call   7d229b0 <pthread_mutex_lock@plt>
 3ca7955:	e8 66 b0 07 04       	call   7d229c0 <pthread_mutex_unlock@plt>
 3ca7961:	e8 5a b0 07 04       	call   7d229c0 <pthread_mutex_unlock@plt>
 3ca7b80:	e8 3b ae 07 04       	call   7d229c0 <pthread_mutex_unlock@plt>
 3ca7b9b:	e8 10 ae 07 04       	call   7d229b0 <pthread_mutex_lock@plt>
 3ca7c30:	e8 8b ad 07 04       	call   7d229c0 <pthread_mutex_unlock@plt>
 3ca9846:	e8 75 92 07 04       	call   7d22ac0 <pthread_once@plt>
 3ca9f97:	e8 14 8a 07 04       	call   7d229b0 <pthread_mutex_lock@plt>
 3ca9fe5:	e8 c6 89 07 04       	call   7d229b0 <pthread_mutex_lock@plt>
 3ca9fff:	e8 bc 89 07 04       	call   7d229c0 <pthread_mutex_unlock@plt>
 3caa015:	e9 a6 89 07 04       	jmp    7d229c0 <pthread_mutex_unlock@plt>
 3caa028:	e8 83 89 07 04       	call   7d229b0 <pthread_mutex_lock@plt>
 3caa0a2:	e8 19 89 07 04       	call   7d229c0 <pthread_mutex_unlock@plt>
 3caa5bd:	e8 fe 83 07 04       	call   7d229c0 <pthread_mutex_unlock@plt>
 3caa600:	e8 bb 83 07 04       	call   7d229c0 <pthread_mutex_unlock@plt>
 3cad0cd:	e8 ee 59 07 04       	call   7d22ac0 <pthread_once@plt>
 3cae396:	e8 25 47 07 04       	call   7d22ac0 <pthread_once@plt>
 3caebcb:	e8 e0 3d 07 04       	call   7d229b0 <pthread_mutex_lock@plt>
 3caebdc:	e8 df 3d 07 04       	call   7d229c0 <pthread_mutex_unlock@plt>
 3caec0b:	e8 a0 3d 07 04       	call   7d229b0 <pthread_mutex_lock@plt>
 3caec1c:	e8 9f 3d 07 04       	call   7d229c0 <pthread_mutex_unlock@plt>
 3caec69:	e8 42 3d 07 04       	call   7d229b0 <pthread_mutex_lock@plt>
 3caeca5:	e9 16 3d 07 04       	jmp    7d229c0 <pthread_mutex_unlock@plt>
 3caefd3:	e8 d8 39 07 04       	call   7d229b0 <pthread_mutex_lock@plt>
 3caf014:	e8 a7 39 07 04       	call   7d229c0 <pthread_mutex_unlock@plt>
 3caf434:	e8 87 35 07 04       	call   7d229c0 <pthread_mutex_unlock@plt>
 3caf47e:	e8 3d 35 07 04       	call   7d229c0 <pthread_mutex_unlock@plt>
 3cb00f8:	e8 c3 29 07 04       	call   7d22ac0 <pthread_once@plt>
 3cb4f16:	e8 a5 db 06 04       	call   7d22ac0 <pthread_once@plt>
 3cbd062:	e8 59 5a 06 04       	call   7d22ac0 <pthread_once@plt>
 3cc1ec4:	e8 e7 0a 06 04       	call   7d229b0 <pthread_mutex_lock@plt>
 3cc1ede:	e8 dd 0a 06 04       	call   7d229c0 <pthread_mutex_unlock@plt>
 3cc1ef4:	e8 b7 0a 06 04       	call   7d229b0 <pthread_mutex_lock@plt>
 3cc1f0c:	e8 af 0a 06 04       	call   7d229c0 <pthread_mutex_unlock@plt>
 3cc2357:	e8 64 07 06 04       	call   7d22ac0 <pthread_once@plt>
 3cc3d1d:	e8 9e ed 05 04       	call   7d22ac0 <pthread_once@plt>
 3cc60f5:	e8 c6 c9 05 04       	call   7d22ac0 <pthread_once@plt>
 3cc967f:	e8 3c 94 05 04       	call   7d22ac0 <pthread_once@plt>
 3ccb51a:	e8 a1 75 05 04       	call   7d22ac0 <pthread_once@plt>
 3ccbf09:	e8 b2 6b 05 04       	call   7d22ac0 <pthread_once@plt>
 3ccc65b:	e8 60 64 05 04       	call   7d22ac0 <pthread_once@plt>
 3ccd196:	e8 25 59 05 04       	call   7d22ac0 <pthread_once@plt>
 3cd0fab:	e8 10 1b 05 04       	call   7d22ac0 <pthread_once@plt>
 3cd1478:	e8 43 16 05 04       	call   7d22ac0 <pthread_once@plt>
 3cd16fb:	e8 c0 13 05 04       	call   7d22ac0 <pthread_once@plt>
 3cd2c39:	e8 72 fd 04 04       	call   7d229b0 <pthread_mutex_lock@plt>
 3cd2c5c:	e8 5f fd 04 04       	call   7d229c0 <pthread_mutex_unlock@plt>
 3cd2cfb:	e8 c0 fc 04 04       	call   7d229c0 <pthread_mutex_unlock@plt>
 3cd2d79:	e8 32 fc 04 04       	call   7d229b0 <pthread_mutex_lock@plt>
 3cd2d98:	e8 23 fc 04 04       	call   7d229c0 <pthread_mutex_unlock@plt>
 3cd2db8:	e8 f3 fb 04 04       	call   7d229b0 <pthread_mutex_lock@plt>
 3cd2dd9:	e8 e2 fb 04 04       	call   7d229c0 <pthread_mutex_unlock@plt>
 3cd2eba:	e8 01 fb 04 04       	call   7d229c0 <pthread_mutex_unlock@plt>
 3cd2f16:	e8 95 fa 04 04       	call   7d229b0 <pthread_mutex_lock@plt>
 3cd2f33:	e8 88 fa 04 04       	call   7d229c0 <pthread_mutex_unlock@plt>
 3cd2f4b:	e8 60 fa 04 04       	call   7d229b0 <pthread_mutex_lock@plt>
 3cd2f6b:	e8 50 fa 04 04       	call   7d229c0 <pthread_mutex_unlock@plt>
 3cd307e:	e8 3d f9 04 04       	call   7d229c0 <pthread_mutex_unlock@plt>
 3cd3427:	e8 94 f6 04 04       	call   7d22ac0 <pthread_once@plt>
 3cd3f52:	e8 59 ea 04 04       	call   7d229b0 <pthread_mutex_lock@plt>
 3cd3f6e:	e8 4d ea 04 04       	call   7d229c0 <pthread_mutex_unlock@plt>
 3cd3fdc:	e8 df e9 04 04       	call   7d229c0 <pthread_mutex_unlock@plt>
 3cd42c4:	e8 e7 e6 04 04       	call   7d229b0 <pthread_mutex_lock@plt>
 3cd42e8:	e8 d3 e6 04 04       	call   7d229c0 <pthread_mutex_unlock@plt>
 3cd43e0:	e8 db e5 04 04       	call   7d229c0 <pthread_mutex_unlock@plt>
 3cd9422:	e8 99 96 04 04       	call   7d22ac0 <pthread_once@plt>
 3cdfadb:	e8 e0 2f 04 04       	call   7d22ac0 <pthread_once@plt>
 3cf2599:	e8 12 04 03 04       	call   7d229b0 <pthread_mutex_lock@plt>
 3cf25b5:	e8 06 04 03 04       	call   7d229c0 <pthread_mutex_unlock@plt>
 3cf260a:	e8 a1 03 03 04       	call   7d229b0 <pthread_mutex_lock@plt>
 3cf265a:	e8 61 03 03 04       	call   7d229c0 <pthread_mutex_unlock@plt>
 3cf2f76:	e8 35 fa 02 04       	call   7d229b0 <pthread_mutex_lock@plt>
 3cf2fb2:	e9 09 fa 02 04       	jmp    7d229c0 <pthread_mutex_unlock@plt>
 3cf5f37:	e8 74 ca 02 04       	call   7d229b0 <pthread_mutex_lock@plt>
 3cf5f7b:	e8 40 ca 02 04       	call   7d229c0 <pthread_mutex_unlock@plt>
 3cf751b:	e8 90 b4 02 04       	call   7d229b0 <pthread_mutex_lock@plt>
 3cf7667:	e8 44 b3 02 04       	call   7d229b0 <pthread_mutex_lock@plt>
 3cf7985:	e8 36 b0 02 04       	call   7d229c0 <pthread_mutex_unlock@plt>
 3cf7ce8:	e8 c3 ac 02 04       	call   7d229b0 <pthread_mutex_lock@plt>
 3cf8133:	e8 88 a8 02 04       	call   7d229c0 <pthread_mutex_unlock@plt>
 3cf84fc:	e8 af a4 02 04       	call   7d229b0 <pthread_mutex_lock@plt>
 3cf8915:	e8 a6 a0 02 04       	call   7d229c0 <pthread_mutex_unlock@plt>
 3cf8b7c:	e8 2f 9e 02 04       	call   7d229b0 <pthread_mutex_lock@plt>
 3cf8bc6:	e8 f5 9d 02 04       	call   7d229c0 <pthread_mutex_unlock@plt>
 3cf8eba:	e8 01 9c 02 04       	call   7d22ac0 <pthread_once@plt>
 3cf8faa:	e8 11 9a 02 04       	call   7d229c0 <pthread_mutex_unlock@plt>
 3cf9708:	e8 b3 92 02 04       	call   7d229c0 <pthread_mutex_unlock@plt>
 3cf9a58:	e8 63 8f 02 04       	call   7d229c0 <pthread_mutex_unlock@plt>
 3cf9bb0:	e8 0b 8e 02 04       	call   7d229c0 <pthread_mutex_unlock@plt>
 3cf9d38:	e8 83 8c 02 04       	call   7d229c0 <pthread_mutex_unlock@plt>
 3cfa4b0:	e8 fb 84 02 04       	call   7d229b0 <pthread_mutex_lock@plt>
 3cfa9d8:	e8 d3 7f 02 04       	call   7d229b0 <pthread_mutex_lock@plt>
 3cfab0f:	e8 ac 7f 02 04       	call   7d22ac0 <pthread_once@plt>
 3cfacf4:	e8 c7 7d 02 04       	call   7d22ac0 <pthread_once@plt>
 3cfadb7:	e8 04 7c 02 04       	call   7d229c0 <pthread_mutex_unlock@plt>
 3cfadc3:	e8 f8 7b 02 04       	call   7d229c0 <pthread_mutex_unlock@plt>
 3cfb420:	e8 9b 75 02 04       	call   7d229c0 <pthread_mutex_unlock@plt>
 3cfb5dc:	e8 df 73 02 04       	call   7d229c0 <pthread_mutex_unlock@plt>
 3cfbaa2:	e8 19 6f 02 04       	call   7d229c0 <pthread_mutex_unlock@plt>
 3cfbbe5:	e8 d6 6d 02 04       	call   7d229c0 <pthread_mutex_unlock@plt>
 3cfbc8f:	e8 2c 6d 02 04       	call   7d229c0 <pthread_mutex_unlock@plt>
 3cfcd8e:	e8 2d 5c 02 04       	call   7d229c0 <pthread_mutex_unlock@plt>
 3cfdb02:	e8 b9 4e 02 04       	call   7d229c0 <pthread_mutex_unlock@plt>
 3cfdb56:	e8 65 4e 02 04       	call   7d229c0 <pthread_mutex_unlock@plt>
 3cfdb9e:	e8 1d 4e 02 04       	call   7d229c0 <pthread_mutex_unlock@plt>
 3cfdbde:	e8 dd 4d 02 04       	call   7d229c0 <pthread_mutex_unlock@plt>
 3cfddc8:	e8 f3 4b 02 04       	call   7d229c0 <pthread_mutex_unlock@plt>
 3cfdeef:	e8 cc 4a 02 04       	call   7d229c0 <pthread_mutex_unlock@plt>
 3cfe338:	e8 83 46 02 04       	call   7d229c0 <pthread_mutex_unlock@plt>
 3cfe9f2:	e8 c9 3f 02 04       	call   7d229c0 <pthread_mutex_unlock@plt>
 3cfe9fe:	e8 bd 3f 02 04       	call   7d229c0 <pthread_mutex_unlock@plt>
 3cfea7d:	e8 3e 3f 02 04       	call   7d229c0 <pthread_mutex_unlock@plt>
 3cfeafe:	e8 bd 3e 02 04       	call   7d229c0 <pthread_mutex_unlock@plt>
 3cffd21:	e8 9a 2d 02 04       	call   7d22ac0 <pthread_once@plt>
 3d00071:	e8 4a 29 02 04       	call   7d229c0 <pthread_mutex_unlock@plt>
 3d000d3:	e8 e8 28 02 04       	call   7d229c0 <pthread_mutex_unlock@plt>
 3d00135:	e8 86 28 02 04       	call   7d229c0 <pthread_mutex_unlock@plt>
 3d00169:	e8 52 28 02 04       	call   7d229c0 <pthread_mutex_unlock@plt>
 3d001b0:	e8 0b 28 02 04       	call   7d229c0 <pthread_mutex_unlock@plt>
 3d055f8:	e8 b3 d3 01 04       	call   7d229b0 <pthread_mutex_lock@plt>
 3d05681:	e8 3a d3 01 04       	call   7d229c0 <pthread_mutex_unlock@plt>
 3d05738:	e8 83 d2 01 04       	call   7d229c0 <pthread_mutex_unlock@plt>
 3d061bf:	e8 fc c7 01 04       	call   7d229c0 <pthread_mutex_unlock@plt>
 3d0644d:	e8 6e c5 01 04       	call   7d229c0 <pthread_mutex_unlock@plt>
 3d07229:	e8 92 b7 01 04       	call   7d229c0 <pthread_mutex_unlock@plt>
 3d0734c:	e8 6f b6 01 04       	call   7d229c0 <pthread_mutex_unlock@plt>
 3d07edc:	e8 cf aa 01 04       	call   7d229b0 <pthread_mutex_lock@plt>
 3d07fc5:	e8 e6 a9 01 04       	call   7d229b0 <pthread_mutex_lock@plt>
 3d081f4:	e9 c7 a7 01 04       	jmp    7d229c0 <pthread_mutex_unlock@plt>
 3d0825f:	e8 5c a7 01 04       	call   7d229c0 <pthread_mutex_unlock@plt>
 3d09775:	e8 36 92 01 04       	call   7d229b0 <pthread_mutex_lock@plt>
 3d099ac:	e9 0f 90 01 04       	jmp    7d229c0 <pthread_mutex_unlock@plt>
 3d09a0d:	e8 ae 8f 01 04       	call   7d229c0 <pthread_mutex_unlock@plt>
 3d09a74:	e8 37 8f 01 04       	call   7d229b0 <pthread_mutex_lock@plt>
 3d0c059:	e8 52 69 01 04       	call   7d229b0 <pthread_mutex_lock@plt>
 3d0c7e6:	e8 d5 61 01 04       	call   7d229c0 <pthread_mutex_unlock@plt>
 3d0c8f2:	e8 b9 60 01 04       	call   7d229b0 <pthread_mutex_lock@plt>
 3d0ce2b:	e8 90 5b 01 04       	call   7d229c0 <pthread_mutex_unlock@plt>
 3d0cee6:	e8 c5 5a 01 04       	call   7d229b0 <pthread_mutex_lock@plt>
 3d0ecfb:	e8 b0 3c 01 04       	call   7d229b0 <pthread_mutex_lock@plt>
 3d0f6a8:	e8 03 33 01 04       	call   7d229b0 <pthread_mutex_lock@plt>
 3d0fb46:	e8 75 2e 01 04       	call   7d229c0 <pthread_mutex_unlock@plt>
 3d0fb8f:	e8 1c 2e 01 04       	call   7d229b0 <pthread_mutex_lock@plt>
 3d103a5:	e8 06 26 01 04       	call   7d229b0 <pthread_mutex_lock@plt>
 3d119e3:	e8 c8 0f 01 04       	call   7d229b0 <pthread_mutex_lock@plt>
 3d11ca6:	e8 05 0d 01 04       	call   7d229b0 <pthread_mutex_lock@plt>
 3d14b57:	e8 64 df 00 04       	call   7d22ac0 <pthread_once@plt>
 3d1efe2:	e8 d9 3a 00 04       	call   7d22ac0 <pthread_once@plt>
 3d2093a:	e8 81 21 00 04       	call   7d22ac0 <pthread_once@plt>
 3d2166b:	e8 50 14 00 04       	call   7d22ac0 <pthread_once@plt>
 3d21d64:	e8 57 0d 00 04       	call   7d22ac0 <pthread_once@plt>
 3d21ff7:	e8 b4 09 00 04       	call   7d229b0 <pthread_mutex_lock@plt>
 3d22010:	e8 ab 09 00 04       	call   7d229c0 <pthread_mutex_unlock@plt>
 3d2202d:	e8 7e 09 00 04       	call   7d229b0 <pthread_mutex_lock@plt>
 3d22040:	e8 7b 09 00 04       	call   7d229c0 <pthread_mutex_unlock@plt>
 3d221cc:	e8 df 07 00 04       	call   7d229b0 <pthread_mutex_lock@plt>
 3d221e3:	e8 d8 07 00 04       	call   7d229c0 <pthread_mutex_unlock@plt>
 3d224f3:	e8 b8 04 00 04       	call   7d229b0 <pthread_mutex_lock@plt>
 3d2250c:	e8 af 04 00 04       	call   7d229c0 <pthread_mutex_unlock@plt>
 3d22522:	e8 89 04 00 04       	call   7d229b0 <pthread_mutex_lock@plt>
 3d22539:	e8 82 04 00 04       	call   7d229c0 <pthread_mutex_unlock@plt>
 3d2274e:	e8 5d 02 00 04       	call   7d229b0 <pthread_mutex_lock@plt>
 3d22767:	e8 54 02 00 04       	call   7d229c0 <pthread_mutex_unlock@plt>
 3d22b96:	e8 25 ff ff 03       	call   7d22ac0 <pthread_once@plt>
 3d2336e:	e8 3d f6 ff 03       	call   7d229b0 <pthread_mutex_lock@plt>
 3d23383:	e8 38 f6 ff 03       	call   7d229c0 <pthread_mutex_unlock@plt>
 3d2580b:	e8 b0 d2 ff 03       	call   7d22ac0 <pthread_once@plt>
 3d25f44:	e8 67 ca ff 03       	call   7d229b0 <pthread_mutex_lock@plt>
 3d25fa3:	e8 18 ca ff 03       	call   7d229c0 <pthread_mutex_unlock@plt>
 3d2606a:	e8 41 c9 ff 03       	call   7d229b0 <pthread_mutex_lock@plt>
 3d260c9:	e8 f2 c8 ff 03       	call   7d229c0 <pthread_mutex_unlock@plt>
 3d26ec2:	e8 e9 ba ff 03       	call   7d229b0 <pthread_mutex_lock@plt>
 3d26f21:	e8 9a ba ff 03       	call   7d229c0 <pthread_mutex_unlock@plt>
 3d26f89:	e8 32 ba ff 03       	call   7d229c0 <pthread_mutex_unlock@plt>
 3d275f3:	e8 b8 b3 ff 03       	call   7d229b0 <pthread_mutex_lock@plt>
 3d2760e:	e8 ad b3 ff 03       	call   7d229c0 <pthread_mutex_unlock@plt>
 3d27a6f:	e8 3c af ff 03       	call   7d229b0 <pthread_mutex_lock@plt>
 3d27b5e:	e8 5d ae ff 03       	call   7d229c0 <pthread_mutex_unlock@plt>
 3d27d0a:	e8 a1 ac ff 03       	call   7d229b0 <pthread_mutex_lock@plt>
 3d27d67:	e9 54 ac ff 03       	jmp    7d229c0 <pthread_mutex_unlock@plt>
 3d283c5:	e8 e6 a5 ff 03       	call   7d229b0 <pthread_mutex_lock@plt>
 3d2841d:	e8 9e a5 ff 03       	call   7d229c0 <pthread_mutex_unlock@plt>
 3d296ee:	e8 bd 92 ff 03       	call   7d229b0 <pthread_mutex_lock@plt>
 3d29855:	e8 66 91 ff 03       	call   7d229c0 <pthread_mutex_unlock@plt>
 3d29ec8:	e8 e3 8a ff 03       	call   7d229b0 <pthread_mutex_lock@plt>
 3d2a5cf:	e9 ec 83 ff 03       	jmp    7d229c0 <pthread_mutex_unlock@plt>
 3d2ac11:	e8 aa 7d ff 03       	call   7d229c0 <pthread_mutex_unlock@plt>
 3d2b678:	e8 33 73 ff 03       	call   7d229b0 <pthread_mutex_lock@plt>
 3d2b72e:	e8 8d 72 ff 03       	call   7d229c0 <pthread_mutex_unlock@plt>
 3d2c22a:	e8 91 68 ff 03       	call   7d22ac0 <pthread_once@plt>
 3d2f27b:	e8 40 38 ff 03       	call   7d22ac0 <pthread_once@plt>
 3d3020a:	e8 a1 27 ff 03       	call   7d229b0 <pthread_mutex_lock@plt>
 3d3035a:	e8 61 26 ff 03       	call   7d229c0 <pthread_mutex_unlock@plt>
 3d3059a:	e8 11 24 ff 03       	call   7d229b0 <pthread_mutex_lock@plt>
 3d305d3:	e8 e8 23 ff 03       	call   7d229c0 <pthread_mutex_unlock@plt>
 3d307ac:	e8 ff 21 ff 03       	call   7d229b0 <pthread_mutex_lock@plt>
 3d3084a:	e8 61 21 ff 03       	call   7d229b0 <pthread_mutex_lock@plt>
 3d30863:	e8 58 21 ff 03       	call   7d229c0 <pthread_mutex_unlock@plt>
 3d3086b:	e8 50 21 ff 03       	call   7d229c0 <pthread_mutex_unlock@plt>
 3d30956:	e8 55 20 ff 03       	call   7d229b0 <pthread_mutex_lock@plt>
 3d309da:	e8 e1 1f ff 03       	call   7d229c0 <pthread_mutex_unlock@plt>
 3d30b5d:	e8 4e 1e ff 03       	call   7d229b0 <pthread_mutex_lock@plt>
 3d30c8c:	e8 2f 1d ff 03       	call   7d229c0 <pthread_mutex_unlock@plt>
 3d30ca7:	e8 04 1d ff 03       	call   7d229b0 <pthread_mutex_lock@plt>
 3d30d30:	e9 8b 1c ff 03       	jmp    7d229c0 <pthread_mutex_unlock@plt>
 3d30e44:	e8 67 1b ff 03       	call   7d229b0 <pthread_mutex_lock@plt>
 3d31020:	e9 9b 19 ff 03       	jmp    7d229c0 <pthread_mutex_unlock@plt>
 3d31375:	e8 36 16 ff 03       	call   7d229b0 <pthread_mutex_lock@plt>
 3d313fb:	e8 c0 15 ff 03       	call   7d229c0 <pthread_mutex_unlock@plt>
 3d3147a:	e8 31 15 ff 03       	call   7d229b0 <pthread_mutex_lock@plt>
 3d314e8:	e8 d3 14 ff 03       	call   7d229c0 <pthread_mutex_unlock@plt>
 3d3190c:	e8 9f 10 ff 03       	call   7d229b0 <pthread_mutex_lock@plt>
 3d31973:	e8 38 10 ff 03       	call   7d229b0 <pthread_mutex_lock@plt>
 3d31994:	e8 27 10 ff 03       	call   7d229c0 <pthread_mutex_unlock@plt>
 3d3199c:	e8 1f 10 ff 03       	call   7d229c0 <pthread_mutex_unlock@plt>
 3d319cd:	e8 de 0f ff 03       	call   7d229b0 <pthread_mutex_lock@plt>
 3d319fe:	e8 bd 0f ff 03       	call   7d229c0 <pthread_mutex_unlock@plt>
 3d31a64:	e8 47 0f ff 03       	call   7d229b0 <pthread_mutex_lock@plt>
 3d31a80:	e8 3b 0f ff 03       	call   7d229c0 <pthread_mutex_unlock@plt>
 3d31b43:	e8 78 0e ff 03       	call   7d229c0 <pthread_mutex_unlock@plt>
 3d31baf:	e8 fc 0d ff 03       	call   7d229b0 <pthread_mutex_lock@plt>
 3d31c4a:	e8 71 0d ff 03       	call   7d229c0 <pthread_mutex_unlock@plt>
 3d31c8d:	e8 1e 0d ff 03       	call   7d229b0 <pthread_mutex_lock@plt>
 3d31ca7:	e8 14 0d ff 03       	call   7d229c0 <pthread_mutex_unlock@plt>
 3d31caf:	e8 0c 0d ff 03       	call   7d229c0 <pthread_mutex_unlock@plt>
 3d31d3f:	e8 6c 0c ff 03       	call   7d229b0 <pthread_mutex_lock@plt>
 3d31dc3:	e8 f8 0b ff 03       	call   7d229c0 <pthread_mutex_unlock@plt>
 3d32352:	e8 59 06 ff 03       	call   7d229b0 <pthread_mutex_lock@plt>
 3d323f5:	e8 c6 05 ff 03       	call   7d229c0 <pthread_mutex_unlock@plt>
 3d3295c:	e8 4f 00 ff 03       	call   7d229b0 <pthread_mutex_lock@plt>
 3d3297a:	e8 41 00 ff 03       	call   7d229c0 <pthread_mutex_unlock@plt>
 3d32f5a:	e8 61 fb fe 03       	call   7d22ac0 <pthread_once@plt>
 3d3350a:	e8 a1 f4 fe 03       	call   7d229b0 <pthread_mutex_lock@plt>
 3d3355a:	e8 61 f4 fe 03       	call   7d229c0 <pthread_mutex_unlock@plt>
 3d33963:	e8 48 f0 fe 03       	call   7d229b0 <pthread_mutex_lock@plt>
 3d339e6:	e8 c5 ef fe 03       	call   7d229b0 <pthread_mutex_lock@plt>
 3d33a6a:	e8 41 ef fe 03       	call   7d229b0 <pthread_mutex_lock@plt>
 3d33b01:	e8 aa ee fe 03       	call   7d229b0 <pthread_mutex_lock@plt>
 3d33b1d:	e8 9e ee fe 03       	call   7d229c0 <pthread_mutex_unlock@plt>
 3d33b33:	e8 88 ee fe 03       	call   7d229c0 <pthread_mutex_unlock@plt>
 3d33b3f:	e8 6c ee fe 03       	call   7d229b0 <pthread_mutex_lock@plt>
 3d33b66:	e9 55 ee fe 03       	jmp    7d229c0 <pthread_mutex_unlock@plt>
 3d33b6e:	e8 4d ee fe 03       	call   7d229c0 <pthread_mutex_unlock@plt>
 3d33b7b:	e8 30 ee fe 03       	call   7d229b0 <pthread_mutex_lock@plt>
 3d33b9a:	e8 21 ee fe 03       	call   7d229c0 <pthread_mutex_unlock@plt>
 3d33ba9:	e8 02 ee fe 03       	call   7d229b0 <pthread_mutex_lock@plt>
 3d33bca:	e8 e1 ed fe 03       	call   7d229b0 <pthread_mutex_lock@plt>
 3d33c43:	e8 78 ed fe 03       	call   7d229c0 <pthread_mutex_unlock@plt>
 3d33dca:	e8 e1 eb fe 03       	call   7d229b0 <pthread_mutex_lock@plt>
 3d33e37:	e8 84 eb fe 03       	call   7d229c0 <pthread_mutex_unlock@plt>
 3d33e43:	e8 68 eb fe 03       	call   7d229b0 <pthread_mutex_lock@plt>
 3d33e57:	e8 64 eb fe 03       	call   7d229c0 <pthread_mutex_unlock@plt>
 3d33ef0:	e8 bb ea fe 03       	call   7d229b0 <pthread_mutex_lock@plt>
 3d33f58:	e8 63 ea fe 03       	call   7d229c0 <pthread_mutex_unlock@plt>
 3d33fa2:	e8 09 ea fe 03       	call   7d229b0 <pthread_mutex_lock@plt>
 3d34010:	e8 ab e9 fe 03       	call   7d229c0 <pthread_mutex_unlock@plt>
 3d34034:	e8 77 e9 fe 03       	call   7d229b0 <pthread_mutex_lock@plt>
 3d340b4:	e8 f7 e8 fe 03       	call   7d229b0 <pthread_mutex_lock@plt>
 3d340d1:	e8 ea e8 fe 03       	call   7d229c0 <pthread_mutex_unlock@plt>
 3d340e3:	e8 d8 e8 fe 03       	call   7d229c0 <pthread_mutex_unlock@plt>
 3d340ef:	e8 bc e8 fe 03       	call   7d229b0 <pthread_mutex_lock@plt>
 3d34108:	e8 b3 e8 fe 03       	call   7d229c0 <pthread_mutex_unlock@plt>
 3d34141:	e8 7a e8 fe 03       	call   7d229c0 <pthread_mutex_unlock@plt>
 3d3414d:	e8 5e e8 fe 03       	call   7d229b0 <pthread_mutex_lock@plt>
 3d34163:	e8 58 e8 fe 03       	call   7d229c0 <pthread_mutex_unlock@plt>
 3d34173:	e8 38 e8 fe 03       	call   7d229b0 <pthread_mutex_lock@plt>
 3d34190:	e8 2b e8 fe 03       	call   7d229c0 <pthread_mutex_unlock@plt>
 3d341b2:	e8 f9 e7 fe 03       	call   7d229b0 <pthread_mutex_lock@plt>
 3d34234:	e8 87 e7 fe 03       	call   7d229c0 <pthread_mutex_unlock@plt>
 3d343f9:	e8 b2 e5 fe 03       	call   7d229b0 <pthread_mutex_lock@plt>
 3d34427:	e8 94 e5 fe 03       	call   7d229c0 <pthread_mutex_unlock@plt>
 3d3505a:	e8 61 d9 fe 03       	call   7d229c0 <pthread_mutex_unlock@plt>
 3d3556c:	e8 3f d4 fe 03       	call   7d229b0 <pthread_mutex_lock@plt>
 3d355fb:	e8 c0 d3 fe 03       	call   7d229c0 <pthread_mutex_unlock@plt>
 3d35e87:	e8 24 cb fe 03       	call   7d229b0 <pthread_mutex_lock@plt>
 3d363bc:	e8 ff c5 fe 03       	call   7d229c0 <pthread_mutex_unlock@plt>
 3d36938:	e8 73 c0 fe 03       	call   7d229b0 <pthread_mutex_lock@plt>
 3d36957:	e8 64 c0 fe 03       	call   7d229c0 <pthread_mutex_unlock@plt>
 3d369b7:	e8 f4 bf fe 03       	call   7d229b0 <pthread_mutex_lock@plt>
 3d369de:	e8 cd bf fe 03       	call   7d229b0 <pthread_mutex_lock@plt>
 3d369f8:	e8 b3 bf fe 03       	call   7d229b0 <pthread_mutex_lock@plt>
 3d36a1e:	e8 9d bf fe 03       	call   7d229c0 <pthread_mutex_unlock@plt>
 3d36a64:	e8 57 bf fe 03       	call   7d229c0 <pthread_mutex_unlock@plt>
 3d36a7a:	e8 41 bf fe 03       	call   7d229c0 <pthread_mutex_unlock@plt>
 3d36ae3:	e8 c8 be fe 03       	call   7d229b0 <pthread_mutex_lock@plt>
 3d36b02:	e8 b9 be fe 03       	call   7d229c0 <pthread_mutex_unlock@plt>
 3d36b37:	e8 74 be fe 03       	call   7d229b0 <pthread_mutex_lock@plt>
 3d36b6e:	e8 4d be fe 03       	call   7d229c0 <pthread_mutex_unlock@plt>
 3d36bd6:	e8 d5 bd fe 03       	call   7d229b0 <pthread_mutex_lock@plt>
 3d36c02:	e8 b9 bd fe 03       	call   7d229c0 <pthread_mutex_unlock@plt>
 3d36c0f:	e8 9c bd fe 03       	call   7d229b0 <pthread_mutex_lock@plt>
 3d36c75:	e8 46 bd fe 03       	call   7d229c0 <pthread_mutex_unlock@plt>
 3d36c9c:	e8 1f bd fe 03       	call   7d229c0 <pthread_mutex_unlock@plt>
 3d379ca:	e8 e1 af fe 03       	call   7d229b0 <pthread_mutex_lock@plt>
 3d37a1a:	e8 a1 af fe 03       	call   7d229c0 <pthread_mutex_unlock@plt>
 3d38975:	e8 46 a1 fe 03       	call   7d22ac0 <pthread_once@plt>
 3d3943e:	e8 6d 95 fe 03       	call   7d229b0 <pthread_mutex_lock@plt>
 3d39703:	e8 b8 92 fe 03       	call   7d229c0 <pthread_mutex_unlock@plt>
 3d3aa1c:	e8 9f 80 fe 03       	call   7d22ac0 <pthread_once@plt>
 3d3e3e6:	e8 d5 46 fe 03       	call   7d22ac0 <pthread_once@plt>
 3d3f26e:	e8 3d 37 fe 03       	call   7d229b0 <pthread_mutex_lock@plt>
 3d3f37b:	e8 40 36 fe 03       	call   7d229c0 <pthread_mutex_unlock@plt>
 3d3f5ed:	e8 ce 33 fe 03       	call   7d229c0 <pthread_mutex_unlock@plt>
 3d3fbb6:	e8 f5 2d fe 03       	call   7d229b0 <pthread_mutex_lock@plt>
 3d3fcd2:	e8 e9 2c fe 03       	call   7d229c0 <pthread_mutex_unlock@plt>
 3d40119:	e8 92 28 fe 03       	call   7d229b0 <pthread_mutex_lock@plt>
 3d4026c:	e8 4f 27 fe 03       	call   7d229c0 <pthread_mutex_unlock@plt>
 3d406a9:	e8 12 23 fe 03       	call   7d229c0 <pthread_mutex_unlock@plt>
 3d4126a:	e8 51 18 fe 03       	call   7d22ac0 <pthread_once@plt>
 3d41d31:	e8 8a 0d fe 03       	call   7d22ac0 <pthread_once@plt>
 3d424fc:	e8 bf 05 fe 03       	call   7d22ac0 <pthread_once@plt>
 3d42812:	e8 99 01 fe 03       	call   7d229b0 <pthread_mutex_lock@plt>
 3d42830:	e8 8b 01 fe 03       	call   7d229c0 <pthread_mutex_unlock@plt>
 3d43d9b:	e8 10 ec fd 03       	call   7d229b0 <pthread_mutex_lock@plt>
 3d43dbe:	e8 fd eb fd 03       	call   7d229c0 <pthread_mutex_unlock@plt>
 3d45620:	e8 9b d3 fd 03       	call   7d229c0 <pthread_mutex_unlock@plt>
 3d45c71:	e8 4a ce fd 03       	call   7d22ac0 <pthread_once@plt>
 3d474e6:	e8 d5 b5 fd 03       	call   7d22ac0 <pthread_once@plt>
 3d47877:	e8 34 b1 fd 03       	call   7d229b0 <pthread_mutex_lock@plt>
 3d47898:	e8 23 b1 fd 03       	call   7d229c0 <pthread_mutex_unlock@plt>
 3d479cd:	e8 de af fd 03       	call   7d229b0 <pthread_mutex_lock@plt>
 3d479ed:	e8 ce af fd 03       	call   7d229c0 <pthread_mutex_unlock@plt>
 3d47a1e:	e8 8d af fd 03       	call   7d229b0 <pthread_mutex_lock@plt>
 3d47a41:	e8 7a af fd 03       	call   7d229c0 <pthread_mutex_unlock@plt>
 3d47c60:	e8 4b ad fd 03       	call   7d229b0 <pthread_mutex_lock@plt>
 3d47c7b:	e8 40 ad fd 03       	call   7d229c0 <pthread_mutex_unlock@plt>
 3d47fdd:	e8 ce a9 fd 03       	call   7d229b0 <pthread_mutex_lock@plt>
 3d48004:	e8 b7 a9 fd 03       	call   7d229c0 <pthread_mutex_unlock@plt>
 3d48fd4:	e8 d7 99 fd 03       	call   7d229b0 <pthread_mutex_lock@plt>
 3d490cb:	e9 f0 98 fd 03       	jmp    7d229c0 <pthread_mutex_unlock@plt>
 3d49268:	e8 43 97 fd 03       	call   7d229b0 <pthread_mutex_lock@plt>
 3d492b6:	e8 05 97 fd 03       	call   7d229c0 <pthread_mutex_unlock@plt>
 3d49689:	e8 22 93 fd 03       	call   7d229b0 <pthread_mutex_lock@plt>
 3d496fd:	e8 be 92 fd 03       	call   7d229c0 <pthread_mutex_unlock@plt>
 3d49a3e:	e8 6d 8f fd 03       	call   7d229b0 <pthread_mutex_lock@plt>
 3d49ab6:	e8 05 8f fd 03       	call   7d229c0 <pthread_mutex_unlock@plt>
 3d4b36a:	e8 51 76 fd 03       	call   7d229c0 <pthread_mutex_unlock@plt>
 3d4b3aa:	e8 11 76 fd 03       	call   7d229c0 <pthread_mutex_unlock@plt>
 3d4b52e:	e8 8d 74 fd 03       	call   7d229c0 <pthread_mutex_unlock@plt>
 3d4d317:	e8 a4 57 fd 03       	call   7d22ac0 <pthread_once@plt>
 3d4e676:	e8 45 44 fd 03       	call   7d22ac0 <pthread_once@plt>
 3d5f2cb:	e8 f0 37 fc 03       	call   7d22ac0 <pthread_once@plt>
 3d6136e:	e8 3d 16 fc 03       	call   7d229b0 <pthread_mutex_lock@plt>
 3d61398:	e8 13 16 fc 03       	call   7d229b0 <pthread_mutex_lock@plt>
 3d613f8:	e8 c3 15 fc 03       	call   7d229c0 <pthread_mutex_unlock@plt>
 3d61403:	e8 b8 15 fc 03       	call   7d229c0 <pthread_mutex_unlock@plt>
 3d61412:	e8 99 15 fc 03       	call   7d229b0 <pthread_mutex_lock@plt>
 3d61427:	e8 94 15 fc 03       	call   7d229c0 <pthread_mutex_unlock@plt>
 3d6143d:	e9 7e 15 fc 03       	jmp    7d229c0 <pthread_mutex_unlock@plt>
 3d6147e:	e8 2d 15 fc 03       	call   7d229b0 <pthread_mutex_lock@plt>
 3d614a8:	e8 03 15 fc 03       	call   7d229b0 <pthread_mutex_lock@plt>
 3d61508:	e8 b3 14 fc 03       	call   7d229c0 <pthread_mutex_unlock@plt>
 3d61513:	e8 a8 14 fc 03       	call   7d229c0 <pthread_mutex_unlock@plt>
 3d61522:	e8 89 14 fc 03       	call   7d229b0 <pthread_mutex_lock@plt>
 3d61537:	e8 84 14 fc 03       	call   7d229c0 <pthread_mutex_unlock@plt>
 3d6154d:	e9 6e 14 fc 03       	jmp    7d229c0 <pthread_mutex_unlock@plt>
 3d6158e:	e8 1d 14 fc 03       	call   7d229b0 <pthread_mutex_lock@plt>
 3d615b8:	e8 f3 13 fc 03       	call   7d229b0 <pthread_mutex_lock@plt>
 3d61618:	e8 a3 13 fc 03       	call   7d229c0 <pthread_mutex_unlock@plt>
 3d61623:	e8 98 13 fc 03       	call   7d229c0 <pthread_mutex_unlock@plt>
 3d61632:	e8 79 13 fc 03       	call   7d229b0 <pthread_mutex_lock@plt>
 3d61647:	e8 74 13 fc 03       	call   7d229c0 <pthread_mutex_unlock@plt>
 3d6165d:	e9 5e 13 fc 03       	jmp    7d229c0 <pthread_mutex_unlock@plt>
 3d6169e:	e8 0d 13 fc 03       	call   7d229b0 <pthread_mutex_lock@plt>
 3d616c8:	e8 e3 12 fc 03       	call   7d229b0 <pthread_mutex_lock@plt>
 3d61728:	e8 93 12 fc 03       	call   7d229c0 <pthread_mutex_unlock@plt>
 3d61733:	e8 88 12 fc 03       	call   7d229c0 <pthread_mutex_unlock@plt>
 3d61742:	e8 69 12 fc 03       	call   7d229b0 <pthread_mutex_lock@plt>
 3d61757:	e8 64 12 fc 03       	call   7d229c0 <pthread_mutex_unlock@plt>
 3d6176d:	e9 4e 12 fc 03       	jmp    7d229c0 <pthread_mutex_unlock@plt>
 3d617ae:	e8 fd 11 fc 03       	call   7d229b0 <pthread_mutex_lock@plt>
 3d617d8:	e8 d3 11 fc 03       	call   7d229b0 <pthread_mutex_lock@plt>
 3d61838:	e8 83 11 fc 03       	call   7d229c0 <pthread_mutex_unlock@plt>
 3d61843:	e8 78 11 fc 03       	call   7d229c0 <pthread_mutex_unlock@plt>
 3d61852:	e8 59 11 fc 03       	call   7d229b0 <pthread_mutex_lock@plt>
 3d61867:	e8 54 11 fc 03       	call   7d229c0 <pthread_mutex_unlock@plt>
 3d6187d:	e9 3e 11 fc 03       	jmp    7d229c0 <pthread_mutex_unlock@plt>
 3d618c9:	e8 e2 10 fc 03       	call   7d229b0 <pthread_mutex_lock@plt>
 3d618e4:	e8 d7 10 fc 03       	call   7d229c0 <pthread_mutex_unlock@plt>
 3d6194b:	e8 60 10 fc 03       	call   7d229b0 <pthread_mutex_lock@plt>
 3d619ae:	e9 0d 10 fc 03       	jmp    7d229c0 <pthread_mutex_unlock@plt>
 3d619fb:	e8 b0 0f fc 03       	call   7d229b0 <pthread_mutex_lock@plt>
 3d61a5e:	e9 5d 0f fc 03       	jmp    7d229c0 <pthread_mutex_unlock@plt>
 3d61ab0:	e8 fb 0e fc 03       	call   7d229b0 <pthread_mutex_lock@plt>
 3d61b11:	e8 aa 0e fc 03       	call   7d229c0 <pthread_mutex_unlock@plt>
 3d61dd0:	e8 db 0b fc 03       	call   7d229b0 <pthread_mutex_lock@plt>
 3d61e09:	e8 a2 0b fc 03       	call   7d229b0 <pthread_mutex_lock@plt>
 3d61e74:	e8 47 0b fc 03       	call   7d229c0 <pthread_mutex_unlock@plt>
 3d61f23:	e8 98 0a fc 03       	call   7d229c0 <pthread_mutex_unlock@plt>
 3d61f32:	e8 79 0a fc 03       	call   7d229b0 <pthread_mutex_lock@plt>
 3d61f47:	e8 74 0a fc 03       	call   7d229c0 <pthread_mutex_unlock@plt>
 3d61f57:	e8 64 0a fc 03       	call   7d229c0 <pthread_mutex_unlock@plt>
 3d6206b:	e8 40 09 fc 03       	call   7d229b0 <pthread_mutex_lock@plt>
 3d620ad:	e8 0e 09 fc 03       	call   7d229c0 <pthread_mutex_unlock@plt>
 3d620ea:	e8 c1 08 fc 03       	call   7d229b0 <pthread_mutex_lock@plt>
 3d621f3:	e8 b8 07 fc 03       	call   7d229b0 <pthread_mutex_lock@plt>
 3d6223b:	e8 80 07 fc 03       	call   7d229c0 <pthread_mutex_unlock@plt>
 3d622b8:	e8 03 07 fc 03       	call   7d229c0 <pthread_mutex_unlock@plt>
 3d62458:	e8 63 05 fc 03       	call   7d229c0 <pthread_mutex_unlock@plt>
 3d627ac:	e8 ff 01 fc 03       	call   7d229b0 <pthread_mutex_lock@plt>
 3d627f0:	e9 cb 01 fc 03       	jmp    7d229c0 <pthread_mutex_unlock@plt>
 3d62a0e:	e8 9d ff fb 03       	call   7d229b0 <pthread_mutex_lock@plt>
 3d62a58:	e8 53 ff fb 03       	call   7d229b0 <pthread_mutex_lock@plt>
 3d62b2d:	e9 8e fe fb 03       	jmp    7d229c0 <pthread_mutex_unlock@plt>
 3d62beb:	e8 d0 fd fb 03       	call   7d229c0 <pthread_mutex_unlock@plt>
 3d62c01:	e8 aa fd fb 03       	call   7d229b0 <pthread_mutex_lock@plt>
 3d62c2f:	e8 8c fd fb 03       	call   7d229c0 <pthread_mutex_unlock@plt>
 3d62c37:	e8 84 fd fb 03       	call   7d229c0 <pthread_mutex_unlock@plt>
 3d6310c:	e8 af f8 fb 03       	call   7d229c0 <pthread_mutex_unlock@plt>
 3d63140:	e8 7b f8 fb 03       	call   7d229c0 <pthread_mutex_unlock@plt>
 3d63174:	e8 47 f8 fb 03       	call   7d229c0 <pthread_mutex_unlock@plt>
 3d631ba:	e8 01 f8 fb 03       	call   7d229c0 <pthread_mutex_unlock@plt>
 3d63208:	e8 b3 f7 fb 03       	call   7d229c0 <pthread_mutex_unlock@plt>
 3d772ba:	e8 01 b8 fa 03       	call   7d22ac0 <pthread_once@plt>
 3d79b6a:	e8 51 8f fa 03       	call   7d22ac0 <pthread_once@plt>
 3d7aeba:	e8 01 7c fa 03       	call   7d22ac0 <pthread_once@plt>
 3d7b5ba:	e8 f1 73 fa 03       	call   7d229b0 <pthread_mutex_lock@plt>
 3d7b60a:	e8 b1 73 fa 03       	call   7d229c0 <pthread_mutex_unlock@plt>
 3d7de2a:	e8 91 4c fa 03       	call   7d22ac0 <pthread_once@plt>
 3d7eeb9:	e8 02 3c fa 03       	call   7d22ac0 <pthread_once@plt>
 3d7f30a:	e8 a1 36 fa 03       	call   7d229b0 <pthread_mutex_lock@plt>
 3d7f44a:	e8 71 35 fa 03       	call   7d229c0 <pthread_mutex_unlock@plt>
 3d8df1f:	e8 9c 4b f9 03       	call   7d22ac0 <pthread_once@plt>
 3d95492:	e8 29 d6 f8 03       	call   7d22ac0 <pthread_once@plt>
 3d97c8a:	e8 31 ae f8 03       	call   7d22ac0 <pthread_once@plt>
 3d9815a:	e8 51 a8 f8 03       	call   7d229b0 <pthread_mutex_lock@plt>
 3d981aa:	e8 11 a8 f8 03       	call   7d229c0 <pthread_mutex_unlock@plt>
 3d997cb:	e8 e0 91 f8 03       	call   7d229b0 <pthread_mutex_lock@plt>
 3d99a99:	e8 22 8f f8 03       	call   7d229c0 <pthread_mutex_unlock@plt>
 3d9c2df:	e8 dc 67 f8 03       	call   7d22ac0 <pthread_once@plt>
 3d9ed6c:	e8 3f 3c f8 03       	call   7d229b0 <pthread_mutex_lock@plt>
 3d9edb5:	e8 06 3c f8 03       	call   7d229c0 <pthread_mutex_unlock@plt>
 3d9ee7a:	e8 41 3b f8 03       	call   7d229c0 <pthread_mutex_unlock@plt>
 3da04f3:	e8 c8 24 f8 03       	call   7d229c0 <pthread_mutex_unlock@plt>
 3da141e:	e8 9d 16 f8 03       	call   7d22ac0 <pthread_once@plt>
 3da1eba:	e8 f1 0a f8 03       	call   7d229b0 <pthread_mutex_lock@plt>
 3da1f0a:	e8 b1 0a f8 03       	call   7d229c0 <pthread_mutex_unlock@plt>
 3da4589:	e8 22 e4 f7 03       	call   7d229b0 <pthread_mutex_lock@plt>
 3da45fb:	e8 c0 e3 f7 03       	call   7d229c0 <pthread_mutex_unlock@plt>
 3da6d1e:	e8 8d bc f7 03       	call   7d229b0 <pthread_mutex_lock@plt>
 3da6e2b:	e8 90 bb f7 03       	call   7d229c0 <pthread_mutex_unlock@plt>
 3da700b:	e8 b0 b9 f7 03       	call   7d229c0 <pthread_mutex_unlock@plt>
 3da776e:	e8 4d b3 f7 03       	call   7d22ac0 <pthread_once@plt>
 3da904a:	e8 71 9a f7 03       	call   7d22ac0 <pthread_once@plt>
 3dac92a:	e8 91 61 f7 03       	call   7d22ac0 <pthread_once@plt>
 3dacdfa:	e8 b1 5b f7 03       	call   7d229b0 <pthread_mutex_lock@plt>
 3dace4a:	e8 71 5b f7 03       	call   7d229c0 <pthread_mutex_unlock@plt>
 3dadac3:	e8 f8 4f f7 03       	call   7d22ac0 <pthread_once@plt>
 3dae6da:	e8 d1 42 f7 03       	call   7d229b0 <pthread_mutex_lock@plt>
 3dae99c:	e8 1f 40 f7 03       	call   7d229c0 <pthread_mutex_unlock@plt>
 3daf163:	e8 58 39 f7 03       	call   7d22ac0 <pthread_once@plt>
 3db19dd:	e8 de 10 f7 03       	call   7d22ac0 <pthread_once@plt>
 3db2788:	e8 33 03 f7 03       	call   7d22ac0 <pthread_once@plt>
 3db38da:	e8 e1 f1 f6 03       	call   7d22ac0 <pthread_once@plt>
 3db70b2:	e8 09 ba f6 03       	call   7d22ac0 <pthread_once@plt>
 3db745a:	e8 51 b5 f6 03       	call   7d229b0 <pthread_mutex_lock@plt>
 3db74aa:	e8 11 b5 f6 03       	call   7d229c0 <pthread_mutex_unlock@plt>
 3db9c7e:	e8 3d 8e f6 03       	call   7d22ac0 <pthread_once@plt>
 3dbd244:	e8 77 58 f6 03       	call   7d22ac0 <pthread_once@plt>
 3dbdc8a:	e8 21 4d f6 03       	call   7d229b0 <pthread_mutex_lock@plt>
 3dbdcda:	e8 e1 4c f6 03       	call   7d229c0 <pthread_mutex_unlock@plt>
 3dbfa8c:	e8 2f 30 f6 03       	call   7d22ac0 <pthread_once@plt>
 3dc036a:	e8 41 26 f6 03       	call   7d229b0 <pthread_mutex_lock@plt>
 3dc03ba:	e8 01 26 f6 03       	call   7d229c0 <pthread_mutex_unlock@plt>
 3dc138e:	e8 1d 16 f6 03       	call   7d229b0 <pthread_mutex_lock@plt>
 3dc1515:	e8 a6 14 f6 03       	call   7d229c0 <pthread_mutex_unlock@plt>
 3dc96ea:	e8 c1 92 f5 03       	call   7d229b0 <pthread_mutex_lock@plt>
 3dc9df2:	e8 c9 8b f5 03       	call   7d229c0 <pthread_mutex_unlock@plt>
 3dcacc4:	e8 f7 7c f5 03       	call   7d229c0 <pthread_mutex_unlock@plt>
 3dd253f:	e8 7c 05 f5 03       	call   7d22ac0 <pthread_once@plt>
 3dd350b:	e8 a0 f4 f4 03       	call   7d229b0 <pthread_mutex_lock@plt>
 3dd3742:	e8 79 f2 f4 03       	call   7d229c0 <pthread_mutex_unlock@plt>
 3dd42d4:	e8 e7 e6 f4 03       	call   7d229c0 <pthread_mutex_unlock@plt>
 3dd4b3f:	e8 7c df f4 03       	call   7d22ac0 <pthread_once@plt>
 3dd510a:	e8 a1 d8 f4 03       	call   7d229b0 <pthread_mutex_lock@plt>
 3dd515a:	e8 61 d8 f4 03       	call   7d229c0 <pthread_mutex_unlock@plt>
 3dd791c:	e8 9f b1 f4 03       	call   7d22ac0 <pthread_once@plt>
 3dd9150:	e8 6b 99 f4 03       	call   7d22ac0 <pthread_once@plt>
 3dd983a:	e8 71 91 f4 03       	call   7d229b0 <pthread_mutex_lock@plt>
 3dd997a:	e8 41 90 f4 03       	call   7d229c0 <pthread_mutex_unlock@plt>
 3ddef58:	e8 63 3b f4 03       	call   7d22ac0 <pthread_once@plt>
 3ddf81a:	e8 91 31 f4 03       	call   7d229b0 <pthread_mutex_lock@plt>
 3ddf86a:	e8 51 31 f4 03       	call   7d229c0 <pthread_mutex_unlock@plt>
 3de60e4:	e8 d7 c9 f3 03       	call   7d22ac0 <pthread_once@plt>
 3de7ad6:	e8 e5 af f3 03       	call   7d22ac0 <pthread_once@plt>
 3deb74c:	e8 6f 73 f3 03       	call   7d22ac0 <pthread_once@plt>
 3dece0a:	e8 a1 5b f3 03       	call   7d229b0 <pthread_mutex_lock@plt>
 3dece5a:	e8 61 5b f3 03       	call   7d229c0 <pthread_mutex_unlock@plt>
 3dee173:	e8 48 49 f3 03       	call   7d22ac0 <pthread_once@plt>
 3dee253:	e8 68 48 f3 03       	call   7d22ac0 <pthread_once@plt>
 3df7745:	e9 76 b2 f2 03       	jmp    7d229c0 <pthread_mutex_unlock@plt>
 3df77e9:	e9 d2 b1 f2 03       	jmp    7d229c0 <pthread_mutex_unlock@plt>
 3df78ab:	e8 00 b1 f2 03       	call   7d229b0 <pthread_mutex_lock@plt>
 3df7ba6:	e8 05 ae f2 03       	call   7d229b0 <pthread_mutex_lock@plt>
 3e1bc76:	e8 45 6e f0 03       	call   7d22ac0 <pthread_once@plt>
 3e1e3af:	e8 0c 47 f0 03       	call   7d22ac0 <pthread_once@plt>
 3e233cb:	e8 f0 f6 ef 03       	call   7d22ac0 <pthread_once@plt>
 3e299f3:	e8 c8 90 ef 03       	call   7d22ac0 <pthread_once@plt>
 3e2a21a:	e8 a1 87 ef 03       	call   7d229c0 <pthread_mutex_unlock@plt>
 3e2a5fe:	e8 ad 83 ef 03       	call   7d229b0 <pthread_mutex_lock@plt>
 3e2a640:	e8 7b 83 ef 03       	call   7d229c0 <pthread_mutex_unlock@plt>
 3e2a67a:	e8 31 83 ef 03       	call   7d229b0 <pthread_mutex_lock@plt>
 3e2a9be:	e8 ed 7f ef 03       	call   7d229b0 <pthread_mutex_lock@plt>
 3e2aa17:	e8 a4 7f ef 03       	call   7d229c0 <pthread_mutex_unlock@plt>
 3e2bae3:	e8 c8 6e ef 03       	call   7d229b0 <pthread_mutex_lock@plt>
 3e2baf8:	e8 c3 6e ef 03       	call   7d229c0 <pthread_mutex_unlock@plt>
 3e2bb00:	e8 ab 6e ef 03       	call   7d229b0 <pthread_mutex_lock@plt>
 3e2bb14:	e8 a7 6e ef 03       	call   7d229c0 <pthread_mutex_unlock@plt>
 3e2bc1b:	e8 90 6d ef 03       	call   7d229b0 <pthread_mutex_lock@plt>
 3e2bd63:	e8 58 6c ef 03       	call   7d229c0 <pthread_mutex_unlock@plt>
 3e324b4:	e8 f7 04 ef 03       	call   7d229b0 <pthread_mutex_lock@plt>
 3e32518:	e8 a3 04 ef 03       	call   7d229c0 <pthread_mutex_unlock@plt>
 3e344de:	e8 dd e5 ee 03       	call   7d22ac0 <pthread_once@plt>
 3e3541c:	e8 9f d5 ee 03       	call   7d229c0 <pthread_mutex_unlock@plt>
 3e38b25:	e8 96 9f ee 03       	call   7d22ac0 <pthread_once@plt>
 3e3c9b8:	e8 03 61 ee 03       	call   7d22ac0 <pthread_once@plt>
 3e3d333:	e8 88 56 ee 03       	call   7d229c0 <pthread_mutex_unlock@plt>
 3e3d90f:	e8 9c 50 ee 03       	call   7d229b0 <pthread_mutex_lock@plt>
 3e3dd70:	e9 4b 4c ee 03       	jmp    7d229c0 <pthread_mutex_unlock@plt>
 3e3de7e:	e8 2d 4b ee 03       	call   7d229b0 <pthread_mutex_lock@plt>
 3e3de9e:	e8 1d 4b ee 03       	call   7d229c0 <pthread_mutex_unlock@plt>
 3e3e35c:	e8 4f 46 ee 03       	call   7d229b0 <pthread_mutex_lock@plt>
 3e3e3d2:	e9 e9 45 ee 03       	jmp    7d229c0 <pthread_mutex_unlock@plt>
 3e3e46d:	e8 4e 45 ee 03       	call   7d229c0 <pthread_mutex_unlock@plt>
 3e3e4a3:	e8 18 45 ee 03       	call   7d229c0 <pthread_mutex_unlock@plt>
 3e3fc7b:	e8 30 2d ee 03       	call   7d229b0 <pthread_mutex_lock@plt>
 3e3fc9d:	e8 1e 2d ee 03       	call   7d229c0 <pthread_mutex_unlock@plt>
 3e4026f:	e8 4c 27 ee 03       	call   7d229c0 <pthread_mutex_unlock@plt>
 3e40763:	e8 58 22 ee 03       	call   7d229c0 <pthread_mutex_unlock@plt>
 3e4093c:	e8 7f 20 ee 03       	call   7d229c0 <pthread_mutex_unlock@plt>
 3e40ec8:	e8 f3 1a ee 03       	call   7d229c0 <pthread_mutex_unlock@plt>
 3e40fbd:	e8 fe 19 ee 03       	call   7d229c0 <pthread_mutex_unlock@plt>
 3e413d9:	e8 e2 15 ee 03       	call   7d229c0 <pthread_mutex_unlock@plt>
 3e416fe:	e8 bd 12 ee 03       	call   7d229c0 <pthread_mutex_unlock@plt>
 3e43ed5:	e8 e6 ea ed 03       	call   7d229c0 <pthread_mutex_unlock@plt>
 3e455a1:	e8 1a d4 ed 03       	call   7d229c0 <pthread_mutex_unlock@plt>
 3e45698:	e8 23 d3 ed 03       	call   7d229c0 <pthread_mutex_unlock@plt>
 3e46a46:	e8 75 bf ed 03       	call   7d229c0 <pthread_mutex_unlock@plt>
 3e475c2:	e8 e9 b3 ed 03       	call   7d229b0 <pthread_mutex_lock@plt>
 3e47677:	e8 44 b3 ed 03       	call   7d229c0 <pthread_mutex_unlock@plt>
 3e477c1:	e8 fa b1 ed 03       	call   7d229c0 <pthread_mutex_unlock@plt>
 3e486a6:	e8 15 a3 ed 03       	call   7d229c0 <pthread_mutex_unlock@plt>
 3e486f8:	e8 c3 a2 ed 03       	call   7d229c0 <pthread_mutex_unlock@plt>
 3e48700:	e8 ab a2 ed 03       	call   7d229b0 <pthread_mutex_lock@plt>
 3e48833:	e8 88 a1 ed 03       	call   7d229c0 <pthread_mutex_unlock@plt>
 3e4911d:	e8 8e 98 ed 03       	call   7d229b0 <pthread_mutex_lock@plt>
 3e49177:	e8 44 98 ed 03       	call   7d229c0 <pthread_mutex_unlock@plt>
 3e49757:	e8 64 92 ed 03       	call   7d229c0 <pthread_mutex_unlock@plt>
 3e49ae8:	e8 d3 8e ed 03       	call   7d229c0 <pthread_mutex_unlock@plt>
 3e4a04d:	e8 6e 89 ed 03       	call   7d229c0 <pthread_mutex_unlock@plt>
 3e4a14a:	e8 71 88 ed 03       	call   7d229c0 <pthread_mutex_unlock@plt>
 3e4a346:	e8 75 86 ed 03       	call   7d229c0 <pthread_mutex_unlock@plt>
 3e4b212:	e8 a9 77 ed 03       	call   7d229c0 <pthread_mutex_unlock@plt>
 3e4e6e0:	e8 db 42 ed 03       	call   7d229c0 <pthread_mutex_unlock@plt>
 3e4eacc:	e8 ef 3e ed 03       	call   7d229c0 <pthread_mutex_unlock@plt>
 3e507d3:	e8 e8 21 ed 03       	call   7d229c0 <pthread_mutex_unlock@plt>
 3e50cd2:	e8 e9 1c ed 03       	call   7d229c0 <pthread_mutex_unlock@plt>
 3e50e17:	e8 a4 1b ed 03       	call   7d229c0 <pthread_mutex_unlock@plt>
 3e50edf:	e8 dc 1a ed 03       	call   7d229c0 <pthread_mutex_unlock@plt>
 3e50ee7:	e8 c4 1a ed 03       	call   7d229b0 <pthread_mutex_lock@plt>
 3e50f7b:	e8 40 1a ed 03       	call   7d229c0 <pthread_mutex_unlock@plt>
 3e51034:	e8 87 19 ed 03       	call   7d229c0 <pthread_mutex_unlock@plt>
 3e5163e:	e8 7d 13 ed 03       	call   7d229c0 <pthread_mutex_unlock@plt>
 3e51ead:	e8 0e 0b ed 03       	call   7d229c0 <pthread_mutex_unlock@plt>
 3e51ef1:	e8 ca 0a ed 03       	call   7d229c0 <pthread_mutex_unlock@plt>
 3e5203c:	e8 7f 09 ed 03       	call   7d229c0 <pthread_mutex_unlock@plt>
 3e521aa:	e8 11 08 ed 03       	call   7d229c0 <pthread_mutex_unlock@plt>
 3e521dd:	e8 de 07 ed 03       	call   7d229c0 <pthread_mutex_unlock@plt>
 3e523cf:	e8 ec 05 ed 03       	call   7d229c0 <pthread_mutex_unlock@plt>
 3e52432:	e8 89 05 ed 03       	call   7d229c0 <pthread_mutex_unlock@plt>
 3e52663:	e8 58 03 ed 03       	call   7d229c0 <pthread_mutex_unlock@plt>
 3e52694:	e8 27 03 ed 03       	call   7d229c0 <pthread_mutex_unlock@plt>
 3e5278e:	e8 2d 02 ed 03       	call   7d229c0 <pthread_mutex_unlock@plt>
 3e527e9:	e8 d2 01 ed 03       	call   7d229c0 <pthread_mutex_unlock@plt>
 3e529df:	e8 dc ff ec 03       	call   7d229c0 <pthread_mutex_unlock@plt>
 3e54170:	e8 4b e9 ec 03       	call   7d22ac0 <pthread_once@plt>
 3e5adfa:	e8 b1 7b ec 03       	call   7d229b0 <pthread_mutex_lock@plt>
 3e646bc:	e8 ef e2 eb 03       	call   7d229b0 <pthread_mutex_lock@plt>
 3e66ea6:	e8 15 bc eb 03       	call   7d22ac0 <pthread_once@plt>
 3e68ac6:	e8 f5 9f eb 03       	call   7d22ac0 <pthread_once@plt>
 3e68c27:	e8 94 9e eb 03       	call   7d22ac0 <pthread_once@plt>
 3e68f9c:	e8 1f 9b eb 03       	call   7d22ac0 <pthread_once@plt>
 3e691e6:	e8 d5 98 eb 03       	call   7d22ac0 <pthread_once@plt>
 3e698ad:	e8 0e 92 eb 03       	call   7d22ac0 <pthread_once@plt>
 3e6b89e:	e8 1d 72 eb 03       	call   7d22ac0 <pthread_once@plt>
 3e6d2cd:	e8 ee 57 eb 03       	call   7d22ac0 <pthread_once@plt>
 3e6f2a3:	e8 08 37 eb 03       	call   7d229b0 <pthread_mutex_lock@plt>
 3e6f2ff:	e9 bc 36 eb 03       	jmp    7d229c0 <pthread_mutex_unlock@plt>
 3e73294:	e8 27 f7 ea 03       	call   7d229c0 <pthread_mutex_unlock@plt>
 3e781c7:	e8 f4 a8 ea 03       	call   7d22ac0 <pthread_once@plt>
 3e7a20a:	e8 b1 88 ea 03       	call   7d22ac0 <pthread_once@plt>
 3e7f983:	e8 38 31 ea 03       	call   7d22ac0 <pthread_once@plt>
 3e8037a:	e8 31 26 ea 03       	call   7d229b0 <pthread_mutex_lock@plt>
 3e804ba:	e8 01 25 ea 03       	call   7d229c0 <pthread_mutex_unlock@plt>
 3e8ab59:	e8 62 7f e9 03       	call   7d22ac0 <pthread_once@plt>
 3e9b67a:	e8 41 74 e8 03       	call   7d22ac0 <pthread_once@plt>
 3e9cffa:	e8 c1 5a e8 03       	call   7d22ac0 <pthread_once@plt>
 3e9d8ca:	e8 e1 50 e8 03       	call   7d229b0 <pthread_mutex_lock@plt>
 3e9d91a:	e8 a1 50 e8 03       	call   7d229c0 <pthread_mutex_unlock@plt>
 3ea05c8:	e8 f3 24 e8 03       	call   7d22ac0 <pthread_once@plt>
 3ea1d26:	e8 95 0d e8 03       	call   7d22ac0 <pthread_once@plt>
 3ea1dcf:	e8 ec 0c e8 03       	call   7d22ac0 <pthread_once@plt>
 3ea1e78:	e8 43 0c e8 03       	call   7d22ac0 <pthread_once@plt>
 3ea269b:	e8 20 04 e8 03       	call   7d22ac0 <pthread_once@plt>
 3ea4192:	e8 29 e9 e7 03       	call   7d22ac0 <pthread_once@plt>
 3ea620a:	e8 b1 c8 e7 03       	call   7d22ac0 <pthread_once@plt>
 3ea7f4a:	e8 71 ab e7 03       	call   7d22ac0 <pthread_once@plt>
 3eab59a:	e8 21 75 e7 03       	call   7d22ac0 <pthread_once@plt>
 3eafe85:	e8 36 2c e7 03       	call   7d22ac0 <pthread_once@plt>
 3eb2769:	e8 52 03 e7 03       	call   7d22ac0 <pthread_once@plt>
 3eb5374:	e8 47 d7 e6 03       	call   7d22ac0 <pthread_once@plt>
 3eb9c5b:	e8 60 8e e6 03       	call   7d22ac0 <pthread_once@plt>
 3ec06fb:	e8 c0 23 e6 03       	call   7d22ac0 <pthread_once@plt>
 3ec0d3a:	e8 71 1c e6 03       	call   7d229b0 <pthread_mutex_lock@plt>
 3ec0d8a:	e8 31 1c e6 03       	call   7d229c0 <pthread_mutex_unlock@plt>
 3ec622c:	e8 7f c7 e5 03       	call   7d229b0 <pthread_mutex_lock@plt>
 3ec6372:	e8 49 c6 e5 03       	call   7d229c0 <pthread_mutex_unlock@plt>
 3ec959d:	e8 1e 94 e5 03       	call   7d229c0 <pthread_mutex_unlock@plt>
 3ecaa43:	e8 68 7f e5 03       	call   7d229b0 <pthread_mutex_lock@plt>
 3ecaa68:	e8 53 7f e5 03       	call   7d229c0 <pthread_mutex_unlock@plt>
 3ecaa78:	e8 33 7f e5 03       	call   7d229b0 <pthread_mutex_lock@plt>
 3ecaaa1:	e8 1a 7f e5 03       	call   7d229c0 <pthread_mutex_unlock@plt>
 3ecae94:	e8 17 7b e5 03       	call   7d229b0 <pthread_mutex_lock@plt>
 3ecaeab:	e8 10 7b e5 03       	call   7d229c0 <pthread_mutex_unlock@plt>
 3ececd1:	e8 da 3c e5 03       	call   7d229b0 <pthread_mutex_lock@plt>
 3eced24:	e9 97 3c e5 03       	jmp    7d229c0 <pthread_mutex_unlock@plt>
 3ecf6d2:	e8 d9 32 e5 03       	call   7d229b0 <pthread_mutex_lock@plt>
 3ecf7ca:	e8 f1 31 e5 03       	call   7d229c0 <pthread_mutex_unlock@plt>
 3ed0721:	e8 8a 22 e5 03       	call   7d229b0 <pthread_mutex_lock@plt>
 3ed0818:	e8 a3 21 e5 03       	call   7d229c0 <pthread_mutex_unlock@plt>
 3ed0af7:	e8 b4 1e e5 03       	call   7d229b0 <pthread_mutex_lock@plt>
 3ed0b2c:	e8 8f 1e e5 03       	call   7d229c0 <pthread_mutex_unlock@plt>
 3ed18c0:	e8 fb 10 e5 03       	call   7d229c0 <pthread_mutex_unlock@plt>
 3ed1a13:	e8 98 0f e5 03       	call   7d229b0 <pthread_mutex_lock@plt>
 3ed1a3a:	e8 81 0f e5 03       	call   7d229c0 <pthread_mutex_unlock@plt>
 3ed20ad:	e8 0e 09 e5 03       	call   7d229c0 <pthread_mutex_unlock@plt>
 3ed2cda:	e8 e1 fc e4 03       	call   7d229c0 <pthread_mutex_unlock@plt>
 3ed2d1a:	e8 91 fc e4 03       	call   7d229b0 <pthread_mutex_lock@plt>
 3ed49c1:	e8 fa df e4 03       	call   7d229c0 <pthread_mutex_unlock@plt>
 3ed4b8d:	e8 2e de e4 03       	call   7d229c0 <pthread_mutex_unlock@plt>
 3ed4c42:	e8 69 dd e4 03       	call   7d229b0 <pthread_mutex_lock@plt>
 3ed4c59:	e8 62 dd e4 03       	call   7d229c0 <pthread_mutex_unlock@plt>
 3ed4c83:	e8 28 dd e4 03       	call   7d229b0 <pthread_mutex_lock@plt>
 3ed4dee:	e8 cd db e4 03       	call   7d229c0 <pthread_mutex_unlock@plt>
 3ed75e7:	e9 d4 b3 e4 03       	jmp    7d229c0 <pthread_mutex_unlock@plt>
 3ed8ebb:	e8 00 9b e4 03       	call   7d229c0 <pthread_mutex_unlock@plt>
 3ed90fb:	e8 c0 98 e4 03       	call   7d229c0 <pthread_mutex_unlock@plt>
 3ed9630:	e8 8b 93 e4 03       	call   7d229c0 <pthread_mutex_unlock@plt>
 3edb5b5:	e8 f6 73 e4 03       	call   7d229b0 <pthread_mutex_lock@plt>
 3edb618:	e9 a3 73 e4 03       	jmp    7d229c0 <pthread_mutex_unlock@plt>
 3edcc81:	e9 3a 5d e4 03       	jmp    7d229c0 <pthread_mutex_unlock@plt>
 3edd9ab:	e8 10 50 e4 03       	call   7d229c0 <pthread_mutex_unlock@plt>
 3edda1b:	e8 a0 4f e4 03       	call   7d229c0 <pthread_mutex_unlock@plt>
 3ede8f0:	e8 cb 40 e4 03       	call   7d229c0 <pthread_mutex_unlock@plt>
 3ede921:	e8 9a 40 e4 03       	call   7d229c0 <pthread_mutex_unlock@plt>
 3eded25:	e8 86 3c e4 03       	call   7d229b0 <pthread_mutex_lock@plt>
 3eded3d:	e8 7e 3c e4 03       	call   7d229c0 <pthread_mutex_unlock@plt>
 3edf130:	e8 8b 38 e4 03       	call   7d229c0 <pthread_mutex_unlock@plt>
 3edf161:	e8 5a 38 e4 03       	call   7d229c0 <pthread_mutex_unlock@plt>
 3edf565:	e8 46 34 e4 03       	call   7d229b0 <pthread_mutex_lock@plt>
 3edf57d:	e8 3e 34 e4 03       	call   7d229c0 <pthread_mutex_unlock@plt>
 3ee176a:	e8 41 12 e4 03       	call   7d229b0 <pthread_mutex_lock@plt>
 3ee178c:	e8 2f 12 e4 03       	call   7d229c0 <pthread_mutex_unlock@plt>
 3ee25fa:	e8 b1 03 e4 03       	call   7d229b0 <pthread_mutex_lock@plt>
 3ee261c:	e8 9f 03 e4 03       	call   7d229c0 <pthread_mutex_unlock@plt>
 3ee3acf:	e8 dc ee e3 03       	call   7d229b0 <pthread_mutex_lock@plt>
 3ee3aea:	e8 d1 ee e3 03       	call   7d229c0 <pthread_mutex_unlock@plt>
 3ee3ce9:	e8 d2 ec e3 03       	call   7d229c0 <pthread_mutex_unlock@plt>
 3ee4204:	e8 b7 e7 e3 03       	call   7d229c0 <pthread_mutex_unlock@plt>
 3ee436f:	e8 3c e6 e3 03       	call   7d229b0 <pthread_mutex_lock@plt>
 3ee438a:	e8 31 e6 e3 03       	call   7d229c0 <pthread_mutex_unlock@plt>
 3ee46e9:	e8 d2 e2 e3 03       	call   7d229c0 <pthread_mutex_unlock@plt>
 3ee4cfe:	e8 bd dc e3 03       	call   7d229c0 <pthread_mutex_unlock@plt>
 3ee4d51:	e8 5a dc e3 03       	call   7d229b0 <pthread_mutex_lock@plt>
 3ee4da4:	e9 17 dc e3 03       	jmp    7d229c0 <pthread_mutex_unlock@plt>
 3ee4df1:	e8 ba db e3 03       	call   7d229b0 <pthread_mutex_lock@plt>
 3ee4e44:	e9 77 db e3 03       	jmp    7d229c0 <pthread_mutex_unlock@plt>
 3eedb99:	e8 22 4f e3 03       	call   7d22ac0 <pthread_once@plt>
 3eee20a:	e8 a1 47 e3 03       	call   7d229b0 <pthread_mutex_lock@plt>
 3eee25a:	e8 61 47 e3 03       	call   7d229c0 <pthread_mutex_unlock@plt>
 3ef0f7f:	e8 3c 1b e3 03       	call   7d22ac0 <pthread_once@plt>
 3ef4a3a:	e8 71 df e2 03       	call   7d229b0 <pthread_mutex_lock@plt>
 3ef4a8a:	e8 31 df e2 03       	call   7d229c0 <pthread_mutex_unlock@plt>
 3ef5dbb:	e8 00 cd e2 03       	call   7d22ac0 <pthread_once@plt>
 3ef820e:	e8 ad a8 e2 03       	call   7d22ac0 <pthread_once@plt>
 3efa3a4:	e8 17 87 e2 03       	call   7d22ac0 <pthread_once@plt>
 3efb853:	e8 58 71 e2 03       	call   7d229b0 <pthread_mutex_lock@plt>
 3efb8ae:	e8 0d 71 e2 03       	call   7d229c0 <pthread_mutex_unlock@plt>
 3efbc19:	e8 a2 6e e2 03       	call   7d22ac0 <pthread_once@plt>
 3efbde3:	e8 d8 6c e2 03       	call   7d22ac0 <pthread_once@plt>
 3efc6b1:	e8 0a 63 e2 03       	call   7d229c0 <pthread_mutex_unlock@plt>
 3efda0a:	e8 b1 50 e2 03       	call   7d22ac0 <pthread_once@plt>
 3f0005f:	e8 5c 2a e2 03       	call   7d22ac0 <pthread_once@plt>
 3f01116:	e8 a5 19 e2 03       	call   7d22ac0 <pthread_once@plt>
 3f05ac5:	e8 f6 cf e1 03       	call   7d22ac0 <pthread_once@plt>
 3f0b824:	e8 97 72 e1 03       	call   7d22ac0 <pthread_once@plt>
 3f10f81:	e8 3a 1b e1 03       	call   7d22ac0 <pthread_once@plt>
 3f1578a:	e8 31 d3 e0 03       	call   7d22ac0 <pthread_once@plt>
 3f17b6f:	e8 4c af e0 03       	call   7d22ac0 <pthread_once@plt>
 3f1a97a:	e8 41 81 e0 03       	call   7d22ac0 <pthread_once@plt>
 3f253aa:	e8 11 d7 df 03       	call   7d22ac0 <pthread_once@plt>
 3f27b14:	e8 a7 af df 03       	call   7d22ac0 <pthread_once@plt>
 3f29e9a:	e8 21 8c df 03       	call   7d22ac0 <pthread_once@plt>
 3f2bdb2:	e8 09 6d df 03       	call   7d22ac0 <pthread_once@plt>
 3f2c3ba:	e8 f1 65 df 03       	call   7d229b0 <pthread_mutex_lock@plt>
 3f2c40a:	e8 b1 65 df 03       	call   7d229c0 <pthread_mutex_unlock@plt>
 3f2ca07:	e8 b4 60 df 03       	call   7d22ac0 <pthread_once@plt>
 3f2e930:	e8 8b 41 df 03       	call   7d22ac0 <pthread_once@plt>
 3f2f034:	e8 87 3a df 03       	call   7d22ac0 <pthread_once@plt>
 3f2f44a:	e8 61 35 df 03       	call   7d229b0 <pthread_mutex_lock@plt>
 3f2f49a:	e8 21 35 df 03       	call   7d229c0 <pthread_mutex_unlock@plt>
 3f32136:	e8 75 08 df 03       	call   7d229b0 <pthread_mutex_lock@plt>
 3f32d22:	e8 89 fc de 03       	call   7d229b0 <pthread_mutex_lock@plt>
 3f32d7d:	e9 3e fc de 03       	jmp    7d229c0 <pthread_mutex_unlock@plt>
 3f33558:	e8 53 f4 de 03       	call   7d229b0 <pthread_mutex_lock@plt>
 3f3359f:	e8 1c f4 de 03       	call   7d229c0 <pthread_mutex_unlock@plt>
 3f341ad:	e8 fe e7 de 03       	call   7d229b0 <pthread_mutex_lock@plt>
 3f35383:	e8 38 d6 de 03       	call   7d229c0 <pthread_mutex_unlock@plt>
 3f3cb1b:	e8 a0 5f de 03       	call   7d22ac0 <pthread_once@plt>
 3f4594a:	e8 71 d1 dd 03       	call   7d22ac0 <pthread_once@plt>
 3f47b5a:	e8 61 af dd 03       	call   7d22ac0 <pthread_once@plt>
 3f4b41a:	e8 a1 76 dd 03       	call   7d22ac0 <pthread_once@plt>
 3f4dcca:	e8 f1 4d dd 03       	call   7d22ac0 <pthread_once@plt>
 3f508ba:	e8 01 22 dd 03       	call   7d22ac0 <pthread_once@plt>
 3f5320a:	e8 b1 f8 dc 03       	call   7d22ac0 <pthread_once@plt>
 3f54ac2:	e8 f9 df dc 03       	call   7d22ac0 <pthread_once@plt>
 3f59855:	e8 66 92 dc 03       	call   7d22ac0 <pthread_once@plt>
 3f5b9a1:	e8 1a 71 dc 03       	call   7d22ac0 <pthread_once@plt>
 3f5d6fa:	e8 c1 53 dc 03       	call   7d22ac0 <pthread_once@plt>
 3f5f69a:	e8 21 34 dc 03       	call   7d22ac0 <pthread_once@plt>
 3f6118a:	e8 31 19 dc 03       	call   7d22ac0 <pthread_once@plt>
 3f62e4b:	e8 70 fc db 03       	call   7d22ac0 <pthread_once@plt>
 3f64e12:	e8 a9 dc db 03       	call   7d22ac0 <pthread_once@plt>
 3f66895:	e8 26 c2 db 03       	call   7d22ac0 <pthread_once@plt>
 3f68a1a:	e8 a1 a0 db 03       	call   7d22ac0 <pthread_once@plt>
 3f6b09a:	e8 21 7a db 03       	call   7d22ac0 <pthread_once@plt>
 3f6d1df:	e8 dc 58 db 03       	call   7d22ac0 <pthread_once@plt>
 3f6d88a:	e8 21 51 db 03       	call   7d229b0 <pthread_mutex_lock@plt>
 3f6d8da:	e8 e1 50 db 03       	call   7d229c0 <pthread_mutex_unlock@plt>
 3f71921:	e8 9a 11 db 03       	call   7d22ac0 <pthread_once@plt>
 3f7c10a:	e8 b1 69 da 03       	call   7d22ac0 <pthread_once@plt>
 3f7c6ca:	e8 e1 62 da 03       	call   7d229b0 <pthread_mutex_lock@plt>
 3f7c71a:	e8 a1 62 da 03       	call   7d229c0 <pthread_mutex_unlock@plt>
 3f7f93c:	e8 7f 31 da 03       	call   7d22ac0 <pthread_once@plt>
 3f8000a:	e8 a1 29 da 03       	call   7d229b0 <pthread_mutex_lock@plt>
 3f8005a:	e8 61 29 da 03       	call   7d229c0 <pthread_mutex_unlock@plt>
 3f82927:	e8 94 01 da 03       	call   7d22ac0 <pthread_once@plt>
 3f8459a:	e8 21 e5 d9 03       	call   7d22ac0 <pthread_once@plt>
 3f86d16:	e8 a5 bd d9 03       	call   7d22ac0 <pthread_once@plt>
 3f8891a:	e8 a1 a1 d9 03       	call   7d22ac0 <pthread_once@plt>
 3f89fea:	e8 d1 8a d9 03       	call   7d22ac0 <pthread_once@plt>
 3f8d0fb:	e8 c0 59 d9 03       	call   7d22ac0 <pthread_once@plt>
 3f8d36a:	e8 41 56 d9 03       	call   7d229b0 <pthread_mutex_lock@plt>
 3f8d4aa:	e8 11 55 d9 03       	call   7d229c0 <pthread_mutex_unlock@plt>
 3f8f904:	e8 b7 31 d9 03       	call   7d22ac0 <pthread_once@plt>
 3f9015a:	e8 61 29 d9 03       	call   7d22ac0 <pthread_once@plt>
 3f9031a:	e8 a1 27 d9 03       	call   7d22ac0 <pthread_once@plt>
 3f9881b:	e8 a0 a2 d8 03       	call   7d22ac0 <pthread_once@plt>
 3f98a8a:	e8 21 9f d8 03       	call   7d229b0 <pthread_mutex_lock@plt>
 3f98bca:	e8 f1 9d d8 03       	call   7d229c0 <pthread_mutex_unlock@plt>
 3f9a318:	e8 a3 87 d8 03       	call   7d22ac0 <pthread_once@plt>
 3fa5c9e:	e8 1d ce d7 03       	call   7d22ac0 <pthread_once@plt>
 3fa632a:	e8 81 c6 d7 03       	call   7d229b0 <pthread_mutex_lock@plt>
 3fa637a:	e8 41 c6 d7 03       	call   7d229c0 <pthread_mutex_unlock@plt>
 3fa63ca:	e8 e1 c5 d7 03       	call   7d229b0 <pthread_mutex_lock@plt>
 3fa63ec:	e8 cf c5 d7 03       	call   7d229c0 <pthread_mutex_unlock@plt>
 3fbd5d8:	e8 d3 53 d6 03       	call   7d229b0 <pthread_mutex_lock@plt>
 3fbd5f6:	e8 c5 53 d6 03       	call   7d229c0 <pthread_mutex_unlock@plt>
 3fbd690:	e8 1b 53 d6 03       	call   7d229b0 <pthread_mutex_lock@plt>
 3fbd6b9:	e8 02 53 d6 03       	call   7d229c0 <pthread_mutex_unlock@plt>
 3fbdb04:	e8 a7 4e d6 03       	call   7d229b0 <pthread_mutex_lock@plt>
 3fbdb1b:	e8 a0 4e d6 03       	call   7d229c0 <pthread_mutex_unlock@plt>
 3fbe2f3:	e8 b8 46 d6 03       	call   7d229b0 <pthread_mutex_lock@plt>
 3fbe317:	e8 a4 46 d6 03       	call   7d229c0 <pthread_mutex_unlock@plt>
 3fbe43d:	e8 7e 45 d6 03       	call   7d229c0 <pthread_mutex_unlock@plt>
 3fbfd81:	e8 2a 2c d6 03       	call   7d229b0 <pthread_mutex_lock@plt>
 3fbfdd4:	e9 e7 2b d6 03       	jmp    7d229c0 <pthread_mutex_unlock@plt>
 3fc00f1:	e8 ba 28 d6 03       	call   7d229b0 <pthread_mutex_lock@plt>
 3fc0117:	e8 a4 28 d6 03       	call   7d229c0 <pthread_mutex_unlock@plt>
 3fc089f:	e8 0c 21 d6 03       	call   7d229b0 <pthread_mutex_lock@plt>
 3fc08ba:	e8 01 21 d6 03       	call   7d229c0 <pthread_mutex_unlock@plt>
 3fc0b33:	e8 78 1e d6 03       	call   7d229b0 <pthread_mutex_lock@plt>
 3fc0b5a:	e8 61 1e d6 03       	call   7d229c0 <pthread_mutex_unlock@plt>
 3fc0f65:	e8 56 1a d6 03       	call   7d229c0 <pthread_mutex_unlock@plt>
 3fc1007:	e8 a4 19 d6 03       	call   7d229b0 <pthread_mutex_lock@plt>
 3fc103c:	e8 7f 19 d6 03       	call   7d229c0 <pthread_mutex_unlock@plt>
 3fc1c00:	e8 bb 0d d6 03       	call   7d229c0 <pthread_mutex_unlock@plt>
 3fc9a0e:	e8 ad 90 d5 03       	call   7d22ac0 <pthread_once@plt>
 3fc9ffa:	e8 b1 89 d5 03       	call   7d229b0 <pthread_mutex_lock@plt>
 3fca04a:	e8 71 89 d5 03       	call   7d229c0 <pthread_mutex_unlock@plt>
 3fd1e1e:	e8 8d 0b d5 03       	call   7d229b0 <pthread_mutex_lock@plt>
 3fd1e46:	e8 75 0b d5 03       	call   7d229c0 <pthread_mutex_unlock@plt>
 3fd1f1e:	e8 8d 0a d5 03       	call   7d229b0 <pthread_mutex_lock@plt>
 3fd1f47:	e8 74 0a d5 03       	call   7d229c0 <pthread_mutex_unlock@plt>
 3fd23c4:	e8 e7 05 d5 03       	call   7d229b0 <pthread_mutex_lock@plt>
 3fd23db:	e8 e0 05 d5 03       	call   7d229c0 <pthread_mutex_unlock@plt>
 3fd2593:	e8 18 04 d5 03       	call   7d229b0 <pthread_mutex_lock@plt>
 3fd25b7:	e8 04 04 d5 03       	call   7d229c0 <pthread_mutex_unlock@plt>
 3fd26dd:	e8 de 02 d5 03       	call   7d229c0 <pthread_mutex_unlock@plt>
 3fd4531:	e8 7a e4 d4 03       	call   7d229b0 <pthread_mutex_lock@plt>
 3fd4584:	e9 37 e4 d4 03       	jmp    7d229c0 <pthread_mutex_unlock@plt>
 3fd48d2:	e8 d9 e0 d4 03       	call   7d229b0 <pthread_mutex_lock@plt>
 3fd499b:	e8 20 e0 d4 03       	call   7d229c0 <pthread_mutex_unlock@plt>
 3fd4db1:	e8 fa db d4 03       	call   7d229b0 <pthread_mutex_lock@plt>
 3fd4e81:	e8 3a db d4 03       	call   7d229c0 <pthread_mutex_unlock@plt>
 3fd5a37:	e8 74 cf d4 03       	call   7d229b0 <pthread_mutex_lock@plt>
 3fd5a6c:	e8 4f cf d4 03       	call   7d229c0 <pthread_mutex_unlock@plt>
 3fd6818:	e8 a3 c1 d4 03       	call   7d229c0 <pthread_mutex_unlock@plt>
 3fd6863:	e8 48 c1 d4 03       	call   7d229b0 <pthread_mutex_lock@plt>
 3fd6905:	e8 b6 c0 d4 03       	call   7d229c0 <pthread_mutex_unlock@plt>
 3fd7019:	e8 a2 b9 d4 03       	call   7d229c0 <pthread_mutex_unlock@plt>
 3fdb4cb:	e8 f0 75 d4 03       	call   7d22ac0 <pthread_once@plt>
 3fdbafa:	e8 b1 6e d4 03       	call   7d229b0 <pthread_mutex_lock@plt>
 3fdbb4a:	e8 71 6e d4 03       	call   7d229c0 <pthread_mutex_unlock@plt>
 3fe6c3e:	e8 6d bd d3 03       	call   7d229b0 <pthread_mutex_lock@plt>
 3fe6c66:	e8 55 bd d3 03       	call   7d229c0 <pthread_mutex_unlock@plt>
 3fe6d3e:	e8 6d bc d3 03       	call   7d229b0 <pthread_mutex_lock@plt>
 3fe6d67:	e8 54 bc d3 03       	call   7d229c0 <pthread_mutex_unlock@plt>
 3fe71e4:	e8 c7 b7 d3 03       	call   7d229b0 <pthread_mutex_lock@plt>
 3fe71fb:	e8 c0 b7 d3 03       	call   7d229c0 <pthread_mutex_unlock@plt>
 3fe73b3:	e8 f8 b5 d3 03       	call   7d229b0 <pthread_mutex_lock@plt>
 3fe73d7:	e8 e4 b5 d3 03       	call   7d229c0 <pthread_mutex_unlock@plt>
 3fe74fd:	e8 be b4 d3 03       	call   7d229c0 <pthread_mutex_unlock@plt>
 3fe8d11:	e8 9a 9c d3 03       	call   7d229b0 <pthread_mutex_lock@plt>
 3fe8d64:	e9 57 9c d3 03       	jmp    7d229c0 <pthread_mutex_unlock@plt>
 3fe8f18:	e8 93 9a d3 03       	call   7d229b0 <pthread_mutex_lock@plt>
 3fe8fad:	e8 0e 9a d3 03       	call   7d229c0 <pthread_mutex_unlock@plt>
 3fe9242:	e8 69 97 d3 03       	call   7d229b0 <pthread_mutex_lock@plt>
 3fe92de:	e8 dd 96 d3 03       	call   7d229c0 <pthread_mutex_unlock@plt>
 3fe9cf7:	e8 b4 8c d3 03       	call   7d229b0 <pthread_mutex_lock@plt>
 3fe9d8d:	e8 2e 8c d3 03       	call   7d229c0 <pthread_mutex_unlock@plt>
 3feab43:	e8 78 7e d3 03       	call   7d229c0 <pthread_mutex_unlock@plt>
 3feac03:	e8 a8 7d d3 03       	call   7d229b0 <pthread_mutex_lock@plt>
 3feac92:	e8 29 7d d3 03       	call   7d229c0 <pthread_mutex_unlock@plt>
 3feb115:	e8 a6 78 d3 03       	call   7d229c0 <pthread_mutex_unlock@plt>
 3feb25a:	e8 51 77 d3 03       	call   7d229b0 <pthread_mutex_lock@plt>
 3feb2aa:	e8 11 77 d3 03       	call   7d229c0 <pthread_mutex_unlock@plt>
 3febab3:	e8 08 70 d3 03       	call   7d22ac0 <pthread_once@plt>
 3febcaa:	e8 11 6e d3 03       	call   7d22ac0 <pthread_once@plt>
 3fece03:	e8 b8 5c d3 03       	call   7d22ac0 <pthread_once@plt>
 3fed5a3:	e8 18 55 d3 03       	call   7d22ac0 <pthread_once@plt>
 3feed12:	e8 a9 3d d3 03       	call   7d22ac0 <pthread_once@plt>
 3ff268f:	e8 2c 04 d3 03       	call   7d22ac0 <pthread_once@plt>
 3ff2d0a:	e8 a1 fc d2 03       	call   7d229b0 <pthread_mutex_lock@plt>
 3ff2d5a:	e8 61 fc d2 03       	call   7d229c0 <pthread_mutex_unlock@plt>
 3ff691a:	e8 a1 c1 d2 03       	call   7d22ac0 <pthread_once@plt>
 3ff92d2:	e8 e9 97 d2 03       	call   7d22ac0 <pthread_once@plt>
 3ffcfa7:	e8 14 5b d2 03       	call   7d22ac0 <pthread_once@plt>
 3ffd5aa:	e8 01 54 d2 03       	call   7d229b0 <pthread_mutex_lock@plt>
 3ffd5fa:	e8 c1 53 d2 03       	call   7d229c0 <pthread_mutex_unlock@plt>
 3fff48c:	e8 2f 36 d2 03       	call   7d22ac0 <pthread_once@plt>
 3fff59e:	e8 0d 34 d2 03       	call   7d229b0 <pthread_mutex_lock@plt>
 3fffa00:	e8 bb 2f d2 03       	call   7d229c0 <pthread_mutex_unlock@plt>
 4001b0e:	e8 ad 0f d2 03       	call   7d22ac0 <pthread_once@plt>
 4005d41:	e8 7a cd d1 03       	call   7d22ac0 <pthread_once@plt>
 400be2b:	e8 90 6c d1 03       	call   7d22ac0 <pthread_once@plt>
 400c43a:	e8 71 65 d1 03       	call   7d229b0 <pthread_mutex_lock@plt>
 400c452:	e8 69 65 d1 03       	call   7d229c0 <pthread_mutex_unlock@plt>
 400c48a:	e8 21 65 d1 03       	call   7d229b0 <pthread_mutex_lock@plt>
 400c4da:	e8 e1 64 d1 03       	call   7d229c0 <pthread_mutex_unlock@plt>
 400d723:	e8 88 52 d1 03       	call   7d229b0 <pthread_mutex_lock@plt>
 400d92a:	e9 91 50 d1 03       	jmp    7d229c0 <pthread_mutex_unlock@plt>
 400dabf:	e8 ec 4e d1 03       	call   7d229b0 <pthread_mutex_lock@plt>
 400dadd:	e8 de 4e d1 03       	call   7d229c0 <pthread_mutex_unlock@plt>
 4016341:	e8 7a c6 d0 03       	call   7d229c0 <pthread_mutex_unlock@plt>
 40163c4:	e8 f7 c5 d0 03       	call   7d229c0 <pthread_mutex_unlock@plt>
 401928e:	e8 1d 97 d0 03       	call   7d229b0 <pthread_mutex_lock@plt>
 40192b3:	e8 08 97 d0 03       	call   7d229c0 <pthread_mutex_unlock@plt>
 40192c3:	e8 e8 96 d0 03       	call   7d229b0 <pthread_mutex_lock@plt>
 40192ec:	e8 cf 96 d0 03       	call   7d229c0 <pthread_mutex_unlock@plt>
 40195b5:	e8 f6 93 d0 03       	call   7d229b0 <pthread_mutex_lock@plt>
 40195cd:	e8 ee 93 d0 03       	call   7d229c0 <pthread_mutex_unlock@plt>
 4019853:	e8 58 91 d0 03       	call   7d229b0 <pthread_mutex_lock@plt>
 4019877:	e8 44 91 d0 03       	call   7d229c0 <pthread_mutex_unlock@plt>
 40199a5:	e8 16 90 d0 03       	call   7d229c0 <pthread_mutex_unlock@plt>
 401b471:	e8 3a 75 d0 03       	call   7d229b0 <pthread_mutex_lock@plt>
 401b4c4:	e9 f7 74 d0 03       	jmp    7d229c0 <pthread_mutex_unlock@plt>
 401b77f:	e8 2c 72 d0 03       	call   7d229b0 <pthread_mutex_lock@plt>
 401b8a3:	e8 18 71 d0 03       	call   7d229c0 <pthread_mutex_unlock@plt>
 401be71:	e8 3a 6b d0 03       	call   7d229b0 <pthread_mutex_lock@plt>
 401bf97:	e8 24 6a d0 03       	call   7d229c0 <pthread_mutex_unlock@plt>
 401c2f3:	e8 b8 66 d0 03       	call   7d229b0 <pthread_mutex_lock@plt>
 401c31a:	e8 a1 66 d0 03       	call   7d229c0 <pthread_mutex_unlock@plt>
 401c785:	e8 36 62 d0 03       	call   7d229c0 <pthread_mutex_unlock@plt>
 401c827:	e8 84 61 d0 03       	call   7d229b0 <pthread_mutex_lock@plt>
 401c85c:	e8 5f 61 d0 03       	call   7d229c0 <pthread_mutex_unlock@plt>
 401d5c1:	e8 fa 53 d0 03       	call   7d229c0 <pthread_mutex_unlock@plt>
 401d8fa:	e8 b1 50 d0 03       	call   7d229b0 <pthread_mutex_lock@plt>
 401d921:	e8 9a 50 d0 03       	call   7d229c0 <pthread_mutex_unlock@plt>
 401da35:	e8 86 4f d0 03       	call   7d229c0 <pthread_mutex_unlock@plt>
 401ee27:	e8 84 3b d0 03       	call   7d229b0 <pthread_mutex_lock@plt>
 401f13b:	e9 80 38 d0 03       	jmp    7d229c0 <pthread_mutex_unlock@plt>
 4020bdd:	e8 de 1d d0 03       	call   7d229c0 <pthread_mutex_unlock@plt>
 402185e:	e8 5d 12 d0 03       	call   7d22ac0 <pthread_once@plt>
 402638b:	e8 30 c7 cf 03       	call   7d22ac0 <pthread_once@plt>
 402696a:	e8 41 c0 cf 03       	call   7d229b0 <pthread_mutex_lock@plt>
 40269ba:	e8 01 c0 cf 03       	call   7d229c0 <pthread_mutex_unlock@plt>
 4028f1b:	e8 a0 9b cf 03       	call   7d22ac0 <pthread_once@plt>
 402b49b:	e8 10 75 cf 03       	call   7d229b0 <pthread_mutex_lock@plt>
 402b4b9:	e8 02 75 cf 03       	call   7d229c0 <pthread_mutex_unlock@plt>
 402b553:	e8 58 74 cf 03       	call   7d229b0 <pthread_mutex_lock@plt>
 402b57c:	e8 3f 74 cf 03       	call   7d229c0 <pthread_mutex_unlock@plt>
 402b914:	e8 97 70 cf 03       	call   7d229b0 <pthread_mutex_lock@plt>
 402b92b:	e8 90 70 cf 03       	call   7d229c0 <pthread_mutex_unlock@plt>
 402c7e1:	e8 ca 61 cf 03       	call   7d229b0 <pthread_mutex_lock@plt>
 402c9da:	e9 e1 5f cf 03       	jmp    7d229c0 <pthread_mutex_unlock@plt>
 402e082:	e8 29 49 cf 03       	call   7d229b0 <pthread_mutex_lock@plt>
 402e209:	e8 b2 47 cf 03       	call   7d229c0 <pthread_mutex_unlock@plt>
 402ed02:	e8 a9 3c cf 03       	call   7d229b0 <pthread_mutex_lock@plt>
 402ee9a:	e8 21 3b cf 03       	call   7d229c0 <pthread_mutex_unlock@plt>
 402f163:	e8 48 38 cf 03       	call   7d229b0 <pthread_mutex_lock@plt>
 402f261:	e8 5a 37 cf 03       	call   7d229c0 <pthread_mutex_unlock@plt>
 402f8f4:	e8 c7 30 cf 03       	call   7d229c0 <pthread_mutex_unlock@plt>
 402fe62:	e8 59 2c cf 03       	call   7d22ac0 <pthread_once@plt>
 403213b:	e8 80 09 cf 03       	call   7d22ac0 <pthread_once@plt>
 4034e7a:	e8 41 dc ce 03       	call   7d22ac0 <pthread_once@plt>
 403554a:	e8 61 d4 ce 03       	call   7d229b0 <pthread_mutex_lock@plt>
 403559a:	e8 21 d4 ce 03       	call   7d229c0 <pthread_mutex_unlock@plt>
 4046972:	e8 39 c0 cd 03       	call   7d229b0 <pthread_mutex_lock@plt>
 4046990:	e8 2b c0 cd 03       	call   7d229c0 <pthread_mutex_unlock@plt>
 4046a2a:	e8 81 bf cd 03       	call   7d229b0 <pthread_mutex_lock@plt>
 4046a53:	e8 68 bf cd 03       	call   7d229c0 <pthread_mutex_unlock@plt>
 4046e94:	e8 17 bb cd 03       	call   7d229b0 <pthread_mutex_lock@plt>
 4046eab:	e8 10 bb cd 03       	call   7d229c0 <pthread_mutex_unlock@plt>
 4047821:	e8 8a b1 cd 03       	call   7d229b0 <pthread_mutex_lock@plt>
 4047841:	e8 7a b1 cd 03       	call   7d229c0 <pthread_mutex_unlock@plt>
 4047965:	e8 56 b0 cd 03       	call   7d229c0 <pthread_mutex_unlock@plt>
 4048571:	e8 3a a4 cd 03       	call   7d229b0 <pthread_mutex_lock@plt>
 40485c4:	e9 f7 a3 cd 03       	jmp    7d229c0 <pthread_mutex_unlock@plt>
 4049538:	e8 73 94 cd 03       	call   7d229b0 <pthread_mutex_lock@plt>
 404977c:	e8 3f 92 cd 03       	call   7d229c0 <pthread_mutex_unlock@plt>
 404a481:	e8 2a 85 cd 03       	call   7d229b0 <pthread_mutex_lock@plt>
 404a6cc:	e8 ef 82 cd 03       	call   7d229c0 <pthread_mutex_unlock@plt>
 404aab3:	e8 f8 7e cd 03       	call   7d229b0 <pthread_mutex_lock@plt>
 404aada:	e8 e1 7e cd 03       	call   7d229c0 <pthread_mutex_unlock@plt>
 404aed5:	e8 e6 7a cd 03       	call   7d229c0 <pthread_mutex_unlock@plt>
 404af57:	e8 54 7a cd 03       	call   7d229b0 <pthread_mutex_lock@plt>
 404af8c:	e8 2f 7a cd 03       	call   7d229c0 <pthread_mutex_unlock@plt>
 404bb60:	e8 5b 6e cd 03       	call   7d229c0 <pthread_mutex_unlock@plt>
 404be7a:	e8 31 6b cd 03       	call   7d229b0 <pthread_mutex_lock@plt>
 404beca:	e8 f1 6a cd 03       	call   7d229c0 <pthread_mutex_unlock@plt>
 404c21e:	e8 8d 67 cd 03       	call   7d229b0 <pthread_mutex_lock@plt>
 404c2c0:	e9 fb 66 cd 03       	jmp    7d229c0 <pthread_mutex_unlock@plt>
 4052202:	e8 a9 07 cd 03       	call   7d229b0 <pthread_mutex_lock@plt>
 405223e:	e8 7d 07 cd 03       	call   7d229c0 <pthread_mutex_unlock@plt>
 40536e7:	e8 c4 f2 cc 03       	call   7d229b0 <pthread_mutex_lock@plt>
 405373f:	e9 7c f2 cc 03       	jmp    7d229c0 <pthread_mutex_unlock@plt>
 4055e2b:	e8 90 cb cc 03       	call   7d229c0 <pthread_mutex_unlock@plt>
 40566f0:	e8 cb c3 cc 03       	call   7d22ac0 <pthread_once@plt>
 405f82e:	e8 8d 32 cc 03       	call   7d22ac0 <pthread_once@plt>
 405fe1a:	e8 91 2b cc 03       	call   7d229b0 <pthread_mutex_lock@plt>
 405fe6a:	e8 51 2b cc 03       	call   7d229c0 <pthread_mutex_unlock@plt>
 4062bff:	e8 bc fe cb 03       	call   7d22ac0 <pthread_once@plt>
 4065a8b:	e8 20 cf cb 03       	call   7d229b0 <pthread_mutex_lock@plt>
 4065aa9:	e8 12 cf cb 03       	call   7d229c0 <pthread_mutex_unlock@plt>
 4065b43:	e8 68 ce cb 03       	call   7d229b0 <pthread_mutex_lock@plt>
 4065b6c:	e8 4f ce cb 03       	call   7d229c0 <pthread_mutex_unlock@plt>
 4065f44:	e8 67 ca cb 03       	call   7d229b0 <pthread_mutex_lock@plt>
 4065f5b:	e8 60 ca cb 03       	call   7d229c0 <pthread_mutex_unlock@plt>
 4067821:	e8 8a b1 cb 03       	call   7d229b0 <pthread_mutex_lock@plt>
 4067a1a:	e9 a1 af cb 03       	jmp    7d229c0 <pthread_mutex_unlock@plt>
 406874a:	e8 61 a2 cb 03       	call   7d229b0 <pthread_mutex_lock@plt>
 4068770:	e8 4b a2 cb 03       	call   7d229c0 <pthread_mutex_unlock@plt>
 4068d3f:	e8 6c 9c cb 03       	call   7d229b0 <pthread_mutex_lock@plt>
 4068d5a:	e8 61 9c cb 03       	call   7d229c0 <pthread_mutex_unlock@plt>
 4068fd3:	e8 d8 99 cb 03       	call   7d229b0 <pthread_mutex_lock@plt>
 406916c:	e8 4f 98 cb 03       	call   7d229c0 <pthread_mutex_unlock@plt>
 4069930:	e8 8b 90 cb 03       	call   7d229c0 <pthread_mutex_unlock@plt>
 406a18a:	e8 21 88 cb 03       	call   7d229b0 <pthread_mutex_lock@plt>
 406a1da:	e8 e1 87 cb 03       	call   7d229c0 <pthread_mutex_unlock@plt>
 406dc33:	e8 88 4e cb 03       	call   7d22ac0 <pthread_once@plt>
 40726be:	e8 fd 03 cb 03       	call   7d22ac0 <pthread_once@plt>
 407687b:	e8 40 c2 ca 03       	call   7d22ac0 <pthread_once@plt>
 4076f7e:	e8 2d ba ca 03       	call   7d229b0 <pthread_mutex_lock@plt>
 4076fd1:	e9 ea b9 ca 03       	jmp    7d229c0 <pthread_mutex_unlock@plt>
 40794a2:	e8 19 95 ca 03       	call   7d229c0 <pthread_mutex_unlock@plt>
 4079d29:	e8 82 8c ca 03       	call   7d229b0 <pthread_mutex_lock@plt>
 4079d4e:	e8 6d 8c ca 03       	call   7d229c0 <pthread_mutex_unlock@plt>
 4079d72:	e8 39 8c ca 03       	call   7d229b0 <pthread_mutex_lock@plt>
 4079d9b:	e8 20 8c ca 03       	call   7d229c0 <pthread_mutex_unlock@plt>
 407a12f:	e8 7c 88 ca 03       	call   7d229b0 <pthread_mutex_lock@plt>
 407a396:	e9 25 86 ca 03       	jmp    7d229c0 <pthread_mutex_unlock@plt>
 407b02e:	e8 8d 7a ca 03       	call   7d22ac0 <pthread_once@plt>
 4083753:	e8 68 f3 c9 03       	call   7d22ac0 <pthread_once@plt>
 4084a7d:	e8 3e e0 c9 03       	call   7d22ac0 <pthread_once@plt>
 408ff23:	e8 98 2b c9 03       	call   7d22ac0 <pthread_once@plt>
 4090a9a:	e8 21 1f c9 03       	call   7d229c0 <pthread_mutex_unlock@plt>
 4090caa:	e8 01 1d c9 03       	call   7d229b0 <pthread_mutex_lock@plt>
 4090d09:	e8 a2 1c c9 03       	call   7d229b0 <pthread_mutex_lock@plt>
 4090d64:	e9 57 1c c9 03       	jmp    7d229c0 <pthread_mutex_unlock@plt>
 4091787:	e8 34 12 c9 03       	call   7d229c0 <pthread_mutex_unlock@plt>
 40918ae:	e8 fd 10 c9 03       	call   7d229b0 <pthread_mutex_lock@plt>
 40918eb:	e9 d0 10 c9 03       	jmp    7d229c0 <pthread_mutex_unlock@plt>
 4091973:	e8 48 10 c9 03       	call   7d229c0 <pthread_mutex_unlock@plt>
 4091a75:	e8 46 0f c9 03       	call   7d229c0 <pthread_mutex_unlock@plt>
 40950c0:	e8 fb d9 c8 03       	call   7d22ac0 <pthread_once@plt>
 4095162:	e8 59 d9 c8 03       	call   7d22ac0 <pthread_once@plt>
 4095fcb:	e8 f0 c9 c8 03       	call   7d229c0 <pthread_mutex_unlock@plt>
 4095fd3:	e8 e8 c9 c8 03       	call   7d229c0 <pthread_mutex_unlock@plt>
 40960f8:	e8 c3 c8 c8 03       	call   7d229c0 <pthread_mutex_unlock@plt>
 40961a5:	e8 16 c8 c8 03       	call   7d229c0 <pthread_mutex_unlock@plt>
 409733d:	e8 7e b6 c8 03       	call   7d229c0 <pthread_mutex_unlock@plt>
 40989ee:	e8 cd 9f c8 03       	call   7d229c0 <pthread_mutex_unlock@plt>
 4098bee:	e8 cd 9d c8 03       	call   7d229c0 <pthread_mutex_unlock@plt>
 409938a:	e8 31 96 c8 03       	call   7d229c0 <pthread_mutex_unlock@plt>
 4099574:	e8 47 94 c8 03       	call   7d229c0 <pthread_mutex_unlock@plt>
 409f2fa:	e8 b1 36 c8 03       	call   7d229b0 <pthread_mutex_lock@plt>
 409f46a:	e8 51 35 c8 03       	call   7d229c0 <pthread_mutex_unlock@plt>
 409fa9d:	e8 1e 30 c8 03       	call   7d22ac0 <pthread_once@plt>
 409fb48:	e8 73 2f c8 03       	call   7d22ac0 <pthread_once@plt>
 40a3102:	e8 a9 f8 c7 03       	call   7d229b0 <pthread_mutex_lock@plt>
 40a3194:	e9 27 f8 c7 03       	jmp    7d229c0 <pthread_mutex_unlock@plt>
 40a33a7:	e8 04 f6 c7 03       	call   7d229b0 <pthread_mutex_lock@plt>
 40a8849:	e8 62 a1 c7 03       	call   7d229b0 <pthread_mutex_lock@plt>
 40a888d:	e8 2e a1 c7 03       	call   7d229c0 <pthread_mutex_unlock@plt>
 40a8ad4:	e8 d7 9e c7 03       	call   7d229b0 <pthread_mutex_lock@plt>
 40a8b50:	e9 6b 9e c7 03       	jmp    7d229c0 <pthread_mutex_unlock@plt>
 40aa6e1:	e8 da 83 c7 03       	call   7d22ac0 <pthread_once@plt>
 40abe4a:	e8 61 6b c7 03       	call   7d229b0 <pthread_mutex_lock@plt>
 40abe86:	e8 35 6b c7 03       	call   7d229c0 <pthread_mutex_unlock@plt>
 40ae9d3:	e8 e8 3f c7 03       	call   7d229c0 <pthread_mutex_unlock@plt>
 40b1739:	e8 82 13 c7 03       	call   7d22ac0 <pthread_once@plt>
 40b81bb:	e8 00 a9 c6 03       	call   7d22ac0 <pthread_once@plt>
 40b9f95:	e8 26 8b c6 03       	call   7d22ac0 <pthread_once@plt>
 40bb93d:	e8 7e 71 c6 03       	call   7d22ac0 <pthread_once@plt>
 40bbeda:	e8 d1 6a c6 03       	call   7d229b0 <pthread_mutex_lock@plt>
 40bbf2a:	e8 91 6a c6 03       	call   7d229c0 <pthread_mutex_unlock@plt>
 40bd69c:	e8 1f 54 c6 03       	call   7d22ac0 <pthread_once@plt>
 40bd880:	e8 3b 52 c6 03       	call   7d22ac0 <pthread_once@plt>
 40c04f1:	e8 ca 25 c6 03       	call   7d22ac0 <pthread_once@plt>
 40c43b4:	e8 07 e7 c5 03       	call   7d22ac0 <pthread_once@plt>
 40c4ab0:	e8 0b e0 c5 03       	call   7d22ac0 <pthread_once@plt>
 40c88a9:	e8 12 a2 c5 03       	call   7d22ac0 <pthread_once@plt>
 40cfe99:	e8 22 2c c5 03       	call   7d22ac0 <pthread_once@plt>
 40d2847:	e8 74 02 c5 03       	call   7d22ac0 <pthread_once@plt>
 40d301a:	e8 91 f9 c4 03       	call   7d229b0 <pthread_mutex_lock@plt>
 40d306a:	e8 51 f9 c4 03       	call   7d229c0 <pthread_mutex_unlock@plt>
 40d7687:	e8 34 b4 c4 03       	call   7d22ac0 <pthread_once@plt>
 40d9db1:	e8 0a 8d c4 03       	call   7d22ac0 <pthread_once@plt>
 40dc5fb:	e8 c0 64 c4 03       	call   7d22ac0 <pthread_once@plt>
 40e01e7:	e8 d4 28 c4 03       	call   7d22ac0 <pthread_once@plt>
 40e31fb:	e8 c0 f8 c3 03       	call   7d22ac0 <pthread_once@plt>
 40e397a:	e8 31 f0 c3 03       	call   7d229b0 <pthread_mutex_lock@plt>
 40e39ca:	e8 f1 ef c3 03       	call   7d229c0 <pthread_mutex_unlock@plt>
 40e45c6:	e8 f5 e4 c3 03       	call   7d22ac0 <pthread_once@plt>
 40e47a6:	e8 15 e3 c3 03       	call   7d22ac0 <pthread_once@plt>
 40e67d1:	e8 ea c2 c3 03       	call   7d22ac0 <pthread_once@plt>
 40e6fba:	e8 f1 b9 c3 03       	call   7d229b0 <pthread_mutex_lock@plt>
 40e700a:	e8 b1 b9 c3 03       	call   7d229c0 <pthread_mutex_unlock@plt>
 40ec0c7:	e8 f4 69 c3 03       	call   7d22ac0 <pthread_once@plt>
 40ec73a:	e8 71 62 c3 03       	call   7d229b0 <pthread_mutex_lock@plt>
 40ec87a:	e8 41 61 c3 03       	call   7d229c0 <pthread_mutex_unlock@plt>
 40f1ad7:	e8 e4 0f c3 03       	call   7d22ac0 <pthread_once@plt>
 40f31d8:	e8 e3 f8 c2 03       	call   7d22ac0 <pthread_once@plt>
 40f4c35:	e8 86 de c2 03       	call   7d22ac0 <pthread_once@plt>
 40f6de9:	e8 d2 bc c2 03       	call   7d22ac0 <pthread_once@plt>
 40f8ca9:	e8 12 9e c2 03       	call   7d22ac0 <pthread_once@plt>
 40f8fea:	e8 c1 99 c2 03       	call   7d229b0 <pthread_mutex_lock@plt>
 40f903a:	e8 81 99 c2 03       	call   7d229c0 <pthread_mutex_unlock@plt>
 40fd337:	e8 84 57 c2 03       	call   7d22ac0 <pthread_once@plt>
 40ffffa:	e8 c1 2a c2 03       	call   7d22ac0 <pthread_once@plt>
 41010bd:	e8 fe 19 c2 03       	call   7d22ac0 <pthread_once@plt>
 4102b06:	e8 b5 ff c1 03       	call   7d22ac0 <pthread_once@plt>
 410321a:	e8 91 f7 c1 03       	call   7d229b0 <pthread_mutex_lock@plt>
 410326a:	e8 51 f7 c1 03       	call   7d229c0 <pthread_mutex_unlock@plt>
 4108177:	e8 44 a9 c1 03       	call   7d22ac0 <pthread_once@plt>
 410a50f:	e8 ac 85 c1 03       	call   7d22ac0 <pthread_once@plt>
 410ffff:	e8 bc 2a c1 03       	call   7d22ac0 <pthread_once@plt>
 411317b:	e8 40 f9 c0 03       	call   7d22ac0 <pthread_once@plt>
 411693f:	e8 7c c1 c0 03       	call   7d22ac0 <pthread_once@plt>
 4118ca6:	e8 15 9e c0 03       	call   7d22ac0 <pthread_once@plt>
 411af96:	e8 25 7b c0 03       	call   7d22ac0 <pthread_once@plt>
 411d749:	e8 72 53 c0 03       	call   7d22ac0 <pthread_once@plt>
 411f7aa:	e8 11 33 c0 03       	call   7d22ac0 <pthread_once@plt>
 4120786:	e8 35 23 c0 03       	call   7d22ac0 <pthread_once@plt>
 4122b34:	e8 87 ff bf 03       	call   7d22ac0 <pthread_once@plt>
 4124397:	e8 24 e7 bf 03       	call   7d22ac0 <pthread_once@plt>
 4126d06:	e8 b5 bd bf 03       	call   7d22ac0 <pthread_once@plt>
 412748a:	e8 21 b5 bf 03       	call   7d229b0 <pthread_mutex_lock@plt>
 41274da:	e8 e1 b4 bf 03       	call   7d229c0 <pthread_mutex_unlock@plt>
 4129645:	e8 76 94 bf 03       	call   7d22ac0 <pthread_once@plt>
 41296e7:	e8 d4 93 bf 03       	call   7d22ac0 <pthread_once@plt>
 4129789:	e8 32 93 bf 03       	call   7d22ac0 <pthread_once@plt>
 412b29d:	e8 1e 78 bf 03       	call   7d22ac0 <pthread_once@plt>
 412b91a:	e8 91 70 bf 03       	call   7d229b0 <pthread_mutex_lock@plt>
 412b96a:	e8 51 70 bf 03       	call   7d229c0 <pthread_mutex_unlock@plt>
 412cd8f:	e8 2c 5d bf 03       	call   7d22ac0 <pthread_once@plt>
 412e975:	e8 46 41 bf 03       	call   7d22ac0 <pthread_once@plt>
 41303c8:	e8 f3 26 bf 03       	call   7d22ac0 <pthread_once@plt>
 4131fc5:	e8 f6 0a bf 03       	call   7d22ac0 <pthread_once@plt>
 413267a:	e8 31 03 bf 03       	call   7d229b0 <pthread_mutex_lock@plt>
 41326ca:	e8 f1 02 bf 03       	call   7d229c0 <pthread_mutex_unlock@plt>
 4136745:	e8 76 c3 be 03       	call   7d22ac0 <pthread_once@plt>
 4138a80:	e8 3b a0 be 03       	call   7d22ac0 <pthread_once@plt>
 413a3b6:	e8 05 87 be 03       	call   7d22ac0 <pthread_once@plt>
 413a9ea:	e8 c1 7f be 03       	call   7d229b0 <pthread_mutex_lock@plt>
 413aa3a:	e8 81 7f be 03       	call   7d229c0 <pthread_mutex_unlock@plt>
 413e6cc:	e8 ef 43 be 03       	call   7d22ac0 <pthread_once@plt>
 414095a:	e8 61 21 be 03       	call   7d22ac0 <pthread_once@plt>
 4140b9a:	e8 11 1e be 03       	call   7d229b0 <pthread_mutex_lock@plt>
 4140bea:	e8 d1 1d be 03       	call   7d229c0 <pthread_mutex_unlock@plt>
 41452c7:	e8 f4 d7 bd 03       	call   7d22ac0 <pthread_once@plt>
 41459ca:	e8 e1 cf bd 03       	call   7d229b0 <pthread_mutex_lock@plt>
 4145a1a:	e8 a1 cf bd 03       	call   7d229c0 <pthread_mutex_unlock@plt>
 4146f8b:	e8 30 bb bd 03       	call   7d22ac0 <pthread_once@plt>
 41477e5:	e8 c6 b1 bd 03       	call   7d229b0 <pthread_mutex_lock@plt>
 414783c:	e8 7f b1 bd 03       	call   7d229c0 <pthread_mutex_unlock@plt>
 4147a8b:	e8 30 b0 bd 03       	call   7d22ac0 <pthread_once@plt>
 41489b8:	e8 03 a0 bd 03       	call   7d229c0 <pthread_mutex_unlock@plt>
 4149287:	e8 34 98 bd 03       	call   7d22ac0 <pthread_once@plt>
 414b701:	e8 ba 73 bd 03       	call   7d22ac0 <pthread_once@plt>
 414ce9d:	e8 1e 5c bd 03       	call   7d22ac0 <pthread_once@plt>
 414d4ca:	e8 e1 54 bd 03       	call   7d229b0 <pthread_mutex_lock@plt>
 414d51a:	e8 a1 54 bd 03       	call   7d229c0 <pthread_mutex_unlock@plt>
 41508b3:	e8 08 22 bd 03       	call   7d22ac0 <pthread_once@plt>
 4151d0b:	e8 b0 0d bd 03       	call   7d22ac0 <pthread_once@plt>
 415500a:	e8 b1 da bc 03       	call   7d22ac0 <pthread_once@plt>
 41555ea:	e8 c1 d3 bc 03       	call   7d229b0 <pthread_mutex_lock@plt>
 415563a:	e8 81 d3 bc 03       	call   7d229c0 <pthread_mutex_unlock@plt>
 415924c:	e8 6f 98 bc 03       	call   7d22ac0 <pthread_once@plt>
 41598ea:	e8 c1 90 bc 03       	call   7d229b0 <pthread_mutex_lock@plt>
 415993a:	e8 81 90 bc 03       	call   7d229c0 <pthread_mutex_unlock@plt>
 415a359:	e8 62 87 bc 03       	call   7d22ac0 <pthread_once@plt>
 415a8f3:	e8 c8 81 bc 03       	call   7d22ac0 <pthread_once@plt>
 415c299:	e8 22 68 bc 03       	call   7d22ac0 <pthread_once@plt>
 415c97a:	e8 31 60 bc 03       	call   7d229b0 <pthread_mutex_lock@plt>
 415c9ca:	e8 f1 5f bc 03       	call   7d229c0 <pthread_mutex_unlock@plt>
 415d362:	e8 49 56 bc 03       	call   7d229b0 <pthread_mutex_lock@plt>
 415d3c7:	e8 f4 55 bc 03       	call   7d229c0 <pthread_mutex_unlock@plt>
 415d791:	e8 2a 53 bc 03       	call   7d22ac0 <pthread_once@plt>
 415ec07:	e8 b4 3d bc 03       	call   7d229c0 <pthread_mutex_unlock@plt>
 415f3f8:	e8 c3 36 bc 03       	call   7d22ac0 <pthread_once@plt>
 416185c:	e8 5f 12 bc 03       	call   7d22ac0 <pthread_once@plt>
 41645bf:	e8 fc e4 bb 03       	call   7d22ac0 <pthread_once@plt>
 416623a:	e8 81 c8 bb 03       	call   7d22ac0 <pthread_once@plt>
 41665da:	e8 d1 c3 bb 03       	call   7d229b0 <pthread_mutex_lock@plt>
 41666aa:	e8 11 c3 bb 03       	call   7d229c0 <pthread_mutex_unlock@plt>
 416b177:	e8 44 79 bb 03       	call   7d22ac0 <pthread_once@plt>
 416c309:	e8 b2 67 bb 03       	call   7d22ac0 <pthread_once@plt>
 416dc2a:	e8 91 4e bb 03       	call   7d22ac0 <pthread_once@plt>
 416edca:	e8 f1 3c bb 03       	call   7d22ac0 <pthread_once@plt>
 4176b48:	e8 73 bf ba 03       	call   7d22ac0 <pthread_once@plt>
 417806a:	e8 41 a9 ba 03       	call   7d229b0 <pthread_mutex_lock@plt>
 41781da:	e8 e1 a7 ba 03       	call   7d229c0 <pthread_mutex_unlock@plt>
 41791c1:	e8 ea 97 ba 03       	call   7d229b0 <pthread_mutex_lock@plt>
 41791dd:	e8 de 97 ba 03       	call   7d229c0 <pthread_mutex_unlock@plt>
 4179c25:	e8 86 8d ba 03       	call   7d229b0 <pthread_mutex_lock@plt>
 4179ef2:	e8 b9 8a ba 03       	call   7d229b0 <pthread_mutex_lock@plt>
 417a662:	e8 49 83 ba 03       	call   7d229b0 <pthread_mutex_lock@plt>
 417ad38:	e8 73 7c ba 03       	call   7d229b0 <pthread_mutex_lock@plt>
 417ae26:	e9 95 7b ba 03       	jmp    7d229c0 <pthread_mutex_unlock@plt>
 417aeb4:	e8 f7 7a ba 03       	call   7d229b0 <pthread_mutex_lock@plt>
 417b090:	e9 2b 79 ba 03       	jmp    7d229c0 <pthread_mutex_unlock@plt>
 417b166:	e8 45 78 ba 03       	call   7d229b0 <pthread_mutex_lock@plt>
 417b44d:	e9 6e 75 ba 03       	jmp    7d229c0 <pthread_mutex_unlock@plt>
 417b535:	e8 76 74 ba 03       	call   7d229b0 <pthread_mutex_lock@plt>
 417b56b:	e8 50 74 ba 03       	call   7d229c0 <pthread_mutex_unlock@plt>
 417bb57:	e8 54 6e ba 03       	call   7d229b0 <pthread_mutex_lock@plt>
 417bd5a:	e9 61 6c ba 03       	jmp    7d229c0 <pthread_mutex_unlock@plt>
 417c054:	e8 57 69 ba 03       	call   7d229b0 <pthread_mutex_lock@plt>
 417d2b3:	e8 f8 56 ba 03       	call   7d229b0 <pthread_mutex_lock@plt>
 417d716:	e8 95 52 ba 03       	call   7d229b0 <pthread_mutex_lock@plt>
 417d73e:	e8 7d 52 ba 03       	call   7d229c0 <pthread_mutex_unlock@plt>
 417de86:	e8 35 4b ba 03       	call   7d229c0 <pthread_mutex_unlock@plt>
 417e460:	e8 5b 45 ba 03       	call   7d229c0 <pthread_mutex_unlock@plt>
 417e4cd:	e8 ee 44 ba 03       	call   7d229c0 <pthread_mutex_unlock@plt>
 417e533:	e8 88 44 ba 03       	call   7d229c0 <pthread_mutex_unlock@plt>
 417e626:	e8 95 43 ba 03       	call   7d229c0 <pthread_mutex_unlock@plt>
 417eaf6:	e8 c5 3e ba 03       	call   7d229c0 <pthread_mutex_unlock@plt>
 417f5d3:	e8 e8 34 ba 03       	call   7d22ac0 <pthread_once@plt>
 4183ecb:	e8 f0 eb b9 03       	call   7d22ac0 <pthread_once@plt>
 4188aaa:	e8 11 a0 b9 03       	call   7d22ac0 <pthread_once@plt>
 418af1a:	e8 a1 7b b9 03       	call   7d22ac0 <pthread_once@plt>
 418f19a:	e8 21 39 b9 03       	call   7d22ac0 <pthread_once@plt>
 41911bb:	e8 00 19 b9 03       	call   7d22ac0 <pthread_once@plt>
 419160a:	e8 b1 13 b9 03       	call   7d229c0 <pthread_mutex_unlock@plt>
 419164a:	e8 61 13 b9 03       	call   7d229b0 <pthread_mutex_lock@plt>
 419169a:	e8 11 13 b9 03       	call   7d229b0 <pthread_mutex_lock@plt>
 41916b2:	e8 09 13 b9 03       	call   7d229c0 <pthread_mutex_unlock@plt>
 4191f6a:	e8 41 0a b9 03       	call   7d229b0 <pthread_mutex_lock@plt>
 4191f9e:	e8 1d 0a b9 03       	call   7d229c0 <pthread_mutex_unlock@plt>
 41920d7:	e8 d4 08 b9 03       	call   7d229b0 <pthread_mutex_lock@plt>
 4192133:	e8 88 08 b9 03       	call   7d229c0 <pthread_mutex_unlock@plt>
 4192686:	e8 25 03 b9 03       	call   7d229b0 <pthread_mutex_lock@plt>
 41926ed:	e8 ce 02 b9 03       	call   7d229c0 <pthread_mutex_unlock@plt>
 4192763:	e8 58 03 b9 03       	call   7d22ac0 <pthread_once@plt>
 4192dca:	e8 e1 fb b8 03       	call   7d229b0 <pthread_mutex_lock@plt>
 4192e64:	e8 57 fb b8 03       	call   7d229c0 <pthread_mutex_unlock@plt>
 4193637:	e8 74 f3 b8 03       	call   7d229b0 <pthread_mutex_lock@plt>
 41937bf:	e8 fc f1 b8 03       	call   7d229c0 <pthread_mutex_unlock@plt>
 4194193:	e8 18 e8 b8 03       	call   7d229b0 <pthread_mutex_lock@plt>
 4194252:	e9 69 e7 b8 03       	jmp    7d229c0 <pthread_mutex_unlock@plt>
 4194440:	e8 6b e5 b8 03       	call   7d229b0 <pthread_mutex_lock@plt>
 419446c:	e8 3f e5 b8 03       	call   7d229b0 <pthread_mutex_lock@plt>
 4194516:	e8 a5 e4 b8 03       	call   7d229c0 <pthread_mutex_unlock@plt>
 41947df:	e8 dc e1 b8 03       	call   7d229c0 <pthread_mutex_unlock@plt>
 419494a:	e9 71 e0 b8 03       	jmp    7d229c0 <pthread_mutex_unlock@plt>
 4196868:	e8 43 c1 b8 03       	call   7d229b0 <pthread_mutex_lock@plt>
 419696a:	e8 51 c0 b8 03       	call   7d229c0 <pthread_mutex_unlock@plt>
 4197d28:	e8 93 ac b8 03       	call   7d229c0 <pthread_mutex_unlock@plt>
 4197de4:	e8 d7 ab b8 03       	call   7d229c0 <pthread_mutex_unlock@plt>
 4197e2c:	e8 8f ab b8 03       	call   7d229c0 <pthread_mutex_unlock@plt>
 4197fed:	e8 ce a9 b8 03       	call   7d229c0 <pthread_mutex_unlock@plt>
 41980b7:	e8 04 a9 b8 03       	call   7d229c0 <pthread_mutex_unlock@plt>
 4198474:	e8 47 a5 b8 03       	call   7d229c0 <pthread_mutex_unlock@plt>
 41984ca:	e8 f1 a4 b8 03       	call   7d229c0 <pthread_mutex_unlock@plt>
 4198611:	e8 aa a3 b8 03       	call   7d229c0 <pthread_mutex_unlock@plt>
 4199889:	e8 32 91 b8 03       	call   7d229c0 <pthread_mutex_unlock@plt>
 419a91a:	e8 a1 81 b8 03       	call   7d22ac0 <pthread_once@plt>
 419bf3f:	e8 6c 6a b8 03       	call   7d229b0 <pthread_mutex_lock@plt>
 419bf77:	e8 44 6a b8 03       	call   7d229c0 <pthread_mutex_unlock@plt>
 419c746:	e8 75 62 b8 03       	call   7d229c0 <pthread_mutex_unlock@plt>
 419cd96:	e8 25 5d b8 03       	call   7d22ac0 <pthread_once@plt>
 41a39eb:	e8 d0 f0 b7 03       	call   7d22ac0 <pthread_once@plt>
 41a43da:	e8 e1 e6 b7 03       	call   7d22ac0 <pthread_once@plt>
 41a46fd:	e8 be e3 b7 03       	call   7d22ac0 <pthread_once@plt>
 41a4ad4:	e8 e7 df b7 03       	call   7d22ac0 <pthread_once@plt>
 41a577a:	e8 41 d3 b7 03       	call   7d22ac0 <pthread_once@plt>
 41aa39c:	e8 1f 87 b7 03       	call   7d22ac0 <pthread_once@plt>
 41b25c3:	e8 e8 03 b7 03       	call   7d229b0 <pthread_mutex_lock@plt>
 41b26a5:	e8 16 03 b7 03       	call   7d229c0 <pthread_mutex_unlock@plt>
 41b279b:	e8 20 02 b7 03       	call   7d229c0 <pthread_mutex_unlock@plt>
 41b65ee:	e8 cd c4 b6 03       	call   7d22ac0 <pthread_once@plt>
 41ba3db:	e8 e0 86 b6 03       	call   7d22ac0 <pthread_once@plt>
 41bf1fb:	e8 c0 38 b6 03       	call   7d22ac0 <pthread_once@plt>
 41c0b2f:	e8 8c 1f b6 03       	call   7d22ac0 <pthread_once@plt>
 41c0c61:	e8 5a 1e b6 03       	call   7d22ac0 <pthread_once@plt>
 41c54b1:	e8 0a d6 b5 03       	call   7d22ac0 <pthread_once@plt>
 41c65ca:	e8 f1 c4 b5 03       	call   7d22ac0 <pthread_once@plt>
 41c775b:	e8 60 b3 b5 03       	call   7d22ac0 <pthread_once@plt>
 41c885a:	e8 51 a1 b5 03       	call   7d229b0 <pthread_mutex_lock@plt>
 41c88a9:	e9 12 a1 b5 03       	jmp    7d229c0 <pthread_mutex_unlock@plt>
 41c88fe:	e8 bd a0 b5 03       	call   7d229c0 <pthread_mutex_unlock@plt>
 41c9468:	e8 53 96 b5 03       	call   7d22ac0 <pthread_once@plt>
 41cd3b1:	e8 fa 55 b5 03       	call   7d229b0 <pthread_mutex_lock@plt>
 41cd3f0:	e8 cb 55 b5 03       	call   7d229c0 <pthread_mutex_unlock@plt>
 41d1149:	e8 72 19 b5 03       	call   7d22ac0 <pthread_once@plt>
 41d80b1:	e8 fa a8 b4 03       	call   7d229b0 <pthread_mutex_lock@plt>
 41d81d6:	e8 e5 a7 b4 03       	call   7d229c0 <pthread_mutex_unlock@plt>
 41d892d:	e8 8e a1 b4 03       	call   7d22ac0 <pthread_once@plt>
 41d8a97:	e8 14 9f b4 03       	call   7d229b0 <pthread_mutex_lock@plt>
 41d8abb:	e8 00 9f b4 03       	call   7d229c0 <pthread_mutex_unlock@plt>
 41db6fd:	e8 be 72 b4 03       	call   7d229c0 <pthread_mutex_unlock@plt>
 41ddbe0:	e8 db 4e b4 03       	call   7d22ac0 <pthread_once@plt>
 41e2099:	e8 22 0a b4 03       	call   7d22ac0 <pthread_once@plt>
 41e399b:	e8 20 f1 b3 03       	call   7d22ac0 <pthread_once@plt>
 41e3baa:	e8 01 ee b3 03       	call   7d229b0 <pthread_mutex_lock@plt>
 41e3bfa:	e8 c1 ed b3 03       	call   7d229c0 <pthread_mutex_unlock@plt>
 41e562a:	e8 91 d4 b3 03       	call   7d22ac0 <pthread_once@plt>
 41e8b69:	e8 52 9f b3 03       	call   7d22ac0 <pthread_once@plt>
 41eb14a:	e8 71 79 b3 03       	call   7d22ac0 <pthread_once@plt>
 41ed626:	e8 95 54 b3 03       	call   7d22ac0 <pthread_once@plt>
 41f5d16:	e8 a5 cd b2 03       	call   7d22ac0 <pthread_once@plt>
 41f6b33:	e8 88 bf b2 03       	call   7d22ac0 <pthread_once@plt>
 41fdb99:	e8 22 4f b2 03       	call   7d22ac0 <pthread_once@plt>
 41ffd6f:	e8 3c 2c b2 03       	call   7d229b0 <pthread_mutex_lock@plt>
 41ffdd5:	e8 e6 2b b2 03       	call   7d229c0 <pthread_mutex_unlock@plt>
 4200287:	e8 24 27 b2 03       	call   7d229b0 <pthread_mutex_lock@plt>
 42002ae:	e8 0d 27 b2 03       	call   7d229c0 <pthread_mutex_unlock@plt>
 42002e7:	e8 c4 26 b2 03       	call   7d229b0 <pthread_mutex_lock@plt>
 4200326:	e8 95 26 b2 03       	call   7d229c0 <pthread_mutex_unlock@plt>
 4200562:	e8 49 24 b2 03       	call   7d229b0 <pthread_mutex_lock@plt>
 42005a0:	e8 1b 24 b2 03       	call   7d229c0 <pthread_mutex_unlock@plt>
 42005d7:	e8 d4 23 b2 03       	call   7d229b0 <pthread_mutex_lock@plt>
 4200618:	e8 a3 23 b2 03       	call   7d229c0 <pthread_mutex_unlock@plt>
 4200620:	e8 8b 23 b2 03       	call   7d229b0 <pthread_mutex_lock@plt>
 4200634:	e8 87 23 b2 03       	call   7d229c0 <pthread_mutex_unlock@plt>
 4200677:	e8 34 23 b2 03       	call   7d229b0 <pthread_mutex_lock@plt>
 420068a:	e8 31 23 b2 03       	call   7d229c0 <pthread_mutex_unlock@plt>
 42006ef:	e8 bc 22 b2 03       	call   7d229b0 <pthread_mutex_lock@plt>
 42010a4:	e9 17 19 b2 03       	jmp    7d229c0 <pthread_mutex_unlock@plt>
 42019fe:	e8 ad 0f b2 03       	call   7d229b0 <pthread_mutex_lock@plt>
 4201adc:	e8 df 0e b2 03       	call   7d229c0 <pthread_mutex_unlock@plt>
 42031bf:	e8 ec f7 b1 03       	call   7d229b0 <pthread_mutex_lock@plt>
 42031f8:	e8 c3 f7 b1 03       	call   7d229c0 <pthread_mutex_unlock@plt>
 42032a4:	e8 07 f7 b1 03       	call   7d229b0 <pthread_mutex_lock@plt>
 4203324:	e8 97 f6 b1 03       	call   7d229c0 <pthread_mutex_unlock@plt>
 4203b00:	e8 ab ee b1 03       	call   7d229b0 <pthread_mutex_lock@plt>
 4203ebf:	e9 fc ea b1 03       	jmp    7d229c0 <pthread_mutex_unlock@plt>
 4204434:	e8 77 e5 b1 03       	call   7d229b0 <pthread_mutex_lock@plt>
 420468a:	e8 31 e3 b1 03       	call   7d229c0 <pthread_mutex_unlock@plt>
 4204afb:	e8 c0 de b1 03       	call   7d229c0 <pthread_mutex_unlock@plt>
 4204d11:	e8 aa dc b1 03       	call   7d229c0 <pthread_mutex_unlock@plt>
 4204f4c:	e8 6f da b1 03       	call   7d229c0 <pthread_mutex_unlock@plt>
 4204f61:	e8 5a da b1 03       	call   7d229c0 <pthread_mutex_unlock@plt>
 4205264:	e8 57 d7 b1 03       	call   7d229c0 <pthread_mutex_unlock@plt>
 420540c:	e8 af d5 b1 03       	call   7d229c0 <pthread_mutex_unlock@plt>
 4205820:	e8 8b d1 b1 03       	call   7d229b0 <pthread_mutex_lock@plt>
 420584d:	e8 6e d1 b1 03       	call   7d229c0 <pthread_mutex_unlock@plt>
 4205a21:	e8 8a cf b1 03       	call   7d229b0 <pthread_mutex_lock@plt>
 4205a53:	e8 68 cf b1 03       	call   7d229c0 <pthread_mutex_unlock@plt>
 420654a:	e8 71 c5 b1 03       	call   7d22ac0 <pthread_once@plt>
 4207da2:	e8 09 ac b1 03       	call   7d229b0 <pthread_mutex_lock@plt>
 4207dd0:	e8 eb ab b1 03       	call   7d229c0 <pthread_mutex_unlock@plt>
 4207e09:	e8 a2 ab b1 03       	call   7d229b0 <pthread_mutex_lock@plt>
 4207e29:	e8 92 ab b1 03       	call   7d229c0 <pthread_mutex_unlock@plt>
 420905f:	e8 4c 99 b1 03       	call   7d229b0 <pthread_mutex_lock@plt>
 420909e:	e8 1d 99 b1 03       	call   7d229c0 <pthread_mutex_unlock@plt>
 42093fb:	e8 b0 95 b1 03       	call   7d229b0 <pthread_mutex_lock@plt>
 420943e:	e9 7d 95 b1 03       	jmp    7d229c0 <pthread_mutex_unlock@plt>
 42096ff:	e8 ac 92 b1 03       	call   7d229b0 <pthread_mutex_lock@plt>
 4209794:	e8 27 92 b1 03       	call   7d229c0 <pthread_mutex_unlock@plt>
 4209a04:	e8 b7 8f b1 03       	call   7d229c0 <pthread_mutex_unlock@plt>
 4209b26:	e8 95 8e b1 03       	call   7d229c0 <pthread_mutex_unlock@plt>
 420a0ba:	e8 01 8a b1 03       	call   7d22ac0 <pthread_once@plt>
 420eb9a:	e8 11 3e b1 03       	call   7d229b0 <pthread_mutex_lock@plt>
 420ebea:	e8 d1 3d b1 03       	call   7d229c0 <pthread_mutex_unlock@plt>
 420f810:	e8 9b 31 b1 03       	call   7d229b0 <pthread_mutex_lock@plt>
 420f84d:	e8 5e 31 b1 03       	call   7d229b0 <pthread_mutex_lock@plt>
 420f8ae:	e8 0d 31 b1 03       	call   7d229c0 <pthread_mutex_unlock@plt>
 420f8be:	e9 fd 30 b1 03       	jmp    7d229c0 <pthread_mutex_unlock@plt>
 420f8cb:	e8 f0 30 b1 03       	call   7d229c0 <pthread_mutex_unlock@plt>
 420f8d8:	e8 d3 30 b1 03       	call   7d229b0 <pthread_mutex_lock@plt>
 420f8ee:	e8 cd 30 b1 03       	call   7d229c0 <pthread_mutex_unlock@plt>
 420f8fe:	e9 bd 30 b1 03       	jmp    7d229c0 <pthread_mutex_unlock@plt>
 420fb20:	e8 8b 2e b1 03       	call   7d229b0 <pthread_mutex_lock@plt>
 420fb5d:	e8 4e 2e b1 03       	call   7d229b0 <pthread_mutex_lock@plt>
 420fbbe:	e8 fd 2d b1 03       	call   7d229c0 <pthread_mutex_unlock@plt>
 420fbce:	e9 ed 2d b1 03       	jmp    7d229c0 <pthread_mutex_unlock@plt>
 420fbdb:	e8 e0 2d b1 03       	call   7d229c0 <pthread_mutex_unlock@plt>
 420fbe8:	e8 c3 2d b1 03       	call   7d229b0 <pthread_mutex_lock@plt>
 420fbfe:	e8 bd 2d b1 03       	call   7d229c0 <pthread_mutex_unlock@plt>
 420fc0e:	e9 ad 2d b1 03       	jmp    7d229c0 <pthread_mutex_unlock@plt>
 4211a01:	e8 aa 0f b1 03       	call   7d229b0 <pthread_mutex_lock@plt>
 4212061:	e8 4a 09 b1 03       	call   7d229b0 <pthread_mutex_lock@plt>
 4212722:	e8 99 03 b1 03       	call   7d22ac0 <pthread_once@plt>
 42181dc:	e8 cf a7 b0 03       	call   7d229b0 <pthread_mutex_lock@plt>
 421822d:	e8 8e a7 b0 03       	call   7d229c0 <pthread_mutex_unlock@plt>
 421834f:	e8 5c a6 b0 03       	call   7d229b0 <pthread_mutex_lock@plt>
 4218363:	e8 58 a6 b0 03       	call   7d229c0 <pthread_mutex_unlock@plt>
 4218379:	e8 32 a6 b0 03       	call   7d229b0 <pthread_mutex_lock@plt>
 421838e:	e8 2d a6 b0 03       	call   7d229c0 <pthread_mutex_unlock@plt>
 4219b8d:	e8 2e 8f b0 03       	call   7d22ac0 <pthread_once@plt>
 421a3fa:	e8 b1 85 b0 03       	call   7d229b0 <pthread_mutex_lock@plt>
 421a44a:	e8 71 85 b0 03       	call   7d229c0 <pthread_mutex_unlock@plt>
 421b14f:	e8 5c 78 b0 03       	call   7d229b0 <pthread_mutex_lock@plt>
 421b1da:	e8 d1 77 b0 03       	call   7d229b0 <pthread_mutex_lock@plt>
 421b25d:	e8 5e 77 b0 03       	call   7d229c0 <pthread_mutex_unlock@plt>
 421b2da:	e8 d1 76 b0 03       	call   7d229b0 <pthread_mutex_lock@plt>
 421b2fb:	e8 c0 76 b0 03       	call   7d229c0 <pthread_mutex_unlock@plt>
 421b35e:	e8 4d 76 b0 03       	call   7d229b0 <pthread_mutex_lock@plt>
 421b386:	e9 35 76 b0 03       	jmp    7d229c0 <pthread_mutex_unlock@plt>
 421b3ad:	e8 fe 75 b0 03       	call   7d229b0 <pthread_mutex_lock@plt>
 421b3c9:	e8 f2 75 b0 03       	call   7d229c0 <pthread_mutex_unlock@plt>
 421b451:	e8 6a 75 b0 03       	call   7d229c0 <pthread_mutex_unlock@plt>
 421b48e:	e8 1d 75 b0 03       	call   7d229b0 <pthread_mutex_lock@plt>
 421b4ba:	e8 f1 74 b0 03       	call   7d229b0 <pthread_mutex_lock@plt>
 421b4cd:	e8 ee 74 b0 03       	call   7d229c0 <pthread_mutex_unlock@plt>
 421b4e5:	e8 d6 74 b0 03       	call   7d229c0 <pthread_mutex_unlock@plt>
 421b821:	e8 8a 71 b0 03       	call   7d229b0 <pthread_mutex_lock@plt>
 421b8ef:	e9 cc 70 b0 03       	jmp    7d229c0 <pthread_mutex_unlock@plt>
 421b937:	e8 74 70 b0 03       	call   7d229b0 <pthread_mutex_lock@plt>
 421b9ba:	e9 01 70 b0 03       	jmp    7d229c0 <pthread_mutex_unlock@plt>
 421bc3b:	e8 70 6d b0 03       	call   7d229b0 <pthread_mutex_lock@plt>
 421bc63:	e8 58 6d b0 03       	call   7d229c0 <pthread_mutex_unlock@plt>
 421bc8b:	e8 20 6d b0 03       	call   7d229b0 <pthread_mutex_lock@plt>
 421bc9c:	e8 1f 6d b0 03       	call   7d229c0 <pthread_mutex_unlock@plt>
 421bcde:	e8 cd 6c b0 03       	call   7d229b0 <pthread_mutex_lock@plt>
 421bd10:	e8 9b 6c b0 03       	call   7d229b0 <pthread_mutex_lock@plt>
 421bd74:	e8 47 6c b0 03       	call   7d229c0 <pthread_mutex_unlock@plt>
 421bd84:	e9 37 6c b0 03       	jmp    7d229c0 <pthread_mutex_unlock@plt>
 421bd93:	e8 28 6c b0 03       	call   7d229c0 <pthread_mutex_unlock@plt>
 421bda3:	e8 08 6c b0 03       	call   7d229b0 <pthread_mutex_lock@plt>
 421bdbc:	e8 ff 6b b0 03       	call   7d229c0 <pthread_mutex_unlock@plt>
 421bdcc:	e9 ef 6b b0 03       	jmp    7d229c0 <pthread_mutex_unlock@plt>
 421bfe1:	e8 ca 69 b0 03       	call   7d229b0 <pthread_mutex_lock@plt>
 421c1e4:	e8 d7 67 b0 03       	call   7d229c0 <pthread_mutex_unlock@plt>
 421ccf3:	e8 b8 5c b0 03       	call   7d229b0 <pthread_mutex_lock@plt>
 421cd58:	e8 53 5c b0 03       	call   7d229b0 <pthread_mutex_lock@plt>
 421cd7b:	e8 40 5c b0 03       	call   7d229c0 <pthread_mutex_unlock@plt>
 421cdcc:	e8 df 5b b0 03       	call   7d229b0 <pthread_mutex_lock@plt>
 421cde9:	e8 d2 5b b0 03       	call   7d229c0 <pthread_mutex_unlock@plt>
 421d2bb:	e8 f0 56 b0 03       	call   7d229b0 <pthread_mutex_lock@plt>
 421d2dd:	e8 de 56 b0 03       	call   7d229c0 <pthread_mutex_unlock@plt>
 421d36e:	e8 3d 56 b0 03       	call   7d229b0 <pthread_mutex_lock@plt>
 421d387:	e8 34 56 b0 03       	call   7d229c0 <pthread_mutex_unlock@plt>
 421db1b:	e8 90 4e b0 03       	call   7d229b0 <pthread_mutex_lock@plt>
 421db33:	e8 88 4e b0 03       	call   7d229c0 <pthread_mutex_unlock@plt>
 421dbcb:	e8 e0 4d b0 03       	call   7d229b0 <pthread_mutex_lock@plt>
 421dbe9:	e8 d2 4d b0 03       	call   7d229c0 <pthread_mutex_unlock@plt>
 421dc5b:	e8 50 4d b0 03       	call   7d229b0 <pthread_mutex_lock@plt>
 421dc73:	e8 48 4d b0 03       	call   7d229c0 <pthread_mutex_unlock@plt>
 421ee2e:	e8 7d 3b b0 03       	call   7d229b0 <pthread_mutex_lock@plt>
 421fe2e:	e8 7d 2b b0 03       	call   7d229b0 <pthread_mutex_lock@plt>
 421fe97:	e9 24 2b b0 03       	jmp    7d229c0 <pthread_mutex_unlock@plt>
 4221205:	e8 a6 17 b0 03       	call   7d229b0 <pthread_mutex_lock@plt>
 42221a7:	e8 14 08 b0 03       	call   7d229c0 <pthread_mutex_unlock@plt>
 4222568:	e8 53 04 b0 03       	call   7d229c0 <pthread_mutex_unlock@plt>
 4224ce9:	e8 c2 dc af 03       	call   7d229b0 <pthread_mutex_lock@plt>
 4224d1a:	e8 a1 dc af 03       	call   7d229c0 <pthread_mutex_unlock@plt>
 4226080:	e8 3b c9 af 03       	call   7d229c0 <pthread_mutex_unlock@plt>
 422645a:	e8 61 c5 af 03       	call   7d229c0 <pthread_mutex_unlock@plt>
 42269fa:	e8 c1 bf af 03       	call   7d229c0 <pthread_mutex_unlock@plt>
 4226a2a:	e8 91 bf af 03       	call   7d229c0 <pthread_mutex_unlock@plt>
 4226a56:	e8 65 bf af 03       	call   7d229c0 <pthread_mutex_unlock@plt>
 4227bcc:	e8 ef ad af 03       	call   7d229c0 <pthread_mutex_unlock@plt>
 4227ccf:	e8 ec ac af 03       	call   7d229c0 <pthread_mutex_unlock@plt>
 4228825:	e8 96 a1 af 03       	call   7d229c0 <pthread_mutex_unlock@plt>
 4228c49:	e8 72 9d af 03       	call   7d229c0 <pthread_mutex_unlock@plt>
 422b47e:	e8 3d 76 af 03       	call   7d22ac0 <pthread_once@plt>
 422c37a:	e8 31 66 af 03       	call   7d229b0 <pthread_mutex_lock@plt>
 422c4ea:	e8 d1 64 af 03       	call   7d229c0 <pthread_mutex_unlock@plt>
 422da35:	e8 86 50 af 03       	call   7d22ac0 <pthread_once@plt>
 4231876:	e8 45 12 af 03       	call   7d22ac0 <pthread_once@plt>
 423537e:	e8 3d d7 ae 03       	call   7d22ac0 <pthread_once@plt>
 42358ca:	e8 f1 d0 ae 03       	call   7d229c0 <pthread_mutex_unlock@plt>
 423590a:	e8 a1 d0 ae 03       	call   7d229b0 <pthread_mutex_lock@plt>
 42367e7:	e8 c4 c1 ae 03       	call   7d229b0 <pthread_mutex_lock@plt>
 42367fa:	e8 c1 c1 ae 03       	call   7d229c0 <pthread_mutex_unlock@plt>
 423683a:	e8 71 c1 ae 03       	call   7d229b0 <pthread_mutex_lock@plt>
 4236863:	e9 58 c1 ae 03       	jmp    7d229c0 <pthread_mutex_unlock@plt>
 4236887:	e8 24 c1 ae 03       	call   7d229b0 <pthread_mutex_lock@plt>
 4236898:	e8 23 c1 ae 03       	call   7d229c0 <pthread_mutex_unlock@plt>
 42368fd:	e8 ae c0 ae 03       	call   7d229b0 <pthread_mutex_lock@plt>
 4236985:	e8 36 c0 ae 03       	call   7d229c0 <pthread_mutex_unlock@plt>
 4236a15:	e8 96 bf ae 03       	call   7d229b0 <pthread_mutex_lock@plt>
 4236ada:	e9 e1 be ae 03       	jmp    7d229c0 <pthread_mutex_unlock@plt>
 4236ba6:	e8 05 be ae 03       	call   7d229b0 <pthread_mutex_lock@plt>
 4236bfc:	e9 bf bd ae 03       	jmp    7d229c0 <pthread_mutex_unlock@plt>
 4238dbe:	e8 fd 9c ae 03       	call   7d22ac0 <pthread_once@plt>
 42390be:	e8 ed 98 ae 03       	call   7d229b0 <pthread_mutex_lock@plt>
 423994a:	e8 71 90 ae 03       	call   7d229c0 <pthread_mutex_unlock@plt>
 4239a3b:	e8 80 8f ae 03       	call   7d229c0 <pthread_mutex_unlock@plt>
 4239cd8:	e8 e3 8c ae 03       	call   7d229c0 <pthread_mutex_unlock@plt>
 423a227:	e8 84 87 ae 03       	call   7d229b0 <pthread_mutex_lock@plt>
 423a2ad:	e8 0e 87 ae 03       	call   7d229c0 <pthread_mutex_unlock@plt>
 423a2f3:	e8 c8 86 ae 03       	call   7d229c0 <pthread_mutex_unlock@plt>
 423a365:	e9 56 86 ae 03       	jmp    7d229c0 <pthread_mutex_unlock@plt>
 423b52b:	e8 80 74 ae 03       	call   7d229b0 <pthread_mutex_lock@plt>
 423bb33:	e8 78 6e ae 03       	call   7d229b0 <pthread_mutex_lock@plt>
 423bb52:	e8 69 6e ae 03       	call   7d229c0 <pthread_mutex_unlock@plt>
 423bcd7:	e8 d4 6c ae 03       	call   7d229b0 <pthread_mutex_lock@plt>
 423bd25:	e9 96 6c ae 03       	jmp    7d229c0 <pthread_mutex_unlock@plt>
 423c23d:	e8 7e 67 ae 03       	call   7d229c0 <pthread_mutex_unlock@plt>
 423c4d6:	e8 d5 64 ae 03       	call   7d229b0 <pthread_mutex_lock@plt>
 423c58e:	e8 2d 64 ae 03       	call   7d229c0 <pthread_mutex_unlock@plt>
 423c726:	e8 85 62 ae 03       	call   7d229b0 <pthread_mutex_lock@plt>
 423c7de:	e8 dd 61 ae 03       	call   7d229c0 <pthread_mutex_unlock@plt>
 423c90d:	e8 9e 60 ae 03       	call   7d229b0 <pthread_mutex_lock@plt>
 423c996:	e8 25 60 ae 03       	call   7d229c0 <pthread_mutex_unlock@plt>
 423d1ab:	e8 10 58 ae 03       	call   7d229c0 <pthread_mutex_unlock@plt>
 423d96c:	e8 4f 50 ae 03       	call   7d229c0 <pthread_mutex_unlock@plt>
 423edef:	e8 cc 3b ae 03       	call   7d229c0 <pthread_mutex_unlock@plt>
 42413f5:	e8 b6 15 ae 03       	call   7d229b0 <pthread_mutex_lock@plt>
 424140d:	e8 ae 15 ae 03       	call   7d229c0 <pthread_mutex_unlock@plt>
 424164f:	e8 5c 13 ae 03       	call   7d229b0 <pthread_mutex_lock@plt>
 4241675:	e8 46 13 ae 03       	call   7d229c0 <pthread_mutex_unlock@plt>
 4243101:	e8 ba f8 ad 03       	call   7d229c0 <pthread_mutex_unlock@plt>
 424350d:	e8 ae f4 ad 03       	call   7d229c0 <pthread_mutex_unlock@plt>
 4243fe6:	e8 d5 e9 ad 03       	call   7d229c0 <pthread_mutex_unlock@plt>
 42454a9:	e8 12 d5 ad 03       	call   7d229c0 <pthread_mutex_unlock@plt>
 4245ac3:	e8 f8 ce ad 03       	call   7d229c0 <pthread_mutex_unlock@plt>
 4245ae6:	e8 d5 ce ad 03       	call   7d229c0 <pthread_mutex_unlock@plt>
 4245b25:	e8 96 ce ad 03       	call   7d229c0 <pthread_mutex_unlock@plt>
 4245e29:	e8 92 cb ad 03       	call   7d229c0 <pthread_mutex_unlock@plt>
 4245e50:	e8 6b cb ad 03       	call   7d229c0 <pthread_mutex_unlock@plt>
 4245e81:	e8 3a cb ad 03       	call   7d229c0 <pthread_mutex_unlock@plt>
 4246312:	e8 a9 c6 ad 03       	call   7d229c0 <pthread_mutex_unlock@plt>
 4246332:	e8 89 c6 ad 03       	call   7d229c0 <pthread_mutex_unlock@plt>
 4246926:	e8 95 c0 ad 03       	call   7d229c0 <pthread_mutex_unlock@plt>
 424694d:	e8 6e c0 ad 03       	call   7d229c0 <pthread_mutex_unlock@plt>
 4246994:	e8 27 c0 ad 03       	call   7d229c0 <pthread_mutex_unlock@plt>
 4247030:	e8 8b b9 ad 03       	call   7d229c0 <pthread_mutex_unlock@plt>
 4247b7c:	e8 3f ae ad 03       	call   7d229c0 <pthread_mutex_unlock@plt>
 4248315:	e8 96 a6 ad 03       	call   7d229b0 <pthread_mutex_lock@plt>
 4248373:	e8 38 a6 ad 03       	call   7d229b0 <pthread_mutex_lock@plt>
 424839b:	e8 20 a6 ad 03       	call   7d229c0 <pthread_mutex_unlock@plt>
 42483e1:	e8 da a5 ad 03       	call   7d229c0 <pthread_mutex_unlock@plt>
 42483f3:	e8 b8 a5 ad 03       	call   7d229b0 <pthread_mutex_lock@plt>
 4248413:	e8 a8 a5 ad 03       	call   7d229c0 <pthread_mutex_unlock@plt>
 424841b:	e8 a0 a5 ad 03       	call   7d229c0 <pthread_mutex_unlock@plt>
 42484b0:	e8 0b a5 ad 03       	call   7d229c0 <pthread_mutex_unlock@plt>
 42484c4:	e8 f7 a4 ad 03       	call   7d229c0 <pthread_mutex_unlock@plt>
 42484d8:	e8 e3 a4 ad 03       	call   7d229c0 <pthread_mutex_unlock@plt>
 424924a:	e8 71 97 ad 03       	call   7d229c0 <pthread_mutex_unlock@plt>
 4249ac9:	e8 f2 8e ad 03       	call   7d229c0 <pthread_mutex_unlock@plt>
 4249b3c:	e8 7f 8e ad 03       	call   7d229c0 <pthread_mutex_unlock@plt>
 4249ba8:	e8 13 8e ad 03       	call   7d229c0 <pthread_mutex_unlock@plt>
 4249caa:	e8 11 8d ad 03       	call   7d229c0 <pthread_mutex_unlock@plt>
 4249cbe:	e8 fd 8c ad 03       	call   7d229c0 <pthread_mutex_unlock@plt>
 424a35e:	e8 4d 86 ad 03       	call   7d229b0 <pthread_mutex_lock@plt>
 424a3b5:	e8 06 86 ad 03       	call   7d229c0 <pthread_mutex_unlock@plt>
 424a6c8:	e8 f3 82 ad 03       	call   7d229c0 <pthread_mutex_unlock@plt>
 424d2c5:	e8 f6 56 ad 03       	call   7d229c0 <pthread_mutex_unlock@plt>
 424d5ef:	e8 bc 53 ad 03       	call   7d229b0 <pthread_mutex_lock@plt>
 424d620:	e8 9b 53 ad 03       	call   7d229c0 <pthread_mutex_unlock@plt>
 424fb45:	e8 66 2e ad 03       	call   7d229b0 <pthread_mutex_lock@plt>
 425036f:	e8 3c 26 ad 03       	call   7d229b0 <pthread_mutex_lock@plt>
 42503a2:	e8 09 26 ad 03       	call   7d229b0 <pthread_mutex_lock@plt>
 42503ca:	e8 f1 25 ad 03       	call   7d229c0 <pthread_mutex_unlock@plt>
 4250413:	e8 a8 25 ad 03       	call   7d229c0 <pthread_mutex_unlock@plt>
 425042d:	e8 8e 25 ad 03       	call   7d229c0 <pthread_mutex_unlock@plt>
 4250747:	e8 64 22 ad 03       	call   7d229b0 <pthread_mutex_lock@plt>
 42515fb:	e8 c0 14 ad 03       	call   7d22ac0 <pthread_once@plt>
 425555e:	e8 5d d5 ac 03       	call   7d22ac0 <pthread_once@plt>
 42562fa:	e8 b1 c6 ac 03       	call   7d229b0 <pthread_mutex_lock@plt>
 425634a:	e8 71 c6 ac 03       	call   7d229c0 <pthread_mutex_unlock@plt>
 425c6e2:	e8 d9 63 ac 03       	call   7d22ac0 <pthread_once@plt>
 4261d56:	e8 65 0d ac 03       	call   7d22ac0 <pthread_once@plt>
 4262d8a:	e8 21 fc ab 03       	call   7d229b0 <pthread_mutex_lock@plt>
 4262dda:	e8 e1 fb ab 03       	call   7d229c0 <pthread_mutex_unlock@plt>
 426a8d2:	e8 e9 81 ab 03       	call   7d22ac0 <pthread_once@plt>
 426c9f1:	e8 ba 5f ab 03       	call   7d229b0 <pthread_mutex_lock@plt>
 4270382:	e8 29 26 ab 03       	call   7d229b0 <pthread_mutex_lock@plt>
 42703b1:	e8 0a 26 ab 03       	call   7d229c0 <pthread_mutex_unlock@plt>
 4270445:	e8 66 25 ab 03       	call   7d229b0 <pthread_mutex_lock@plt>
 427047a:	e8 41 25 ab 03       	call   7d229c0 <pthread_mutex_unlock@plt>
 4270a53:	e8 68 1f ab 03       	call   7d229c0 <pthread_mutex_unlock@plt>
 427128e:	e8 1d 17 ab 03       	call   7d229b0 <pthread_mutex_lock@plt>
 42712cd:	e8 ee 16 ab 03       	call   7d229c0 <pthread_mutex_unlock@plt>
 4271a7c:	e8 2f 0f ab 03       	call   7d229b0 <pthread_mutex_lock@plt>
 4271ab4:	e8 07 0f ab 03       	call   7d229c0 <pthread_mutex_unlock@plt>
 42757ab:	e8 10 d3 aa 03       	call   7d22ac0 <pthread_once@plt>
 427b140:	e8 7b 78 aa 03       	call   7d229c0 <pthread_mutex_unlock@plt>
 427b1d6:	e8 e5 77 aa 03       	call   7d229c0 <pthread_mutex_unlock@plt>
 427b335:	e8 86 76 aa 03       	call   7d229c0 <pthread_mutex_unlock@plt>
 427b43b:	e8 80 75 aa 03       	call   7d229c0 <pthread_mutex_unlock@plt>
 428280a:	e8 a1 01 aa 03       	call   7d229b0 <pthread_mutex_lock@plt>
 428285a:	e8 61 01 aa 03       	call   7d229c0 <pthread_mutex_unlock@plt>
 4283d2f:	e8 8c ed a9 03       	call   7d22ac0 <pthread_once@plt>
 428619d:	e8 1e c9 a9 03       	call   7d22ac0 <pthread_once@plt>
 42863bc:	e8 ff c6 a9 03       	call   7d22ac0 <pthread_once@plt>
 4286e7b:	e8 40 bc a9 03       	call   7d22ac0 <pthread_once@plt>
 428a807:	e8 b4 82 a9 03       	call   7d22ac0 <pthread_once@plt>
 428d187:	e8 34 59 a9 03       	call   7d22ac0 <pthread_once@plt>
 428da9c:	e8 0f 4f a9 03       	call   7d229b0 <pthread_mutex_lock@plt>
 428dab3:	e8 08 4f a9 03       	call   7d229c0 <pthread_mutex_unlock@plt>
 428dae8:	e8 c3 4e a9 03       	call   7d229b0 <pthread_mutex_lock@plt>
 428db47:	e8 64 4e a9 03       	call   7d229b0 <pthread_mutex_lock@plt>
 428db60:	e8 5b 4e a9 03       	call   7d229c0 <pthread_mutex_unlock@plt>
 428db68:	e8 53 4e a9 03       	call   7d229c0 <pthread_mutex_unlock@plt>
 428db99:	e8 12 4e a9 03       	call   7d229b0 <pthread_mutex_lock@plt>
 428dbe6:	e8 c5 4d a9 03       	call   7d229b0 <pthread_mutex_lock@plt>
 428dc63:	e8 58 4d a9 03       	call   7d229c0 <pthread_mutex_unlock@plt>
 428dcb1:	e9 0a 4d a9 03       	jmp    7d229c0 <pthread_mutex_unlock@plt>
 428ddc7:	e8 e4 4b a9 03       	call   7d229b0 <pthread_mutex_lock@plt>
 428de50:	e9 6b 4b a9 03       	jmp    7d229c0 <pthread_mutex_unlock@plt>
 428e17e:	e8 2d 48 a9 03       	call   7d229b0 <pthread_mutex_lock@plt>
 428e4b2:	e8 09 45 a9 03       	call   7d229c0 <pthread_mutex_unlock@plt>
 428e7c5:	e8 f6 41 a9 03       	call   7d229c0 <pthread_mutex_unlock@plt>
 428e7e2:	e8 d9 41 a9 03       	call   7d229c0 <pthread_mutex_unlock@plt>
 428f7bb:	e8 00 33 a9 03       	call   7d22ac0 <pthread_once@plt>
 42902cc:	e8 ef 27 a9 03       	call   7d22ac0 <pthread_once@plt>
 4290894:	e8 27 22 a9 03       	call   7d22ac0 <pthread_once@plt>
 429244a:	e8 71 06 a9 03       	call   7d22ac0 <pthread_once@plt>
 4292ecb:	e8 e0 fa a8 03       	call   7d229b0 <pthread_mutex_lock@plt>
 4292edc:	e8 df fa a8 03       	call   7d229c0 <pthread_mutex_unlock@plt>
 4292f0b:	e8 a0 fa a8 03       	call   7d229b0 <pthread_mutex_lock@plt>
 4292f50:	e9 6b fa a8 03       	jmp    7d229c0 <pthread_mutex_unlock@plt>
 4293363:	e8 48 f6 a8 03       	call   7d229b0 <pthread_mutex_lock@plt>
 42933b7:	e9 04 f6 a8 03       	jmp    7d229c0 <pthread_mutex_unlock@plt>
 42936ac:	e8 0f f4 a8 03       	call   7d22ac0 <pthread_once@plt>
 429404f:	e8 5c e9 a8 03       	call   7d229b0 <pthread_mutex_lock@plt>
 4294073:	e8 48 e9 a8 03       	call   7d229c0 <pthread_mutex_unlock@plt>
 42949b6:	e8 05 e0 a8 03       	call   7d229c0 <pthread_mutex_unlock@plt>
 4294a32:	e8 89 df a8 03       	call   7d229c0 <pthread_mutex_unlock@plt>
 429580a:	e8 b1 d2 a8 03       	call   7d22ac0 <pthread_once@plt>
 4295e11:	e8 9a cb a8 03       	call   7d229b0 <pthread_mutex_lock@plt>
 4295ec5:	e9 f6 ca a8 03       	jmp    7d229c0 <pthread_mutex_unlock@plt>
 429634a:	e8 61 c6 a8 03       	call   7d229b0 <pthread_mutex_lock@plt>
 4296425:	e9 96 c5 a8 03       	jmp    7d229c0 <pthread_mutex_unlock@plt>
 42964a0:	e8 0b c5 a8 03       	call   7d229b0 <pthread_mutex_lock@plt>
 42967fa:	e9 c1 c1 a8 03       	jmp    7d229c0 <pthread_mutex_unlock@plt>
 42968b4:	e8 f7 c0 a8 03       	call   7d229b0 <pthread_mutex_lock@plt>
 4296ab0:	e8 0b bf a8 03       	call   7d229c0 <pthread_mutex_unlock@plt>
 4296bd3:	e9 e8 bd a8 03       	jmp    7d229c0 <pthread_mutex_unlock@plt>
 4296ca7:	e8 04 bd a8 03       	call   7d229b0 <pthread_mutex_lock@plt>
 4297010:	e9 ab b9 a8 03       	jmp    7d229c0 <pthread_mutex_unlock@plt>
 42973b5:	e8 f6 b5 a8 03       	call   7d229b0 <pthread_mutex_lock@plt>
 4297a84:	e9 37 af a8 03       	jmp    7d229c0 <pthread_mutex_unlock@plt>
 4297c98:	e8 13 ad a8 03       	call   7d229b0 <pthread_mutex_lock@plt>
 4297e35:	e9 86 ab a8 03       	jmp    7d229c0 <pthread_mutex_unlock@plt>
 4297fc8:	e8 e3 a9 a8 03       	call   7d229b0 <pthread_mutex_lock@plt>
 429801c:	e9 9f a9 a8 03       	jmp    7d229c0 <pthread_mutex_unlock@plt>
 429822f:	e8 7c a7 a8 03       	call   7d229b0 <pthread_mutex_lock@plt>
 42982b6:	e8 05 a8 a8 03       	call   7d22ac0 <pthread_once@plt>
 429922e:	e9 8d 97 a8 03       	jmp    7d229c0 <pthread_mutex_unlock@plt>
 4299980:	e8 2b 90 a8 03       	call   7d229b0 <pthread_mutex_lock@plt>
 4299ed9:	e8 e2 8a a8 03       	call   7d229c0 <pthread_mutex_unlock@plt>
 429a40e:	e8 ad 85 a8 03       	call   7d229c0 <pthread_mutex_unlock@plt>
 429a42e:	e8 8d 85 a8 03       	call   7d229c0 <pthread_mutex_unlock@plt>
 429a5d0:	e8 eb 83 a8 03       	call   7d229c0 <pthread_mutex_unlock@plt>
 429a610:	e8 ab 83 a8 03       	call   7d229c0 <pthread_mutex_unlock@plt>
 429a673:	e8 48 83 a8 03       	call   7d229c0 <pthread_mutex_unlock@plt>
 429a7bc:	e8 ff 81 a8 03       	call   7d229c0 <pthread_mutex_unlock@plt>
 429a7eb:	e8 d0 81 a8 03       	call   7d229c0 <pthread_mutex_unlock@plt>
 429a88e:	e8 2d 81 a8 03       	call   7d229c0 <pthread_mutex_unlock@plt>
 429aafe:	e8 bd 7e a8 03       	call   7d229c0 <pthread_mutex_unlock@plt>
 429c148:	e8 73 69 a8 03       	call   7d22ac0 <pthread_once@plt>
 429eca2:	e8 19 3e a8 03       	call   7d22ac0 <pthread_once@plt>
 429efce:	e8 ed 3a a8 03       	call   7d22ac0 <pthread_once@plt>
 429f84e:	e8 6d 32 a8 03       	call   7d22ac0 <pthread_once@plt>
 42a0019:	e8 a2 2a a8 03       	call   7d22ac0 <pthread_once@plt>
 42a1d6a:	e8 51 0d a8 03       	call   7d22ac0 <pthread_once@plt>
 42a23ea:	e8 c1 05 a8 03       	call   7d229b0 <pthread_mutex_lock@plt>
 42a270a:	e8 b1 02 a8 03       	call   7d229c0 <pthread_mutex_unlock@plt>
 42a2b00:	e8 ab fe a7 03       	call   7d229b0 <pthread_mutex_lock@plt>
 42a2b5d:	e9 5e fe a7 03       	jmp    7d229c0 <pthread_mutex_unlock@plt>
 42a2b9b:	e8 10 fe a7 03       	call   7d229b0 <pthread_mutex_lock@plt>
 42a2bb1:	e8 0a fe a7 03       	call   7d229c0 <pthread_mutex_unlock@plt>
 42a2c3d:	e8 6e fd a7 03       	call   7d229b0 <pthread_mutex_lock@plt>
 42a2c88:	e9 33 fd a7 03       	jmp    7d229c0 <pthread_mutex_unlock@plt>
 42a3b06:	e8 a5 ee a7 03       	call   7d229b0 <pthread_mutex_lock@plt>
 42a49cf:	e8 dc df a7 03       	call   7d229b0 <pthread_mutex_lock@plt>
 42a4bfa:	e8 b1 dd a7 03       	call   7d229b0 <pthread_mutex_lock@plt>
 42a4c5a:	e8 51 dd a7 03       	call   7d229b0 <pthread_mutex_lock@plt>
 42a4c73:	e8 48 dd a7 03       	call   7d229c0 <pthread_mutex_unlock@plt>
 42a4cbf:	e8 ec dc a7 03       	call   7d229b0 <pthread_mutex_lock@plt>
 42a4d33:	e8 88 dc a7 03       	call   7d229c0 <pthread_mutex_unlock@plt>
 42a5502:	e8 a9 d4 a7 03       	call   7d229b0 <pthread_mutex_lock@plt>
 42a9129:	e8 82 98 a7 03       	call   7d229b0 <pthread_mutex_lock@plt>
 42a91bf:	e8 fc 97 a7 03       	call   7d229c0 <pthread_mutex_unlock@plt>
 42a97b0:	e8 fb 91 a7 03       	call   7d229b0 <pthread_mutex_lock@plt>
 42aab41:	e8 6a 7e a7 03       	call   7d229b0 <pthread_mutex_lock@plt>
 42aab7f:	e8 3c 7e a7 03       	call   7d229c0 <pthread_mutex_unlock@plt>
 42aac0d:	e9 ae 7d a7 03       	jmp    7d229c0 <pthread_mutex_unlock@plt>
 42ab551:	e8 6a 74 a7 03       	call   7d229c0 <pthread_mutex_unlock@plt>
 42ac0f7:	e8 b4 68 a7 03       	call   7d229b0 <pthread_mutex_lock@plt>
 42ac122:	e8 99 68 a7 03       	call   7d229c0 <pthread_mutex_unlock@plt>
 42ac3ee:	e8 bd 65 a7 03       	call   7d229b0 <pthread_mutex_lock@plt>
 42ac46c:	e8 4f 65 a7 03       	call   7d229c0 <pthread_mutex_unlock@plt>
 42ac88f:	e8 2c 61 a7 03       	call   7d229c0 <pthread_mutex_unlock@plt>
 42ad332:	e8 79 56 a7 03       	call   7d229b0 <pthread_mutex_lock@plt>
 42af07f:	e8 3c 3a a7 03       	call   7d22ac0 <pthread_once@plt>
 42b05cb:	e8 f0 24 a7 03       	call   7d22ac0 <pthread_once@plt>
 42b0855:	e8 66 22 a7 03       	call   7d22ac0 <pthread_once@plt>
 42b2137:	e8 84 09 a7 03       	call   7d22ac0 <pthread_once@plt>
 42b61ae:	e8 0d c9 a6 03       	call   7d22ac0 <pthread_once@plt>
 42b63fa:	e8 b1 c5 a6 03       	call   7d229b0 <pthread_mutex_lock@plt>
 42b644a:	e8 71 c5 a6 03       	call   7d229c0 <pthread_mutex_unlock@plt>
 42c618b:	e8 30 c9 a5 03       	call   7d22ac0 <pthread_once@plt>
 42d0ea6:	e8 15 1c a5 03       	call   7d22ac0 <pthread_once@plt>
 42d36c1:	e8 fa f3 a4 03       	call   7d22ac0 <pthread_once@plt>
 42d8068:	e8 53 aa a4 03       	call   7d22ac0 <pthread_once@plt>
 42dc331:	e8 8a 67 a4 03       	call   7d22ac0 <pthread_once@plt>
 42e1a0b:	e8 b0 10 a4 03       	call   7d22ac0 <pthread_once@plt>
 42e2edb:	e8 e0 fb a3 03       	call   7d22ac0 <pthread_once@plt>
 42eae5b:	e8 60 7c a3 03       	call   7d22ac0 <pthread_once@plt>
 42edbdb:	e8 e0 4e a3 03       	call   7d22ac0 <pthread_once@plt>
 42f6950:	e8 6b c1 a2 03       	call   7d22ac0 <pthread_once@plt>
 42f732a:	e8 81 b6 a2 03       	call   7d229b0 <pthread_mutex_lock@plt>
 42f737a:	e8 41 b6 a2 03       	call   7d229c0 <pthread_mutex_unlock@plt>
 42f98b0:	e8 0b 92 a2 03       	call   7d22ac0 <pthread_once@plt>
 42fab94:	e8 17 7e a2 03       	call   7d229b0 <pthread_mutex_lock@plt>
 42fe2c7:	e8 f4 47 a2 03       	call   7d22ac0 <pthread_once@plt>
 42ff6a2:	e8 09 33 a2 03       	call   7d229b0 <pthread_mutex_lock@plt>
 42ff744:	e9 77 32 a2 03       	jmp    7d229c0 <pthread_mutex_unlock@plt>
 42ff823:	e8 88 31 a2 03       	call   7d229b0 <pthread_mutex_lock@plt>
 42ff876:	e9 45 31 a2 03       	jmp    7d229c0 <pthread_mutex_unlock@plt>
 42ff99f:	e8 0c 30 a2 03       	call   7d229b0 <pthread_mutex_lock@plt>
 42ffa5e:	e8 5d 2f a2 03       	call   7d229c0 <pthread_mutex_unlock@plt>
 42ffc70:	e8 3b 2d a2 03       	call   7d229b0 <pthread_mutex_lock@plt>
 42ffeb6:	e8 05 2b a2 03       	call   7d229c0 <pthread_mutex_unlock@plt>
 4300436:	e8 75 25 a2 03       	call   7d229b0 <pthread_mutex_lock@plt>
 430054c:	e9 6f 24 a2 03       	jmp    7d229c0 <pthread_mutex_unlock@plt>
 43007b4:	e8 07 22 a2 03       	call   7d229c0 <pthread_mutex_unlock@plt>
 4300c6a:	e8 51 1d a2 03       	call   7d229c0 <pthread_mutex_unlock@plt>
 4301d6a:	e8 51 0d a2 03       	call   7d22ac0 <pthread_once@plt>
 4302e2a:	e8 81 fb a1 03       	call   7d229b0 <pthread_mutex_lock@plt>
 4302f6a:	e8 51 fa a1 03       	call   7d229c0 <pthread_mutex_unlock@plt>
 43041d8:	e8 d3 e7 a1 03       	call   7d229b0 <pthread_mutex_lock@plt>
 43041f9:	e8 c2 e7 a1 03       	call   7d229c0 <pthread_mutex_unlock@plt>
 430ce95:	e8 16 5b a1 03       	call   7d229b0 <pthread_mutex_lock@plt>
 430cf38:	e8 83 5a a1 03       	call   7d229c0 <pthread_mutex_unlock@plt>
 431df6a:	e8 41 4a a0 03       	call   7d229b0 <pthread_mutex_lock@plt>
 431df92:	e8 29 4a a0 03       	call   7d229c0 <pthread_mutex_unlock@plt>
 43275a1:	e8 0a b4 9f 03       	call   7d229b0 <pthread_mutex_lock@plt>
 4327634:	e9 87 b3 9f 03       	jmp    7d229c0 <pthread_mutex_unlock@plt>
 432809b:	e8 10 a9 9f 03       	call   7d229b0 <pthread_mutex_lock@plt>
 432810d:	e8 ae a8 9f 03       	call   7d229c0 <pthread_mutex_unlock@plt>
 4338fe8:	e8 c3 99 9e 03       	call   7d229b0 <pthread_mutex_lock@plt>
 4339121:	e8 9a 98 9e 03       	call   7d229c0 <pthread_mutex_unlock@plt>
 433f171:	e8 4a 38 9e 03       	call   7d229c0 <pthread_mutex_unlock@plt>
 43419da:	e8 e1 0f 9e 03       	call   7d229c0 <pthread_mutex_unlock@plt>
 43564ae:	e8 fd c4 9c 03       	call   7d229b0 <pthread_mutex_lock@plt>
 435c6e7:	e8 d4 63 9c 03       	call   7d22ac0 <pthread_once@plt>
 435cae9:	e8 d2 5f 9c 03       	call   7d22ac0 <pthread_once@plt>
 436c0d0:	e8 eb 69 9b 03       	call   7d22ac0 <pthread_once@plt>
 4372884:	e8 37 02 9b 03       	call   7d22ac0 <pthread_once@plt>
 437340a:	e8 a1 f5 9a 03       	call   7d229b0 <pthread_mutex_lock@plt>
 437345a:	e8 61 f5 9a 03       	call   7d229c0 <pthread_mutex_unlock@plt>
 4378b73:	e8 48 9f 9a 03       	call   7d22ac0 <pthread_once@plt>
 437bb19:	e8 a2 6f 9a 03       	call   7d22ac0 <pthread_once@plt>
 437cb2a:	e8 81 5e 9a 03       	call   7d229b0 <pthread_mutex_lock@plt>
 437cb7a:	e8 41 5e 9a 03       	call   7d229c0 <pthread_mutex_unlock@plt>
 437d4b8:	e8 f3 54 9a 03       	call   7d229b0 <pthread_mutex_lock@plt>
 437d4f5:	e9 c6 54 9a 03       	jmp    7d229c0 <pthread_mutex_unlock@plt>
 437d7c9:	e8 e2 51 9a 03       	call   7d229b0 <pthread_mutex_lock@plt>
 437d828:	e9 93 51 9a 03       	jmp    7d229c0 <pthread_mutex_unlock@plt>
 437d845:	e8 76 51 9a 03       	call   7d229c0 <pthread_mutex_unlock@plt>
 437d9b9:	e8 f2 4f 9a 03       	call   7d229b0 <pthread_mutex_lock@plt>
 437da46:	e8 75 4f 9a 03       	call   7d229c0 <pthread_mutex_unlock@plt>
 437db6b:	e8 40 4e 9a 03       	call   7d229b0 <pthread_mutex_lock@plt>
 437dbc8:	e9 f3 4d 9a 03       	jmp    7d229c0 <pthread_mutex_unlock@plt>
 437e97c:	e8 2f 40 9a 03       	call   7d229b0 <pthread_mutex_lock@plt>
 437e9ad:	e8 0e 40 9a 03       	call   7d229c0 <pthread_mutex_unlock@plt>
 437fd05:	e8 a6 2c 9a 03       	call   7d229b0 <pthread_mutex_lock@plt>
 437fd3d:	e9 7e 2c 9a 03       	jmp    7d229c0 <pthread_mutex_unlock@plt>
 43806d3:	e8 d8 22 9a 03       	call   7d229b0 <pthread_mutex_lock@plt>
 4380711:	e8 aa 22 9a 03       	call   7d229c0 <pthread_mutex_unlock@plt>
 438332e:	e8 8d f6 99 03       	call   7d229c0 <pthread_mutex_unlock@plt>
 438827d:	e8 3e a7 99 03       	call   7d229c0 <pthread_mutex_unlock@plt>
 438a853:	e8 58 81 99 03       	call   7d229b0 <pthread_mutex_lock@plt>
 438a991:	e8 2a 80 99 03       	call   7d229c0 <pthread_mutex_unlock@plt>
 438b178:	e8 33 78 99 03       	call   7d229b0 <pthread_mutex_lock@plt>
 438b195:	e8 26 78 99 03       	call   7d229c0 <pthread_mutex_unlock@plt>
 438b2d0:	e9 eb 76 99 03       	jmp    7d229c0 <pthread_mutex_unlock@plt>
 438d6dc:	e8 df 52 99 03       	call   7d229c0 <pthread_mutex_unlock@plt>
 438df7f:	e8 3c 4a 99 03       	call   7d229c0 <pthread_mutex_unlock@plt>
 438e150:	e9 6b 48 99 03       	jmp    7d229c0 <pthread_mutex_unlock@plt>
 4391a40:	e8 7b 0f 99 03       	call   7d229c0 <pthread_mutex_unlock@plt>
 4391bd3:	e8 e8 0d 99 03       	call   7d229c0 <pthread_mutex_unlock@plt>
 4391ecc:	e8 ef 0a 99 03       	call   7d229c0 <pthread_mutex_unlock@plt>
 4393a89:	e8 32 ef 98 03       	call   7d229c0 <pthread_mutex_unlock@plt>
 4393acb:	e8 f0 ee 98 03       	call   7d229c0 <pthread_mutex_unlock@plt>
 439409f:	e8 1c e9 98 03       	call   7d229c0 <pthread_mutex_unlock@plt>
 439439a:	e8 21 e6 98 03       	call   7d229c0 <pthread_mutex_unlock@plt>
 43943e5:	e8 d6 e5 98 03       	call   7d229c0 <pthread_mutex_unlock@plt>
 439e90a:	e8 b1 41 98 03       	call   7d22ac0 <pthread_once@plt>
 439edea:	e8 c1 3b 98 03       	call   7d229b0 <pthread_mutex_lock@plt>
 439ee3a:	e8 81 3b 98 03       	call   7d229c0 <pthread_mutex_unlock@plt>
 439f242:	e8 79 38 98 03       	call   7d22ac0 <pthread_once@plt>
 439f3f2:	e8 c9 36 98 03       	call   7d22ac0 <pthread_once@plt>
 439f5a2:	e8 19 35 98 03       	call   7d22ac0 <pthread_once@plt>
 43a0af1:	e8 ca 1f 98 03       	call   7d22ac0 <pthread_once@plt>
 43a4ee9:	e8 d2 db 97 03       	call   7d22ac0 <pthread_once@plt>
 43afe15:	e8 a6 2c 97 03       	call   7d22ac0 <pthread_once@plt>
 43b1364:	e8 57 17 97 03       	call   7d22ac0 <pthread_once@plt>
 43b1f28:	e8 93 0b 97 03       	call   7d22ac0 <pthread_once@plt>
 43b20ac:	e8 0f 0a 97 03       	call   7d22ac0 <pthread_once@plt>
 43b2190:	e8 2b 09 97 03       	call   7d22ac0 <pthread_once@plt>
 43b3d35:	e8 86 ed 96 03       	call   7d22ac0 <pthread_once@plt>
 43b3e55:	e8 66 ec 96 03       	call   7d22ac0 <pthread_once@plt>
 43b3f39:	e8 82 eb 96 03       	call   7d22ac0 <pthread_once@plt>
 43b53ba:	e8 01 d7 96 03       	call   7d22ac0 <pthread_once@plt>
 43bb5d9:	e8 e2 74 96 03       	call   7d22ac0 <pthread_once@plt>
 43cbcab:	e8 10 6e 95 03       	call   7d22ac0 <pthread_once@plt>
 43d05d0:	e8 eb 24 95 03       	call   7d22ac0 <pthread_once@plt>
 43d68d2:	e8 e9 c1 94 03       	call   7d22ac0 <pthread_once@plt>
 43d7071:	e8 3a b9 94 03       	call   7d229b0 <pthread_mutex_lock@plt>
 43d709d:	e8 1e b9 94 03       	call   7d229c0 <pthread_mutex_unlock@plt>
 43d7563:	e8 48 b4 94 03       	call   7d229b0 <pthread_mutex_lock@plt>
 43d7606:	e8 b5 b3 94 03       	call   7d229c0 <pthread_mutex_unlock@plt>
 43d7873:	e8 38 b1 94 03       	call   7d229b0 <pthread_mutex_lock@plt>
 43d78ea:	e9 d1 b0 94 03       	jmp    7d229c0 <pthread_mutex_unlock@plt>
 43dcefa:	e8 b1 5a 94 03       	call   7d229b0 <pthread_mutex_lock@plt>
 43dd035:	e8 86 59 94 03       	call   7d229c0 <pthread_mutex_unlock@plt>
 43de31b:	e8 90 46 94 03       	call   7d229b0 <pthread_mutex_lock@plt>
 43de454:	e8 67 45 94 03       	call   7d229c0 <pthread_mutex_unlock@plt>
 43e288e:	e8 2d 02 94 03       	call   7d22ac0 <pthread_once@plt>
 43e49ea:	e8 d1 e0 93 03       	call   7d22ac0 <pthread_once@plt>
 43e572a:	e8 81 d2 93 03       	call   7d229b0 <pthread_mutex_lock@plt>
 43e577a:	e8 31 d2 93 03       	call   7d229b0 <pthread_mutex_lock@plt>
 43e57a2:	e9 19 d2 93 03       	jmp    7d229c0 <pthread_mutex_unlock@plt>
 43e5b3a:	e8 81 ce 93 03       	call   7d229c0 <pthread_mutex_unlock@plt>
 43e6978:	e8 33 c0 93 03       	call   7d229b0 <pthread_mutex_lock@plt>
 43e69b5:	e9 06 c0 93 03       	jmp    7d229c0 <pthread_mutex_unlock@plt>
 43e6e26:	e8 85 bb 93 03       	call   7d229b0 <pthread_mutex_lock@plt>
 43e6e93:	e8 28 bb 93 03       	call   7d229c0 <pthread_mutex_unlock@plt>
 43e6f8b:	e8 20 ba 93 03       	call   7d229b0 <pthread_mutex_lock@plt>
 43e6fe8:	e9 d3 b9 93 03       	jmp    7d229c0 <pthread_mutex_unlock@plt>
 43e705e:	e8 4d b9 93 03       	call   7d229b0 <pthread_mutex_lock@plt>
 43e70df:	e9 dc b8 93 03       	jmp    7d229c0 <pthread_mutex_unlock@plt>
 43e70fd:	e8 be b8 93 03       	call   7d229c0 <pthread_mutex_unlock@plt>
 43e7fac:	e8 ff a9 93 03       	call   7d229b0 <pthread_mutex_lock@plt>
 43e7fdd:	e8 de a9 93 03       	call   7d229c0 <pthread_mutex_unlock@plt>
 43e974d:	e8 5e 92 93 03       	call   7d229b0 <pthread_mutex_lock@plt>
 43e978a:	e9 31 92 93 03       	jmp    7d229c0 <pthread_mutex_unlock@plt>
 43eade3:	e8 c8 7b 93 03       	call   7d229b0 <pthread_mutex_lock@plt>
 43eae21:	e8 9a 7b 93 03       	call   7d229c0 <pthread_mutex_unlock@plt>
 43f0834:	e8 77 21 93 03       	call   7d229b0 <pthread_mutex_lock@plt>
 43f086b:	e8 50 21 93 03       	call   7d229c0 <pthread_mutex_unlock@plt>
 43f14a9:	e8 02 15 93 03       	call   7d229b0 <pthread_mutex_lock@plt>
 43f159f:	e8 1c 14 93 03       	call   7d229c0 <pthread_mutex_unlock@plt>
 43fef70:	e8 4b 3a 92 03       	call   7d229c0 <pthread_mutex_unlock@plt>
 43ff239:	e8 82 37 92 03       	call   7d229c0 <pthread_mutex_unlock@plt>
 43ff2db:	e8 e0 36 92 03       	call   7d229c0 <pthread_mutex_unlock@plt>
 43ff575:	e8 46 34 92 03       	call   7d229c0 <pthread_mutex_unlock@plt>
 43ff840:	e8 7b 31 92 03       	call   7d229c0 <pthread_mutex_unlock@plt>
 4402630:	e8 8b 04 92 03       	call   7d22ac0 <pthread_once@plt>
 44080bc:	e8 ef a8 91 03       	call   7d229b0 <pthread_mutex_lock@plt>
 440a66d:	e8 4e 84 91 03       	call   7d22ac0 <pthread_once@plt>
 440d3ed:	e8 ce 56 91 03       	call   7d22ac0 <pthread_once@plt>
 440f3c6:	e8 f5 36 91 03       	call   7d22ac0 <pthread_once@plt>
 441d73b:	e8 80 53 90 03       	call   7d22ac0 <pthread_once@plt>
 4425352:	e8 69 d7 8f 03       	call   7d22ac0 <pthread_once@plt>
 44280ba:	e8 01 aa 8f 03       	call   7d22ac0 <pthread_once@plt>
 442a13a:	e8 81 89 8f 03       	call   7d22ac0 <pthread_once@plt>
 442b0cb:	e8 e0 78 8f 03       	call   7d229b0 <pthread_mutex_lock@plt>
 442b0f7:	e8 c4 78 8f 03       	call   7d229c0 <pthread_mutex_unlock@plt>
 442b231:	e8 7a 77 8f 03       	call   7d229b0 <pthread_mutex_lock@plt>
 442b254:	e9 67 77 8f 03       	jmp    7d229c0 <pthread_mutex_unlock@plt>
 442b298:	e8 13 77 8f 03       	call   7d229b0 <pthread_mutex_lock@plt>
 442b2e6:	e8 d5 76 8f 03       	call   7d229c0 <pthread_mutex_unlock@plt>
 442b387:	e8 24 76 8f 03       	call   7d229b0 <pthread_mutex_lock@plt>
 442b39a:	e8 21 76 8f 03       	call   7d229c0 <pthread_mutex_unlock@plt>
 442d3f1:	e8 ba 55 8f 03       	call   7d229b0 <pthread_mutex_lock@plt>
 442d419:	e8 a2 55 8f 03       	call   7d229c0 <pthread_mutex_unlock@plt>
 442d8e0:	e8 cb 50 8f 03       	call   7d229b0 <pthread_mutex_lock@plt>
 442d918:	e8 a3 50 8f 03       	call   7d229c0 <pthread_mutex_unlock@plt>
 442d95d:	e8 4e 50 8f 03       	call   7d229b0 <pthread_mutex_lock@plt>
 442d985:	e8 36 50 8f 03       	call   7d229c0 <pthread_mutex_unlock@plt>
 442e590:	e8 2b 44 8f 03       	call   7d229c0 <pthread_mutex_unlock@plt>
 442eb73:	e8 48 3e 8f 03       	call   7d229c0 <pthread_mutex_unlock@plt>
 442eca2:	e8 09 3d 8f 03       	call   7d229b0 <pthread_mutex_lock@plt>
 442ecc7:	e8 f4 3c 8f 03       	call   7d229c0 <pthread_mutex_unlock@plt>
 442f49d:	e8 0e 35 8f 03       	call   7d229b0 <pthread_mutex_lock@plt>
 442f57c:	e9 3f 34 8f 03       	jmp    7d229c0 <pthread_mutex_unlock@plt>
 442f8d4:	e8 e7 30 8f 03       	call   7d229c0 <pthread_mutex_unlock@plt>
 4430d81:	e8 3a 1c 8f 03       	call   7d229c0 <pthread_mutex_unlock@plt>
 4430ff1:	e8 ca 19 8f 03       	call   7d229c0 <pthread_mutex_unlock@plt>
 44312be:	e8 fd 16 8f 03       	call   7d229c0 <pthread_mutex_unlock@plt>
 443253a:	e8 71 04 8f 03       	call   7d229b0 <pthread_mutex_lock@plt>
 4432563:	e8 58 04 8f 03       	call   7d229c0 <pthread_mutex_unlock@plt>
 44326ba:	e8 f1 02 8f 03       	call   7d229b0 <pthread_mutex_lock@plt>
 44326d3:	e8 e8 02 8f 03       	call   7d229c0 <pthread_mutex_unlock@plt>
 443276a:	e8 41 02 8f 03       	call   7d229b0 <pthread_mutex_lock@plt>
 4432799:	e8 22 02 8f 03       	call   7d229c0 <pthread_mutex_unlock@plt>
 44327f7:	e8 b4 01 8f 03       	call   7d229b0 <pthread_mutex_lock@plt>
 4432812:	e8 a9 01 8f 03       	call   7d229c0 <pthread_mutex_unlock@plt>
 4432f45:	e8 66 fa 8e 03       	call   7d229b0 <pthread_mutex_lock@plt>
 4432f83:	e9 38 fa 8e 03       	jmp    7d229c0 <pthread_mutex_unlock@plt>
 4432fd1:	e8 da f9 8e 03       	call   7d229b0 <pthread_mutex_lock@plt>
 4433013:	e8 a8 f9 8e 03       	call   7d229c0 <pthread_mutex_unlock@plt>
 443321a:	e8 91 f7 8e 03       	call   7d229b0 <pthread_mutex_lock@plt>
 4433277:	e9 44 f7 8e 03       	jmp    7d229c0 <pthread_mutex_unlock@plt>
 44332aa:	e8 01 f7 8e 03       	call   7d229b0 <pthread_mutex_lock@plt>
 4433307:	e9 b4 f6 8e 03       	jmp    7d229c0 <pthread_mutex_unlock@plt>
 4434361:	e8 4a e6 8e 03       	call   7d229b0 <pthread_mutex_lock@plt>
 44343dc:	e8 df e5 8e 03       	call   7d229c0 <pthread_mutex_unlock@plt>
 443441a:	e8 a1 e5 8e 03       	call   7d229c0 <pthread_mutex_unlock@plt>
 4434422:	e8 89 e5 8e 03       	call   7d229b0 <pthread_mutex_lock@plt>
 44378c8:	e8 e3 b0 8e 03       	call   7d229b0 <pthread_mutex_lock@plt>
 4437a7a:	e8 41 af 8e 03       	call   7d229c0 <pthread_mutex_unlock@plt>
 4437b45:	e8 66 ae 8e 03       	call   7d229b0 <pthread_mutex_lock@plt>
 4437bdf:	e8 cc ad 8e 03       	call   7d229b0 <pthread_mutex_lock@plt>
 4438105:	e8 b6 a8 8e 03       	call   7d229c0 <pthread_mutex_unlock@plt>
 44381d9:	e8 e2 a7 8e 03       	call   7d229c0 <pthread_mutex_unlock@plt>
 44382b5:	e8 f6 a6 8e 03       	call   7d229b0 <pthread_mutex_lock@plt>
 443bbe4:	e8 d7 6d 8e 03       	call   7d229c0 <pthread_mutex_unlock@plt>
 443bc18:	e8 a3 6d 8e 03       	call   7d229c0 <pthread_mutex_unlock@plt>
 443bc46:	e8 75 6d 8e 03       	call   7d229c0 <pthread_mutex_unlock@plt>
 443bc5a:	e8 61 6d 8e 03       	call   7d229c0 <pthread_mutex_unlock@plt>
 443bcd0:	e8 eb 6c 8e 03       	call   7d229c0 <pthread_mutex_unlock@plt>
 443c7f6:	e8 c5 61 8e 03       	call   7d229c0 <pthread_mutex_unlock@plt>
 443d306:	e8 a5 56 8e 03       	call   7d229b0 <pthread_mutex_lock@plt>
 443d34a:	e8 61 56 8e 03       	call   7d229b0 <pthread_mutex_lock@plt>
 443d364:	e8 57 56 8e 03       	call   7d229c0 <pthread_mutex_unlock@plt>
 443d37a:	e9 41 56 8e 03       	jmp    7d229c0 <pthread_mutex_unlock@plt>
 443d388:	e8 23 56 8e 03       	call   7d229b0 <pthread_mutex_lock@plt>
 443d402:	e8 b9 55 8e 03       	call   7d229c0 <pthread_mutex_unlock@plt>
 443eaca:	e8 e1 3e 8e 03       	call   7d229b0 <pthread_mutex_lock@plt>
 443eb1a:	e8 a1 3e 8e 03       	call   7d229c0 <pthread_mutex_unlock@plt>
 4440a89:	e8 22 1f 8e 03       	call   7d229b0 <pthread_mutex_lock@plt>
 4440bc0:	e8 fb 1d 8e 03       	call   7d229c0 <pthread_mutex_unlock@plt>
 4445057:	e8 64 da 8d 03       	call   7d22ac0 <pthread_once@plt>
 44450e2:	e8 d9 d9 8d 03       	call   7d22ac0 <pthread_once@plt>
 444a6d7:	e8 e4 83 8d 03       	call   7d22ac0 <pthread_once@plt>
 444b78b:	e8 30 73 8d 03       	call   7d22ac0 <pthread_once@plt>
 44525c4:	e8 f7 04 8d 03       	call   7d22ac0 <pthread_once@plt>
 445434a:	e8 71 e7 8c 03       	call   7d22ac0 <pthread_once@plt>
 445da27:	e8 84 4f 8c 03       	call   7d229b0 <pthread_mutex_lock@plt>
 445da4e:	e9 6d 4f 8c 03       	jmp    7d229c0 <pthread_mutex_unlock@plt>
 445da8a:	e8 21 4f 8c 03       	call   7d229b0 <pthread_mutex_lock@plt>
 445dad7:	e8 d4 4e 8c 03       	call   7d229b0 <pthread_mutex_lock@plt>
 445db06:	e9 b5 4e 8c 03       	jmp    7d229c0 <pthread_mutex_unlock@plt>
 445db39:	e8 72 4e 8c 03       	call   7d229b0 <pthread_mutex_lock@plt>
 445db6d:	e9 4e 4e 8c 03       	jmp    7d229c0 <pthread_mutex_unlock@plt>
 445db97:	e8 14 4e 8c 03       	call   7d229b0 <pthread_mutex_lock@plt>
 445dbde:	e9 dd 4d 8c 03       	jmp    7d229c0 <pthread_mutex_unlock@plt>
 445dc17:	e8 94 4d 8c 03       	call   7d229b0 <pthread_mutex_lock@plt>
 445dc5e:	e9 5d 4d 8c 03       	jmp    7d229c0 <pthread_mutex_unlock@plt>
 445dc9a:	e8 21 4d 8c 03       	call   7d229c0 <pthread_mutex_unlock@plt>
 445e4fa:	e8 b1 44 8c 03       	call   7d229b0 <pthread_mutex_lock@plt>
 445e520:	e9 9b 44 8c 03       	jmp    7d229c0 <pthread_mutex_unlock@plt>
 445e53f:	e8 6c 44 8c 03       	call   7d229b0 <pthread_mutex_lock@plt>
 445e5a7:	e8 14 44 8c 03       	call   7d229c0 <pthread_mutex_unlock@plt>
 445f2b4:	e8 07 37 8c 03       	call   7d229c0 <pthread_mutex_unlock@plt>
 445ff2a:	e8 81 2a 8c 03       	call   7d229b0 <pthread_mutex_lock@plt>
 445ff50:	e9 6b 2a 8c 03       	jmp    7d229c0 <pthread_mutex_unlock@plt>
 445ff6f:	e8 3c 2a 8c 03       	call   7d229b0 <pthread_mutex_lock@plt>
 445ffd7:	e8 e4 29 8c 03       	call   7d229c0 <pthread_mutex_unlock@plt>
 44600f6:	e8 b5 28 8c 03       	call   7d229b0 <pthread_mutex_lock@plt>
 44618ac:	e8 0f 11 8c 03       	call   7d229c0 <pthread_mutex_unlock@plt>
 4462972:	e8 39 00 8c 03       	call   7d229b0 <pthread_mutex_lock@plt>
 4463051:	e8 5a f9 8b 03       	call   7d229b0 <pthread_mutex_lock@plt>
 44647e7:	e8 c4 e1 8b 03       	call   7d229b0 <pthread_mutex_lock@plt>
 446586b:	e8 40 d1 8b 03       	call   7d229b0 <pthread_mutex_lock@plt>
 4468574:	e8 37 a4 8b 03       	call   7d229b0 <pthread_mutex_lock@plt>
 44685f3:	e8 c8 a3 8b 03       	call   7d229c0 <pthread_mutex_unlock@plt>
 4469587:	e8 24 94 8b 03       	call   7d229b0 <pthread_mutex_lock@plt>
 44695a7:	e8 14 94 8b 03       	call   7d229c0 <pthread_mutex_unlock@plt>
 44695b8:	e8 f3 93 8b 03       	call   7d229b0 <pthread_mutex_lock@plt>
 44695e0:	e8 db 93 8b 03       	call   7d229c0 <pthread_mutex_unlock@plt>
 4469625:	e9 96 93 8b 03       	jmp    7d229c0 <pthread_mutex_unlock@plt>
 4469dd7:	e8 e4 8b 8b 03       	call   7d229c0 <pthread_mutex_unlock@plt>
 4469e26:	e8 95 8b 8b 03       	call   7d229c0 <pthread_mutex_unlock@plt>
 446a2e8:	e8 c3 86 8b 03       	call   7d229b0 <pthread_mutex_lock@plt>
 446a307:	e8 b4 86 8b 03       	call   7d229c0 <pthread_mutex_unlock@plt>
 446a5e8:	e8 d3 83 8b 03       	call   7d229c0 <pthread_mutex_unlock@plt>
 446a63e:	e8 7d 83 8b 03       	call   7d229c0 <pthread_mutex_unlock@plt>
 446ab12:	e8 99 7e 8b 03       	call   7d229b0 <pthread_mutex_lock@plt>
 446ab31:	e8 8a 7e 8b 03       	call   7d229c0 <pthread_mutex_unlock@plt>
 446ad1d:	e8 9e 7d 8b 03       	call   7d22ac0 <pthread_once@plt>
 446b2a7:	e8 04 77 8b 03       	call   7d229b0 <pthread_mutex_lock@plt>
 446b37e:	e9 3d 76 8b 03       	jmp    7d229c0 <pthread_mutex_unlock@plt>
 446b38b:	e8 30 76 8b 03       	call   7d229c0 <pthread_mutex_unlock@plt>
 446b676:	e8 45 73 8b 03       	call   7d229c0 <pthread_mutex_unlock@plt>
 446bd6d:	e8 4e 6c 8b 03       	call   7d229c0 <pthread_mutex_unlock@plt>
 446c2b9:	e8 02 67 8b 03       	call   7d229c0 <pthread_mutex_unlock@plt>
 446c888:	e8 23 61 8b 03       	call   7d229b0 <pthread_mutex_lock@plt>
 446c8ac:	e8 0f 61 8b 03       	call   7d229c0 <pthread_mutex_unlock@plt>
 446ca31:	e8 7a 5f 8b 03       	call   7d229b0 <pthread_mutex_lock@plt>
 446cb32:	e9 89 5e 8b 03       	jmp    7d229c0 <pthread_mutex_unlock@plt>
 446cb86:	e8 35 5e 8b 03       	call   7d229c0 <pthread_mutex_unlock@plt>
 446d2f8:	e8 b3 56 8b 03       	call   7d229b0 <pthread_mutex_lock@plt>
 446d31c:	e8 9f 56 8b 03       	call   7d229c0 <pthread_mutex_unlock@plt>
 446d678:	e8 43 53 8b 03       	call   7d229c0 <pthread_mutex_unlock@plt>
 446d68c:	e8 2f 53 8b 03       	call   7d229c0 <pthread_mutex_unlock@plt>
 446d6d0:	e8 eb 52 8b 03       	call   7d229c0 <pthread_mutex_unlock@plt>
 446d6fc:	e8 bf 52 8b 03       	call   7d229c0 <pthread_mutex_unlock@plt>
 446fc74:	e8 47 2d 8b 03       	call   7d229c0 <pthread_mutex_unlock@plt>
 446fe75:	e8 46 2b 8b 03       	call   7d229c0 <pthread_mutex_unlock@plt>
 44703b2:	e8 09 26 8b 03       	call   7d229c0 <pthread_mutex_unlock@plt>
 44708eb:	e8 d0 20 8b 03       	call   7d229c0 <pthread_mutex_unlock@plt>
 4470d48:	e8 73 1c 8b 03       	call   7d229c0 <pthread_mutex_unlock@plt>
 4470e29:	e8 92 1b 8b 03       	call   7d229c0 <pthread_mutex_unlock@plt>
 4470f1e:	e8 9d 1a 8b 03       	call   7d229c0 <pthread_mutex_unlock@plt>
 44777dc:	e8 df b2 8a 03       	call   7d22ac0 <pthread_once@plt>
 447bd57:	e8 64 6d 8a 03       	call   7d22ac0 <pthread_once@plt>
 448434a:	e8 61 e6 89 03       	call   7d229b0 <pthread_mutex_lock@plt>
 448439a:	e8 21 e6 89 03       	call   7d229c0 <pthread_mutex_unlock@plt>
 4485f3b:	e8 70 ca 89 03       	call   7d229b0 <pthread_mutex_lock@plt>
 44860fc:	e8 bf c8 89 03       	call   7d229c0 <pthread_mutex_unlock@plt>
 4486264:	e9 57 c7 89 03       	jmp    7d229c0 <pthread_mutex_unlock@plt>
 4486509:	e8 a2 c4 89 03       	call   7d229b0 <pthread_mutex_lock@plt>
 4489839:	e8 72 91 89 03       	call   7d229b0 <pthread_mutex_lock@plt>
 4489972:	e8 49 90 89 03       	call   7d229c0 <pthread_mutex_unlock@plt>
 4489a08:	e8 b3 8f 89 03       	call   7d229c0 <pthread_mutex_unlock@plt>
 448a0c4:	e8 e7 88 89 03       	call   7d229b0 <pthread_mutex_lock@plt>
 448a14a:	e8 71 88 89 03       	call   7d229c0 <pthread_mutex_unlock@plt>
 448a400:	e8 ab 85 89 03       	call   7d229b0 <pthread_mutex_lock@plt>
 448a603:	e9 b8 83 89 03       	jmp    7d229c0 <pthread_mutex_unlock@plt>
 448a613:	e8 a8 83 89 03       	call   7d229c0 <pthread_mutex_unlock@plt>
 448ac0c:	e8 9f 7d 89 03       	call   7d229b0 <pthread_mutex_lock@plt>
 448ace4:	e9 d7 7c 89 03       	jmp    7d229c0 <pthread_mutex_unlock@plt>
 448ca06:	e8 b5 5f 89 03       	call   7d229c0 <pthread_mutex_unlock@plt>
 448cbd6:	e8 e5 5d 89 03       	call   7d229c0 <pthread_mutex_unlock@plt>
 448cdf2:	e8 c9 5b 89 03       	call   7d229c0 <pthread_mutex_unlock@plt>
 449b666:	e8 55 74 88 03       	call   7d22ac0 <pthread_once@plt>
 449c7d3:	e8 e8 62 88 03       	call   7d22ac0 <pthread_once@plt>
 449cecb:	e8 f0 5b 88 03       	call   7d22ac0 <pthread_once@plt>
 449e25d:	e8 5e 48 88 03       	call   7d22ac0 <pthread_once@plt>
 44a3d2a:	e8 91 ed 87 03       	call   7d22ac0 <pthread_once@plt>
 44a7c6a:	e8 51 ae 87 03       	call   7d22ac0 <pthread_once@plt>
 44abaaa:	e8 11 70 87 03       	call   7d22ac0 <pthread_once@plt>
 44b13ce:	e8 ed 16 87 03       	call   7d22ac0 <pthread_once@plt>
 44b3f4b:	e8 70 eb 86 03       	call   7d22ac0 <pthread_once@plt>
 44b9cd5:	e8 e6 8d 86 03       	call   7d22ac0 <pthread_once@plt>
 44bbd9d:	e8 0e 6c 86 03       	call   7d229b0 <pthread_mutex_lock@plt>
 44bbe0f:	e8 ac 6b 86 03       	call   7d229c0 <pthread_mutex_unlock@plt>
 44bbfb1:	e8 fa 69 86 03       	call   7d229b0 <pthread_mutex_lock@plt>
 44bc597:	e8 24 64 86 03       	call   7d229c0 <pthread_mutex_unlock@plt>
 44bcb9f:	e8 0c 5e 86 03       	call   7d229b0 <pthread_mutex_lock@plt>
 44bcd35:	e8 86 5c 86 03       	call   7d229c0 <pthread_mutex_unlock@plt>
 44bdbd7:	e8 d4 4d 86 03       	call   7d229b0 <pthread_mutex_lock@plt>
 44bddd0:	e8 eb 4b 86 03       	call   7d229c0 <pthread_mutex_unlock@plt>
 44be262:	e8 59 47 86 03       	call   7d229c0 <pthread_mutex_unlock@plt>
 44be318:	e8 a3 46 86 03       	call   7d229c0 <pthread_mutex_unlock@plt>
 44be583:	e8 38 44 86 03       	call   7d229c0 <pthread_mutex_unlock@plt>
 44bea9b:	e8 10 3f 86 03       	call   7d229b0 <pthread_mutex_lock@plt>
 44bead0:	e9 eb 3e 86 03       	jmp    7d229c0 <pthread_mutex_unlock@plt>
 44beefb:	e8 c0 3b 86 03       	call   7d22ac0 <pthread_once@plt>
 44c06ad:	e8 fe 22 86 03       	call   7d229b0 <pthread_mutex_lock@plt>
 44c06f7:	e9 c4 22 86 03       	jmp    7d229c0 <pthread_mutex_unlock@plt>
 44c1550:	e8 6b 15 86 03       	call   7d22ac0 <pthread_once@plt>
 44c160b:	e8 b0 14 86 03       	call   7d22ac0 <pthread_once@plt>
 44c16c6:	e8 f5 13 86 03       	call   7d22ac0 <pthread_once@plt>
 44c17d0:	e8 eb 12 86 03       	call   7d22ac0 <pthread_once@plt>
 44c188b:	e8 30 12 86 03       	call   7d22ac0 <pthread_once@plt>
 44c1991:	e8 2a 11 86 03       	call   7d22ac0 <pthread_once@plt>
 44c1aef:	e8 cc 0f 86 03       	call   7d22ac0 <pthread_once@plt>
 44c1bc4:	e8 f7 0e 86 03       	call   7d22ac0 <pthread_once@plt>
 44c1c7f:	e8 3c 0e 86 03       	call   7d22ac0 <pthread_once@plt>
 44c2626:	e8 85 03 86 03       	call   7d229b0 <pthread_mutex_lock@plt>
 44c2682:	e8 39 03 86 03       	call   7d229c0 <pthread_mutex_unlock@plt>
 44c2905:	e8 a6 00 86 03       	call   7d229b0 <pthread_mutex_lock@plt>
 44c2974:	e8 47 00 86 03       	call   7d229c0 <pthread_mutex_unlock@plt>
 44c2c30:	e8 7b fd 85 03       	call   7d229b0 <pthread_mutex_lock@plt>
 44c2c53:	e8 68 fd 85 03       	call   7d229c0 <pthread_mutex_unlock@plt>
 44c2c84:	e8 27 fd 85 03       	call   7d229b0 <pthread_mutex_lock@plt>
 44c2ced:	e8 ce fc 85 03       	call   7d229c0 <pthread_mutex_unlock@plt>
 44c32b8:	e8 03 f8 85 03       	call   7d22ac0 <pthread_once@plt>
 44c3fc0:	e8 eb e9 85 03       	call   7d229b0 <pthread_mutex_lock@plt>
 44c3fdb:	e8 e0 e9 85 03       	call   7d229c0 <pthread_mutex_unlock@plt>
 44c5a94:	e8 27 d0 85 03       	call   7d22ac0 <pthread_once@plt>
 44c6edb:	e8 e0 bb 85 03       	call   7d22ac0 <pthread_once@plt>
 44c86fa:	e8 b1 a2 85 03       	call   7d229b0 <pthread_mutex_lock@plt>
 44c870a:	e8 b1 a2 85 03       	call   7d229c0 <pthread_mutex_unlock@plt>
 44c886a:	e8 41 a1 85 03       	call   7d229b0 <pthread_mutex_lock@plt>
 44c88ba:	e8 01 a1 85 03       	call   7d229c0 <pthread_mutex_unlock@plt>
 44c8ad1:	e8 da 9e 85 03       	call   7d229b0 <pthread_mutex_lock@plt>
 44c8afc:	e9 bf 9e 85 03       	jmp    7d229c0 <pthread_mutex_unlock@plt>
 44c8b22:	e8 89 9e 85 03       	call   7d229b0 <pthread_mutex_lock@plt>
 44c8b84:	e8 37 9e 85 03       	call   7d229c0 <pthread_mutex_unlock@plt>
 44c8b93:	e8 28 9e 85 03       	call   7d229c0 <pthread_mutex_unlock@plt>
 44c8ba2:	e8 09 9e 85 03       	call   7d229b0 <pthread_mutex_lock@plt>
 44c8bba:	e8 01 9e 85 03       	call   7d229c0 <pthread_mutex_unlock@plt>
 44c8c29:	e8 82 9d 85 03       	call   7d229b0 <pthread_mutex_lock@plt>
 44c8c70:	e9 4b 9d 85 03       	jmp    7d229c0 <pthread_mutex_unlock@plt>
 44c8cbb:	e8 f0 9c 85 03       	call   7d229b0 <pthread_mutex_lock@plt>
 44c8ced:	e8 ce 9c 85 03       	call   7d229c0 <pthread_mutex_unlock@plt>
 44c8d0c:	e8 9f 9c 85 03       	call   7d229b0 <pthread_mutex_lock@plt>
 44c8d83:	e8 38 9c 85 03       	call   7d229c0 <pthread_mutex_unlock@plt>
 44c8d92:	e8 19 9c 85 03       	call   7d229b0 <pthread_mutex_lock@plt>
 44c8dc5:	e9 f6 9b 85 03       	jmp    7d229c0 <pthread_mutex_unlock@plt>
 44c942a:	e8 81 95 85 03       	call   7d229b0 <pthread_mutex_lock@plt>
 44c9467:	e8 54 95 85 03       	call   7d229c0 <pthread_mutex_unlock@plt>
 44c94c7:	e8 e4 94 85 03       	call   7d229b0 <pthread_mutex_lock@plt>
 44c9533:	e8 78 94 85 03       	call   7d229b0 <pthread_mutex_lock@plt>
 44c95b3:	e8 f8 93 85 03       	call   7d229b0 <pthread_mutex_lock@plt>
 44c95d7:	e8 e4 93 85 03       	call   7d229c0 <pthread_mutex_unlock@plt>
 44c962d:	e8 7e 93 85 03       	call   7d229b0 <pthread_mutex_lock@plt>
 44c9651:	e8 6a 93 85 03       	call   7d229c0 <pthread_mutex_unlock@plt>
 44c96e4:	e8 d7 92 85 03       	call   7d229c0 <pthread_mutex_unlock@plt>
 44c9734:	e8 77 92 85 03       	call   7d229b0 <pthread_mutex_lock@plt>
 44c995b:	e8 50 90 85 03       	call   7d229b0 <pthread_mutex_lock@plt>
 44c997e:	e8 3d 90 85 03       	call   7d229c0 <pthread_mutex_unlock@plt>
 44c99e2:	e8 c9 8f 85 03       	call   7d229b0 <pthread_mutex_lock@plt>
 44c9a05:	e8 b6 8f 85 03       	call   7d229c0 <pthread_mutex_unlock@plt>
 44c9b2e:	e8 8d 8e 85 03       	call   7d229c0 <pthread_mutex_unlock@plt>
 44c9b45:	e8 76 8e 85 03       	call   7d229c0 <pthread_mutex_unlock@plt>
 44c9c5d:	e8 4e 8d 85 03       	call   7d229b0 <pthread_mutex_lock@plt>
 44c9c8a:	e8 31 8d 85 03       	call   7d229c0 <pthread_mutex_unlock@plt>
 44ca0f0:	e8 bb 88 85 03       	call   7d229b0 <pthread_mutex_lock@plt>
 44ca111:	e8 aa 88 85 03       	call   7d229c0 <pthread_mutex_unlock@plt>
 44ca25d:	e8 4e 87 85 03       	call   7d229b0 <pthread_mutex_lock@plt>
 44ca279:	e8 42 87 85 03       	call   7d229c0 <pthread_mutex_unlock@plt>
 44ca294:	e8 17 87 85 03       	call   7d229b0 <pthread_mutex_lock@plt>
 44ca2b2:	e8 09 87 85 03       	call   7d229c0 <pthread_mutex_unlock@plt>
 44ca34a:	e8 61 86 85 03       	call   7d229b0 <pthread_mutex_lock@plt>
 44ca3bb:	e8 00 86 85 03       	call   7d229c0 <pthread_mutex_unlock@plt>
 44ca4c3:	e8 f8 84 85 03       	call   7d229c0 <pthread_mutex_unlock@plt>
 44ca69b:	e8 20 83 85 03       	call   7d229c0 <pthread_mutex_unlock@plt>
 44ca752:	e8 69 82 85 03       	call   7d229c0 <pthread_mutex_unlock@plt>
 44ca8bc:	e8 ff 80 85 03       	call   7d229c0 <pthread_mutex_unlock@plt>
 44ca8c8:	e8 e3 80 85 03       	call   7d229b0 <pthread_mutex_lock@plt>
 44ca8e9:	e8 d2 80 85 03       	call   7d229c0 <pthread_mutex_unlock@plt>
 44cab33:	e8 88 7e 85 03       	call   7d229c0 <pthread_mutex_unlock@plt>
 44ce71b:	e8 a0 43 85 03       	call   7d22ac0 <pthread_once@plt>
 44cfc6d:	e8 4e 2e 85 03       	call   7d22ac0 <pthread_once@plt>
 44d1f4a:	e8 61 0a 85 03       	call   7d229b0 <pthread_mutex_lock@plt>
 44d1f9a:	e8 21 0a 85 03       	call   7d229c0 <pthread_mutex_unlock@plt>
 44d2e44:	e8 67 fb 84 03       	call   7d229b0 <pthread_mutex_lock@plt>
 44d2e5f:	e8 5c fb 84 03       	call   7d229c0 <pthread_mutex_unlock@plt>
 44d31c7:	e8 e4 f7 84 03       	call   7d229b0 <pthread_mutex_lock@plt>
 44d3304:	e8 a7 f6 84 03       	call   7d229b0 <pthread_mutex_lock@plt>
 44d38d4:	e9 e7 f0 84 03       	jmp    7d229c0 <pthread_mutex_unlock@plt>
 44d3937:	e8 74 f0 84 03       	call   7d229b0 <pthread_mutex_lock@plt>
 44d3fc0:	e8 eb e9 84 03       	call   7d229b0 <pthread_mutex_lock@plt>
 44d43d2:	e8 e9 e5 84 03       	call   7d229c0 <pthread_mutex_unlock@plt>
 44d441e:	e8 2d e9 84 03       	call   7d22d50 <pthread_cond_clockwait@plt>
 44d442e:	e8 8d e5 84 03       	call   7d229c0 <pthread_mutex_unlock@plt>
 44d4457:	e8 54 e5 84 03       	call   7d229b0 <pthread_mutex_lock@plt>
 44d44d7:	e8 d4 e4 84 03       	call   7d229b0 <pthread_mutex_lock@plt>
 44d4543:	e8 08 e8 84 03       	call   7d22d50 <pthread_cond_clockwait@plt>
 44d4553:	e8 68 e4 84 03       	call   7d229c0 <pthread_mutex_unlock@plt>
 44d4580:	e8 2b e4 84 03       	call   7d229b0 <pthread_mutex_lock@plt>
 44d4cd8:	e8 d3 dc 84 03       	call   7d229b0 <pthread_mutex_lock@plt>
 44d4d35:	e9 86 dc 84 03       	jmp    7d229c0 <pthread_mutex_unlock@plt>
 44d4f7d:	e8 2e da 84 03       	call   7d229b0 <pthread_mutex_lock@plt>
 44d5146:	e9 75 d8 84 03       	jmp    7d229c0 <pthread_mutex_unlock@plt>
 44d615c:	e8 5f c8 84 03       	call   7d229c0 <pthread_mutex_unlock@plt>
 44d6256:	e8 65 c7 84 03       	call   7d229c0 <pthread_mutex_unlock@plt>
 44d65e2:	e8 d9 c3 84 03       	call   7d229c0 <pthread_mutex_unlock@plt>
 44d68e3:	e8 c8 c0 84 03       	call   7d229b0 <pthread_mutex_lock@plt>
 44d6918:	e8 a3 c0 84 03       	call   7d229c0 <pthread_mutex_unlock@plt>
 44d6a01:	e8 aa bf 84 03       	call   7d229b0 <pthread_mutex_lock@plt>
 44d6a1a:	e8 a1 bf 84 03       	call   7d229c0 <pthread_mutex_unlock@plt>
 44d6a9e:	e8 0d bf 84 03       	call   7d229b0 <pthread_mutex_lock@plt>
 44d6b11:	e8 aa be 84 03       	call   7d229c0 <pthread_mutex_unlock@plt>
 44d7ae0:	e8 db af 84 03       	call   7d22ac0 <pthread_once@plt>
 44d7f9a:	e8 11 aa 84 03       	call   7d229b0 <pthread_mutex_lock@plt>
 44da13f:	e8 7c 89 84 03       	call   7d22ac0 <pthread_once@plt>
 44de0fb:	e8 c0 49 84 03       	call   7d22ac0 <pthread_once@plt>
 44df63b:	e8 80 34 84 03       	call   7d22ac0 <pthread_once@plt>
 44dfffa:	e8 b1 29 84 03       	call   7d229b0 <pthread_mutex_lock@plt>
 44e014a:	e8 71 28 84 03       	call   7d229c0 <pthread_mutex_unlock@plt>
 44e03a5:	e8 06 26 84 03       	call   7d229b0 <pthread_mutex_lock@plt>
 44e03cf:	e9 ec 25 84 03       	jmp    7d229c0 <pthread_mutex_unlock@plt>
 44e0453:	e8 68 25 84 03       	call   7d229c0 <pthread_mutex_unlock@plt>
 44e06db:	e8 d0 22 84 03       	call   7d229b0 <pthread_mutex_lock@plt>
 44e0811:	e9 aa 21 84 03       	jmp    7d229c0 <pthread_mutex_unlock@plt>
 44e0ab9:	e8 f2 1e 84 03       	call   7d229b0 <pthread_mutex_lock@plt>
 44e0b94:	e8 17 1e 84 03       	call   7d229b0 <pthread_mutex_lock@plt>
 44e0de8:	e8 c3 1b 84 03       	call   7d229b0 <pthread_mutex_lock@plt>
 44e10bb:	e8 f0 18 84 03       	call   7d229b0 <pthread_mutex_lock@plt>
 44e1121:	e8 8a 18 84 03       	call   7d229b0 <pthread_mutex_lock@plt>
 44e1147:	e8 74 18 84 03       	call   7d229c0 <pthread_mutex_unlock@plt>
 44e11a4:	e8 07 18 84 03       	call   7d229b0 <pthread_mutex_lock@plt>
 44e1230:	e8 7b 17 84 03       	call   7d229b0 <pthread_mutex_lock@plt>
 44e1a39:	e8 72 0f 84 03       	call   7d229b0 <pthread_mutex_lock@plt>
 44e1aa2:	e8 19 0f 84 03       	call   7d229c0 <pthread_mutex_unlock@plt>
 44e1b20:	e8 9b 0e 84 03       	call   7d229c0 <pthread_mutex_unlock@plt>
 44e1c45:	e8 76 0d 84 03       	call   7d229c0 <pthread_mutex_unlock@plt>
 44e1ffb:	e8 b0 09 84 03       	call   7d229b0 <pthread_mutex_lock@plt>
 44e2041:	e8 7a 09 84 03       	call   7d229c0 <pthread_mutex_unlock@plt>
 44e205b:	e8 50 09 84 03       	call   7d229b0 <pthread_mutex_lock@plt>
 44e20b0:	e8 0b 09 84 03       	call   7d229c0 <pthread_mutex_unlock@plt>
 44e243c:	e8 6f 05 84 03       	call   7d229b0 <pthread_mutex_lock@plt>
 44e24bd:	e8 fe 04 84 03       	call   7d229c0 <pthread_mutex_unlock@plt>
 44e284b:	e8 60 01 84 03       	call   7d229b0 <pthread_mutex_lock@plt>
 44e28b1:	e8 0a 01 84 03       	call   7d229c0 <pthread_mutex_unlock@plt>
 44e2930:	e8 8b 00 84 03       	call   7d229c0 <pthread_mutex_unlock@plt>
 44e2a15:	e8 a6 ff 83 03       	call   7d229c0 <pthread_mutex_unlock@plt>
 44e2b2b:	e8 80 fe 83 03       	call   7d229b0 <pthread_mutex_lock@plt>
 44e2b91:	e8 2a fe 83 03       	call   7d229c0 <pthread_mutex_unlock@plt>
 44e2c10:	e8 ab fd 83 03       	call   7d229c0 <pthread_mutex_unlock@plt>
 44e2cf5:	e8 c6 fc 83 03       	call   7d229c0 <pthread_mutex_unlock@plt>
 44e334a:	e8 61 f6 83 03       	call   7d229b0 <pthread_mutex_lock@plt>
 44e336a:	e8 51 f6 83 03       	call   7d229c0 <pthread_mutex_unlock@plt>
 44e3797:	e8 14 f2 83 03       	call   7d229b0 <pthread_mutex_lock@plt>
 44e37ab:	e8 10 f2 83 03       	call   7d229c0 <pthread_mutex_unlock@plt>
 44e40c6:	e8 f5 e8 83 03       	call   7d229c0 <pthread_mutex_unlock@plt>
 44e46d4:	e8 d7 e2 83 03       	call   7d229b0 <pthread_mutex_lock@plt>
 44e4722:	e8 99 e2 83 03       	call   7d229c0 <pthread_mutex_unlock@plt>
 44e4943:	e8 78 e0 83 03       	call   7d229c0 <pthread_mutex_unlock@plt>
 44e5245:	e8 66 d7 83 03       	call   7d229b0 <pthread_mutex_lock@plt>
 44e5279:	e8 42 d7 83 03       	call   7d229c0 <pthread_mutex_unlock@plt>
 44e52d7:	e8 d4 d6 83 03       	call   7d229b0 <pthread_mutex_lock@plt>
 44e5350:	e8 6b d6 83 03       	call   7d229c0 <pthread_mutex_unlock@plt>
 44e56dc:	e8 cf d2 83 03       	call   7d229b0 <pthread_mutex_lock@plt>
 44e572a:	e8 91 d2 83 03       	call   7d229c0 <pthread_mutex_unlock@plt>
 44e64c2:	e8 f9 c4 83 03       	call   7d229c0 <pthread_mutex_unlock@plt>
 44e6997:	e8 24 c0 83 03       	call   7d229c0 <pthread_mutex_unlock@plt>
 44e6c90:	e8 1b bd 83 03       	call   7d229b0 <pthread_mutex_lock@plt>
 44e6cdd:	e8 de bc 83 03       	call   7d229c0 <pthread_mutex_unlock@plt>
 44e74f7:	e8 c4 b4 83 03       	call   7d229c0 <pthread_mutex_unlock@plt>
 44e7fcb:	e8 f0 a9 83 03       	call   7d229c0 <pthread_mutex_unlock@plt>
 44e824f:	e8 5c a7 83 03       	call   7d229b0 <pthread_mutex_lock@plt>
 44e829c:	e8 1f a7 83 03       	call   7d229c0 <pthread_mutex_unlock@plt>
 44e8ac5:	e8 e6 9e 83 03       	call   7d229b0 <pthread_mutex_lock@plt>
 44e8af9:	e8 c2 9e 83 03       	call   7d229c0 <pthread_mutex_unlock@plt>
 44e8b58:	e8 53 9e 83 03       	call   7d229b0 <pthread_mutex_lock@plt>
 44e8bd3:	e8 e8 9d 83 03       	call   7d229c0 <pthread_mutex_unlock@plt>
 44e8fcc:	e8 df 99 83 03       	call   7d229b0 <pthread_mutex_lock@plt>
 44e901a:	e8 a1 99 83 03       	call   7d229c0 <pthread_mutex_unlock@plt>
 44ea3a5:	e8 16 86 83 03       	call   7d229c0 <pthread_mutex_unlock@plt>
 44ea7bb:	e8 00 82 83 03       	call   7d229c0 <pthread_mutex_unlock@plt>
 44eaf97:	e8 24 7a 83 03       	call   7d229c0 <pthread_mutex_unlock@plt>
 44eafcd:	e8 de 79 83 03       	call   7d229b0 <pthread_mutex_lock@plt>
 44eb02f:	e8 8c 79 83 03       	call   7d229c0 <pthread_mutex_unlock@plt>
 44eb042:	e8 79 79 83 03       	call   7d229c0 <pthread_mutex_unlock@plt>
 44eb960:	e8 5b 70 83 03       	call   7d229c0 <pthread_mutex_unlock@plt>
 44eb9c0:	e8 eb 6f 83 03       	call   7d229b0 <pthread_mutex_lock@plt>
 44eba52:	e8 69 6f 83 03       	call   7d229c0 <pthread_mutex_unlock@plt>
 44ebbed:	e8 ce 6d 83 03       	call   7d229c0 <pthread_mutex_unlock@plt>
 44edfd5:	e8 e6 4a 83 03       	call   7d22ac0 <pthread_once@plt>
 44ef8da:	e8 e1 31 83 03       	call   7d22ac0 <pthread_once@plt>
 44f0736:	e8 85 23 83 03       	call   7d22ac0 <pthread_once@plt>
 44f0bba:	e8 f1 1d 83 03       	call   7d229b0 <pthread_mutex_lock@plt>
 44f0e2a:	e8 91 1b 83 03       	call   7d229c0 <pthread_mutex_unlock@plt>
 44f124d:	e8 5e 17 83 03       	call   7d229b0 <pthread_mutex_lock@plt>
 44f1289:	e8 32 17 83 03       	call   7d229c0 <pthread_mutex_unlock@plt>
 44f17ad:	e8 fe 11 83 03       	call   7d229b0 <pthread_mutex_lock@plt>
 44f18b6:	e9 05 11 83 03       	jmp    7d229c0 <pthread_mutex_unlock@plt>
 44f1921:	e8 8a 10 83 03       	call   7d229b0 <pthread_mutex_lock@plt>
 44f195f:	e8 5c 10 83 03       	call   7d229c0 <pthread_mutex_unlock@plt>
 44f1977:	e9 44 10 83 03       	jmp    7d229c0 <pthread_mutex_unlock@plt>
 44f1ca3:	e8 08 0d 83 03       	call   7d229b0 <pthread_mutex_lock@plt>
 44f1cff:	e8 bc 0c 83 03       	call   7d229c0 <pthread_mutex_unlock@plt>
 44f1d7b:	e8 30 0c 83 03       	call   7d229b0 <pthread_mutex_lock@plt>
 44f1dc7:	e8 f4 0b 83 03       	call   7d229c0 <pthread_mutex_unlock@plt>
 44f2532:	e8 79 04 83 03       	call   7d229b0 <pthread_mutex_lock@plt>
 44f257b:	e8 40 04 83 03       	call   7d229c0 <pthread_mutex_unlock@plt>
 44f2650:	e8 5b 03 83 03       	call   7d229b0 <pthread_mutex_lock@plt>
 44f27f2:	e8 b9 01 83 03       	call   7d229b0 <pthread_mutex_lock@plt>
 44f2804:	e8 b7 01 83 03       	call   7d229c0 <pthread_mutex_unlock@plt>
 44f2876:	e8 35 01 83 03       	call   7d229b0 <pthread_mutex_lock@plt>
 44f29f3:	e8 b8 ff 82 03       	call   7d229b0 <pthread_mutex_lock@plt>
 44f2b06:	e8 b5 fe 82 03       	call   7d229c0 <pthread_mutex_unlock@plt>
 44f2b97:	e8 14 fe 82 03       	call   7d229b0 <pthread_mutex_lock@plt>
 44f2be8:	e8 d3 fd 82 03       	call   7d229c0 <pthread_mutex_unlock@plt>
 44f2eb7:	e9 04 fb 82 03       	jmp    7d229c0 <pthread_mutex_unlock@plt>
 44f3137:	e8 74 f8 82 03       	call   7d229b0 <pthread_mutex_lock@plt>
 44f3185:	e8 36 f8 82 03       	call   7d229c0 <pthread_mutex_unlock@plt>
 44f424b:	e8 60 e7 82 03       	call   7d229b0 <pthread_mutex_lock@plt>
 44f4280:	e8 3b e7 82 03       	call   7d229c0 <pthread_mutex_unlock@plt>
 44f42ce:	e8 dd e6 82 03       	call   7d229b0 <pthread_mutex_lock@plt>
 44f433a:	e8 81 e6 82 03       	call   7d229c0 <pthread_mutex_unlock@plt>
 44f4357:	e8 54 e6 82 03       	call   7d229b0 <pthread_mutex_lock@plt>
 44f4391:	e8 2a e6 82 03       	call   7d229c0 <pthread_mutex_unlock@plt>
 44f4b6a:	e8 51 de 82 03       	call   7d229c0 <pthread_mutex_unlock@plt>
 44f4c22:	e8 99 dd 82 03       	call   7d229c0 <pthread_mutex_unlock@plt>
 44f4c3a:	e8 81 dd 82 03       	call   7d229c0 <pthread_mutex_unlock@plt>
 44f4f63:	e8 58 da 82 03       	call   7d229c0 <pthread_mutex_unlock@plt>
 44f505c:	e8 5f d9 82 03       	call   7d229c0 <pthread_mutex_unlock@plt>
 44f519f:	e8 1c d8 82 03       	call   7d229c0 <pthread_mutex_unlock@plt>
 44f5541:	e8 7a d4 82 03       	call   7d229c0 <pthread_mutex_unlock@plt>
 44f555f:	e8 5c d4 82 03       	call   7d229c0 <pthread_mutex_unlock@plt>
 44f5576:	e8 35 d4 82 03       	call   7d229b0 <pthread_mutex_lock@plt>
 44f55cd:	e8 ee d3 82 03       	call   7d229c0 <pthread_mutex_unlock@plt>
 44f5f68:	e8 53 cb 82 03       	call   7d22ac0 <pthread_once@plt>
 44f71ba:	e8 f1 b7 82 03       	call   7d229b0 <pthread_mutex_lock@plt>
 44f760a:	e8 b1 b3 82 03       	call   7d229c0 <pthread_mutex_unlock@plt>
 44f8f8c:	e8 1f 9a 82 03       	call   7d229b0 <pthread_mutex_lock@plt>
 44f9251:	e8 5a 97 82 03       	call   7d229b0 <pthread_mutex_lock@plt>
 44f926b:	e8 50 97 82 03       	call   7d229c0 <pthread_mutex_unlock@plt>
 44fa0d6:	e8 e5 88 82 03       	call   7d229c0 <pthread_mutex_unlock@plt>
 44fa1d3:	e8 e8 87 82 03       	call   7d229c0 <pthread_mutex_unlock@plt>
 44fa2a6:	e8 15 87 82 03       	call   7d229c0 <pthread_mutex_unlock@plt>
 44fa3a3:	e8 18 86 82 03       	call   7d229c0 <pthread_mutex_unlock@plt>
 44fa489:	e8 32 85 82 03       	call   7d229c0 <pthread_mutex_unlock@plt>
 44fa669:	e8 52 83 82 03       	call   7d229c0 <pthread_mutex_unlock@plt>
 44fa849:	e8 72 81 82 03       	call   7d229c0 <pthread_mutex_unlock@plt>
 44faa29:	e8 92 7f 82 03       	call   7d229c0 <pthread_mutex_unlock@plt>
 44fac09:	e8 b2 7d 82 03       	call   7d229c0 <pthread_mutex_unlock@plt>
 44fade9:	e8 d2 7b 82 03       	call   7d229c0 <pthread_mutex_unlock@plt>
 44ff0f8:	e8 c3 38 82 03       	call   7d229c0 <pthread_mutex_unlock@plt>
 44ff1ac:	e8 0f 38 82 03       	call   7d229c0 <pthread_mutex_unlock@plt>
 44ff1ef:	e8 cc 37 82 03       	call   7d229c0 <pthread_mutex_unlock@plt>
 44ff368:	e8 53 36 82 03       	call   7d229c0 <pthread_mutex_unlock@plt>
 44ff41c:	e8 9f 35 82 03       	call   7d229c0 <pthread_mutex_unlock@plt>
 44ff45f:	e8 5c 35 82 03       	call   7d229c0 <pthread_mutex_unlock@plt>
 44ff5d8:	e8 e3 33 82 03       	call   7d229c0 <pthread_mutex_unlock@plt>
 44ff68a:	e8 31 33 82 03       	call   7d229c0 <pthread_mutex_unlock@plt>
 44ff726:	e8 95 32 82 03       	call   7d229c0 <pthread_mutex_unlock@plt>
 44ff8a8:	e8 13 31 82 03       	call   7d229c0 <pthread_mutex_unlock@plt>
 44ff95c:	e8 5f 30 82 03       	call   7d229c0 <pthread_mutex_unlock@plt>
 44ff99f:	e8 1c 30 82 03       	call   7d229c0 <pthread_mutex_unlock@plt>
 44ffb18:	e8 a3 2e 82 03       	call   7d229c0 <pthread_mutex_unlock@plt>
 44ffbcc:	e8 ef 2d 82 03       	call   7d229c0 <pthread_mutex_unlock@plt>
 44ffc0f:	e8 ac 2d 82 03       	call   7d229c0 <pthread_mutex_unlock@plt>
 44ffd88:	e8 33 2c 82 03       	call   7d229c0 <pthread_mutex_unlock@plt>
 44ffe3c:	e8 7f 2b 82 03       	call   7d229c0 <pthread_mutex_unlock@plt>
 44ffe7f:	e8 3c 2b 82 03       	call   7d229c0 <pthread_mutex_unlock@plt>
 450010c:	e8 9f 28 82 03       	call   7d229b0 <pthread_mutex_lock@plt>
 4500360:	e8 5b 26 82 03       	call   7d229c0 <pthread_mutex_unlock@plt>
 45004d6:	e8 e5 24 82 03       	call   7d229c0 <pthread_mutex_unlock@plt>
 4500bed:	e8 ce 1d 82 03       	call   7d229c0 <pthread_mutex_unlock@plt>
 450104c:	e8 5f 19 82 03       	call   7d229b0 <pthread_mutex_lock@plt>
 450130f:	e8 ac 16 82 03       	call   7d229c0 <pthread_mutex_unlock@plt>
 4501546:	e8 75 14 82 03       	call   7d229c0 <pthread_mutex_unlock@plt>
 4501b16:	e8 a5 0e 82 03       	call   7d229c0 <pthread_mutex_unlock@plt>
 4501ed9:	e8 d2 0a 82 03       	call   7d229b0 <pthread_mutex_lock@plt>
 450212d:	e8 8e 08 82 03       	call   7d229c0 <pthread_mutex_unlock@plt>
 45026b6:	e8 05 03 82 03       	call   7d229c0 <pthread_mutex_unlock@plt>
 4502bcd:	e8 ee fd 81 03       	call   7d229c0 <pthread_mutex_unlock@plt>
 4505ccb:	e8 e0 cc 81 03       	call   7d229b0 <pthread_mutex_lock@plt>
 4507808:	e8 b3 b1 81 03       	call   7d229c0 <pthread_mutex_unlock@plt>
 45078ba:	e8 01 b1 81 03       	call   7d229c0 <pthread_mutex_unlock@plt>
 4507993:	e8 28 b0 81 03       	call   7d229c0 <pthread_mutex_unlock@plt>
 4509138:	e8 83 98 81 03       	call   7d229c0 <pthread_mutex_unlock@plt>
 45091ea:	e8 d1 97 81 03       	call   7d229c0 <pthread_mutex_unlock@plt>
 45092b9:	e8 02 97 81 03       	call   7d229c0 <pthread_mutex_unlock@plt>
 4509612:	e8 99 93 81 03       	call   7d229b0 <pthread_mutex_lock@plt>
 4509a74:	e8 47 8f 81 03       	call   7d229c0 <pthread_mutex_unlock@plt>
 450a071:	e8 4a 89 81 03       	call   7d229c0 <pthread_mutex_unlock@plt>
 450a0d5:	e8 e6 88 81 03       	call   7d229c0 <pthread_mutex_unlock@plt>
 450abec:	e8 bf 7d 81 03       	call   7d229b0 <pthread_mutex_lock@plt>
 450ae40:	e8 7b 7b 81 03       	call   7d229c0 <pthread_mutex_unlock@plt>
 450b4b6:	e8 05 75 81 03       	call   7d229c0 <pthread_mutex_unlock@plt>
 450ba3d:	e8 7e 6f 81 03       	call   7d229c0 <pthread_mutex_unlock@plt>
 450bef5:	e8 b6 6a 81 03       	call   7d229b0 <pthread_mutex_lock@plt>
 450c201:	e8 ba 67 81 03       	call   7d229c0 <pthread_mutex_unlock@plt>
 450c6f1:	e8 ca 62 81 03       	call   7d229c0 <pthread_mutex_unlock@plt>
 450c756:	e8 65 62 81 03       	call   7d229c0 <pthread_mutex_unlock@plt>
 450d04c:	e8 5f 59 81 03       	call   7d229b0 <pthread_mutex_lock@plt>
 450d2a0:	e8 1b 57 81 03       	call   7d229c0 <pthread_mutex_unlock@plt>
 450d856:	e8 65 51 81 03       	call   7d229c0 <pthread_mutex_unlock@plt>
 450dbfd:	e8 be 4d 81 03       	call   7d229c0 <pthread_mutex_unlock@plt>
 4513810:	e8 9b f1 80 03       	call   7d229b0 <pthread_mutex_lock@plt>
 451383c:	e8 7f f1 80 03       	call   7d229c0 <pthread_mutex_unlock@plt>
 45144cc:	e8 df e4 80 03       	call   7d229b0 <pthread_mutex_lock@plt>
 4514720:	e8 9b e2 80 03       	call   7d229c0 <pthread_mutex_unlock@plt>
 45148ae:	e8 0d e1 80 03       	call   7d229c0 <pthread_mutex_unlock@plt>
 4515055:	e8 66 d9 80 03       	call   7d229c0 <pthread_mutex_unlock@plt>
 4515a52:	e8 69 cf 80 03       	call   7d229c0 <pthread_mutex_unlock@plt>
 4515a72:	e8 49 cf 80 03       	call   7d229c0 <pthread_mutex_unlock@plt>
 4515a82:	e8 39 cf 80 03       	call   7d229c0 <pthread_mutex_unlock@plt>
 4515aa2:	e8 19 cf 80 03       	call   7d229c0 <pthread_mutex_unlock@plt>
 4515ab2:	e8 09 cf 80 03       	call   7d229c0 <pthread_mutex_unlock@plt>
 4515ad0:	e8 eb ce 80 03       	call   7d229c0 <pthread_mutex_unlock@plt>
 4515aee:	e8 cd ce 80 03       	call   7d229c0 <pthread_mutex_unlock@plt>
 4515b0c:	e8 af ce 80 03       	call   7d229c0 <pthread_mutex_unlock@plt>
 4515b2a:	e8 91 ce 80 03       	call   7d229c0 <pthread_mutex_unlock@plt>
 4515b48:	e8 73 ce 80 03       	call   7d229c0 <pthread_mutex_unlock@plt>
 4515b66:	e8 55 ce 80 03       	call   7d229c0 <pthread_mutex_unlock@plt>
 4515b84:	e8 37 ce 80 03       	call   7d229c0 <pthread_mutex_unlock@plt>
 4515ba2:	e8 19 ce 80 03       	call   7d229c0 <pthread_mutex_unlock@plt>
 4515bc0:	e8 fb cd 80 03       	call   7d229c0 <pthread_mutex_unlock@plt>
 4515bde:	e8 dd cd 80 03       	call   7d229c0 <pthread_mutex_unlock@plt>
 4515bfc:	e8 bf cd 80 03       	call   7d229c0 <pthread_mutex_unlock@plt>
 45165cf:	e8 ec c3 80 03       	call   7d229c0 <pthread_mutex_unlock@plt>
 4516602:	e8 b9 c3 80 03       	call   7d229c0 <pthread_mutex_unlock@plt>
 451668b:	e8 30 c3 80 03       	call   7d229c0 <pthread_mutex_unlock@plt>
 45166be:	e8 fd c2 80 03       	call   7d229c0 <pthread_mutex_unlock@plt>
 4516769:	e8 42 c2 80 03       	call   7d229b0 <pthread_mutex_lock@plt>
 4516782:	e8 39 c2 80 03       	call   7d229c0 <pthread_mutex_unlock@plt>
 45167fa:	e8 c1 c1 80 03       	call   7d229c0 <pthread_mutex_unlock@plt>
 4516823:	e8 98 c1 80 03       	call   7d229c0 <pthread_mutex_unlock@plt>
 4516873:	e8 48 c1 80 03       	call   7d229c0 <pthread_mutex_unlock@plt>
 45168a6:	e8 15 c1 80 03       	call   7d229c0 <pthread_mutex_unlock@plt>
 451692f:	e8 8c c0 80 03       	call   7d229c0 <pthread_mutex_unlock@plt>
 4516962:	e8 59 c0 80 03       	call   7d229c0 <pthread_mutex_unlock@plt>
 45169eb:	e8 d0 bf 80 03       	call   7d229c0 <pthread_mutex_unlock@plt>
 4516a1e:	e8 9d bf 80 03       	call   7d229c0 <pthread_mutex_unlock@plt>
 4516abf:	e8 fc be 80 03       	call   7d229c0 <pthread_mutex_unlock@plt>
 4516bb4:	e8 07 be 80 03       	call   7d229c0 <pthread_mutex_unlock@plt>
 4516d45:	e8 76 bc 80 03       	call   7d229c0 <pthread_mutex_unlock@plt>
 4516e8e:	e8 2d bb 80 03       	call   7d229c0 <pthread_mutex_unlock@plt>
 4516edd:	e8 de ba 80 03       	call   7d229c0 <pthread_mutex_unlock@plt>
 451711c:	e8 9f b8 80 03       	call   7d229c0 <pthread_mutex_unlock@plt>
 45171a0:	e8 1b b8 80 03       	call   7d229c0 <pthread_mutex_unlock@plt>
 45173b5:	e8 06 b6 80 03       	call   7d229c0 <pthread_mutex_unlock@plt>
 4517473:	e8 48 b5 80 03       	call   7d229c0 <pthread_mutex_unlock@plt>
 45183f2:	e8 b9 a5 80 03       	call   7d229b0 <pthread_mutex_lock@plt>
 451840b:	e8 b0 a5 80 03       	call   7d229c0 <pthread_mutex_unlock@plt>
 451847b:	e8 40 a5 80 03       	call   7d229c0 <pthread_mutex_unlock@plt>
 45184ab:	e8 10 a5 80 03       	call   7d229c0 <pthread_mutex_unlock@plt>
 4518918:	e8 93 a0 80 03       	call   7d229b0 <pthread_mutex_lock@plt>
 4518931:	e8 8a a0 80 03       	call   7d229c0 <pthread_mutex_unlock@plt>
 45189a1:	e8 1a a0 80 03       	call   7d229c0 <pthread_mutex_unlock@plt>
 45189d1:	e8 ea 9f 80 03       	call   7d229c0 <pthread_mutex_unlock@plt>
 4518c3a:	e8 81 9d 80 03       	call   7d229c0 <pthread_mutex_unlock@plt>
 4518ce9:	e8 d2 9c 80 03       	call   7d229c0 <pthread_mutex_unlock@plt>
 4518dff:	e8 bc 9b 80 03       	call   7d229c0 <pthread_mutex_unlock@plt>
 451904b:	e8 70 99 80 03       	call   7d229c0 <pthread_mutex_unlock@plt>
 4519070:	e8 4b 99 80 03       	call   7d229c0 <pthread_mutex_unlock@plt>
 4519236:	e8 85 97 80 03       	call   7d229c0 <pthread_mutex_unlock@plt>
 45194ca:	e8 f1 94 80 03       	call   7d229c0 <pthread_mutex_unlock@plt>
 45194ef:	e8 cc 94 80 03       	call   7d229c0 <pthread_mutex_unlock@plt>
 45197a1:	e8 1a 92 80 03       	call   7d229c0 <pthread_mutex_unlock@plt>
 4519a1a:	e8 a1 8f 80 03       	call   7d229c0 <pthread_mutex_unlock@plt>
 4519aa3:	e8 18 8f 80 03       	call   7d229c0 <pthread_mutex_unlock@plt>
 4519acd:	e8 ee 8e 80 03       	call   7d229c0 <pthread_mutex_unlock@plt>
 451b597:	e8 24 74 80 03       	call   7d229c0 <pthread_mutex_unlock@plt>
 451b5e3:	e8 d8 73 80 03       	call   7d229c0 <pthread_mutex_unlock@plt>
 451b74b:	e8 70 72 80 03       	call   7d229c0 <pthread_mutex_unlock@plt>
 4522adf:	e8 dc ff 7f 03       	call   7d22ac0 <pthread_once@plt>
 452342a:	e8 81 f5 7f 03       	call   7d229b0 <pthread_mutex_lock@plt>
 452366a:	e8 51 f3 7f 03       	call   7d229c0 <pthread_mutex_unlock@plt>
 45236c2:	e8 e9 f2 7f 03       	call   7d229b0 <pthread_mutex_lock@plt>
 452372e:	e8 8d f2 7f 03       	call   7d229c0 <pthread_mutex_unlock@plt>
 45237c2:	e8 e9 f1 7f 03       	call   7d229b0 <pthread_mutex_lock@plt>
 4523848:	e8 73 f1 7f 03       	call   7d229c0 <pthread_mutex_unlock@plt>
 45238bb:	e8 00 f1 7f 03       	call   7d229c0 <pthread_mutex_unlock@plt>
 4523912:	e8 99 f0 7f 03       	call   7d229b0 <pthread_mutex_lock@plt>
 4523998:	e8 23 f0 7f 03       	call   7d229c0 <pthread_mutex_unlock@plt>
 4523a13:	e8 a8 ef 7f 03       	call   7d229c0 <pthread_mutex_unlock@plt>
 4523c32:	e8 79 ed 7f 03       	call   7d229b0 <pthread_mutex_lock@plt>
 4523c4d:	e8 6e ed 7f 03       	call   7d229c0 <pthread_mutex_unlock@plt>
 4523c60:	e8 4b ed 7f 03       	call   7d229b0 <pthread_mutex_lock@plt>
 4523cd9:	e8 e2 ec 7f 03       	call   7d229c0 <pthread_mutex_unlock@plt>
 4525ffa:	e8 b1 c9 7f 03       	call   7d229b0 <pthread_mutex_lock@plt>
 452601f:	e8 9c c9 7f 03       	call   7d229c0 <pthread_mutex_unlock@plt>
 452605a:	e8 51 c9 7f 03       	call   7d229b0 <pthread_mutex_lock@plt>
 452606d:	e8 4e c9 7f 03       	call   7d229c0 <pthread_mutex_unlock@plt>
 452616d:	e8 3e c8 7f 03       	call   7d229b0 <pthread_mutex_lock@plt>
 4526192:	e9 29 c8 7f 03       	jmp    7d229c0 <pthread_mutex_unlock@plt>
 4526207:	e8 a4 c7 7f 03       	call   7d229b0 <pthread_mutex_lock@plt>
 4526231:	e8 8a c7 7f 03       	call   7d229c0 <pthread_mutex_unlock@plt>
 4526293:	e8 28 c7 7f 03       	call   7d229c0 <pthread_mutex_unlock@plt>
 4526654:	e8 57 c3 7f 03       	call   7d229b0 <pthread_mutex_lock@plt>
 4526678:	e8 43 c3 7f 03       	call   7d229c0 <pthread_mutex_unlock@plt>
 4526696:	e8 15 c3 7f 03       	call   7d229b0 <pthread_mutex_lock@plt>
 45266b5:	e8 06 c3 7f 03       	call   7d229c0 <pthread_mutex_unlock@plt>
 4526761:	e9 5a c2 7f 03       	jmp    7d229c0 <pthread_mutex_unlock@plt>
 45268a5:	e8 06 c1 7f 03       	call   7d229b0 <pthread_mutex_lock@plt>
 45268c5:	e9 f6 c0 7f 03       	jmp    7d229c0 <pthread_mutex_unlock@plt>
 4526ac1:	e8 ea be 7f 03       	call   7d229b0 <pthread_mutex_lock@plt>
 4526b11:	e8 aa be 7f 03       	call   7d229c0 <pthread_mutex_unlock@plt>
 4528cd3:	e8 e8 9c 7f 03       	call   7d229c0 <pthread_mutex_unlock@plt>
 452a6d8:	e8 d3 82 7f 03       	call   7d229b0 <pthread_mutex_lock@plt>
 452a88e:	e8 1d 81 7f 03       	call   7d229b0 <pthread_mutex_lock@plt>
 452a8e0:	e8 db 80 7f 03       	call   7d229c0 <pthread_mutex_unlock@plt>
 452ab27:	e8 94 7e 7f 03       	call   7d229c0 <pthread_mutex_unlock@plt>
 452ac53:	e8 58 7d 7f 03       	call   7d229b0 <pthread_mutex_lock@plt>
 452ac79:	e8 42 7d 7f 03       	call   7d229c0 <pthread_mutex_unlock@plt>
 452c6dc:	e8 cf 62 7f 03       	call   7d229b0 <pthread_mutex_lock@plt>
 452c72b:	e8 90 62 7f 03       	call   7d229c0 <pthread_mutex_unlock@plt>
 452caf3:	e8 c8 5e 7f 03       	call   7d229c0 <pthread_mutex_unlock@plt>
 452ce29:	e8 82 5b 7f 03       	call   7d229b0 <pthread_mutex_lock@plt>
 452e2ce:	e8 dd 46 7f 03       	call   7d229b0 <pthread_mutex_lock@plt>
 452e309:	e8 b2 46 7f 03       	call   7d229c0 <pthread_mutex_unlock@plt>
 452e35d:	e8 4e 46 7f 03       	call   7d229b0 <pthread_mutex_lock@plt>
 452e3df:	e8 dc 45 7f 03       	call   7d229c0 <pthread_mutex_unlock@plt>
 452e463:	e8 48 45 7f 03       	call   7d229b0 <pthread_mutex_lock@plt>
 452e481:	e8 3a 45 7f 03       	call   7d229c0 <pthread_mutex_unlock@plt>
 452f534:	e8 77 34 7f 03       	call   7d229b0 <pthread_mutex_lock@plt>
 452f655:	e8 66 33 7f 03       	call   7d229c0 <pthread_mutex_unlock@plt>
 452fbd4:	e8 d7 2d 7f 03       	call   7d229b0 <pthread_mutex_lock@plt>
 452fbee:	e8 cd 2d 7f 03       	call   7d229c0 <pthread_mutex_unlock@plt>
 452fc00:	e8 ab 2d 7f 03       	call   7d229b0 <pthread_mutex_lock@plt>
 452fc8f:	e8 2c 2d 7f 03       	call   7d229c0 <pthread_mutex_unlock@plt>
 452fcc3:	e8 f8 2c 7f 03       	call   7d229c0 <pthread_mutex_unlock@plt>
 4530170:	e8 3b 28 7f 03       	call   7d229b0 <pthread_mutex_lock@plt>
 4530194:	e8 27 28 7f 03       	call   7d229c0 <pthread_mutex_unlock@plt>
 45304dc:	e9 df 24 7f 03       	jmp    7d229c0 <pthread_mutex_unlock@plt>
 4530a14:	e8 a7 1f 7f 03       	call   7d229c0 <pthread_mutex_unlock@plt>
 4530a40:	e8 7b 1f 7f 03       	call   7d229c0 <pthread_mutex_unlock@plt>
 4530a6c:	e8 4f 1f 7f 03       	call   7d229c0 <pthread_mutex_unlock@plt>
 4530ab0:	e8 0b 1f 7f 03       	call   7d229c0 <pthread_mutex_unlock@plt>
 4530b5e:	e8 5d 1e 7f 03       	call   7d229c0 <pthread_mutex_unlock@plt>
 4530bb5:	e8 06 1e 7f 03       	call   7d229c0 <pthread_mutex_unlock@plt>
 4530c72:	e8 49 1d 7f 03       	call   7d229c0 <pthread_mutex_unlock@plt>
 4530cb6:	e8 05 1d 7f 03       	call   7d229c0 <pthread_mutex_unlock@plt>
 4530cd4:	e8 e7 1c 7f 03       	call   7d229c0 <pthread_mutex_unlock@plt>
 4530f81:	e8 3a 1a 7f 03       	call   7d229c0 <pthread_mutex_unlock@plt>
 453143f:	e8 7c 15 7f 03       	call   7d229c0 <pthread_mutex_unlock@plt>
 453153e:	e8 7d 14 7f 03       	call   7d229c0 <pthread_mutex_unlock@plt>
 4531930:	e8 8b 10 7f 03       	call   7d229c0 <pthread_mutex_unlock@plt>
 4532075:	e9 46 09 7f 03       	jmp    7d229c0 <pthread_mutex_unlock@plt>
 453208f:	e8 2c 09 7f 03       	call   7d229c0 <pthread_mutex_unlock@plt>
 4532101:	e8 aa 08 7f 03       	call   7d229b0 <pthread_mutex_lock@plt>
 453216e:	e8 4d 08 7f 03       	call   7d229c0 <pthread_mutex_unlock@plt>
 4532195:	e8 26 08 7f 03       	call   7d229c0 <pthread_mutex_unlock@plt>
 45321b5:	e8 06 08 7f 03       	call   7d229c0 <pthread_mutex_unlock@plt>
 45321da:	e8 e1 07 7f 03       	call   7d229c0 <pthread_mutex_unlock@plt>
 4532229:	e8 82 07 7f 03       	call   7d229b0 <pthread_mutex_lock@plt>
 4532279:	e8 42 07 7f 03       	call   7d229c0 <pthread_mutex_unlock@plt>
 45327b0:	e8 0b 02 7f 03       	call   7d229c0 <pthread_mutex_unlock@plt>
 4532925:	e8 96 00 7f 03       	call   7d229c0 <pthread_mutex_unlock@plt>
 4534763:	e8 58 e3 7e 03       	call   7d22ac0 <pthread_once@plt>
 4537dab:	e8 10 ad 7e 03       	call   7d22ac0 <pthread_once@plt>
 453832a:	e8 81 a6 7e 03       	call   7d229b0 <pthread_mutex_lock@plt>
 453837a:	e8 41 a6 7e 03       	call   7d229c0 <pthread_mutex_unlock@plt>
 4538622:	e8 99 a4 7e 03       	call   7d22ac0 <pthread_once@plt>
 4540cf3:	e8 c8 1d 7e 03       	call   7d22ac0 <pthread_once@plt>
 454de9a:	e8 21 4c 7d 03       	call   7d22ac0 <pthread_once@plt>
 454eadc:	e8 df 3f 7d 03       	call   7d22ac0 <pthread_once@plt>
 454ebd9:	e8 e2 3e 7d 03       	call   7d22ac0 <pthread_once@plt>
 45506cc:	e8 ef 23 7d 03       	call   7d22ac0 <pthread_once@plt>
 4553884:	e8 37 f2 7c 03       	call   7d22ac0 <pthread_once@plt>
 45542c7:	e8 e4 e6 7c 03       	call   7d229b0 <pthread_mutex_lock@plt>
 45542f1:	e9 ca e6 7c 03       	jmp    7d229c0 <pthread_mutex_unlock@plt>
 455431b:	e8 90 e6 7c 03       	call   7d229b0 <pthread_mutex_lock@plt>
 4554352:	e9 69 e6 7c 03       	jmp    7d229c0 <pthread_mutex_unlock@plt>
 45543a1:	e8 0a e6 7c 03       	call   7d229b0 <pthread_mutex_lock@plt>
 45543b7:	e8 04 e6 7c 03       	call   7d229c0 <pthread_mutex_unlock@plt>
 4554dfa:	e8 b1 db 7c 03       	call   7d229b0 <pthread_mutex_lock@plt>
 4554e1b:	e8 a0 db 7c 03       	call   7d229c0 <pthread_mutex_unlock@plt>
 4555736:	e8 75 d2 7c 03       	call   7d229b0 <pthread_mutex_lock@plt>
 455574e:	e8 6d d2 7c 03       	call   7d229c0 <pthread_mutex_unlock@plt>
 4557dc5:	e8 f6 ac 7c 03       	call   7d22ac0 <pthread_once@plt>
 4558ae2:	e8 d9 9f 7c 03       	call   7d22ac0 <pthread_once@plt>
 455baf4:	e8 c7 6f 7c 03       	call   7d22ac0 <pthread_once@plt>
 4563c8a:	e8 31 ee 7b 03       	call   7d22ac0 <pthread_once@plt>
 4566866:	e8 55 c2 7b 03       	call   7d22ac0 <pthread_once@plt>
 456b21a:	e8 a1 78 7b 03       	call   7d22ac0 <pthread_once@plt>
 456bc65:	e8 56 6e 7b 03       	call   7d22ac0 <pthread_once@plt>
 456cf5e:	e8 5d 5b 7b 03       	call   7d22ac0 <pthread_once@plt>
 456eef5:	e8 c6 3b 7b 03       	call   7d22ac0 <pthread_once@plt>
 456f771:	e8 3a 32 7b 03       	call   7d229b0 <pthread_mutex_lock@plt>
 456f7d3:	e9 e8 31 7b 03       	jmp    7d229c0 <pthread_mutex_unlock@plt>
 456f895:	e8 16 31 7b 03       	call   7d229b0 <pthread_mutex_lock@plt>
 456f8c1:	e9 fa 30 7b 03       	jmp    7d229c0 <pthread_mutex_unlock@plt>
 456f9e5:	e8 c6 2f 7b 03       	call   7d229b0 <pthread_mutex_lock@plt>
 456fa2a:	e9 91 2f 7b 03       	jmp    7d229c0 <pthread_mutex_unlock@plt>
 456fe13:	e8 98 2b 7b 03       	call   7d229b0 <pthread_mutex_lock@plt>
 456ff41:	e9 7a 2a 7b 03       	jmp    7d229c0 <pthread_mutex_unlock@plt>
 4572c03:	e8 a8 fd 7a 03       	call   7d229b0 <pthread_mutex_lock@plt>
 4572c31:	e8 8a fd 7a 03       	call   7d229c0 <pthread_mutex_unlock@plt>
 4573096:	e8 25 f9 7a 03       	call   7d229c0 <pthread_mutex_unlock@plt>
 45730aa:	e8 11 f9 7a 03       	call   7d229c0 <pthread_mutex_unlock@plt>
 4573301:	e8 ba f6 7a 03       	call   7d229c0 <pthread_mutex_unlock@plt>
 4573a81:	e8 3a ef 7a 03       	call   7d229c0 <pthread_mutex_unlock@plt>
 45742c2:	e8 f9 e7 7a 03       	call   7d22ac0 <pthread_once@plt>
 4577bab:	e8 10 af 7a 03       	call   7d22ac0 <pthread_once@plt>
 457cfa7:	e8 14 5b 7a 03       	call   7d22ac0 <pthread_once@plt>
 4586a0b:	e8 b0 c0 79 03       	call   7d22ac0 <pthread_once@plt>
 45880db:	e8 d0 a8 79 03       	call   7d229b0 <pthread_mutex_lock@plt>
 4588117:	e9 a4 a8 79 03       	jmp    7d229c0 <pthread_mutex_unlock@plt>
 4588598:	e8 13 a4 79 03       	call   7d229b0 <pthread_mutex_lock@plt>
 45885c8:	e8 f3 a3 79 03       	call   7d229c0 <pthread_mutex_unlock@plt>
 4588615:	e9 a6 a3 79 03       	jmp    7d229c0 <pthread_mutex_unlock@plt>
 458885e:	e8 4d a1 79 03       	call   7d229b0 <pthread_mutex_lock@plt>
 4588a06:	e8 b5 9f 79 03       	call   7d229c0 <pthread_mutex_unlock@plt>
 4589419:	e8 92 95 79 03       	call   7d229b0 <pthread_mutex_lock@plt>
 4589c16:	e8 a5 8d 79 03       	call   7d229c0 <pthread_mutex_unlock@plt>
 458a07c:	e8 2f 89 79 03       	call   7d229b0 <pthread_mutex_lock@plt>
 458abb3:	e8 f8 7d 79 03       	call   7d229b0 <pthread_mutex_lock@plt>
 458ad9f:	e8 0c 7c 79 03       	call   7d229b0 <pthread_mutex_lock@plt>
 458ade2:	e8 d9 7b 79 03       	call   7d229c0 <pthread_mutex_unlock@plt>
 458ae38:	e8 83 7b 79 03       	call   7d229c0 <pthread_mutex_unlock@plt>
 458aee0:	e8 db 7a 79 03       	call   7d229c0 <pthread_mutex_unlock@plt>
 458b65e:	e8 4d 73 79 03       	call   7d229b0 <pthread_mutex_lock@plt>
 458df05:	e8 b6 4a 79 03       	call   7d229c0 <pthread_mutex_unlock@plt>
 458e374:	e8 47 46 79 03       	call   7d229c0 <pthread_mutex_unlock@plt>
 458e74e:	e8 6d 42 79 03       	call   7d229c0 <pthread_mutex_unlock@plt>
 458f070:	e8 4b 3a 79 03       	call   7d22ac0 <pthread_once@plt>
 458f170:	e8 4b 39 79 03       	call   7d22ac0 <pthread_once@plt>
 459337b:	e8 40 f7 78 03       	call   7d22ac0 <pthread_once@plt>
 4594aba:	e8 f1 de 78 03       	call   7d229b0 <pthread_mutex_lock@plt>
 4594b0a:	e8 b1 de 78 03       	call   7d229c0 <pthread_mutex_unlock@plt>
 4594b45:	e8 66 de 78 03       	call   7d229b0 <pthread_mutex_lock@plt>
 4594c0f:	e9 ac dd 78 03       	jmp    7d229c0 <pthread_mutex_unlock@plt>
 4594cc7:	e9 f4 dc 78 03       	jmp    7d229c0 <pthread_mutex_unlock@plt>
 4594f3d:	e8 6e da 78 03       	call   7d229b0 <pthread_mutex_lock@plt>
 459502d:	e8 8e d9 78 03       	call   7d229c0 <pthread_mutex_unlock@plt>
 45978be:	e8 ed b0 78 03       	call   7d229b0 <pthread_mutex_lock@plt>
 4597d19:	e8 a2 ac 78 03       	call   7d229c0 <pthread_mutex_unlock@plt>
 4598803:	e8 a8 a1 78 03       	call   7d229b0 <pthread_mutex_lock@plt>
 4598881:	e8 3a a1 78 03       	call   7d229c0 <pthread_mutex_unlock@plt>
 4598968:	e8 43 a0 78 03       	call   7d229b0 <pthread_mutex_lock@plt>
 4598d8e:	e8 2d 9c 78 03       	call   7d229c0 <pthread_mutex_unlock@plt>
 4598f32:	e8 89 9a 78 03       	call   7d229c0 <pthread_mutex_unlock@plt>
 459e3b3:	e8 f8 45 78 03       	call   7d229b0 <pthread_mutex_lock@plt>
 459e59b:	e8 20 44 78 03       	call   7d229c0 <pthread_mutex_unlock@plt>
 45a16d9:	e8 d2 12 78 03       	call   7d229b0 <pthread_mutex_lock@plt>
 45a385e:	e8 4d f1 77 03       	call   7d229b0 <pthread_mutex_lock@plt>
 45a396d:	e8 4e f0 77 03       	call   7d229c0 <pthread_mutex_unlock@plt>
 45a424b:	e8 60 e7 77 03       	call   7d229b0 <pthread_mutex_lock@plt>
 45a42fb:	e8 c0 e7 77 03       	call   7d22ac0 <pthread_once@plt>
 45a4622:	e9 99 e3 77 03       	jmp    7d229c0 <pthread_mutex_unlock@plt>
 45a565a:	e8 61 d3 77 03       	call   7d229c0 <pthread_mutex_unlock@plt>
 45a59af:	e8 0c d0 77 03       	call   7d229c0 <pthread_mutex_unlock@plt>
 45a5a1e:	e8 9d cf 77 03       	call   7d229c0 <pthread_mutex_unlock@plt>
 45a5bec:	e8 cf cd 77 03       	call   7d229c0 <pthread_mutex_unlock@plt>
 45a63e4:	e8 d7 c5 77 03       	call   7d229c0 <pthread_mutex_unlock@plt>
 45a706d:	e8 4e b9 77 03       	call   7d229c0 <pthread_mutex_unlock@plt>
 45a718a:	e8 31 b8 77 03       	call   7d229c0 <pthread_mutex_unlock@plt>
 45a9d7c:	e8 3f 8d 77 03       	call   7d22ac0 <pthread_once@plt>
 45b2b76:	e8 45 ff 76 03       	call   7d22ac0 <pthread_once@plt>
 45b826a:	e8 51 a8 76 03       	call   7d22ac0 <pthread_once@plt>
 45b9caa:	e8 01 8d 76 03       	call   7d229b0 <pthread_mutex_lock@plt>
 45b9dca:	e8 f1 8b 76 03       	call   7d229c0 <pthread_mutex_unlock@plt>
 45ba907:	e8 a4 80 76 03       	call   7d229b0 <pthread_mutex_lock@plt>
 45ba977:	e9 44 80 76 03       	jmp    7d229c0 <pthread_mutex_unlock@plt>
 45baa14:	e8 97 7f 76 03       	call   7d229b0 <pthread_mutex_lock@plt>
 45bac8c:	e9 2f 7d 76 03       	jmp    7d229c0 <pthread_mutex_unlock@plt>
 45badd7:	e8 d4 7b 76 03       	call   7d229b0 <pthread_mutex_lock@plt>
 45badeb:	e8 d0 7b 76 03       	call   7d229c0 <pthread_mutex_unlock@plt>
 45bae21:	e8 8a 7b 76 03       	call   7d229b0 <pthread_mutex_lock@plt>
 45bae44:	e9 77 7b 76 03       	jmp    7d229c0 <pthread_mutex_unlock@plt>
 45bd2db:	e8 d0 56 76 03       	call   7d229b0 <pthread_mutex_lock@plt>
 45bd78b:	e8 20 52 76 03       	call   7d229b0 <pthread_mutex_lock@plt>
 45bd7c6:	e8 e5 51 76 03       	call   7d229b0 <pthread_mutex_lock@plt>
 45bd82e:	e8 7d 51 76 03       	call   7d229b0 <pthread_mutex_lock@plt>
 45bd854:	e8 67 51 76 03       	call   7d229c0 <pthread_mutex_unlock@plt>
 45bd8a9:	e8 02 51 76 03       	call   7d229b0 <pthread_mutex_lock@plt>
 45bd8c9:	e8 f2 50 76 03       	call   7d229c0 <pthread_mutex_unlock@plt>
 45bf803:	e8 b8 32 76 03       	call   7d22ac0 <pthread_once@plt>
 45c009e:	e8 0d 29 76 03       	call   7d229b0 <pthread_mutex_lock@plt>
 45c0112:	e8 a9 28 76 03       	call   7d229c0 <pthread_mutex_unlock@plt>
 45c0149:	e8 02 2c 76 03       	call   7d22d50 <pthread_cond_clockwait@plt>
 45c0159:	e8 62 28 76 03       	call   7d229c0 <pthread_mutex_unlock@plt>
 45c017f:	e8 2c 28 76 03       	call   7d229b0 <pthread_mutex_lock@plt>
 45c01f3:	e8 b8 27 76 03       	call   7d229b0 <pthread_mutex_lock@plt>
 45c0248:	e8 03 2b 76 03       	call   7d22d50 <pthread_cond_clockwait@plt>
 45c0258:	e8 63 27 76 03       	call   7d229c0 <pthread_mutex_unlock@plt>
 45c0285:	e8 26 27 76 03       	call   7d229b0 <pthread_mutex_lock@plt>
 45c037c:	e8 2f 26 76 03       	call   7d229b0 <pthread_mutex_lock@plt>
 45c03a7:	e8 14 26 76 03       	call   7d229c0 <pthread_mutex_unlock@plt>
 45c0e8a:	e8 21 1b 76 03       	call   7d229b0 <pthread_mutex_lock@plt>
 45c0fc0:	e9 fb 19 76 03       	jmp    7d229c0 <pthread_mutex_unlock@plt>
 45c1218:	e8 93 17 76 03       	call   7d229b0 <pthread_mutex_lock@plt>
 45c12f8:	e8 c3 16 76 03       	call   7d229c0 <pthread_mutex_unlock@plt>
 45c24f7:	e8 b4 04 76 03       	call   7d229b0 <pthread_mutex_lock@plt>
 45c29cd:	e8 de ff 75 03       	call   7d229b0 <pthread_mutex_lock@plt>
 45c2a03:	e8 b8 ff 75 03       	call   7d229c0 <pthread_mutex_unlock@plt>
 45c2a4f:	e8 fc 02 76 03       	call   7d22d50 <pthread_cond_clockwait@plt>
 45c2a5f:	e8 5c ff 75 03       	call   7d229c0 <pthread_mutex_unlock@plt>
 45c2a84:	e8 27 ff 75 03       	call   7d229b0 <pthread_mutex_lock@plt>
 45c2af8:	e8 b3 fe 75 03       	call   7d229b0 <pthread_mutex_lock@plt>
 45c2b50:	e8 fb 01 76 03       	call   7d22d50 <pthread_cond_clockwait@plt>
 45c2b60:	e8 5b fe 75 03       	call   7d229c0 <pthread_mutex_unlock@plt>
 45c3f19:	e8 92 ea 75 03       	call   7d229b0 <pthread_mutex_lock@plt>
 45c3f9f:	e8 0c ea 75 03       	call   7d229b0 <pthread_mutex_lock@plt>
 45c3fcb:	e8 f0 e9 75 03       	call   7d229c0 <pthread_mutex_unlock@plt>
 45c4037:	e8 74 e9 75 03       	call   7d229b0 <pthread_mutex_lock@plt>
 45c405c:	e8 5f e9 75 03       	call   7d229c0 <pthread_mutex_unlock@plt>
 45c4f33:	e8 78 da 75 03       	call   7d229b0 <pthread_mutex_lock@plt>
 45c4f53:	e8 68 da 75 03       	call   7d229c0 <pthread_mutex_unlock@plt>
 45c684a:	e8 61 c1 75 03       	call   7d229b0 <pthread_mutex_lock@plt>
 45c6865:	e8 56 c1 75 03       	call   7d229c0 <pthread_mutex_unlock@plt>
 45c8e98:	e8 23 9b 75 03       	call   7d229c0 <pthread_mutex_unlock@plt>
 45c8eb2:	e8 f9 9a 75 03       	call   7d229b0 <pthread_mutex_lock@plt>
 45c8ec6:	e8 f5 9a 75 03       	call   7d229c0 <pthread_mutex_unlock@plt>
 45c916d:	e8 3e 98 75 03       	call   7d229b0 <pthread_mutex_lock@plt>
 45c9383:	e8 28 96 75 03       	call   7d229b0 <pthread_mutex_lock@plt>
 45c9397:	e8 24 96 75 03       	call   7d229c0 <pthread_mutex_unlock@plt>
 45c93f4:	e8 b7 95 75 03       	call   7d229b0 <pthread_mutex_lock@plt>
 45c9418:	e8 a3 95 75 03       	call   7d229c0 <pthread_mutex_unlock@plt>
 45c9846:	e8 65 91 75 03       	call   7d229b0 <pthread_mutex_lock@plt>
 45c985a:	e8 61 91 75 03       	call   7d229c0 <pthread_mutex_unlock@plt>
 45c99c6:	e8 f5 8f 75 03       	call   7d229c0 <pthread_mutex_unlock@plt>
 45c99f7:	e8 c4 8f 75 03       	call   7d229c0 <pthread_mutex_unlock@plt>
 45cb590:	e8 2b 74 75 03       	call   7d229c0 <pthread_mutex_unlock@plt>
 45cb5a4:	e8 17 74 75 03       	call   7d229c0 <pthread_mutex_unlock@plt>
 45cbfb4:	e8 07 6a 75 03       	call   7d229c0 <pthread_mutex_unlock@plt>
 45d05a6:	e8 15 25 75 03       	call   7d22ac0 <pthread_once@plt>
 45d4c1b:	e8 a0 de 74 03       	call   7d22ac0 <pthread_once@plt>
 45e569a:	e8 11 d3 73 03       	call   7d229b0 <pthread_mutex_lock@plt>
 45e56d1:	e9 ea d2 73 03       	jmp    7d229c0 <pthread_mutex_unlock@plt>
 45e5743:	e8 68 d2 73 03       	call   7d229b0 <pthread_mutex_lock@plt>
 45e5a61:	e9 5a cf 73 03       	jmp    7d229c0 <pthread_mutex_unlock@plt>
 45e5c02:	e8 b9 ce 73 03       	call   7d22ac0 <pthread_once@plt>
 45e6225:	e8 96 c8 73 03       	call   7d22ac0 <pthread_once@plt>
 45e72f8:	e8 c3 b6 73 03       	call   7d229c0 <pthread_mutex_unlock@plt>
 45e732d:	e8 8e b6 73 03       	call   7d229c0 <pthread_mutex_unlock@plt>
 45e9438:	e8 83 96 73 03       	call   7d22ac0 <pthread_once@plt>
 45eb487:	e8 34 76 73 03       	call   7d22ac0 <pthread_once@plt>
 45ede6c:	e8 4f 4c 73 03       	call   7d22ac0 <pthread_once@plt>
 4619c4a:	e8 61 8d 70 03       	call   7d229b0 <pthread_mutex_lock@plt>
 4619c9a:	e8 21 8d 70 03       	call   7d229c0 <pthread_mutex_unlock@plt>
 4623b57:	e8 64 ef 6f 03       	call   7d22ac0 <pthread_once@plt>
 4626e89:	e8 32 bc 6f 03       	call   7d22ac0 <pthread_once@plt>
 463197a:	e8 31 10 6f 03       	call   7d229b0 <pthread_mutex_lock@plt>
 4631aba:	e8 01 0f 6f 03       	call   7d229c0 <pthread_mutex_unlock@plt>
 46325d9:	e8 e2 04 6f 03       	call   7d22ac0 <pthread_once@plt>
 4634ec9:	e8 f2 db 6e 03       	call   7d22ac0 <pthread_once@plt>
 46419a6:	e8 15 11 6e 03       	call   7d22ac0 <pthread_once@plt>
 4641c0c:	e8 af 0e 6e 03       	call   7d22ac0 <pthread_once@plt>
 46519fd:	e8 be 10 6d 03       	call   7d22ac0 <pthread_once@plt>
 465203c:	e8 7f 0a 6d 03       	call   7d22ac0 <pthread_once@plt>
 465686a:	e8 41 c1 6c 03       	call   7d229b0 <pthread_mutex_lock@plt>
 46568ba:	e8 01 c1 6c 03       	call   7d229c0 <pthread_mutex_unlock@plt>
 4657ff6:	e8 b5 a9 6c 03       	call   7d229b0 <pthread_mutex_lock@plt>
 4658082:	e9 39 a9 6c 03       	jmp    7d229c0 <pthread_mutex_unlock@plt>
 4658231:	e8 7a a7 6c 03       	call   7d229b0 <pthread_mutex_lock@plt>
 4658245:	e9 76 a7 6c 03       	jmp    7d229c0 <pthread_mutex_unlock@plt>
 465c08e:	e8 1d 69 6c 03       	call   7d229b0 <pthread_mutex_lock@plt>
 465c0a8:	e8 13 69 6c 03       	call   7d229c0 <pthread_mutex_unlock@plt>
 465c200:	e8 ab 67 6c 03       	call   7d229b0 <pthread_mutex_lock@plt>
 465c218:	e8 a3 67 6c 03       	call   7d229c0 <pthread_mutex_unlock@plt>
 4669205:	e8 a6 97 6b 03       	call   7d229b0 <pthread_mutex_lock@plt>
 466b56b:	e8 50 74 6b 03       	call   7d229c0 <pthread_mutex_unlock@plt>
 466bf02:	e8 b9 6a 6b 03       	call   7d229c0 <pthread_mutex_unlock@plt>
 466bf36:	e8 85 6a 6b 03       	call   7d229c0 <pthread_mutex_unlock@plt>
 466f8f2:	e8 c9 31 6b 03       	call   7d22ac0 <pthread_once@plt>
 466f992:	e8 29 31 6b 03       	call   7d22ac0 <pthread_once@plt>
 46700aa:	e8 11 2a 6b 03       	call   7d22ac0 <pthread_once@plt>
 467052a:	e8 81 24 6b 03       	call   7d229b0 <pthread_mutex_lock@plt>
 467057a:	e8 41 24 6b 03       	call   7d229c0 <pthread_mutex_unlock@plt>
 46713c7:	e8 e4 15 6b 03       	call   7d229b0 <pthread_mutex_lock@plt>
 46713fb:	e8 b0 15 6b 03       	call   7d229b0 <pthread_mutex_lock@plt>
 4671415:	e8 a6 15 6b 03       	call   7d229c0 <pthread_mutex_unlock@plt>
 467142b:	e9 90 15 6b 03       	jmp    7d229c0 <pthread_mutex_unlock@plt>
 467143b:	e8 70 15 6b 03       	call   7d229b0 <pthread_mutex_lock@plt>
 46714b2:	e8 09 15 6b 03       	call   7d229c0 <pthread_mutex_unlock@plt>
 4671576:	e8 35 14 6b 03       	call   7d229b0 <pthread_mutex_lock@plt>
 46715dd:	e8 ce 13 6b 03       	call   7d229b0 <pthread_mutex_lock@plt>
 46715f5:	e8 c6 13 6b 03       	call   7d229c0 <pthread_mutex_unlock@plt>
 467170f:	e8 ac 12 6b 03       	call   7d229c0 <pthread_mutex_unlock@plt>
 467177e:	e8 2d 12 6b 03       	call   7d229b0 <pthread_mutex_lock@plt>
 4671802:	e8 b9 11 6b 03       	call   7d229c0 <pthread_mutex_unlock@plt>
 46719eb:	e8 d0 0f 6b 03       	call   7d229c0 <pthread_mutex_unlock@plt>
 4671af7:	e8 b4 0e 6b 03       	call   7d229b0 <pthread_mutex_lock@plt>
 46725d0:	e8 eb 03 6b 03       	call   7d229c0 <pthread_mutex_unlock@plt>
 467438a:	e8 31 e7 6a 03       	call   7d22ac0 <pthread_once@plt>
 4678a62:	e8 59 a0 6a 03       	call   7d22ac0 <pthread_once@plt>
 467c18a:	e8 31 69 6a 03       	call   7d22ac0 <pthread_once@plt>
 468c12a:	e8 91 69 69 03       	call   7d22ac0 <pthread_once@plt>
 468ecc6:	e8 f5 3d 69 03       	call   7d22ac0 <pthread_once@plt>
 468fb4e:	e8 5d 2e 69 03       	call   7d229b0 <pthread_mutex_lock@plt>
 468fc5b:	e8 60 2d 69 03       	call   7d229c0 <pthread_mutex_unlock@plt>
 468fecd:	e8 ee 2a 69 03       	call   7d229c0 <pthread_mutex_unlock@plt>
 4690496:	e8 15 25 69 03       	call   7d229b0 <pthread_mutex_lock@plt>
 46905b2:	e8 09 24 69 03       	call   7d229c0 <pthread_mutex_unlock@plt>
 46909f9:	e8 b2 1f 69 03       	call   7d229b0 <pthread_mutex_lock@plt>
 4690b4d:	e8 6e 1e 69 03       	call   7d229c0 <pthread_mutex_unlock@plt>
 4690f89:	e8 32 1a 69 03       	call   7d229c0 <pthread_mutex_unlock@plt>
 4691d27:	e8 84 0c 69 03       	call   7d229b0 <pthread_mutex_lock@plt>
 4691d40:	e8 7b 0c 69 03       	call   7d229c0 <pthread_mutex_unlock@plt>
 4691d5d:	e8 4e 0c 69 03       	call   7d229b0 <pthread_mutex_lock@plt>
 4691d70:	e8 4b 0c 69 03       	call   7d229c0 <pthread_mutex_unlock@plt>
 46920ac:	e8 ff 08 69 03       	call   7d229b0 <pthread_mutex_lock@plt>
 46920c3:	e8 f8 08 69 03       	call   7d229c0 <pthread_mutex_unlock@plt>
 469235e:	e8 4d 06 69 03       	call   7d229b0 <pthread_mutex_lock@plt>
 4692377:	e8 44 06 69 03       	call   7d229c0 <pthread_mutex_unlock@plt>
 46927a6:	e8 15 03 69 03       	call   7d22ac0 <pthread_once@plt>
 4692f7e:	e8 2d fa 68 03       	call   7d229b0 <pthread_mutex_lock@plt>
 4692f93:	e8 28 fa 68 03       	call   7d229c0 <pthread_mutex_unlock@plt>
 46a970d:	e8 ae 93 67 03       	call   7d22ac0 <pthread_once@plt>
 46aaf01:	e8 ba 7b 67 03       	call   7d22ac0 <pthread_once@plt>
 46b5369:	e8 52 d7 66 03       	call   7d22ac0 <pthread_once@plt>
 46b5a22:	e8 99 d0 66 03       	call   7d22ac0 <pthread_once@plt>
 46b5ca8:	e8 13 ce 66 03       	call   7d22ac0 <pthread_once@plt>
 46b76c2:	e8 f9 b3 66 03       	call   7d22ac0 <pthread_once@plt>
 46bb08b:	e8 30 7a 66 03       	call   7d22ac0 <pthread_once@plt>
 46c48d4:	e8 e7 e1 65 03       	call   7d22ac0 <pthread_once@plt>
 46c6a22:	e8 99 c0 65 03       	call   7d22ac0 <pthread_once@plt>
 46e8eb2:	e8 09 9c 63 03       	call   7d22ac0 <pthread_once@plt>
 46e99cc:	e8 df 8f 63 03       	call   7d229b0 <pthread_mutex_lock@plt>
 46e9a81:	e9 3a 8f 63 03       	jmp    7d229c0 <pthread_mutex_unlock@plt>
 46e9ad6:	e8 d5 8e 63 03       	call   7d229b0 <pthread_mutex_lock@plt>
 46e9b28:	e9 93 8e 63 03       	jmp    7d229c0 <pthread_mutex_unlock@plt>
 46e9b80:	e8 2b 8e 63 03       	call   7d229b0 <pthread_mutex_lock@plt>
 46e9bc4:	e8 f7 8d 63 03       	call   7d229c0 <pthread_mutex_unlock@plt>
 46e9e86:	e8 35 8b 63 03       	call   7d229c0 <pthread_mutex_unlock@plt>
 46e9ed5:	e8 e6 8a 63 03       	call   7d229c0 <pthread_mutex_unlock@plt>
 46ea82a:	e8 91 82 63 03       	call   7d22ac0 <pthread_once@plt>
 46eae61:	e8 4a 7b 63 03       	call   7d229b0 <pthread_mutex_lock@plt>
 46eae81:	e9 3a 7b 63 03       	jmp    7d229c0 <pthread_mutex_unlock@plt>
 46eaea1:	e8 0a 7b 63 03       	call   7d229b0 <pthread_mutex_lock@plt>
 46eaec1:	e9 fa 7a 63 03       	jmp    7d229c0 <pthread_mutex_unlock@plt>
 46eaee1:	e8 ca 7a 63 03       	call   7d229b0 <pthread_mutex_lock@plt>
 46eaefb:	e9 c0 7a 63 03       	jmp    7d229c0 <pthread_mutex_unlock@plt>
 46eaf21:	e8 8a 7a 63 03       	call   7d229b0 <pthread_mutex_lock@plt>
 46eaf3b:	e9 80 7a 63 03       	jmp    7d229c0 <pthread_mutex_unlock@plt>
 46ec3ea:	e8 c1 65 63 03       	call   7d229b0 <pthread_mutex_lock@plt>
 46ec465:	e9 56 65 63 03       	jmp    7d229c0 <pthread_mutex_unlock@plt>
 46ed536:	e8 75 54 63 03       	call   7d229b0 <pthread_mutex_lock@plt>
 46ed9a1:	e8 0a 50 63 03       	call   7d229b0 <pthread_mutex_lock@plt>
 46edce7:	e8 c4 4c 63 03       	call   7d229b0 <pthread_mutex_lock@plt>
 46edd0d:	e8 ae 4c 63 03       	call   7d229c0 <pthread_mutex_unlock@plt>
 46ef945:	e8 66 30 63 03       	call   7d229b0 <pthread_mutex_lock@plt>
 46ef95e:	e8 5d 30 63 03       	call   7d229c0 <pthread_mutex_unlock@plt>
 46ef9c0:	e8 fb 2f 63 03       	call   7d229c0 <pthread_mutex_unlock@plt>
 46f03b8:	e8 f3 25 63 03       	call   7d229b0 <pthread_mutex_lock@plt>
 46f0427:	e8 94 25 63 03       	call   7d229c0 <pthread_mutex_unlock@plt>
 46f04e8:	e8 c3 24 63 03       	call   7d229b0 <pthread_mutex_lock@plt>
 46f0557:	e8 64 24 63 03       	call   7d229c0 <pthread_mutex_unlock@plt>
 46f0618:	e8 93 23 63 03       	call   7d229b0 <pthread_mutex_lock@plt>
 46f0687:	e8 34 23 63 03       	call   7d229c0 <pthread_mutex_unlock@plt>
 46f0c2a:	e8 91 1d 63 03       	call   7d229c0 <pthread_mutex_unlock@plt>
 46f0e8f:	e8 2c 1b 63 03       	call   7d229c0 <pthread_mutex_unlock@plt>
 46faa52:	e8 69 80 62 03       	call   7d22ac0 <pthread_once@plt>
 46fb656:	e8 65 74 62 03       	call   7d22ac0 <pthread_once@plt>
 46fb7c7:	e8 f4 72 62 03       	call   7d22ac0 <pthread_once@plt>
 46fb90d:	e8 ae 71 62 03       	call   7d22ac0 <pthread_once@plt>
 46fbf8b:	e8 30 6b 62 03       	call   7d22ac0 <pthread_once@plt>
 46fc6c5:	e8 f6 63 62 03       	call   7d22ac0 <pthread_once@plt>
 46fe81e:	e8 9d 42 62 03       	call   7d22ac0 <pthread_once@plt>
 46ff8ea:	e8 d1 30 62 03       	call   7d229c0 <pthread_mutex_unlock@plt>
 46ff92a:	e8 81 30 62 03       	call   7d229b0 <pthread_mutex_lock@plt>
 470237c:	e9 3f 06 62 03       	jmp    7d229c0 <pthread_mutex_unlock@plt>
 4703366:	e8 45 f6 61 03       	call   7d229b0 <pthread_mutex_lock@plt>
 4703438:	e9 83 f5 61 03       	jmp    7d229c0 <pthread_mutex_unlock@plt>
 4704529:	e8 82 e4 61 03       	call   7d229b0 <pthread_mutex_lock@plt>
 4704546:	e8 75 e4 61 03       	call   7d229c0 <pthread_mutex_unlock@plt>
 47045e0:	e8 db e3 61 03       	call   7d229c0 <pthread_mutex_unlock@plt>
 470480f:	e8 9c e1 61 03       	call   7d229b0 <pthread_mutex_lock@plt>
 470482d:	e8 8e e1 61 03       	call   7d229c0 <pthread_mutex_unlock@plt>
 47048b8:	e8 03 e1 61 03       	call   7d229c0 <pthread_mutex_unlock@plt>
 47072a4:	e8 17 b7 61 03       	call   7d229c0 <pthread_mutex_unlock@plt>
 4707934:	e8 87 b0 61 03       	call   7d229c0 <pthread_mutex_unlock@plt>
 4708503:	e8 b8 a4 61 03       	call   7d229c0 <pthread_mutex_unlock@plt>
 470a9be:	e8 fd 7f 61 03       	call   7d229c0 <pthread_mutex_unlock@plt>
 470aa4b:	e8 70 7f 61 03       	call   7d229c0 <pthread_mutex_unlock@plt>
 470af8d:	e8 1e 7a 61 03       	call   7d229b0 <pthread_mutex_lock@plt>
 470afd3:	e8 e8 79 61 03       	call   7d229c0 <pthread_mutex_unlock@plt>
 470d2ea:	e8 c1 56 61 03       	call   7d229b0 <pthread_mutex_lock@plt>
 470d305:	e8 b6 56 61 03       	call   7d229c0 <pthread_mutex_unlock@plt>
 470d444:	e8 67 55 61 03       	call   7d229b0 <pthread_mutex_lock@plt>
 470d463:	e8 58 55 61 03       	call   7d229c0 <pthread_mutex_unlock@plt>
 470e117:	e8 94 48 61 03       	call   7d229b0 <pthread_mutex_lock@plt>
 470edea:	e8 c1 3b 61 03       	call   7d229b0 <pthread_mutex_lock@plt>
 470ee11:	e8 aa 3b 61 03       	call   7d229c0 <pthread_mutex_unlock@plt>
 470ee7a:	e8 31 3b 61 03       	call   7d229b0 <pthread_mutex_lock@plt>
 470eeb0:	e8 0b 3b 61 03       	call   7d229c0 <pthread_mutex_unlock@plt>
 470ef6b:	e8 40 3a 61 03       	call   7d229b0 <pthread_mutex_lock@plt>
 470ef91:	e8 2a 3a 61 03       	call   7d229c0 <pthread_mutex_unlock@plt>
 470f2f3:	e8 c8 36 61 03       	call   7d229c0 <pthread_mutex_unlock@plt>
 470f4f0:	e8 bb 34 61 03       	call   7d229b0 <pthread_mutex_lock@plt>
 470f530:	e8 8b 34 61 03       	call   7d229c0 <pthread_mutex_unlock@plt>
 4713c98:	e8 23 ed 60 03       	call   7d229c0 <pthread_mutex_unlock@plt>
 4715837:	e8 84 d2 60 03       	call   7d22ac0 <pthread_once@plt>
 4715f74:	e8 47 cb 60 03       	call   7d22ac0 <pthread_once@plt>
 4716431:	e8 8a c5 60 03       	call   7d229c0 <pthread_mutex_unlock@plt>
 47178ca:	e8 e1 b0 60 03       	call   7d229b0 <pthread_mutex_lock@plt>
 4717a22:	e8 89 af 60 03       	call   7d229b0 <pthread_mutex_lock@plt>
 47183ed:	e8 be a5 60 03       	call   7d229b0 <pthread_mutex_lock@plt>
 471875b:	e8 50 a2 60 03       	call   7d229b0 <pthread_mutex_lock@plt>
 4718a66:	e8 55 9f 60 03       	call   7d229c0 <pthread_mutex_unlock@plt>
 47192ae:	e8 fd 96 60 03       	call   7d229b0 <pthread_mutex_lock@plt>
 4719380:	e8 3b 96 60 03       	call   7d229c0 <pthread_mutex_unlock@plt>
 47195fa:	e8 c1 93 60 03       	call   7d229c0 <pthread_mutex_unlock@plt>
 471a73c:	e8 6f 82 60 03       	call   7d229b0 <pthread_mutex_lock@plt>
 471a765:	e8 56 82 60 03       	call   7d229c0 <pthread_mutex_unlock@plt>
 471af23:	e9 98 7a 60 03       	jmp    7d229c0 <pthread_mutex_unlock@plt>
 471b462:	e8 59 75 60 03       	call   7d229c0 <pthread_mutex_unlock@plt>
 471b4df:	e8 cc 74 60 03       	call   7d229b0 <pthread_mutex_lock@plt>
 471b518:	e8 a3 74 60 03       	call   7d229c0 <pthread_mutex_unlock@plt>
 471b92b:	e8 90 70 60 03       	call   7d229c0 <pthread_mutex_unlock@plt>
 471bcd4:	e9 e7 6c 60 03       	jmp    7d229c0 <pthread_mutex_unlock@plt>
 471c2de:	e8 cd 66 60 03       	call   7d229b0 <pthread_mutex_lock@plt>
 471d851:	e8 6a 51 60 03       	call   7d229c0 <pthread_mutex_unlock@plt>
 471d943:	e9 78 50 60 03       	jmp    7d229c0 <pthread_mutex_unlock@plt>
 471e273:	e8 48 47 60 03       	call   7d229c0 <pthread_mutex_unlock@plt>
 471e7a8:	e8 13 42 60 03       	call   7d229c0 <pthread_mutex_unlock@plt>
 471f119:	e9 a2 38 60 03       	jmp    7d229c0 <pthread_mutex_unlock@plt>
 471f6ec:	e8 cf 32 60 03       	call   7d229c0 <pthread_mutex_unlock@plt>
 471fa58:	e8 63 2f 60 03       	call   7d229c0 <pthread_mutex_unlock@plt>
 4720087:	e8 34 29 60 03       	call   7d229c0 <pthread_mutex_unlock@plt>
 4720b26:	e8 95 1e 60 03       	call   7d229c0 <pthread_mutex_unlock@plt>
 4721465:	e8 56 15 60 03       	call   7d229c0 <pthread_mutex_unlock@plt>
 472219f:	e8 1c 08 60 03       	call   7d229c0 <pthread_mutex_unlock@plt>
 4722264:	e8 57 07 60 03       	call   7d229c0 <pthread_mutex_unlock@plt>
 4722ed6:	e8 e5 fa 5f 03       	call   7d229c0 <pthread_mutex_unlock@plt>
 47247d0:	e8 db e1 5f 03       	call   7d229b0 <pthread_mutex_lock@plt>
 4724bbd:	e8 fe dd 5f 03       	call   7d229c0 <pthread_mutex_unlock@plt>
 4724cf8:	e8 c3 dc 5f 03       	call   7d229c0 <pthread_mutex_unlock@plt>
 4725859:	e8 62 d1 5f 03       	call   7d229c0 <pthread_mutex_unlock@plt>
 4726224:	e8 97 c7 5f 03       	call   7d229c0 <pthread_mutex_unlock@plt>
 4726bd1:	e8 da bd 5f 03       	call   7d229b0 <pthread_mutex_lock@plt>
 4726bfc:	e8 bf bd 5f 03       	call   7d229c0 <pthread_mutex_unlock@plt>
 47271d8:	e8 e3 b7 5f 03       	call   7d229c0 <pthread_mutex_unlock@plt>
 472734d:	e8 6e b6 5f 03       	call   7d229c0 <pthread_mutex_unlock@plt>
 47279fd:	e8 be af 5f 03       	call   7d229c0 <pthread_mutex_unlock@plt>
 47293cb:	e8 e0 95 5f 03       	call   7d229b0 <pthread_mutex_lock@plt>
 47293e7:	e8 d4 95 5f 03       	call   7d229c0 <pthread_mutex_unlock@plt>
 47295ae:	e9 0d 94 5f 03       	jmp    7d229c0 <pthread_mutex_unlock@plt>
 472ae09:	e8 b2 7b 5f 03       	call   7d229c0 <pthread_mutex_unlock@plt>
 472edcc:	e8 ef 3b 5f 03       	call   7d229c0 <pthread_mutex_unlock@plt>
 4730cf3:	e8 c8 1c 5f 03       	call   7d229c0 <pthread_mutex_unlock@plt>
 4730d60:	e8 4b 1c 5f 03       	call   7d229b0 <pthread_mutex_lock@plt>
 4730d7d:	e8 3e 1c 5f 03       	call   7d229c0 <pthread_mutex_unlock@plt>
 4730fa7:	e8 14 1a 5f 03       	call   7d229c0 <pthread_mutex_unlock@plt>
 47310fb:	e8 c0 18 5f 03       	call   7d229c0 <pthread_mutex_unlock@plt>
 4731565:	e8 56 14 5f 03       	call   7d229c0 <pthread_mutex_unlock@plt>
 47315db:	e8 e0 13 5f 03       	call   7d229c0 <pthread_mutex_unlock@plt>
 47317f4:	e8 c7 11 5f 03       	call   7d229c0 <pthread_mutex_unlock@plt>
 4731a4e:	e8 6d 0f 5f 03       	call   7d229c0 <pthread_mutex_unlock@plt>
 4731ad6:	e8 e5 0e 5f 03       	call   7d229c0 <pthread_mutex_unlock@plt>
 473299e:	e8 1d 00 5f 03       	call   7d229c0 <pthread_mutex_unlock@plt>
 473315c:	e8 5f f8 5e 03       	call   7d229c0 <pthread_mutex_unlock@plt>
 47337f9:	e8 c2 f1 5e 03       	call   7d229c0 <pthread_mutex_unlock@plt>
 4733eae:	e8 0d eb 5e 03       	call   7d229c0 <pthread_mutex_unlock@plt>
 47345bc:	e8 ff e3 5e 03       	call   7d229c0 <pthread_mutex_unlock@plt>
 4734753:	e8 68 e2 5e 03       	call   7d229c0 <pthread_mutex_unlock@plt>
 4734b70:	e8 4b de 5e 03       	call   7d229c0 <pthread_mutex_unlock@plt>
 4734b84:	e8 37 de 5e 03       	call   7d229c0 <pthread_mutex_unlock@plt>
 4734b98:	e8 23 de 5e 03       	call   7d229c0 <pthread_mutex_unlock@plt>
 4734bb9:	e8 02 de 5e 03       	call   7d229c0 <pthread_mutex_unlock@plt>
 4734c93:	e8 28 dd 5e 03       	call   7d229c0 <pthread_mutex_unlock@plt>
 4735643:	e8 78 d3 5e 03       	call   7d229c0 <pthread_mutex_unlock@plt>
 4735b8b:	e8 30 ce 5e 03       	call   7d229c0 <pthread_mutex_unlock@plt>
 473653c:	e8 7f c4 5e 03       	call   7d229c0 <pthread_mutex_unlock@plt>
 47366e8:	e8 d3 c2 5e 03       	call   7d229c0 <pthread_mutex_unlock@plt>
 47367a8:	e8 13 c2 5e 03       	call   7d229c0 <pthread_mutex_unlock@plt>
 47368b5:	e8 06 c1 5e 03       	call   7d229c0 <pthread_mutex_unlock@plt>
 47368d4:	e8 e7 c0 5e 03       	call   7d229c0 <pthread_mutex_unlock@plt>
 4736978:	e8 43 c0 5e 03       	call   7d229c0 <pthread_mutex_unlock@plt>
 47369fd:	e8 be bf 5e 03       	call   7d229c0 <pthread_mutex_unlock@plt>
 47371ea:	e8 d1 b7 5e 03       	call   7d229c0 <pthread_mutex_unlock@plt>
 4737480:	e8 3b b5 5e 03       	call   7d229c0 <pthread_mutex_unlock@plt>
 4737545:	e8 76 b4 5e 03       	call   7d229c0 <pthread_mutex_unlock@plt>
 4737681:	e8 3a b3 5e 03       	call   7d229c0 <pthread_mutex_unlock@plt>
 473774f:	e8 6c b2 5e 03       	call   7d229c0 <pthread_mutex_unlock@plt>
 47378a9:	e8 12 b1 5e 03       	call   7d229c0 <pthread_mutex_unlock@plt>
 4737a0f:	e8 ac af 5e 03       	call   7d229c0 <pthread_mutex_unlock@plt>
 4737b76:	e8 45 ae 5e 03       	call   7d229c0 <pthread_mutex_unlock@plt>
 4737f2b:	e8 90 aa 5e 03       	call   7d229c0 <pthread_mutex_unlock@plt>
 4738166:	e8 55 a8 5e 03       	call   7d229c0 <pthread_mutex_unlock@plt>
 473831c:	e8 9f a6 5e 03       	call   7d229c0 <pthread_mutex_unlock@plt>
 473875c:	e8 5f a2 5e 03       	call   7d229c0 <pthread_mutex_unlock@plt>
 4738d4d:	e8 6e 9c 5e 03       	call   7d229c0 <pthread_mutex_unlock@plt>
 4738d6c:	e8 4f 9c 5e 03       	call   7d229c0 <pthread_mutex_unlock@plt>
 47391d5:	e8 e6 97 5e 03       	call   7d229c0 <pthread_mutex_unlock@plt>
 4739245:	e8 76 97 5e 03       	call   7d229c0 <pthread_mutex_unlock@plt>
 473947e:	e8 3d 95 5e 03       	call   7d229c0 <pthread_mutex_unlock@plt>
 47394a3:	e8 18 95 5e 03       	call   7d229c0 <pthread_mutex_unlock@plt>
 4739bdb:	e8 e0 8d 5e 03       	call   7d229c0 <pthread_mutex_unlock@plt>
 473a935:	e8 86 80 5e 03       	call   7d229c0 <pthread_mutex_unlock@plt>
 473b4d3:	e8 e8 74 5e 03       	call   7d229c0 <pthread_mutex_unlock@plt>
 473b50f:	e8 ac 74 5e 03       	call   7d229c0 <pthread_mutex_unlock@plt>
 473b534:	e8 87 74 5e 03       	call   7d229c0 <pthread_mutex_unlock@plt>
 473b575:	e8 46 74 5e 03       	call   7d229c0 <pthread_mutex_unlock@plt>
 473b699:	e8 22 73 5e 03       	call   7d229c0 <pthread_mutex_unlock@plt>
 473b74d:	e8 6e 72 5e 03       	call   7d229c0 <pthread_mutex_unlock@plt>
 473c1cd:	e8 de 67 5e 03       	call   7d229b0 <pthread_mutex_lock@plt>
 473c1fe:	e8 bd 67 5e 03       	call   7d229c0 <pthread_mutex_unlock@plt>
 473c2e1:	e8 ca 66 5e 03       	call   7d229b0 <pthread_mutex_lock@plt>
 473c2fa:	e8 c1 66 5e 03       	call   7d229c0 <pthread_mutex_unlock@plt>
 473c395:	e8 26 66 5e 03       	call   7d229c0 <pthread_mutex_unlock@plt>
 473c44d:	e8 5e 65 5e 03       	call   7d229b0 <pthread_mutex_lock@plt>
 473c47e:	e8 3d 65 5e 03       	call   7d229c0 <pthread_mutex_unlock@plt>
 473c589:	e8 22 64 5e 03       	call   7d229b0 <pthread_mutex_lock@plt>
 473c5a2:	e8 19 64 5e 03       	call   7d229c0 <pthread_mutex_unlock@plt>
 473c635:	e8 86 63 5e 03       	call   7d229c0 <pthread_mutex_unlock@plt>
 4748ab6:	e8 05 a0 5d 03       	call   7d22ac0 <pthread_once@plt>
 4748c27:	e8 94 9e 5d 03       	call   7d22ac0 <pthread_once@plt>
 4748d71:	e8 4a 9d 5d 03       	call   7d22ac0 <pthread_once@plt>
 47494d5:	e8 e6 95 5d 03       	call   7d22ac0 <pthread_once@plt>
 47499c3:	e8 f8 90 5d 03       	call   7d22ac0 <pthread_once@plt>
 474c09d:	e8 1e 6a 5d 03       	call   7d22ac0 <pthread_once@plt>
 474cc6a:	e8 51 5d 5d 03       	call   7d229c0 <pthread_mutex_unlock@plt>
 474cdaa:	e8 01 5c 5d 03       	call   7d229b0 <pthread_mutex_lock@plt>
 474d479:	e8 32 55 5d 03       	call   7d229b0 <pthread_mutex_lock@plt>
 474d4b4:	e8 07 55 5d 03       	call   7d229c0 <pthread_mutex_unlock@plt>
 474d6fd:	e8 ae 52 5d 03       	call   7d229b0 <pthread_mutex_lock@plt>
 474d71b:	e8 a0 52 5d 03       	call   7d229c0 <pthread_mutex_unlock@plt>
 474dd44:	e9 77 4c 5d 03       	jmp    7d229c0 <pthread_mutex_unlock@plt>
 474de68:	e8 43 4b 5d 03       	call   7d229b0 <pthread_mutex_lock@plt>
 474de88:	e9 33 4b 5d 03       	jmp    7d229c0 <pthread_mutex_unlock@plt>
 474deb4:	e8 f7 4a 5d 03       	call   7d229b0 <pthread_mutex_lock@plt>
 474ded0:	e9 eb 4a 5d 03       	jmp    7d229c0 <pthread_mutex_unlock@plt>
 474e5b5:	e8 f6 43 5d 03       	call   7d229b0 <pthread_mutex_lock@plt>
 474e5d6:	e8 e5 43 5d 03       	call   7d229c0 <pthread_mutex_unlock@plt>
 474e6c0:	e9 fb 42 5d 03       	jmp    7d229c0 <pthread_mutex_unlock@plt>
 474e8be:	e8 ed 40 5d 03       	call   7d229b0 <pthread_mutex_lock@plt>
 474e9d2:	e9 e9 3f 5d 03       	jmp    7d229c0 <pthread_mutex_unlock@plt>
 474ea08:	e8 a3 3f 5d 03       	call   7d229b0 <pthread_mutex_lock@plt>
 474ea72:	e9 49 3f 5d 03       	jmp    7d229c0 <pthread_mutex_unlock@plt>
 4750751:	e8 5a 22 5d 03       	call   7d229b0 <pthread_mutex_lock@plt>
 4750788:	e8 33 22 5d 03       	call   7d229c0 <pthread_mutex_unlock@plt>
 47548ab:	e8 00 e1 5c 03       	call   7d229b0 <pthread_mutex_lock@plt>
 47548d5:	e8 e6 e0 5c 03       	call   7d229c0 <pthread_mutex_unlock@plt>
 4754abb:	e8 00 df 5c 03       	call   7d229c0 <pthread_mutex_unlock@plt>
 4755136:	e8 85 d8 5c 03       	call   7d229c0 <pthread_mutex_unlock@plt>
 47562f1:	e8 ba c6 5c 03       	call   7d229b0 <pthread_mutex_lock@plt>
 4756330:	e9 8b c6 5c 03       	jmp    7d229c0 <pthread_mutex_unlock@plt>
 475717b:	e8 40 b8 5c 03       	call   7d229c0 <pthread_mutex_unlock@plt>
 47571be:	e8 fd b7 5c 03       	call   7d229c0 <pthread_mutex_unlock@plt>
 4758491:	e8 1a a5 5c 03       	call   7d229b0 <pthread_mutex_lock@plt>
 47584f8:	e8 c3 a4 5c 03       	call   7d229c0 <pthread_mutex_unlock@plt>
 4759aa0:	e8 1b 8f 5c 03       	call   7d229c0 <pthread_mutex_unlock@plt>
 4760bcf:	e8 ec 1d 5c 03       	call   7d229c0 <pthread_mutex_unlock@plt>
 4763cd7:	e8 e4 ec 5b 03       	call   7d229c0 <pthread_mutex_unlock@plt>
 4763ddc:	e8 df eb 5b 03       	call   7d229c0 <pthread_mutex_unlock@plt>
 47644bf:	e8 fc e4 5b 03       	call   7d229c0 <pthread_mutex_unlock@plt>
 4764580:	e8 3b e4 5b 03       	call   7d229c0 <pthread_mutex_unlock@plt>
 4764588:	e8 23 e4 5b 03       	call   7d229b0 <pthread_mutex_lock@plt>
 4764fb2:	e8 09 da 5b 03       	call   7d229c0 <pthread_mutex_unlock@plt>
 476882e:	e9 8d a1 5b 03       	jmp    7d229c0 <pthread_mutex_unlock@plt>
 4768d3f:	e8 7c 9c 5b 03       	call   7d229c0 <pthread_mutex_unlock@plt>
 47692aa:	e8 01 97 5b 03       	call   7d229b0 <pthread_mutex_lock@plt>
 47692ca:	e8 f1 96 5b 03       	call   7d229c0 <pthread_mutex_unlock@plt>
 476b20f:	e8 ac 77 5b 03       	call   7d229c0 <pthread_mutex_unlock@plt>
 476b415:	e8 a6 75 5b 03       	call   7d229c0 <pthread_mutex_unlock@plt>
 476b44b:	e8 70 75 5b 03       	call   7d229c0 <pthread_mutex_unlock@plt>
 476c2ab:	e8 10 67 5b 03       	call   7d229c0 <pthread_mutex_unlock@plt>
 476c4f7:	e8 c4 64 5b 03       	call   7d229c0 <pthread_mutex_unlock@plt>
 476c5b3:	e8 08 64 5b 03       	call   7d229c0 <pthread_mutex_unlock@plt>
 476d58e:	e8 2d 54 5b 03       	call   7d229c0 <pthread_mutex_unlock@plt>
 476de94:	e8 27 4b 5b 03       	call   7d229c0 <pthread_mutex_unlock@plt>
 476ec09:	e8 b2 3d 5b 03       	call   7d229c0 <pthread_mutex_unlock@plt>
 476ec43:	e8 78 3d 5b 03       	call   7d229c0 <pthread_mutex_unlock@plt>
 476fa54:	e8 67 2f 5b 03       	call   7d229c0 <pthread_mutex_unlock@plt>
 476fefb:	e8 c0 2a 5b 03       	call   7d229c0 <pthread_mutex_unlock@plt>
 476ff33:	e8 88 2a 5b 03       	call   7d229c0 <pthread_mutex_unlock@plt>
 4770cc7:	e8 f4 1c 5b 03       	call   7d229c0 <pthread_mutex_unlock@plt>
 4771d4a:	e8 71 0c 5b 03       	call   7d229c0 <pthread_mutex_unlock@plt>
 47720cd:	e8 ee 08 5b 03       	call   7d229c0 <pthread_mutex_unlock@plt>
 4772643:	e8 78 03 5b 03       	call   7d229c0 <pthread_mutex_unlock@plt>
 4773780:	e8 3b f2 5a 03       	call   7d229c0 <pthread_mutex_unlock@plt>
 47737c0:	e8 fb f1 5a 03       	call   7d229c0 <pthread_mutex_unlock@plt>
 4778846:	e8 75 a1 5a 03       	call   7d229c0 <pthread_mutex_unlock@plt>
 4778d5a:	e8 61 9c 5a 03       	call   7d229c0 <pthread_mutex_unlock@plt>
 4778d7b:	e8 40 9c 5a 03       	call   7d229c0 <pthread_mutex_unlock@plt>
 4778f05:	e8 b6 9a 5a 03       	call   7d229c0 <pthread_mutex_unlock@plt>
 4778f73:	e8 48 9a 5a 03       	call   7d229c0 <pthread_mutex_unlock@plt>
 47794d5:	e8 e6 94 5a 03       	call   7d229c0 <pthread_mutex_unlock@plt>
 47795d9:	e8 e2 93 5a 03       	call   7d229c0 <pthread_mutex_unlock@plt>
 477977b:	e8 40 92 5a 03       	call   7d229c0 <pthread_mutex_unlock@plt>
 477a466:	e8 55 85 5a 03       	call   7d229c0 <pthread_mutex_unlock@plt>
 477afc5:	e8 f6 79 5a 03       	call   7d229c0 <pthread_mutex_unlock@plt>
 477b08e:	e8 2d 79 5a 03       	call   7d229c0 <pthread_mutex_unlock@plt>
 477ba60:	e8 5b 6f 5a 03       	call   7d229c0 <pthread_mutex_unlock@plt>
 477bc8d:	e8 2e 6d 5a 03       	call   7d229c0 <pthread_mutex_unlock@plt>
 477bfc1:	e8 fa 69 5a 03       	call   7d229c0 <pthread_mutex_unlock@plt>
 477c5e6:	e8 d5 63 5a 03       	call   7d229c0 <pthread_mutex_unlock@plt>
 477c97b:	e8 40 60 5a 03       	call   7d229c0 <pthread_mutex_unlock@plt>
 477ea90:	e8 2b 40 5a 03       	call   7d22ac0 <pthread_once@plt>
 478095b:	e8 60 20 5a 03       	call   7d229c0 <pthread_mutex_unlock@plt>
 4786bb5:	e8 06 be 59 03       	call   7d229c0 <pthread_mutex_unlock@plt>
 4786d95:	e8 16 bc 59 03       	call   7d229b0 <pthread_mutex_lock@plt>
 4786dd0:	e8 eb bb 59 03       	call   7d229c0 <pthread_mutex_unlock@plt>
 479de2e:	e8 8d 4c 58 03       	call   7d22ac0 <pthread_once@plt>
 47ab4a2:	e8 19 76 57 03       	call   7d22ac0 <pthread_once@plt>
 47ad5aa:	e8 11 55 57 03       	call   7d22ac0 <pthread_once@plt>
 47b23a3:	e8 18 07 57 03       	call   7d22ac0 <pthread_once@plt>
 47b448a:	e8 21 e5 56 03       	call   7d229b0 <pthread_mutex_lock@plt>
 47b44da:	e8 e1 e4 56 03       	call   7d229c0 <pthread_mutex_unlock@plt>
 47b46e5:	e8 c6 e2 56 03       	call   7d229b0 <pthread_mutex_lock@plt>
 47b4700:	e9 bb e2 56 03       	jmp    7d229c0 <pthread_mutex_unlock@plt>
 47b5bf9:	e8 b2 cd 56 03       	call   7d229b0 <pthread_mutex_lock@plt>
 47b5c4d:	e9 6e cd 56 03       	jmp    7d229c0 <pthread_mutex_unlock@plt>
 47b5c9d:	e8 0e cd 56 03       	call   7d229b0 <pthread_mutex_lock@plt>
 47b5d48:	e9 73 cc 56 03       	jmp    7d229c0 <pthread_mutex_unlock@plt>
 47b5deb:	e8 c0 cb 56 03       	call   7d229b0 <pthread_mutex_lock@plt>
 47b5e2a:	e9 91 cb 56 03       	jmp    7d229c0 <pthread_mutex_unlock@plt>
 47ba1a3:	e8 18 88 56 03       	call   7d229c0 <pthread_mutex_unlock@plt>
 47bb5b8:	e8 03 74 56 03       	call   7d229c0 <pthread_mutex_unlock@plt>
 47bb6c2:	e8 f9 72 56 03       	call   7d229c0 <pthread_mutex_unlock@plt>
 47bc17a:	e8 31 68 56 03       	call   7d229b0 <pthread_mutex_lock@plt>
 47bc195:	e8 26 68 56 03       	call   7d229c0 <pthread_mutex_unlock@plt>
 47bc71b:	e8 90 62 56 03       	call   7d229b0 <pthread_mutex_lock@plt>
 47bc73a:	e8 81 62 56 03       	call   7d229c0 <pthread_mutex_unlock@plt>
 47bf2a3:	e8 18 37 56 03       	call   7d229c0 <pthread_mutex_unlock@plt>
 47bfd3c:	e8 6f 2c 56 03       	call   7d229b0 <pthread_mutex_lock@plt>
 47bfd9e:	e8 1d 2c 56 03       	call   7d229c0 <pthread_mutex_unlock@plt>
 47c0a17:	e8 a4 1f 56 03       	call   7d229c0 <pthread_mutex_unlock@plt>
 47c1c72:	e8 49 0d 56 03       	call   7d229c0 <pthread_mutex_unlock@plt>
 47c46b7:	e8 f4 e2 55 03       	call   7d229b0 <pthread_mutex_lock@plt>
 47c4717:	e8 a4 e2 55 03       	call   7d229c0 <pthread_mutex_unlock@plt>
 47c4775:	e8 36 e2 55 03       	call   7d229b0 <pthread_mutex_lock@plt>
 47c4da9:	e8 12 dc 55 03       	call   7d229c0 <pthread_mutex_unlock@plt>
 47c50a7:	e8 14 da 55 03       	call   7d22ac0 <pthread_once@plt>
 47c5848:	e8 73 d2 55 03       	call   7d22ac0 <pthread_once@plt>
 47c5ce9:	e8 d2 cc 55 03       	call   7d229c0 <pthread_mutex_unlock@plt>
 47c84ff:	e8 bc a4 55 03       	call   7d229c0 <pthread_mutex_unlock@plt>
 47c8e3e:	e8 6d 9b 55 03       	call   7d229b0 <pthread_mutex_lock@plt>
 47c8edd:	e8 de 9a 55 03       	call   7d229c0 <pthread_mutex_unlock@plt>
 47c91bf:	e8 ec 97 55 03       	call   7d229b0 <pthread_mutex_lock@plt>
 47c921d:	e8 9e 97 55 03       	call   7d229c0 <pthread_mutex_unlock@plt>
 47c952c:	e8 7f 94 55 03       	call   7d229b0 <pthread_mutex_lock@plt>
 47c9555:	e8 66 94 55 03       	call   7d229c0 <pthread_mutex_unlock@plt>
 47cb191:	e9 2a 78 55 03       	jmp    7d229c0 <pthread_mutex_unlock@plt>
 47cb250:	e8 5b 77 55 03       	call   7d229b0 <pthread_mutex_lock@plt>
 47cb727:	e8 84 72 55 03       	call   7d229b0 <pthread_mutex_lock@plt>
 47cb744:	e8 77 72 55 03       	call   7d229c0 <pthread_mutex_unlock@plt>
 47cb759:	e8 62 72 55 03       	call   7d229c0 <pthread_mutex_unlock@plt>
 47cb898:	e8 23 71 55 03       	call   7d229c0 <pthread_mutex_unlock@plt>
 47cc2a1:	e9 1a 67 55 03       	jmp    7d229c0 <pthread_mutex_unlock@plt>
 47cca94:	e9 27 5f 55 03       	jmp    7d229c0 <pthread_mutex_unlock@plt>
 47ccf8c:	e8 2f 5a 55 03       	call   7d229c0 <pthread_mutex_unlock@plt>
 47ceafc:	e9 bf 3e 55 03       	jmp    7d229c0 <pthread_mutex_unlock@plt>
 47cee58:	e8 63 3b 55 03       	call   7d229c0 <pthread_mutex_unlock@plt>
 47cf696:	e8 25 33 55 03       	call   7d229c0 <pthread_mutex_unlock@plt>
 47d020b:	e8 b0 27 55 03       	call   7d229c0 <pthread_mutex_unlock@plt>
 47d0de0:	e8 db 1b 55 03       	call   7d229c0 <pthread_mutex_unlock@plt>
 47d20fd:	e8 be 08 55 03       	call   7d229c0 <pthread_mutex_unlock@plt>
 47d3aa6:	e8 15 ef 54 03       	call   7d229c0 <pthread_mutex_unlock@plt>
 47d3af1:	e8 ca ee 54 03       	call   7d229c0 <pthread_mutex_unlock@plt>
 47d4594:	e8 27 e4 54 03       	call   7d229c0 <pthread_mutex_unlock@plt>
 47d5209:	e8 b2 d7 54 03       	call   7d229c0 <pthread_mutex_unlock@plt>
 47d6ce9:	e8 d2 bc 54 03       	call   7d229c0 <pthread_mutex_unlock@plt>
 47d71de:	e9 dd b7 54 03       	jmp    7d229c0 <pthread_mutex_unlock@plt>
 47d88e9:	e8 c2 a0 54 03       	call   7d229b0 <pthread_mutex_lock@plt>
 47d8b05:	e8 b6 9e 54 03       	call   7d229c0 <pthread_mutex_unlock@plt>
 47d9fbc:	e8 ff 89 54 03       	call   7d229c0 <pthread_mutex_unlock@plt>
 47dbb00:	e8 bb 6e 54 03       	call   7d229c0 <pthread_mutex_unlock@plt>
 47dbb3b:	e8 80 6e 54 03       	call   7d229c0 <pthread_mutex_unlock@plt>
 47dbc2b:	e8 90 6d 54 03       	call   7d229c0 <pthread_mutex_unlock@plt>
 47dc2ed:	e8 be 66 54 03       	call   7d229b0 <pthread_mutex_lock@plt>
 47dc6e0:	e8 cb 62 54 03       	call   7d229b0 <pthread_mutex_lock@plt>
 47dd218:	e8 a3 57 54 03       	call   7d229c0 <pthread_mutex_unlock@plt>
 47dd65b:	e8 60 53 54 03       	call   7d229c0 <pthread_mutex_unlock@plt>
 47dd9a4:	e8 07 50 54 03       	call   7d229b0 <pthread_mutex_lock@plt>
 47dd9c0:	e8 fb 4f 54 03       	call   7d229c0 <pthread_mutex_unlock@plt>
 47dda36:	e8 85 4f 54 03       	call   7d229c0 <pthread_mutex_unlock@plt>
 47ddc44:	e8 77 4d 54 03       	call   7d229c0 <pthread_mutex_unlock@plt>
 47de8aa:	e8 11 41 54 03       	call   7d229c0 <pthread_mutex_unlock@plt>
 47de8e8:	e8 d3 40 54 03       	call   7d229c0 <pthread_mutex_unlock@plt>
 47df5c4:	e8 f7 33 54 03       	call   7d229c0 <pthread_mutex_unlock@plt>
 47df7cd:	e8 ee 31 54 03       	call   7d229c0 <pthread_mutex_unlock@plt>
 47e0147:	e8 74 28 54 03       	call   7d229c0 <pthread_mutex_unlock@plt>
 47e024a:	e8 71 27 54 03       	call   7d229c0 <pthread_mutex_unlock@plt>
 47e0556:	e8 65 24 54 03       	call   7d229c0 <pthread_mutex_unlock@plt>
 47e07c0:	e8 fb 21 54 03       	call   7d229c0 <pthread_mutex_unlock@plt>
 47e0ac5:	e8 f6 1e 54 03       	call   7d229c0 <pthread_mutex_unlock@plt>
 47e0c86:	e8 35 1d 54 03       	call   7d229c0 <pthread_mutex_unlock@plt>
 47e162d:	e8 8e 13 54 03       	call   7d229c0 <pthread_mutex_unlock@plt>
 47e175a:	e8 61 12 54 03       	call   7d229c0 <pthread_mutex_unlock@plt>
 47e19e2:	e8 d9 0f 54 03       	call   7d229c0 <pthread_mutex_unlock@plt>
 47e1a53:	e8 68 0f 54 03       	call   7d229c0 <pthread_mutex_unlock@plt>
 47e1a8a:	e8 31 0f 54 03       	call   7d229c0 <pthread_mutex_unlock@plt>
 47e1f27:	e8 94 0a 54 03       	call   7d229c0 <pthread_mutex_unlock@plt>
 47e21cb:	e8 f0 07 54 03       	call   7d229c0 <pthread_mutex_unlock@plt>
 47e22b1:	e8 0a 07 54 03       	call   7d229c0 <pthread_mutex_unlock@plt>
 47e2327:	e8 94 06 54 03       	call   7d229c0 <pthread_mutex_unlock@plt>
 47e23fb:	e8 c0 05 54 03       	call   7d229c0 <pthread_mutex_unlock@plt>
 47e2485:	e9 36 05 54 03       	jmp    7d229c0 <pthread_mutex_unlock@plt>
 47e2933:	e8 88 00 54 03       	call   7d229c0 <pthread_mutex_unlock@plt>
 47e2fd3:	e8 e8 f9 53 03       	call   7d229c0 <pthread_mutex_unlock@plt>
 47e34d7:	e8 e4 f4 53 03       	call   7d229c0 <pthread_mutex_unlock@plt>
 47e3bb0:	e8 0b ee 53 03       	call   7d229c0 <pthread_mutex_unlock@plt>
 47e3d8d:	e8 2e ec 53 03       	call   7d229c0 <pthread_mutex_unlock@plt>
 47e3f00:	e8 bb ea 53 03       	call   7d229c0 <pthread_mutex_unlock@plt>
 47e40c1:	e8 fa e8 53 03       	call   7d229c0 <pthread_mutex_unlock@plt>
 47e47d6:	e8 e5 e1 53 03       	call   7d229c0 <pthread_mutex_unlock@plt>
 47e4d51:	e8 6a dc 53 03       	call   7d229c0 <pthread_mutex_unlock@plt>
 47e54e1:	e8 da d4 53 03       	call   7d229c0 <pthread_mutex_unlock@plt>
 47e5551:	e8 6a d4 53 03       	call   7d229c0 <pthread_mutex_unlock@plt>
 47e5ff1:	e8 ca c9 53 03       	call   7d229c0 <pthread_mutex_unlock@plt>
 47e62fd:	e8 ae c6 53 03       	call   7d229b0 <pthread_mutex_lock@plt>
 47e632e:	e8 8d c6 53 03       	call   7d229c0 <pthread_mutex_unlock@plt>
 47e6411:	e8 9a c5 53 03       	call   7d229b0 <pthread_mutex_lock@plt>
 47e642a:	e8 91 c5 53 03       	call   7d229c0 <pthread_mutex_unlock@plt>
 47e64c5:	e8 f6 c4 53 03       	call   7d229c0 <pthread_mutex_unlock@plt>
 47e9ffd:	e8 ae 89 53 03       	call   7d229b0 <pthread_mutex_lock@plt>
 47ea078:	e8 43 89 53 03       	call   7d229c0 <pthread_mutex_unlock@plt>
 47ea1f6:	e8 b5 87 53 03       	call   7d229b0 <pthread_mutex_lock@plt>
 47ea238:	e8 83 87 53 03       	call   7d229c0 <pthread_mutex_unlock@plt>
 47eada2:	e8 09 7c 53 03       	call   7d229b0 <pthread_mutex_lock@plt>
 47eadd2:	e8 e9 7b 53 03       	call   7d229c0 <pthread_mutex_unlock@plt>
 47eb472:	e8 39 75 53 03       	call   7d229b0 <pthread_mutex_lock@plt>
 47eb514:	e9 a7 74 53 03       	jmp    7d229c0 <pthread_mutex_unlock@plt>
 47eb637:	e8 74 73 53 03       	call   7d229b0 <pthread_mutex_lock@plt>
 47eb678:	e8 43 73 53 03       	call   7d229c0 <pthread_mutex_unlock@plt>
 47ec6e0:	e8 db 62 53 03       	call   7d229c0 <pthread_mutex_unlock@plt>
 47ecc27:	e8 94 5d 53 03       	call   7d229c0 <pthread_mutex_unlock@plt>
 47ecd06:	e8 b5 5c 53 03       	call   7d229c0 <pthread_mutex_unlock@plt>
 47efe34:	e8 87 2c 53 03       	call   7d22ac0 <pthread_once@plt>
 47f098a:	e8 21 20 53 03       	call   7d229b0 <pthread_mutex_lock@plt>
 47f0a2a:	e8 91 1f 53 03       	call   7d229c0 <pthread_mutex_unlock@plt>
 47f17ee:	e8 bd 11 53 03       	call   7d229b0 <pthread_mutex_lock@plt>
 47f183b:	e9 80 11 53 03       	jmp    7d229c0 <pthread_mutex_unlock@plt>
 47f5d40:	e8 6b cc 52 03       	call   7d229b0 <pthread_mutex_lock@plt>
 47f5d6e:	e8 4d cc 52 03       	call   7d229c0 <pthread_mutex_unlock@plt>
 47f5de2:	e8 d9 cb 52 03       	call   7d229c0 <pthread_mutex_unlock@plt>
 47f67a1:	e8 0a c2 52 03       	call   7d229b0 <pthread_mutex_lock@plt>
 47f6844:	e8 77 c1 52 03       	call   7d229c0 <pthread_mutex_unlock@plt>
 47f8734:	e8 77 a2 52 03       	call   7d229b0 <pthread_mutex_lock@plt>
 47f8926:	e8 95 a0 52 03       	call   7d229c0 <pthread_mutex_unlock@plt>
 47f8ff5:	e8 b6 99 52 03       	call   7d229b0 <pthread_mutex_lock@plt>
 47f97b3:	e8 f8 91 52 03       	call   7d229b0 <pthread_mutex_lock@plt>
 47f97da:	e8 e1 91 52 03       	call   7d229c0 <pthread_mutex_unlock@plt>
 47f9e07:	e9 b4 8b 52 03       	jmp    7d229c0 <pthread_mutex_unlock@plt>
 47fb2cd:	e8 ee 77 52 03       	call   7d22ac0 <pthread_once@plt>
 47fc687:	e8 34 64 52 03       	call   7d22ac0 <pthread_once@plt>
 47ffbe1:	e8 da 2d 52 03       	call   7d229c0 <pthread_mutex_unlock@plt>
 47ffe34:	e8 87 2b 52 03       	call   7d229c0 <pthread_mutex_unlock@plt>
 4800771:	e8 4a 22 52 03       	call   7d229c0 <pthread_mutex_unlock@plt>
 480330c:	e8 9f f6 51 03       	call   7d229b0 <pthread_mutex_lock@plt>
 48033a7:	e8 14 f6 51 03       	call   7d229c0 <pthread_mutex_unlock@plt>
 48033f2:	e8 c9 f5 51 03       	call   7d229c0 <pthread_mutex_unlock@plt>
 4803e49:	e8 72 ec 51 03       	call   7d22ac0 <pthread_once@plt>
 4806a32:	e8 89 c0 51 03       	call   7d22ac0 <pthread_once@plt>
 48072aa:	e8 01 b7 51 03       	call   7d229b0 <pthread_mutex_lock@plt>
 48072fa:	e8 c1 b6 51 03       	call   7d229c0 <pthread_mutex_unlock@plt>
 48077f0:	e8 bb b1 51 03       	call   7d229b0 <pthread_mutex_lock@plt>
 480782b:	e8 80 b1 51 03       	call   7d229b0 <pthread_mutex_lock@plt>
 4807844:	e8 77 b1 51 03       	call   7d229c0 <pthread_mutex_unlock@plt>
 480785a:	e9 61 b1 51 03       	jmp    7d229c0 <pthread_mutex_unlock@plt>
 480786e:	e8 3d b1 51 03       	call   7d229b0 <pthread_mutex_lock@plt>
 48078e1:	e8 da b0 51 03       	call   7d229c0 <pthread_mutex_unlock@plt>
 4807d16:	e8 95 ac 51 03       	call   7d229b0 <pthread_mutex_lock@plt>
 4807d56:	e8 55 ac 51 03       	call   7d229b0 <pthread_mutex_lock@plt>
 4807de3:	e8 c8 ab 51 03       	call   7d229b0 <pthread_mutex_lock@plt>
 4807e09:	e8 b2 ab 51 03       	call   7d229c0 <pthread_mutex_unlock@plt>
 4807e5d:	e8 4e ab 51 03       	call   7d229b0 <pthread_mutex_lock@plt>
 4807e81:	e8 3a ab 51 03       	call   7d229c0 <pthread_mutex_unlock@plt>
 480803d:	e8 7e a9 51 03       	call   7d229c0 <pthread_mutex_unlock@plt>
 4808114:	e8 97 a8 51 03       	call   7d229b0 <pthread_mutex_lock@plt>
 4808149:	e8 62 a8 51 03       	call   7d229b0 <pthread_mutex_lock@plt>
 4808166:	e8 55 a8 51 03       	call   7d229c0 <pthread_mutex_unlock@plt>
 4808178:	e8 43 a8 51 03       	call   7d229c0 <pthread_mutex_unlock@plt>
 480822b:	e8 80 a7 51 03       	call   7d229b0 <pthread_mutex_lock@plt>
 48082a2:	e8 19 a7 51 03       	call   7d229c0 <pthread_mutex_unlock@plt>
 480839b:	e8 20 a7 51 03       	call   7d22ac0 <pthread_once@plt>
 48088fd:	e8 ae a0 51 03       	call   7d229b0 <pthread_mutex_lock@plt>
 4808adf:	e8 dc 9e 51 03       	call   7d229c0 <pthread_mutex_unlock@plt>
 48092b7:	e8 04 97 51 03       	call   7d229c0 <pthread_mutex_unlock@plt>
 480b0b7:	e8 f4 78 51 03       	call   7d229b0 <pthread_mutex_lock@plt>
 480bd48:	e8 73 6d 51 03       	call   7d22ac0 <pthread_once@plt>
 480c139:	e8 82 69 51 03       	call   7d22ac0 <pthread_once@plt>
 480c1e9:	e8 d2 68 51 03       	call   7d22ac0 <pthread_once@plt>
 480c293:	e8 28 68 51 03       	call   7d22ac0 <pthread_once@plt>
 4810c3d:	e8 7e 1d 51 03       	call   7d229c0 <pthread_mutex_unlock@plt>
 4815d1a:	e8 91 cc 50 03       	call   7d229b0 <pthread_mutex_lock@plt>
 4815d6a:	e8 51 cc 50 03       	call   7d229c0 <pthread_mutex_unlock@plt>
 481b7c7:	e8 e4 71 50 03       	call   7d229b0 <pthread_mutex_lock@plt>
 481f7e6:	e8 d5 32 50 03       	call   7d22ac0 <pthread_once@plt>
 4820f95:	e8 26 1b 50 03       	call   7d22ac0 <pthread_once@plt>
 4824aaa:	e8 11 e0 4f 03       	call   7d22ac0 <pthread_once@plt>
 4824b2e:	e8 8d df 4f 03       	call   7d22ac0 <pthread_once@plt>
 4825c62:	e8 59 ce 4f 03       	call   7d22ac0 <pthread_once@plt>
 482749c:	e8 0f b5 4f 03       	call   7d229b0 <pthread_mutex_lock@plt>
 48274d0:	e9 eb b4 4f 03       	jmp    7d229c0 <pthread_mutex_unlock@plt>
 48274e5:	e9 d6 b4 4f 03       	jmp    7d229c0 <pthread_mutex_unlock@plt>
 4827500:	e9 bb b4 4f 03       	jmp    7d229c0 <pthread_mutex_unlock@plt>
 4827518:	e9 a3 b4 4f 03       	jmp    7d229c0 <pthread_mutex_unlock@plt>
 4827530:	e9 8b b4 4f 03       	jmp    7d229c0 <pthread_mutex_unlock@plt>
 482754c:	e8 5f b4 4f 03       	call   7d229b0 <pthread_mutex_lock@plt>
 4827580:	e9 3b b4 4f 03       	jmp    7d229c0 <pthread_mutex_unlock@plt>
 4827595:	e9 26 b4 4f 03       	jmp    7d229c0 <pthread_mutex_unlock@plt>
 48275b0:	e9 0b b4 4f 03       	jmp    7d229c0 <pthread_mutex_unlock@plt>
 48275c8:	e9 f3 b3 4f 03       	jmp    7d229c0 <pthread_mutex_unlock@plt>
 48275e0:	e9 db b3 4f 03       	jmp    7d229c0 <pthread_mutex_unlock@plt>
 48275fd:	e8 ae b3 4f 03       	call   7d229b0 <pthread_mutex_lock@plt>
 4827617:	e9 a4 b3 4f 03       	jmp    7d229c0 <pthread_mutex_unlock@plt>
 482763d:	e8 6e b3 4f 03       	call   7d229b0 <pthread_mutex_lock@plt>
 4827688:	e9 33 b3 4f 03       	jmp    7d229c0 <pthread_mutex_unlock@plt>
 48276ac:	e8 ff b2 4f 03       	call   7d229b0 <pthread_mutex_lock@plt>
 48276e0:	e9 db b2 4f 03       	jmp    7d229c0 <pthread_mutex_unlock@plt>
 48276f8:	e9 c3 b2 4f 03       	jmp    7d229c0 <pthread_mutex_unlock@plt>
 4827710:	e9 ab b2 4f 03       	jmp    7d229c0 <pthread_mutex_unlock@plt>
 4827728:	e9 93 b2 4f 03       	jmp    7d229c0 <pthread_mutex_unlock@plt>
 4827740:	e9 7b b2 4f 03       	jmp    7d229c0 <pthread_mutex_unlock@plt>
 4827758:	e9 63 b2 4f 03       	jmp    7d229c0 <pthread_mutex_unlock@plt>
 4827770:	e9 4b b2 4f 03       	jmp    7d229c0 <pthread_mutex_unlock@plt>
 482778b:	e8 20 b2 4f 03       	call   7d229b0 <pthread_mutex_lock@plt>
 482779c:	e8 1f b2 4f 03       	call   7d229c0 <pthread_mutex_unlock@plt>
 48277cb:	e8 e0 b1 4f 03       	call   7d229b0 <pthread_mutex_lock@plt>
 48277df:	e8 dc b1 4f 03       	call   7d229c0 <pthread_mutex_unlock@plt>
 482780b:	e8 a0 b1 4f 03       	call   7d229b0 <pthread_mutex_lock@plt>
 482781f:	e8 9c b1 4f 03       	call   7d229c0 <pthread_mutex_unlock@plt>
 482784b:	e8 60 b1 4f 03       	call   7d229b0 <pthread_mutex_lock@plt>
 482785f:	e8 5c b1 4f 03       	call   7d229c0 <pthread_mutex_unlock@plt>
 482788b:	e8 20 b1 4f 03       	call   7d229b0 <pthread_mutex_lock@plt>
 482789f:	e8 1c b1 4f 03       	call   7d229c0 <pthread_mutex_unlock@plt>
 48278cb:	e8 e0 b0 4f 03       	call   7d229b0 <pthread_mutex_lock@plt>
 48278dc:	e8 df b0 4f 03       	call   7d229c0 <pthread_mutex_unlock@plt>
 482790b:	e8 a0 b0 4f 03       	call   7d229b0 <pthread_mutex_lock@plt>
 482791f:	e8 9c b0 4f 03       	call   7d229c0 <pthread_mutex_unlock@plt>
 482794b:	e8 60 b0 4f 03       	call   7d229b0 <pthread_mutex_lock@plt>
 482795f:	e8 5c b0 4f 03       	call   7d229c0 <pthread_mutex_unlock@plt>
 482798b:	e8 20 b0 4f 03       	call   7d229b0 <pthread_mutex_lock@plt>
 482799f:	e8 1c b0 4f 03       	call   7d229c0 <pthread_mutex_unlock@plt>
 48279cb:	e8 e0 af 4f 03       	call   7d229b0 <pthread_mutex_lock@plt>
 48279df:	e8 dc af 4f 03       	call   7d229c0 <pthread_mutex_unlock@plt>
 4827a0b:	e8 a0 af 4f 03       	call   7d229b0 <pthread_mutex_lock@plt>
 4827a1f:	e8 9c af 4f 03       	call   7d229c0 <pthread_mutex_unlock@plt>
 4827a4b:	e8 60 af 4f 03       	call   7d229b0 <pthread_mutex_lock@plt>
 4827a5f:	e8 5c af 4f 03       	call   7d229c0 <pthread_mutex_unlock@plt>
 4827a8b:	e8 20 af 4f 03       	call   7d229b0 <pthread_mutex_lock@plt>
 4827a9f:	e8 1c af 4f 03       	call   7d229c0 <pthread_mutex_unlock@plt>
 4827acb:	e8 e0 ae 4f 03       	call   7d229b0 <pthread_mutex_lock@plt>
 4827adf:	e8 dc ae 4f 03       	call   7d229c0 <pthread_mutex_unlock@plt>
 4827b0b:	e8 a0 ae 4f 03       	call   7d229b0 <pthread_mutex_lock@plt>
 4827b1f:	e8 9c ae 4f 03       	call   7d229c0 <pthread_mutex_unlock@plt>
 4827b4b:	e8 60 ae 4f 03       	call   7d229b0 <pthread_mutex_lock@plt>
 4827b5f:	e8 5c ae 4f 03       	call   7d229c0 <pthread_mutex_unlock@plt>
 4827b8b:	e8 20 ae 4f 03       	call   7d229b0 <pthread_mutex_lock@plt>
 4827b9f:	e8 1c ae 4f 03       	call   7d229c0 <pthread_mutex_unlock@plt>
 4827bcb:	e8 e0 ad 4f 03       	call   7d229b0 <pthread_mutex_lock@plt>
 4827bdf:	e8 dc ad 4f 03       	call   7d229c0 <pthread_mutex_unlock@plt>
 4827c0b:	e8 a0 ad 4f 03       	call   7d229b0 <pthread_mutex_lock@plt>
 4827c1f:	e8 9c ad 4f 03       	call   7d229c0 <pthread_mutex_unlock@plt>
 4827c8c:	e8 1f ad 4f 03       	call   7d229b0 <pthread_mutex_lock@plt>
 4827d2a:	e9 91 ac 4f 03       	jmp    7d229c0 <pthread_mutex_unlock@plt>
 4827d65:	e8 46 ac 4f 03       	call   7d229b0 <pthread_mutex_lock@plt>
 4827dac:	e9 0f ac 4f 03       	jmp    7d229c0 <pthread_mutex_unlock@plt>
 4827ded:	e8 be ab 4f 03       	call   7d229b0 <pthread_mutex_lock@plt>
 4827e54:	e9 67 ab 4f 03       	jmp    7d229c0 <pthread_mutex_unlock@plt>
 4827e80:	e8 2b ab 4f 03       	call   7d229b0 <pthread_mutex_lock@plt>
 4827eb6:	e9 05 ab 4f 03       	jmp    7d229c0 <pthread_mutex_unlock@plt>
 4827f00:	e8 ab aa 4f 03       	call   7d229b0 <pthread_mutex_lock@plt>
 4827f36:	e9 85 aa 4f 03       	jmp    7d229c0 <pthread_mutex_unlock@plt>
 4827f71:	e8 3a aa 4f 03       	call   7d229b0 <pthread_mutex_lock@plt>
 4827fa2:	e8 19 aa 4f 03       	call   7d229c0 <pthread_mutex_unlock@plt>
 4827fe4:	e8 c7 a9 4f 03       	call   7d229b0 <pthread_mutex_lock@plt>
 4827ffd:	e8 be a9 4f 03       	call   7d229c0 <pthread_mutex_unlock@plt>
 4828064:	e8 47 a9 4f 03       	call   7d229b0 <pthread_mutex_lock@plt>
 482808e:	e8 2d a9 4f 03       	call   7d229c0 <pthread_mutex_unlock@plt>
 48280ed:	e8 be a8 4f 03       	call   7d229b0 <pthread_mutex_lock@plt>
 4828158:	e9 63 a8 4f 03       	jmp    7d229c0 <pthread_mutex_unlock@plt>
 48281ce:	e8 dd a7 4f 03       	call   7d229b0 <pthread_mutex_lock@plt>
 4828327:	e9 94 a6 4f 03       	jmp    7d229c0 <pthread_mutex_unlock@plt>
 48283e4:	e8 c7 a5 4f 03       	call   7d229b0 <pthread_mutex_lock@plt>
 482840e:	e8 ad a5 4f 03       	call   7d229c0 <pthread_mutex_unlock@plt>
 4828485:	e8 26 a5 4f 03       	call   7d229b0 <pthread_mutex_lock@plt>
 48284d4:	e9 e7 a4 4f 03       	jmp    7d229c0 <pthread_mutex_unlock@plt>
 482851d:	e8 8e a4 4f 03       	call   7d229b0 <pthread_mutex_lock@plt>
 4828556:	e9 65 a4 4f 03       	jmp    7d229c0 <pthread_mutex_unlock@plt>
 4828694:	e8 27 a3 4f 03       	call   7d229c0 <pthread_mutex_unlock@plt>
 48286a8:	e8 13 a3 4f 03       	call   7d229c0 <pthread_mutex_unlock@plt>
 48286bc:	e8 ff a2 4f 03       	call   7d229c0 <pthread_mutex_unlock@plt>
 48286d0:	e8 eb a2 4f 03       	call   7d229c0 <pthread_mutex_unlock@plt>
 4828927:	e8 84 a0 4f 03       	call   7d229b0 <pthread_mutex_lock@plt>
 4828940:	e8 7b a0 4f 03       	call   7d229c0 <pthread_mutex_unlock@plt>
 4828980:	e8 3b a0 4f 03       	call   7d229c0 <pthread_mutex_unlock@plt>
 482914d:	e8 6e 99 4f 03       	call   7d22ac0 <pthread_once@plt>
 482f81b:	e8 a0 32 4f 03       	call   7d22ac0 <pthread_once@plt>
 4852ec0:	e8 fb fb 4c 03       	call   7d22ac0 <pthread_once@plt>
 4855616:	e8 a5 d4 4c 03       	call   7d22ac0 <pthread_once@plt>
 48576cb:	e8 f0 b3 4c 03       	call   7d22ac0 <pthread_once@plt>
 4857c8a:	e8 21 ad 4c 03       	call   7d229b0 <pthread_mutex_lock@plt>
 485817a:	e8 41 a8 4c 03       	call   7d229c0 <pthread_mutex_unlock@plt>
 4859007:	e8 a4 99 4c 03       	call   7d229b0 <pthread_mutex_lock@plt>
 4859023:	e8 98 99 4c 03       	call   7d229c0 <pthread_mutex_unlock@plt>
 4859067:	e8 44 99 4c 03       	call   7d229b0 <pthread_mutex_lock@plt>
 485907a:	e8 41 99 4c 03       	call   7d229c0 <pthread_mutex_unlock@plt>
 48590b7:	e8 f4 98 4c 03       	call   7d229b0 <pthread_mutex_lock@plt>
 48590ca:	e8 f1 98 4c 03       	call   7d229c0 <pthread_mutex_unlock@plt>
 4859108:	e8 a3 98 4c 03       	call   7d229b0 <pthread_mutex_lock@plt>
 485914a:	e9 71 98 4c 03       	jmp    7d229c0 <pthread_mutex_unlock@plt>
 4859177:	e8 34 98 4c 03       	call   7d229b0 <pthread_mutex_lock@plt>
 485918e:	e8 2d 98 4c 03       	call   7d229c0 <pthread_mutex_unlock@plt>
 48591eb:	e8 c0 97 4c 03       	call   7d229b0 <pthread_mutex_lock@plt>
 48592a9:	e9 12 97 4c 03       	jmp    7d229c0 <pthread_mutex_unlock@plt>
 48592ea:	e8 c1 96 4c 03       	call   7d229b0 <pthread_mutex_lock@plt>
 4859325:	e9 96 96 4c 03       	jmp    7d229c0 <pthread_mutex_unlock@plt>
 4859370:	e8 4b 96 4c 03       	call   7d229c0 <pthread_mutex_unlock@plt>
 4859387:	e8 24 96 4c 03       	call   7d229b0 <pthread_mutex_lock@plt>
 485939f:	e8 1c 96 4c 03       	call   7d229c0 <pthread_mutex_unlock@plt>
 4859704:	e8 a7 92 4c 03       	call   7d229b0 <pthread_mutex_lock@plt>
 485971f:	e8 9c 92 4c 03       	call   7d229c0 <pthread_mutex_unlock@plt>
 4859a80:	e8 2b 8f 4c 03       	call   7d229b0 <pthread_mutex_lock@plt>
 4859d62:	e8 59 8c 4c 03       	call   7d229c0 <pthread_mutex_unlock@plt>
 485a4bb:	e8 f0 84 4c 03       	call   7d229b0 <pthread_mutex_lock@plt>
 485a4fe:	e8 ad 84 4c 03       	call   7d229b0 <pthread_mutex_lock@plt>
 485a570:	e8 3b 84 4c 03       	call   7d229b0 <pthread_mutex_lock@plt>
 485a596:	e8 25 84 4c 03       	call   7d229c0 <pthread_mutex_unlock@plt>
 485a5ee:	e8 bd 83 4c 03       	call   7d229b0 <pthread_mutex_lock@plt>
 485a611:	e8 aa 83 4c 03       	call   7d229c0 <pthread_mutex_unlock@plt>
 485b68b:	e8 20 73 4c 03       	call   7d229b0 <pthread_mutex_lock@plt>
 485b6cb:	e8 f0 72 4c 03       	call   7d229c0 <pthread_mutex_unlock@plt>
 485b771:	e8 3a 72 4c 03       	call   7d229b0 <pthread_mutex_lock@plt>
 485b8fe:	e8 ad 70 4c 03       	call   7d229b0 <pthread_mutex_lock@plt>
 485dc2c:	e8 7f 4d 4c 03       	call   7d229b0 <pthread_mutex_lock@plt>
 485dd23:	e8 98 4c 4c 03       	call   7d229c0 <pthread_mutex_unlock@plt>
 485f571:	e8 3a 34 4c 03       	call   7d229b0 <pthread_mutex_lock@plt>
 485f6ab:	e9 10 33 4c 03       	jmp    7d229c0 <pthread_mutex_unlock@plt>
 4860382:	e8 29 26 4c 03       	call   7d229b0 <pthread_mutex_lock@plt>
 48607a2:	e8 09 22 4c 03       	call   7d229b0 <pthread_mutex_lock@plt>
 4861f09:	e8 a2 0a 4c 03       	call   7d229b0 <pthread_mutex_lock@plt>
 4861fe1:	e9 da 09 4c 03       	jmp    7d229c0 <pthread_mutex_unlock@plt>
 48621d5:	e8 d6 07 4c 03       	call   7d229b0 <pthread_mutex_lock@plt>
 4862528:	e9 93 04 4c 03       	jmp    7d229c0 <pthread_mutex_unlock@plt>
 4862a32:	e8 79 ff 4b 03       	call   7d229b0 <pthread_mutex_lock@plt>
 4862c02:	e9 b9 fd 4b 03       	jmp    7d229c0 <pthread_mutex_unlock@plt>
 486369d:	e9 1e f3 4b 03       	jmp    7d229c0 <pthread_mutex_unlock@plt>
 486463a:	e8 81 e3 4b 03       	call   7d229c0 <pthread_mutex_unlock@plt>
 486470c:	e8 af e2 4b 03       	call   7d229c0 <pthread_mutex_unlock@plt>
 4864753:	e8 68 e2 4b 03       	call   7d229c0 <pthread_mutex_unlock@plt>
 4864bcc:	e8 ef dd 4b 03       	call   7d229c0 <pthread_mutex_unlock@plt>
 4864d60:	e8 5b dc 4b 03       	call   7d229c0 <pthread_mutex_unlock@plt>
 48650d5:	e8 d6 d8 4b 03       	call   7d229b0 <pthread_mutex_lock@plt>
 4865273:	e9 48 d7 4b 03       	jmp    7d229c0 <pthread_mutex_unlock@plt>
 486559b:	e8 10 d4 4b 03       	call   7d229b0 <pthread_mutex_lock@plt>
 486586a:	e9 51 d1 4b 03       	jmp    7d229c0 <pthread_mutex_unlock@plt>
 4865af0:	e8 bb ce 4b 03       	call   7d229b0 <pthread_mutex_lock@plt>
 4865c87:	e9 34 cd 4b 03       	jmp    7d229c0 <pthread_mutex_unlock@plt>
 486665a:	e8 51 c3 4b 03       	call   7d229b0 <pthread_mutex_lock@plt>
 486667c:	e8 3f c3 4b 03       	call   7d229c0 <pthread_mutex_unlock@plt>
 48689b2:	e8 f9 9f 4b 03       	call   7d229b0 <pthread_mutex_lock@plt>
 4868a67:	e8 54 9f 4b 03       	call   7d229c0 <pthread_mutex_unlock@plt>
 4868add:	e8 ce 9e 4b 03       	call   7d229b0 <pthread_mutex_lock@plt>
 4868b29:	e8 82 9e 4b 03       	call   7d229b0 <pthread_mutex_lock@plt>
 4868b45:	e8 76 9e 4b 03       	call   7d229c0 <pthread_mutex_unlock@plt>
 4868c05:	e8 b6 9d 4b 03       	call   7d229c0 <pthread_mutex_unlock@plt>
 4868d05:	e8 b6 9c 4b 03       	call   7d229c0 <pthread_mutex_unlock@plt>
 48696ea:	e8 d1 92 4b 03       	call   7d229c0 <pthread_mutex_unlock@plt>
 4869aa5:	e8 16 8f 4b 03       	call   7d229c0 <pthread_mutex_unlock@plt>
 486a1ea:	e8 d1 87 4b 03       	call   7d229c0 <pthread_mutex_unlock@plt>
 486a57c:	e8 3f 84 4b 03       	call   7d229c0 <pthread_mutex_unlock@plt>
 486cd60:	e8 5b 5c 4b 03       	call   7d229c0 <pthread_mutex_unlock@plt>
 486cd7c:	e8 3f 5c 4b 03       	call   7d229c0 <pthread_mutex_unlock@plt>
 486ce2d:	e8 8e 5b 4b 03       	call   7d229c0 <pthread_mutex_unlock@plt>
 486d100:	e8 bb 58 4b 03       	call   7d229c0 <pthread_mutex_unlock@plt>
 486d711:	e8 aa 52 4b 03       	call   7d229c0 <pthread_mutex_unlock@plt>
 486da75:	e8 46 4f 4b 03       	call   7d229c0 <pthread_mutex_unlock@plt>
 486deae:	e8 0d 4b 4b 03       	call   7d229c0 <pthread_mutex_unlock@plt>
 486e518:	e8 a3 44 4b 03       	call   7d229c0 <pthread_mutex_unlock@plt>
 486e6af:	e8 0c 43 4b 03       	call   7d229c0 <pthread_mutex_unlock@plt>
 486e89a:	e8 21 41 4b 03       	call   7d229c0 <pthread_mutex_unlock@plt>
 486edd7:	e8 e4 3b 4b 03       	call   7d229c0 <pthread_mutex_unlock@plt>
 486ee58:	e8 63 3b 4b 03       	call   7d229c0 <pthread_mutex_unlock@plt>
 486ef36:	e8 85 3a 4b 03       	call   7d229c0 <pthread_mutex_unlock@plt>
 486efc5:	e8 f6 39 4b 03       	call   7d229c0 <pthread_mutex_unlock@plt>
 486f09f:	e8 1c 39 4b 03       	call   7d229c0 <pthread_mutex_unlock@plt>
 486f1a8:	e8 13 38 4b 03       	call   7d229c0 <pthread_mutex_unlock@plt>
 486f227:	e8 94 37 4b 03       	call   7d229c0 <pthread_mutex_unlock@plt>
 486f4e4:	e8 d7 34 4b 03       	call   7d229c0 <pthread_mutex_unlock@plt>
 48704cc:	e8 ef 24 4b 03       	call   7d229c0 <pthread_mutex_unlock@plt>
 487053b:	e8 80 24 4b 03       	call   7d229c0 <pthread_mutex_unlock@plt>
 4870668:	e8 53 23 4b 03       	call   7d229c0 <pthread_mutex_unlock@plt>
 4870a29:	e8 92 1f 4b 03       	call   7d229c0 <pthread_mutex_unlock@plt>
 4870add:	e8 de 1e 4b 03       	call   7d229c0 <pthread_mutex_unlock@plt>
 487710b:	e8 b0 b9 4a 03       	call   7d22ac0 <pthread_once@plt>
 4878a11:	e8 9a 9f 4a 03       	call   7d229b0 <pthread_mutex_lock@plt>
 4878ae8:	e9 d3 9e 4a 03       	jmp    7d229c0 <pthread_mutex_unlock@plt>
 4878c3e:	e9 7d 9d 4a 03       	jmp    7d229c0 <pthread_mutex_unlock@plt>
 4878e9b:	e8 10 9b 4a 03       	call   7d229b0 <pthread_mutex_lock@plt>
 4878eac:	e8 0f 9b 4a 03       	call   7d229c0 <pthread_mutex_unlock@plt>
 4878ef2:	e8 b9 9a 4a 03       	call   7d229b0 <pthread_mutex_lock@plt>
 4878f2f:	e9 8c 9a 4a 03       	jmp    7d229c0 <pthread_mutex_unlock@plt>
 48790f2:	e8 b9 98 4a 03       	call   7d229b0 <pthread_mutex_lock@plt>
 4879233:	e9 88 97 4a 03       	jmp    7d229c0 <pthread_mutex_unlock@plt>
 487a213:	e8 98 87 4a 03       	call   7d229b0 <pthread_mutex_lock@plt>
 487a635:	e9 86 83 4a 03       	jmp    7d229c0 <pthread_mutex_unlock@plt>
 487a769:	e8 42 82 4a 03       	call   7d229b0 <pthread_mutex_lock@plt>
 487aad4:	e9 e7 7e 4a 03       	jmp    7d229c0 <pthread_mutex_unlock@plt>
 487ace4:	e8 d7 7c 4a 03       	call   7d229c0 <pthread_mutex_unlock@plt>
 487ad04:	e8 b7 7c 4a 03       	call   7d229c0 <pthread_mutex_unlock@plt>
 487ad24:	e8 97 7c 4a 03       	call   7d229c0 <pthread_mutex_unlock@plt>
 487affd:	e8 be 79 4a 03       	call   7d229c0 <pthread_mutex_unlock@plt>
 487b08c:	e8 2f 79 4a 03       	call   7d229c0 <pthread_mutex_unlock@plt>
 487efad:	e8 0e 3b 4a 03       	call   7d22ac0 <pthread_once@plt>
 487fbe7:	e8 c4 2d 4a 03       	call   7d229b0 <pthread_mutex_lock@plt>
 487fbf7:	e8 c4 2d 4a 03       	call   7d229c0 <pthread_mutex_unlock@plt>
 487fc37:	e8 74 2d 4a 03       	call   7d229b0 <pthread_mutex_lock@plt>
 487fc47:	e8 74 2d 4a 03       	call   7d229c0 <pthread_mutex_unlock@plt>
 487fe34:	e8 77 2b 4a 03       	call   7d229b0 <pthread_mutex_lock@plt>
 487fe4f:	e8 6c 2b 4a 03       	call   7d229c0 <pthread_mutex_unlock@plt>
 487ff84:	e8 27 2a 4a 03       	call   7d229b0 <pthread_mutex_lock@plt>
 487ff9b:	e8 20 2a 4a 03       	call   7d229c0 <pthread_mutex_unlock@plt>
 48818d4:	e8 e7 11 4a 03       	call   7d22ac0 <pthread_once@plt>
 4881b8a:	e8 21 0e 4a 03       	call   7d229b0 <pthread_mutex_lock@plt>
 4881b9d:	e8 1e 0e 4a 03       	call   7d229c0 <pthread_mutex_unlock@plt>
 4881bd1:	e8 da 0d 4a 03       	call   7d229b0 <pthread_mutex_lock@plt>
 4881be8:	e9 d3 0d 4a 03       	jmp    7d229c0 <pthread_mutex_unlock@plt>
 4881c1a:	e8 91 0d 4a 03       	call   7d229b0 <pthread_mutex_lock@plt>
 4881c38:	e8 83 0d 4a 03       	call   7d229c0 <pthread_mutex_unlock@plt>
 4881c7a:	e8 31 0d 4a 03       	call   7d229b0 <pthread_mutex_lock@plt>
 4881cd1:	e8 ea 0c 4a 03       	call   7d229c0 <pthread_mutex_unlock@plt>
 4881d0a:	e8 a1 0c 4a 03       	call   7d229b0 <pthread_mutex_lock@plt>
 4881d5a:	e8 61 0c 4a 03       	call   7d229c0 <pthread_mutex_unlock@plt>
 4881d9d:	e8 0e 0c 4a 03       	call   7d229b0 <pthread_mutex_lock@plt>
 4881dee:	e8 cd 0b 4a 03       	call   7d229c0 <pthread_mutex_unlock@plt>
 4881f7b:	e8 30 0a 4a 03       	call   7d229b0 <pthread_mutex_lock@plt>
 4881fc9:	e8 f2 09 4a 03       	call   7d229c0 <pthread_mutex_unlock@plt>
 488200b:	e8 a0 09 4a 03       	call   7d229b0 <pthread_mutex_lock@plt>
 488202f:	e8 7c 09 4a 03       	call   7d229b0 <pthread_mutex_lock@plt>
 488208c:	e8 2f 09 4a 03       	call   7d229c0 <pthread_mutex_unlock@plt>
 488209b:	e8 20 09 4a 03       	call   7d229c0 <pthread_mutex_unlock@plt>
 48820a7:	e8 04 09 4a 03       	call   7d229b0 <pthread_mutex_lock@plt>
 48820bc:	e8 ff 08 4a 03       	call   7d229c0 <pthread_mutex_unlock@plt>
 48820d2:	e9 e9 08 4a 03       	jmp    7d229c0 <pthread_mutex_unlock@plt>
 4882111:	e8 9a 08 4a 03       	call   7d229b0 <pthread_mutex_lock@plt>
 48821de:	e8 cd 07 4a 03       	call   7d229b0 <pthread_mutex_lock@plt>
 4882245:	e8 76 07 4a 03       	call   7d229c0 <pthread_mutex_unlock@plt>
 488224d:	e8 6e 07 4a 03       	call   7d229c0 <pthread_mutex_unlock@plt>
 488225b:	e8 60 07 4a 03       	call   7d229c0 <pthread_mutex_unlock@plt>
 488226a:	e8 41 07 4a 03       	call   7d229b0 <pthread_mutex_lock@plt>
 4882286:	e8 35 07 4a 03       	call   7d229c0 <pthread_mutex_unlock@plt>
 488228e:	e8 2d 07 4a 03       	call   7d229c0 <pthread_mutex_unlock@plt>
 48822d3:	e8 e8 06 4a 03       	call   7d229c0 <pthread_mutex_unlock@plt>
 488287e:	e8 2d 01 4a 03       	call   7d229b0 <pthread_mutex_lock@plt>
 48828cc:	e8 ef 00 4a 03       	call   7d229c0 <pthread_mutex_unlock@plt>
 488294b:	e8 70 00 4a 03       	call   7d229c0 <pthread_mutex_unlock@plt>
 4882c3e:	e8 6d fd 49 03       	call   7d229b0 <pthread_mutex_lock@plt>
 4882c8c:	e8 2f fd 49 03       	call   7d229c0 <pthread_mutex_unlock@plt>
 4882d0b:	e8 b0 fc 49 03       	call   7d229c0 <pthread_mutex_unlock@plt>
 4882ede:	e8 cd fa 49 03       	call   7d229b0 <pthread_mutex_lock@plt>
 488308f:	e8 2c f9 49 03       	call   7d229c0 <pthread_mutex_unlock@plt>
 48830a8:	e8 03 f9 49 03       	call   7d229b0 <pthread_mutex_lock@plt>
 48830c1:	e8 fa f8 49 03       	call   7d229c0 <pthread_mutex_unlock@plt>
 488323f:	e8 6c f7 49 03       	call   7d229b0 <pthread_mutex_lock@plt>
 48832a2:	e8 19 f7 49 03       	call   7d229c0 <pthread_mutex_unlock@plt>
 48832eb:	e8 d0 f6 49 03       	call   7d229c0 <pthread_mutex_unlock@plt>
 488333e:	e8 6d f6 49 03       	call   7d229b0 <pthread_mutex_lock@plt>
 48833a0:	e8 1b f6 49 03       	call   7d229c0 <pthread_mutex_unlock@plt>
 48833ad:	e8 0e f6 49 03       	call   7d229c0 <pthread_mutex_unlock@plt>
 48833bc:	e8 ef f5 49 03       	call   7d229b0 <pthread_mutex_lock@plt>
 48833d4:	e8 e7 f5 49 03       	call   7d229c0 <pthread_mutex_unlock@plt>
 4883497:	e8 14 f5 49 03       	call   7d229b0 <pthread_mutex_lock@plt>
 488361e:	e8 8d f3 49 03       	call   7d229b0 <pthread_mutex_lock@plt>
 488367b:	e8 40 f3 49 03       	call   7d229c0 <pthread_mutex_unlock@plt>
 48836ef:	e8 bc f2 49 03       	call   7d229b0 <pthread_mutex_lock@plt>
 488374b:	e8 70 f2 49 03       	call   7d229c0 <pthread_mutex_unlock@plt>
 48837c7:	e8 f4 f1 49 03       	call   7d229c0 <pthread_mutex_unlock@plt>
 48838c8:	e8 f3 f0 49 03       	call   7d229c0 <pthread_mutex_unlock@plt>
 4883967:	e8 44 f0 49 03       	call   7d229b0 <pthread_mutex_lock@plt>
 48839bf:	e8 fc ef 49 03       	call   7d229c0 <pthread_mutex_unlock@plt>
 48839cc:	e8 ef ef 49 03       	call   7d229c0 <pthread_mutex_unlock@plt>
 4883b57:	e8 54 ee 49 03       	call   7d229b0 <pthread_mutex_lock@plt>
 4883d0e:	e8 9d ec 49 03       	call   7d229b0 <pthread_mutex_lock@plt>
 4883d6b:	e8 50 ec 49 03       	call   7d229c0 <pthread_mutex_unlock@plt>
 4883ddf:	e8 cc eb 49 03       	call   7d229b0 <pthread_mutex_lock@plt>
 4883e3b:	e8 80 eb 49 03       	call   7d229c0 <pthread_mutex_unlock@plt>
 4883eb7:	e8 04 eb 49 03       	call   7d229c0 <pthread_mutex_unlock@plt>
 4883fb8:	e8 03 ea 49 03       	call   7d229c0 <pthread_mutex_unlock@plt>
 4884067:	e8 44 e9 49 03       	call   7d229b0 <pthread_mutex_lock@plt>
 48840bf:	e8 fc e8 49 03       	call   7d229c0 <pthread_mutex_unlock@plt>
 48840cc:	e8 ef e8 49 03       	call   7d229c0 <pthread_mutex_unlock@plt>
 488468e:	e8 2d e3 49 03       	call   7d229c0 <pthread_mutex_unlock@plt>
 48849ae:	e8 fd df 49 03       	call   7d229b0 <pthread_mutex_lock@plt>
 48849f6:	e8 b5 df 49 03       	call   7d229b0 <pthread_mutex_lock@plt>
 4884a83:	e8 28 df 49 03       	call   7d229b0 <pthread_mutex_lock@plt>
 4884aa9:	e8 12 df 49 03       	call   7d229c0 <pthread_mutex_unlock@plt>
 4884b00:	e8 ab de 49 03       	call   7d229b0 <pthread_mutex_lock@plt>
 4884b21:	e8 9a de 49 03       	call   7d229c0 <pthread_mutex_unlock@plt>
 4884bf9:	e9 c2 dd 49 03       	jmp    7d229c0 <pthread_mutex_unlock@plt>
 4884e66:	e8 45 db 49 03       	call   7d229b0 <pthread_mutex_lock@plt>
 48850de:	e8 cd d8 49 03       	call   7d229b0 <pthread_mutex_lock@plt>
 4885146:	e8 75 d8 49 03       	call   7d229c0 <pthread_mutex_unlock@plt>
 4885167:	e8 44 d8 49 03       	call   7d229b0 <pthread_mutex_lock@plt>
 48851cf:	e8 ec d7 49 03       	call   7d229c0 <pthread_mutex_unlock@plt>
 48851e3:	e8 d8 d7 49 03       	call   7d229c0 <pthread_mutex_unlock@plt>
 48851f3:	e8 b8 d7 49 03       	call   7d229b0 <pthread_mutex_lock@plt>
 4885210:	e8 ab d7 49 03       	call   7d229c0 <pthread_mutex_unlock@plt>
 4885231:	e8 7a d7 49 03       	call   7d229b0 <pthread_mutex_lock@plt>
 488524a:	e8 71 d7 49 03       	call   7d229c0 <pthread_mutex_unlock@plt>
 4885272:	e9 49 d7 49 03       	jmp    7d229c0 <pthread_mutex_unlock@plt>
 4885283:	e8 38 d7 49 03       	call   7d229c0 <pthread_mutex_unlock@plt>
 48852bb:	e8 00 d7 49 03       	call   7d229c0 <pthread_mutex_unlock@plt>
 4885737:	e8 74 d2 49 03       	call   7d229b0 <pthread_mutex_lock@plt>
 4885753:	e8 68 d2 49 03       	call   7d229c0 <pthread_mutex_unlock@plt>
 4885797:	e8 14 d2 49 03       	call   7d229b0 <pthread_mutex_lock@plt>
 48857d5:	e9 e6 d1 49 03       	jmp    7d229c0 <pthread_mutex_unlock@plt>
 4885837:	e8 74 d1 49 03       	call   7d229b0 <pthread_mutex_lock@plt>
 488584a:	e8 71 d1 49 03       	call   7d229c0 <pthread_mutex_unlock@plt>
 4885955:	e8 56 d0 49 03       	call   7d229b0 <pthread_mutex_lock@plt>
 488597e:	e8 3d d0 49 03       	call   7d229c0 <pthread_mutex_unlock@plt>
 4885993:	e8 18 d0 49 03       	call   7d229b0 <pthread_mutex_lock@plt>
 48859d4:	e8 d7 cf 49 03       	call   7d229b0 <pthread_mutex_lock@plt>
 48859ed:	e8 ce cf 49 03       	call   7d229c0 <pthread_mutex_unlock@plt>
 48859f5:	e8 c6 cf 49 03       	call   7d229c0 <pthread_mutex_unlock@plt>
 4885a46:	e8 65 cf 49 03       	call   7d229b0 <pthread_mutex_lock@plt>
 4885ac1:	e8 fa ce 49 03       	call   7d229c0 <pthread_mutex_unlock@plt>
 4885b4e:	e8 5d ce 49 03       	call   7d229b0 <pthread_mutex_lock@plt>
 4885b96:	e8 15 ce 49 03       	call   7d229b0 <pthread_mutex_lock@plt>
 4885c21:	e8 8a cd 49 03       	call   7d229b0 <pthread_mutex_lock@plt>
 4885c47:	e8 74 cd 49 03       	call   7d229c0 <pthread_mutex_unlock@plt>
 4885c9b:	e8 10 cd 49 03       	call   7d229b0 <pthread_mutex_lock@plt>
 4885cb9:	e8 02 cd 49 03       	call   7d229c0 <pthread_mutex_unlock@plt>
 4885da9:	e9 12 cc 49 03       	jmp    7d229c0 <pthread_mutex_unlock@plt>
 4885e4d:	e8 5e cb 49 03       	call   7d229b0 <pthread_mutex_lock@plt>
 4885f47:	e8 74 ca 49 03       	call   7d229c0 <pthread_mutex_unlock@plt>
 488669c:	e8 1f c3 49 03       	call   7d229c0 <pthread_mutex_unlock@plt>
 488781a:	e8 a1 b2 49 03       	call   7d22ac0 <pthread_once@plt>
 4887f30:	e8 7b aa 49 03       	call   7d229b0 <pthread_mutex_lock@plt>
 488827e:	e8 3d a7 49 03       	call   7d229c0 <pthread_mutex_unlock@plt>
 488b02d:	e8 7e 79 49 03       	call   7d229b0 <pthread_mutex_lock@plt>
 488b27a:	e8 41 77 49 03       	call   7d229c0 <pthread_mutex_unlock@plt>
 488b3a4:	e8 07 76 49 03       	call   7d229b0 <pthread_mutex_lock@plt>
 488baf1:	e8 ca 6e 49 03       	call   7d229c0 <pthread_mutex_unlock@plt>
 488bb37:	e8 74 6e 49 03       	call   7d229b0 <pthread_mutex_lock@plt>
 488bbd4:	e8 e7 6d 49 03       	call   7d229c0 <pthread_mutex_unlock@plt>
 488bc9b:	e8 10 6d 49 03       	call   7d229b0 <pthread_mutex_lock@plt>
 488beac:	e8 0f 6b 49 03       	call   7d229c0 <pthread_mutex_unlock@plt>
 488c97c:	e8 3f 60 49 03       	call   7d229c0 <pthread_mutex_unlock@plt>
 488d2f6:	e8 c5 56 49 03       	call   7d229c0 <pthread_mutex_unlock@plt>
 488d56e:	e8 4d 54 49 03       	call   7d229c0 <pthread_mutex_unlock@plt>
 488d5f4:	e8 c7 53 49 03       	call   7d229c0 <pthread_mutex_unlock@plt>
 488d6f9:	e8 c2 53 49 03       	call   7d22ac0 <pthread_once@plt>
 488ef12:	e8 a9 3b 49 03       	call   7d22ac0 <pthread_once@plt>
 488f4a7:	e8 04 35 49 03       	call   7d229b0 <pthread_mutex_lock@plt>
 488f4d2:	e9 e9 34 49 03       	jmp    7d229c0 <pthread_mutex_unlock@plt>
 488fc5a:	e8 51 2d 49 03       	call   7d229b0 <pthread_mutex_lock@plt>
 488fcf1:	e8 ca 2c 49 03       	call   7d229c0 <pthread_mutex_unlock@plt>
 4890c28:	e8 83 1d 49 03       	call   7d229b0 <pthread_mutex_lock@plt>
 4890c3f:	e8 7c 1d 49 03       	call   7d229c0 <pthread_mutex_unlock@plt>
 4890e04:	e8 a7 1b 49 03       	call   7d229b0 <pthread_mutex_lock@plt>
 489124a:	e8 71 17 49 03       	call   7d229c0 <pthread_mutex_unlock@plt>
 48916b8:	e8 f3 12 49 03       	call   7d229b0 <pthread_mutex_lock@plt>
 48917f6:	e8 c5 11 49 03       	call   7d229c0 <pthread_mutex_unlock@plt>
 4891907:	e9 b4 10 49 03       	jmp    7d229c0 <pthread_mutex_unlock@plt>
 4891fc8:	e8 e3 09 49 03       	call   7d229b0 <pthread_mutex_lock@plt>
 48920db:	e8 e0 08 49 03       	call   7d229c0 <pthread_mutex_unlock@plt>
 4893887:	e8 24 f1 48 03       	call   7d229b0 <pthread_mutex_lock@plt>
 48938d8:	e8 e3 f0 48 03       	call   7d229c0 <pthread_mutex_unlock@plt>
 48956a6:	e8 15 d3 48 03       	call   7d229c0 <pthread_mutex_unlock@plt>
 4895746:	e8 75 d2 48 03       	call   7d229c0 <pthread_mutex_unlock@plt>
 4895c49:	e8 72 cd 48 03       	call   7d229c0 <pthread_mutex_unlock@plt>
 4895d60:	e8 5b cc 48 03       	call   7d229c0 <pthread_mutex_unlock@plt>
 48961d5:	e8 e6 c7 48 03       	call   7d229c0 <pthread_mutex_unlock@plt>
 489801c:	e8 9f aa 48 03       	call   7d22ac0 <pthread_once@plt>
 4898b47:	e8 64 9e 48 03       	call   7d229b0 <pthread_mutex_lock@plt>
 4898b72:	e9 49 9e 48 03       	jmp    7d229c0 <pthread_mutex_unlock@plt>
 4898fbb:	e8 f0 99 48 03       	call   7d229b0 <pthread_mutex_lock@plt>
 489927b:	e8 40 97 48 03       	call   7d229c0 <pthread_mutex_unlock@plt>
 489c174:	e8 37 68 48 03       	call   7d229b0 <pthread_mutex_lock@plt>
 489c2b7:	e8 04 67 48 03       	call   7d229c0 <pthread_mutex_unlock@plt>
 489c2ec:	e8 bf 66 48 03       	call   7d229b0 <pthread_mutex_lock@plt>
 489c392:	e8 29 66 48 03       	call   7d229c0 <pthread_mutex_unlock@plt>
 489c6ef:	e8 bc 62 48 03       	call   7d229b0 <pthread_mutex_lock@plt>
 489c7f9:	e8 c2 61 48 03       	call   7d229c0 <pthread_mutex_unlock@plt>
 489c84a:	e8 71 61 48 03       	call   7d229c0 <pthread_mutex_unlock@plt>
 489c935:	e8 86 60 48 03       	call   7d229c0 <pthread_mutex_unlock@plt>
 489ca72:	e8 49 5f 48 03       	call   7d229c0 <pthread_mutex_unlock@plt>
 489cac1:	e8 fa 5e 48 03       	call   7d229c0 <pthread_mutex_unlock@plt>
 489d3da:	e8 e1 55 48 03       	call   7d229c0 <pthread_mutex_unlock@plt>
 489d4a5:	e8 16 55 48 03       	call   7d229c0 <pthread_mutex_unlock@plt>
 489d4c6:	e8 f5 54 48 03       	call   7d229c0 <pthread_mutex_unlock@plt>
 489e253:	e8 68 48 48 03       	call   7d22ac0 <pthread_once@plt>
 489fc3a:	e8 71 2d 48 03       	call   7d229b0 <pthread_mutex_lock@plt>
 489fc8a:	e8 31 2d 48 03       	call   7d229c0 <pthread_mutex_unlock@plt>
 48a357c:	e8 3f f5 47 03       	call   7d22ac0 <pthread_once@plt>
 48a916d:	e8 4e 99 47 03       	call   7d22ac0 <pthread_once@plt>
 48a98ca:	e8 e1 90 47 03       	call   7d229b0 <pthread_mutex_lock@plt>
 48a9917:	e8 94 90 47 03       	call   7d229b0 <pthread_mutex_lock@plt>
 48a9942:	e9 79 90 47 03       	jmp    7d229c0 <pthread_mutex_unlock@plt>
 48a997a:	e8 41 90 47 03       	call   7d229c0 <pthread_mutex_unlock@plt>
 48aa320:	e8 8b 86 47 03       	call   7d229b0 <pthread_mutex_lock@plt>
 48aa5bd:	e8 fe 83 47 03       	call   7d229c0 <pthread_mutex_unlock@plt>
 48abdb9:	e8 f2 6b 47 03       	call   7d229b0 <pthread_mutex_lock@plt>
 48abfe7:	e8 d4 69 47 03       	call   7d229c0 <pthread_mutex_unlock@plt>
 48ac160:	e8 4b 68 47 03       	call   7d229b0 <pthread_mutex_lock@plt>
 48ac3b9:	e8 02 66 47 03       	call   7d229c0 <pthread_mutex_unlock@plt>
 48ac853:	e8 58 61 47 03       	call   7d229b0 <pthread_mutex_lock@plt>
 48aca8a:	e8 31 5f 47 03       	call   7d229c0 <pthread_mutex_unlock@plt>
 48accd0:	e8 db 5c 47 03       	call   7d229b0 <pthread_mutex_lock@plt>
 48ad02f:	e8 8c 59 47 03       	call   7d229c0 <pthread_mutex_unlock@plt>
 48ae397:	e8 24 46 47 03       	call   7d229c0 <pthread_mutex_unlock@plt>
 48ae9d6:	e8 e5 3f 47 03       	call   7d229c0 <pthread_mutex_unlock@plt>
 48aea60:	e8 5b 3f 47 03       	call   7d229c0 <pthread_mutex_unlock@plt>
 48aed25:	e8 96 3c 47 03       	call   7d229c0 <pthread_mutex_unlock@plt>
 48aedb2:	e8 09 3c 47 03       	call   7d229c0 <pthread_mutex_unlock@plt>
 48aefdf:	e8 dc 39 47 03       	call   7d229c0 <pthread_mutex_unlock@plt>
 48af077:	e8 44 39 47 03       	call   7d229c0 <pthread_mutex_unlock@plt>
 48af084:	e8 37 39 47 03       	call   7d229c0 <pthread_mutex_unlock@plt>
 48b0c19:	e8 a2 1e 47 03       	call   7d22ac0 <pthread_once@plt>
 48b163a:	e8 71 13 47 03       	call   7d229b0 <pthread_mutex_lock@plt>
 48b168a:	e8 31 13 47 03       	call   7d229c0 <pthread_mutex_unlock@plt>
 48b16c7:	e8 e4 12 47 03       	call   7d229b0 <pthread_mutex_lock@plt>
 48b1705:	e9 b6 12 47 03       	jmp    7d229c0 <pthread_mutex_unlock@plt>
 48b1747:	e8 64 12 47 03       	call   7d229b0 <pthread_mutex_lock@plt>
 48b1785:	e9 36 12 47 03       	jmp    7d229c0 <pthread_mutex_unlock@plt>
 48b234a:	e8 61 06 47 03       	call   7d229b0 <pthread_mutex_lock@plt>
 48b23e1:	e8 da 05 47 03       	call   7d229c0 <pthread_mutex_unlock@plt>
 48b283b:	e8 70 01 47 03       	call   7d229b0 <pthread_mutex_lock@plt>
 48b2898:	e8 23 01 47 03       	call   7d229c0 <pthread_mutex_unlock@plt>
 48b3b71:	e8 3a ee 46 03       	call   7d229b0 <pthread_mutex_lock@plt>
 48b3c8b:	e8 30 ed 46 03       	call   7d229c0 <pthread_mutex_unlock@plt>
 48b5555:	e8 56 d4 46 03       	call   7d229b0 <pthread_mutex_lock@plt>
 48b5591:	e8 2a d4 46 03       	call   7d229c0 <pthread_mutex_unlock@plt>
 48b6c26:	e8 85 bd 46 03       	call   7d229b0 <pthread_mutex_lock@plt>
 48b6c66:	e8 55 bd 46 03       	call   7d229c0 <pthread_mutex_unlock@plt>
 48b80c9:	e8 f2 a8 46 03       	call   7d229c0 <pthread_mutex_unlock@plt>
 48b9361:	e8 4a 96 46 03       	call   7d229b0 <pthread_mutex_lock@plt>
 48ba9a6:	e8 15 80 46 03       	call   7d229c0 <pthread_mutex_unlock@plt>
 48ba9ba:	e8 01 80 46 03       	call   7d229c0 <pthread_mutex_unlock@plt>
 48ba9ce:	e8 ed 7f 46 03       	call   7d229c0 <pthread_mutex_unlock@plt>
 48babe3:	e8 d8 7d 46 03       	call   7d229c0 <pthread_mutex_unlock@plt>
 48baeb6:	e8 05 7b 46 03       	call   7d229c0 <pthread_mutex_unlock@plt>
 48bb575:	e8 46 74 46 03       	call   7d229c0 <pthread_mutex_unlock@plt>
 48bc07d:	e8 3e 69 46 03       	call   7d229c0 <pthread_mutex_unlock@plt>
 48bcb17:	e8 a4 5f 46 03       	call   7d22ac0 <pthread_once@plt>
 48bd367:	e8 44 56 46 03       	call   7d229b0 <pthread_mutex_lock@plt>
 48bd392:	e9 29 56 46 03       	jmp    7d229c0 <pthread_mutex_unlock@plt>
 48bde7b:	e8 30 4b 46 03       	call   7d229b0 <pthread_mutex_lock@plt>
 48be175:	e8 46 48 46 03       	call   7d229c0 <pthread_mutex_unlock@plt>
 48bfd74:	e8 37 2c 46 03       	call   7d229b0 <pthread_mutex_lock@plt>
 48bfe8f:	e8 2c 2b 46 03       	call   7d229c0 <pthread_mutex_unlock@plt>
 48bfec4:	e8 e7 2a 46 03       	call   7d229b0 <pthread_mutex_lock@plt>
 48bffa4:	e8 17 2a 46 03       	call   7d229c0 <pthread_mutex_unlock@plt>
 48c045f:	e8 4c 25 46 03       	call   7d229b0 <pthread_mutex_lock@plt>
 48c05b3:	e8 08 24 46 03       	call   7d229c0 <pthread_mutex_unlock@plt>
 48c05e4:	e8 c7 23 46 03       	call   7d229b0 <pthread_mutex_lock@plt>
 48c062e:	e9 8d 23 46 03       	jmp    7d229c0 <pthread_mutex_unlock@plt>
 48c078a:	e8 31 22 46 03       	call   7d229c0 <pthread_mutex_unlock@plt>
 48c14c4:	e8 f7 14 46 03       	call   7d229c0 <pthread_mutex_unlock@plt>
 48c2da6:	e8 15 fc 45 03       	call   7d229c0 <pthread_mutex_unlock@plt>
 48c2e41:	e8 7a fb 45 03       	call   7d229c0 <pthread_mutex_unlock@plt>
 48c3271:	e8 4a f7 45 03       	call   7d229c0 <pthread_mutex_unlock@plt>
 48c32b6:	e8 05 f7 45 03       	call   7d229c0 <pthread_mutex_unlock@plt>
 48c3448:	e8 73 f5 45 03       	call   7d229c0 <pthread_mutex_unlock@plt>
 48c489c:	e8 1f e2 45 03       	call   7d22ac0 <pthread_once@plt>
 48c584b:	e8 70 d2 45 03       	call   7d22ac0 <pthread_once@plt>
 48c5e7f:	e8 2c cb 45 03       	call   7d229b0 <pthread_mutex_lock@plt>
 48c5eaa:	e9 11 cb 45 03       	jmp    7d229c0 <pthread_mutex_unlock@plt>
 48c6537:	e8 74 c4 45 03       	call   7d229b0 <pthread_mutex_lock@plt>
 48c654a:	e8 71 c4 45 03       	call   7d229c0 <pthread_mutex_unlock@plt>
 48c659e:	e8 0d c4 45 03       	call   7d229b0 <pthread_mutex_lock@plt>
 48c6641:	e8 7a c3 45 03       	call   7d229c0 <pthread_mutex_unlock@plt>
 48c6e54:	e8 57 bb 45 03       	call   7d229b0 <pthread_mutex_lock@plt>
 48c7110:	e9 ab b8 45 03       	jmp    7d229c0 <pthread_mutex_unlock@plt>
 48c7520:	e8 8b b4 45 03       	call   7d229b0 <pthread_mutex_lock@plt>
 48c7633:	e8 88 b3 45 03       	call   7d229c0 <pthread_mutex_unlock@plt>
 48c78f8:	e8 b3 b0 45 03       	call   7d229b0 <pthread_mutex_lock@plt>
 48c791e:	e8 9d b0 45 03       	call   7d229c0 <pthread_mutex_unlock@plt>
 48c8165:	e8 46 a8 45 03       	call   7d229b0 <pthread_mutex_lock@plt>
 48c8187:	e8 34 a8 45 03       	call   7d229c0 <pthread_mutex_unlock@plt>
 48c8439:	e8 82 a6 45 03       	call   7d22ac0 <pthread_once@plt>
 48c93ba:	e8 f1 95 45 03       	call   7d229b0 <pthread_mutex_lock@plt>
 48c952a:	e8 91 94 45 03       	call   7d229c0 <pthread_mutex_unlock@plt>
 48c95d7:	e8 d4 93 45 03       	call   7d229b0 <pthread_mutex_lock@plt>
 48c95f5:	e8 c6 93 45 03       	call   7d229c0 <pthread_mutex_unlock@plt>
 48ca31c:	e8 9f 86 45 03       	call   7d229c0 <pthread_mutex_unlock@plt>
 48ca330:	e8 8b 86 45 03       	call   7d229c0 <pthread_mutex_unlock@plt>
 48ca4bc:	e8 ff 84 45 03       	call   7d229c0 <pthread_mutex_unlock@plt>
 48ca97b:	e8 40 80 45 03       	call   7d229c0 <pthread_mutex_unlock@plt>
 48cad64:	e8 57 7c 45 03       	call   7d229c0 <pthread_mutex_unlock@plt>
 48cb3d9:	e8 e2 75 45 03       	call   7d229c0 <pthread_mutex_unlock@plt>
 48cbd3c:	e8 7f 6d 45 03       	call   7d22ac0 <pthread_once@plt>
 48cc5aa:	e8 11 64 45 03       	call   7d229c0 <pthread_mutex_unlock@plt>
 48cc5ea:	e8 c1 63 45 03       	call   7d229b0 <pthread_mutex_lock@plt>
 48cd0ce:	e8 ed 59 45 03       	call   7d22ac0 <pthread_once@plt>
 48cd6c3:	e8 e8 52 45 03       	call   7d229b0 <pthread_mutex_lock@plt>
 48cd817:	e9 a4 51 45 03       	jmp    7d229c0 <pthread_mutex_unlock@plt>
 48cd870:	e8 3b 51 45 03       	call   7d229b0 <pthread_mutex_lock@plt>
 48cd983:	e9 38 50 45 03       	jmp    7d229c0 <pthread_mutex_unlock@plt>
 48cda2d:	e8 7e 4f 45 03       	call   7d229b0 <pthread_mutex_lock@plt>
 48cdab0:	e8 0b 4f 45 03       	call   7d229c0 <pthread_mutex_unlock@plt>
 48cdbb9:	e8 f2 4d 45 03       	call   7d229b0 <pthread_mutex_lock@plt>
 48cdc0f:	e8 ac 4d 45 03       	call   7d229c0 <pthread_mutex_unlock@plt>
 48cdd22:	e8 89 4c 45 03       	call   7d229b0 <pthread_mutex_lock@plt>
 48cdd60:	e8 5b 4c 45 03       	call   7d229c0 <pthread_mutex_unlock@plt>
 48ce4af:	e8 fc 44 45 03       	call   7d229b0 <pthread_mutex_lock@plt>
 48ce7bb:	e8 00 42 45 03       	call   7d229c0 <pthread_mutex_unlock@plt>
 48cebec:	e8 bf 3d 45 03       	call   7d229b0 <pthread_mutex_lock@plt>
 48cec24:	e8 97 3d 45 03       	call   7d229c0 <pthread_mutex_unlock@plt>
 48ced40:	e8 6b 3c 45 03       	call   7d229b0 <pthread_mutex_lock@plt>
 48ceeca:	e9 f1 3a 45 03       	jmp    7d229c0 <pthread_mutex_unlock@plt>
 48cef85:	e8 26 3a 45 03       	call   7d229b0 <pthread_mutex_lock@plt>
 48cefbd:	e9 fe 39 45 03       	jmp    7d229c0 <pthread_mutex_unlock@plt>
 48cf00d:	e8 9e 39 45 03       	call   7d229b0 <pthread_mutex_lock@plt>
 48cf0bf:	e9 fc 38 45 03       	jmp    7d229c0 <pthread_mutex_unlock@plt>
 48cf1dc:	e8 df 37 45 03       	call   7d229c0 <pthread_mutex_unlock@plt>
 48cf435:	e8 76 35 45 03       	call   7d229b0 <pthread_mutex_lock@plt>
 48cf5c6:	e9 f5 33 45 03       	jmp    7d229c0 <pthread_mutex_unlock@plt>
 48d04b0:	e8 0b 25 45 03       	call   7d229c0 <pthread_mutex_unlock@plt>
 48d06ae:	e8 0d 23 45 03       	call   7d229c0 <pthread_mutex_unlock@plt>
 48d094e:	e8 5d 20 45 03       	call   7d229b0 <pthread_mutex_lock@plt>
 48d09dd:	e8 de 1f 45 03       	call   7d229c0 <pthread_mutex_unlock@plt>
 48d0a4c:	e8 6f 1f 45 03       	call   7d229c0 <pthread_mutex_unlock@plt>
 48d0b4b:	e8 70 1e 45 03       	call   7d229c0 <pthread_mutex_unlock@plt>
 48d1061:	e8 5a 19 45 03       	call   7d229c0 <pthread_mutex_unlock@plt>
 48d1074:	e8 47 19 45 03       	call   7d229c0 <pthread_mutex_unlock@plt>
 48d109c:	e8 1f 19 45 03       	call   7d229c0 <pthread_mutex_unlock@plt>
 48d11a2:	e8 19 18 45 03       	call   7d229c0 <pthread_mutex_unlock@plt>
 48d176a:	e8 41 12 45 03       	call   7d229b0 <pthread_mutex_lock@plt>
 48d1c8e:	e8 1d 0d 45 03       	call   7d229b0 <pthread_mutex_lock@plt>
 48d1d8e:	e8 1d 0c 45 03       	call   7d229b0 <pthread_mutex_lock@plt>
 48d1da8:	e8 13 0c 45 03       	call   7d229c0 <pthread_mutex_unlock@plt>
 48d1e08:	e8 b3 0b 45 03       	call   7d229c0 <pthread_mutex_unlock@plt>
 48d2625:	e8 86 03 45 03       	call   7d229b0 <pthread_mutex_lock@plt>
 48d2e76:	e8 35 fb 44 03       	call   7d229b0 <pthread_mutex_lock@plt>
 48d2ea6:	e8 05 fb 44 03       	call   7d229b0 <pthread_mutex_lock@plt>
 48d2ec0:	e8 fb fa 44 03       	call   7d229c0 <pthread_mutex_unlock@plt>
 48d2f0c:	e8 af fa 44 03       	call   7d229c0 <pthread_mutex_unlock@plt>
 48d3413:	e8 a8 f6 44 03       	call   7d22ac0 <pthread_once@plt>
 48d3c35:	e8 76 ed 44 03       	call   7d229b0 <pthread_mutex_lock@plt>
 48d3c47:	e8 74 ed 44 03       	call   7d229c0 <pthread_mutex_unlock@plt>
 48d3c4f:	e8 5c ed 44 03       	call   7d229b0 <pthread_mutex_lock@plt>
 48d3c6f:	e8 4c ed 44 03       	call   7d229c0 <pthread_mutex_unlock@plt>
 48d3ca9:	e8 12 ed 44 03       	call   7d229c0 <pthread_mutex_unlock@plt>
 48df452:	e8 69 36 44 03       	call   7d22ac0 <pthread_once@plt>
 48e4c0a:	e8 b1 de 43 03       	call   7d22ac0 <pthread_once@plt>
 48ea1c8:	e8 f3 88 43 03       	call   7d22ac0 <pthread_once@plt>
 48eaf94:	e8 27 7b 43 03       	call   7d22ac0 <pthread_once@plt>
 48eb81d:	e8 9e 72 43 03       	call   7d22ac0 <pthread_once@plt>
 48ecb9b:	e8 20 5f 43 03       	call   7d22ac0 <pthread_once@plt>
 48f023e:	e8 7d 28 43 03       	call   7d22ac0 <pthread_once@plt>
 48f3d4b:	e8 70 ed 42 03       	call   7d22ac0 <pthread_once@plt>
 48f507c:	e8 3f da 42 03       	call   7d22ac0 <pthread_once@plt>
 48f5caa:	e8 01 cd 42 03       	call   7d229b0 <pthread_mutex_lock@plt>
 48f5d2a:	e8 91 cc 42 03       	call   7d229c0 <pthread_mutex_unlock@plt>
 48fd9cc:	e8 df 4f 42 03       	call   7d229b0 <pthread_mutex_lock@plt>
 490979a:	e8 21 93 41 03       	call   7d22ac0 <pthread_once@plt>
 490db74:	e8 47 4f 41 03       	call   7d22ac0 <pthread_once@plt>
 490e40a:	e8 b1 45 41 03       	call   7d229c0 <pthread_mutex_unlock@plt>
 490e44a:	e8 61 45 41 03       	call   7d229b0 <pthread_mutex_lock@plt>
 490e809:	e8 a2 41 41 03       	call   7d229b0 <pthread_mutex_lock@plt>
 490e8a6:	e9 15 41 41 03       	jmp    7d229c0 <pthread_mutex_unlock@plt>
 490fade:	e8 cd 2e 41 03       	call   7d229b0 <pthread_mutex_lock@plt>
 490fb21:	e9 9a 2e 41 03       	jmp    7d229c0 <pthread_mutex_unlock@plt>
 490ff7d:	e8 2e 2a 41 03       	call   7d229b0 <pthread_mutex_lock@plt>
 491000d:	e8 ae 29 41 03       	call   7d229c0 <pthread_mutex_unlock@plt>
 4910065:	e8 46 29 41 03       	call   7d229b0 <pthread_mutex_lock@plt>
 491009e:	e9 1d 29 41 03       	jmp    7d229c0 <pthread_mutex_unlock@plt>
 49120a6:	e8 05 09 41 03       	call   7d229b0 <pthread_mutex_lock@plt>
 4912123:	e8 88 08 41 03       	call   7d229b0 <pthread_mutex_lock@plt>
 491214f:	e8 6c 08 41 03       	call   7d229c0 <pthread_mutex_unlock@plt>
 49121bd:	e8 ee 07 41 03       	call   7d229b0 <pthread_mutex_lock@plt>
 491281b:	e8 90 01 41 03       	call   7d229b0 <pthread_mutex_lock@plt>
 4912840:	e8 7b 01 41 03       	call   7d229c0 <pthread_mutex_unlock@plt>
 4916248:	e8 63 c7 40 03       	call   7d229b0 <pthread_mutex_lock@plt>
 49162d6:	e8 d5 c6 40 03       	call   7d229b0 <pthread_mutex_lock@plt>
 4916624:	e8 97 c3 40 03       	call   7d229c0 <pthread_mutex_unlock@plt>
 49167ad:	e8 0e c2 40 03       	call   7d229c0 <pthread_mutex_unlock@plt>
 4916a6b:	e8 50 bf 40 03       	call   7d229c0 <pthread_mutex_unlock@plt>
 491765d:	e8 5e b3 40 03       	call   7d229c0 <pthread_mutex_unlock@plt>
 491768f:	e8 2c b3 40 03       	call   7d229c0 <pthread_mutex_unlock@plt>
 4917817:	e8 94 b1 40 03       	call   7d229b0 <pthread_mutex_lock@plt>
 49179c6:	e8 f5 af 40 03       	call   7d229c0 <pthread_mutex_unlock@plt>
 4917abd:	e8 ee ae 40 03       	call   7d229b0 <pthread_mutex_lock@plt>
 4917ad9:	e8 e2 ae 40 03       	call   7d229c0 <pthread_mutex_unlock@plt>
 4917b33:	e8 88 ae 40 03       	call   7d229c0 <pthread_mutex_unlock@plt>
 4917c21:	e8 8a ad 40 03       	call   7d229b0 <pthread_mutex_lock@plt>
 4917c38:	e8 73 ad 40 03       	call   7d229b0 <pthread_mutex_lock@plt>
 4917c7b:	e8 30 ad 40 03       	call   7d229b0 <pthread_mutex_lock@plt>
 4917c98:	e8 23 ad 40 03       	call   7d229c0 <pthread_mutex_unlock@plt>
 4917dd9:	e8 e2 ab 40 03       	call   7d229c0 <pthread_mutex_unlock@plt>
 4917dff:	e9 bc ab 40 03       	jmp    7d229c0 <pthread_mutex_unlock@plt>
 49194f8:	e8 b3 94 40 03       	call   7d229b0 <pthread_mutex_lock@plt>
 49197d4:	e8 e7 91 40 03       	call   7d229c0 <pthread_mutex_unlock@plt>
 491bd02:	e8 a9 6c 40 03       	call   7d229b0 <pthread_mutex_lock@plt>
 491bea6:	e8 15 6b 40 03       	call   7d229c0 <pthread_mutex_unlock@plt>
 491c063:	e8 48 69 40 03       	call   7d229b0 <pthread_mutex_lock@plt>
 491c1e7:	e9 d4 67 40 03       	jmp    7d229c0 <pthread_mutex_unlock@plt>
 491c3aa:	e8 01 66 40 03       	call   7d229b0 <pthread_mutex_lock@plt>
 491c3f9:	e9 c2 65 40 03       	jmp    7d229c0 <pthread_mutex_unlock@plt>
 491c47b:	e8 30 65 40 03       	call   7d229b0 <pthread_mutex_lock@plt>
 491c61b:	e8 a0 63 40 03       	call   7d229c0 <pthread_mutex_unlock@plt>
 491d070:	e8 3b 59 40 03       	call   7d229b0 <pthread_mutex_lock@plt>
 491d09e:	e8 0d 59 40 03       	call   7d229b0 <pthread_mutex_lock@plt>
 491d13b:	e8 80 58 40 03       	call   7d229c0 <pthread_mutex_unlock@plt>
 491d151:	e8 5a 58 40 03       	call   7d229b0 <pthread_mutex_lock@plt>
 491d17f:	e8 3c 58 40 03       	call   7d229c0 <pthread_mutex_unlock@plt>
 491d187:	e8 34 58 40 03       	call   7d229c0 <pthread_mutex_unlock@plt>
 491e5ae:	e8 fd 43 40 03       	call   7d229b0 <pthread_mutex_lock@plt>
 491e76e:	e8 3d 42 40 03       	call   7d229b0 <pthread_mutex_lock@plt>
 491e8b3:	e8 f8 40 40 03       	call   7d229b0 <pthread_mutex_lock@plt>
 491f219:	e8 a2 37 40 03       	call   7d229c0 <pthread_mutex_unlock@plt>
 491f231:	e8 8a 37 40 03       	call   7d229c0 <pthread_mutex_unlock@plt>
 491f23d:	e8 7e 37 40 03       	call   7d229c0 <pthread_mutex_unlock@plt>
 4920fd9:	e8 d2 19 40 03       	call   7d229b0 <pthread_mutex_lock@plt>
 4921016:	e8 a5 19 40 03       	call   7d229c0 <pthread_mutex_unlock@plt>
 4921940:	e8 7b 10 40 03       	call   7d229c0 <pthread_mutex_unlock@plt>
 4921a48:	e8 73 0f 40 03       	call   7d229c0 <pthread_mutex_unlock@plt>
 4922c7e:	e8 3d fd 3f 03       	call   7d229c0 <pthread_mutex_unlock@plt>
 4922c8a:	e8 31 fd 3f 03       	call   7d229c0 <pthread_mutex_unlock@plt>
 4922f21:	e8 9a fa 3f 03       	call   7d229c0 <pthread_mutex_unlock@plt>
 4922f3f:	e8 7c fa 3f 03       	call   7d229c0 <pthread_mutex_unlock@plt>
 4922f48:	e8 73 fa 3f 03       	call   7d229c0 <pthread_mutex_unlock@plt>
 4923446:	e8 75 f5 3f 03       	call   7d229c0 <pthread_mutex_unlock@plt>
 4923c7b:	e8 40 ed 3f 03       	call   7d229c0 <pthread_mutex_unlock@plt>
 4923cbe:	e8 fd ec 3f 03       	call   7d229c0 <pthread_mutex_unlock@plt>
 4923d06:	e8 b5 ec 3f 03       	call   7d229c0 <pthread_mutex_unlock@plt>
 4923d49:	e8 72 ec 3f 03       	call   7d229c0 <pthread_mutex_unlock@plt>
 49240f9:	e8 c2 e8 3f 03       	call   7d229c0 <pthread_mutex_unlock@plt>
 4924137:	e8 84 e8 3f 03       	call   7d229c0 <pthread_mutex_unlock@plt>
 49241d4:	e8 e7 e7 3f 03       	call   7d229c0 <pthread_mutex_unlock@plt>
 49246ef:	e8 cc e2 3f 03       	call   7d229c0 <pthread_mutex_unlock@plt>
 4926548:	e8 73 c4 3f 03       	call   7d229c0 <pthread_mutex_unlock@plt>
 4926598:	e8 b3 c7 3f 03       	call   7d22d50 <pthread_cond_clockwait@plt>
 49265a5:	e8 16 c4 3f 03       	call   7d229c0 <pthread_mutex_unlock@plt>
 49265ba:	e8 f1 c3 3f 03       	call   7d229b0 <pthread_mutex_lock@plt>
 492662d:	e8 7e c3 3f 03       	call   7d229b0 <pthread_mutex_lock@plt>
 49266a8:	e8 03 c3 3f 03       	call   7d229b0 <pthread_mutex_lock@plt>
 4926744:	e8 07 c6 3f 03       	call   7d22d50 <pthread_cond_clockwait@plt>
 4926751:	e8 6a c2 3f 03       	call   7d229c0 <pthread_mutex_unlock@plt>
 4926773:	e8 38 c2 3f 03       	call   7d229b0 <pthread_mutex_lock@plt>
 49267a8:	e8 13 c2 3f 03       	call   7d229c0 <pthread_mutex_unlock@plt>
 492761c:	e8 9f b4 3f 03       	call   7d22ac0 <pthread_once@plt>
 492aaee:	e8 cd 7f 3f 03       	call   7d22ac0 <pthread_once@plt>
 492b4da:	e8 d1 74 3f 03       	call   7d229b0 <pthread_mutex_lock@plt>
 492b62a:	e8 91 73 3f 03       	call   7d229c0 <pthread_mutex_unlock@plt>
 492b9df:	e8 cc 6f 3f 03       	call   7d229b0 <pthread_mutex_lock@plt>
 492ba05:	e8 b6 6f 3f 03       	call   7d229c0 <pthread_mutex_unlock@plt>
 492ba2b:	e9 90 6f 3f 03       	jmp    7d229c0 <pthread_mutex_unlock@plt>
 492ba40:	e8 6b 6f 3f 03       	call   7d229b0 <pthread_mutex_lock@plt>
 492ba9f:	e8 1c 6f 3f 03       	call   7d229c0 <pthread_mutex_unlock@plt>
 492bab3:	e8 08 6f 3f 03       	call   7d229c0 <pthread_mutex_unlock@plt>
 492babf:	e8 ec 6e 3f 03       	call   7d229b0 <pthread_mutex_lock@plt>
 492bad4:	e8 e7 6e 3f 03       	call   7d229c0 <pthread_mutex_unlock@plt>
 492bb1e:	e8 8d 6e 3f 03       	call   7d229b0 <pthread_mutex_lock@plt>
 492bb45:	e9 76 6e 3f 03       	jmp    7d229c0 <pthread_mutex_unlock@plt>
 492bb67:	e8 44 6e 3f 03       	call   7d229b0 <pthread_mutex_lock@plt>
 492bbc4:	e8 f7 6d 3f 03       	call   7d229c0 <pthread_mutex_unlock@plt>
 492bbd3:	e8 e8 6d 3f 03       	call   7d229c0 <pthread_mutex_unlock@plt>
 492bbdf:	e8 cc 6d 3f 03       	call   7d229b0 <pthread_mutex_lock@plt>
 492bbf4:	e8 c7 6d 3f 03       	call   7d229c0 <pthread_mutex_unlock@plt>
 492bc7d:	e8 2e 6d 3f 03       	call   7d229b0 <pthread_mutex_lock@plt>
 492bc99:	e8 22 6d 3f 03       	call   7d229c0 <pthread_mutex_unlock@plt>
 492bd41:	e8 6a 6c 3f 03       	call   7d229b0 <pthread_mutex_lock@plt>
 492bdbf:	e8 fc 6b 3f 03       	call   7d229c0 <pthread_mutex_unlock@plt>
 492be9d:	e8 0e 6b 3f 03       	call   7d229b0 <pthread_mutex_lock@plt>
 492bed2:	e9 e9 6a 3f 03       	jmp    7d229c0 <pthread_mutex_unlock@plt>
 492c019:	e8 92 69 3f 03       	call   7d229b0 <pthread_mutex_lock@plt>
 492c131:	e8 8a 68 3f 03       	call   7d229c0 <pthread_mutex_unlock@plt>
 492c233:	e8 78 67 3f 03       	call   7d229b0 <pthread_mutex_lock@plt>
 492c25c:	e8 5f 67 3f 03       	call   7d229c0 <pthread_mutex_unlock@plt>
 492c2e0:	e8 cb 66 3f 03       	call   7d229b0 <pthread_mutex_lock@plt>
 492cba2:	e8 09 5e 3f 03       	call   7d229b0 <pthread_mutex_lock@plt>
 492ce1d:	e8 9e 5b 3f 03       	call   7d229c0 <pthread_mutex_unlock@plt>
 492d1a3:	e8 08 58 3f 03       	call   7d229b0 <pthread_mutex_lock@plt>
 492d22a:	e8 81 57 3f 03       	call   7d229b0 <pthread_mutex_lock@plt>
 492d256:	e8 65 57 3f 03       	call   7d229c0 <pthread_mutex_unlock@plt>
 492d2c4:	e8 e7 56 3f 03       	call   7d229b0 <pthread_mutex_lock@plt>
 492d476:	e8 45 55 3f 03       	call   7d229c0 <pthread_mutex_unlock@plt>
 492d4ba:	e8 01 55 3f 03       	call   7d229c0 <pthread_mutex_unlock@plt>
 492d4e7:	e8 d4 54 3f 03       	call   7d229c0 <pthread_mutex_unlock@plt>
 492d5c1:	e8 ea 53 3f 03       	call   7d229b0 <pthread_mutex_lock@plt>
 492d5f8:	e8 c3 53 3f 03       	call   7d229c0 <pthread_mutex_unlock@plt>
 492d646:	e8 85 54 3f 03       	call   7d22ad0 <pthread_cond_timedwait@plt>
 492d656:	e8 65 53 3f 03       	call   7d229c0 <pthread_mutex_unlock@plt>
 492d67f:	e8 2c 53 3f 03       	call   7d229b0 <pthread_mutex_lock@plt>
 492d828:	e8 83 51 3f 03       	call   7d229b0 <pthread_mutex_lock@plt>
 492d882:	e8 49 52 3f 03       	call   7d22ad0 <pthread_cond_timedwait@plt>
 492d892:	e8 29 51 3f 03       	call   7d229c0 <pthread_mutex_unlock@plt>
 492d96b:	e8 40 50 3f 03       	call   7d229b0 <pthread_mutex_lock@plt>
 492da00:	e8 bb 4f 3f 03       	call   7d229c0 <pthread_mutex_unlock@plt>
 492db2c:	e9 8f 4e 3f 03       	jmp    7d229c0 <pthread_mutex_unlock@plt>
 492dbb5:	e8 06 4e 3f 03       	call   7d229c0 <pthread_mutex_unlock@plt>
 492dbce:	e8 dd 4d 3f 03       	call   7d229b0 <pthread_mutex_lock@plt>
 492dfa0:	e8 1b 4a 3f 03       	call   7d229c0 <pthread_mutex_unlock@plt>
 492dfb4:	e8 07 4a 3f 03       	call   7d229c0 <pthread_mutex_unlock@plt>
 492dfe4:	e8 d7 49 3f 03       	call   7d229c0 <pthread_mutex_unlock@plt>
 492e6b6:	e8 05 44 3f 03       	call   7d22ac0 <pthread_once@plt>
 493113a:	e8 81 19 3f 03       	call   7d22ac0 <pthread_once@plt>
 4931812:	e8 a9 12 3f 03       	call   7d22ac0 <pthread_once@plt>
 49323f2:	e8 c9 06 3f 03       	call   7d22ac0 <pthread_once@plt>
 493e555:	e8 56 44 3e 03       	call   7d229b0 <pthread_mutex_lock@plt>
 493e6ae:	e8 0d 43 3e 03       	call   7d229c0 <pthread_mutex_unlock@plt>
 493e6e7:	e9 d4 42 3e 03       	jmp    7d229c0 <pthread_mutex_unlock@plt>
 49432cd:	e8 ee f7 3d 03       	call   7d22ac0 <pthread_once@plt>
 4948274:	e8 47 a7 3d 03       	call   7d229c0 <pthread_mutex_unlock@plt>
 494ba7d:	e8 3e 70 3d 03       	call   7d22ac0 <pthread_once@plt>
 495430d:	e8 ae e7 3c 03       	call   7d22ac0 <pthread_once@plt>
 49548fa:	e8 b1 e0 3c 03       	call   7d229b0 <pthread_mutex_lock@plt>
 4954a6a:	e8 51 df 3c 03       	call   7d229c0 <pthread_mutex_unlock@plt>
 495561e:	e8 8d d3 3c 03       	call   7d229b0 <pthread_mutex_lock@plt>
 4955651:	e8 5a d3 3c 03       	call   7d229b0 <pthread_mutex_lock@plt>
 495566d:	e8 4e d3 3c 03       	call   7d229c0 <pthread_mutex_unlock@plt>
 4955683:	e9 38 d3 3c 03       	jmp    7d229c0 <pthread_mutex_unlock@plt>
 495569e:	e8 0d d3 3c 03       	call   7d229b0 <pthread_mutex_lock@plt>
 4955711:	e8 aa d2 3c 03       	call   7d229c0 <pthread_mutex_unlock@plt>
 495574b:	e8 60 d2 3c 03       	call   7d229b0 <pthread_mutex_lock@plt>
 4955794:	e9 27 d2 3c 03       	jmp    7d229c0 <pthread_mutex_unlock@plt>
 49557ca:	e8 e1 d1 3c 03       	call   7d229b0 <pthread_mutex_lock@plt>
 49557e4:	e8 d7 d1 3c 03       	call   7d229c0 <pthread_mutex_unlock@plt>
 495584d:	e8 5e d1 3c 03       	call   7d229b0 <pthread_mutex_lock@plt>
 4955878:	e9 43 d1 3c 03       	jmp    7d229c0 <pthread_mutex_unlock@plt>
 49558e5:	e8 c6 d0 3c 03       	call   7d229b0 <pthread_mutex_lock@plt>
 4955940:	e8 7b d0 3c 03       	call   7d229c0 <pthread_mutex_unlock@plt>
 495633a:	e8 71 c6 3c 03       	call   7d229b0 <pthread_mutex_lock@plt>
 495637e:	e8 3d c6 3c 03       	call   7d229c0 <pthread_mutex_unlock@plt>
 4956393:	e8 28 c6 3c 03       	call   7d229c0 <pthread_mutex_unlock@plt>
 49565fa:	e8 b1 c3 3c 03       	call   7d229b0 <pthread_mutex_lock@plt>
 495661a:	e8 a1 c3 3c 03       	call   7d229c0 <pthread_mutex_unlock@plt>
 495669d:	e8 1e c3 3c 03       	call   7d229c0 <pthread_mutex_unlock@plt>
 49566bd:	e8 fe c2 3c 03       	call   7d229c0 <pthread_mutex_unlock@plt>
 4956776:	e8 35 c2 3c 03       	call   7d229b0 <pthread_mutex_lock@plt>
 4956836:	e8 85 c1 3c 03       	call   7d229c0 <pthread_mutex_unlock@plt>
 4956910:	e9 ab c0 3c 03       	jmp    7d229c0 <pthread_mutex_unlock@plt>
 49569b4:	e8 f7 bf 3c 03       	call   7d229b0 <pthread_mutex_lock@plt>
 4956a1c:	e8 9f bf 3c 03       	call   7d229c0 <pthread_mutex_unlock@plt>
 4956e50:	e8 5b bb 3c 03       	call   7d229b0 <pthread_mutex_lock@plt>
 4956e67:	e8 54 bb 3c 03       	call   7d229c0 <pthread_mutex_unlock@plt>
 4956f11:	e8 9a ba 3c 03       	call   7d229b0 <pthread_mutex_lock@plt>
 4956f28:	e8 93 ba 3c 03       	call   7d229c0 <pthread_mutex_unlock@plt>
 4956fa0:	e8 0b ba 3c 03       	call   7d229b0 <pthread_mutex_lock@plt>
 4956fcf:	e8 ec b9 3c 03       	call   7d229c0 <pthread_mutex_unlock@plt>
 495701e:	e8 8d b9 3c 03       	call   7d229b0 <pthread_mutex_lock@plt>
 4957039:	e8 82 b9 3c 03       	call   7d229c0 <pthread_mutex_unlock@plt>
 4957bc8:	e8 f3 ad 3c 03       	call   7d229c0 <pthread_mutex_unlock@plt>
 4957dc5:	e8 f6 ab 3c 03       	call   7d229c0 <pthread_mutex_unlock@plt>
 4957e1a:	e8 a1 ab 3c 03       	call   7d229c0 <pthread_mutex_unlock@plt>
 49587da:	e8 e1 a2 3c 03       	call   7d22ac0 <pthread_once@plt>
 4958a81:	e8 2a 9f 3c 03       	call   7d229b0 <pthread_mutex_lock@plt>
 4958a9b:	e9 20 9f 3c 03       	jmp    7d229c0 <pthread_mutex_unlock@plt>
 4958aca:	e8 e1 9e 3c 03       	call   7d229b0 <pthread_mutex_lock@plt>
 4958aef:	e8 cc 9e 3c 03       	call   7d229c0 <pthread_mutex_unlock@plt>
 4958b2a:	e8 81 9e 3c 03       	call   7d229b0 <pthread_mutex_lock@plt>
 4958b5d:	e9 5e 9e 3c 03       	jmp    7d229c0 <pthread_mutex_unlock@plt>
 4958b9a:	e8 11 9e 3c 03       	call   7d229b0 <pthread_mutex_lock@plt>
 4958bc2:	e9 f9 9d 3c 03       	jmp    7d229c0 <pthread_mutex_unlock@plt>
 495903a:	e8 71 99 3c 03       	call   7d229b0 <pthread_mutex_lock@plt>
 495905f:	e8 5c 99 3c 03       	call   7d229c0 <pthread_mutex_unlock@plt>
 49590bd:	e8 ee 98 3c 03       	call   7d229b0 <pthread_mutex_lock@plt>
 49590de:	e8 dd 98 3c 03       	call   7d229c0 <pthread_mutex_unlock@plt>
 49593e6:	e8 d5 95 3c 03       	call   7d229c0 <pthread_mutex_unlock@plt>
 49598da:	e8 e1 91 3c 03       	call   7d22ac0 <pthread_once@plt>
 495a38e:	e8 1d 86 3c 03       	call   7d229b0 <pthread_mutex_lock@plt>
 495a515:	e8 a6 84 3c 03       	call   7d229c0 <pthread_mutex_unlock@plt>
 495a600:	e8 bb 83 3c 03       	call   7d229c0 <pthread_mutex_unlock@plt>
 495aa6d:	e8 3e 7f 3c 03       	call   7d229b0 <pthread_mutex_lock@plt>
 495accf:	e8 ec 7c 3c 03       	call   7d229c0 <pthread_mutex_unlock@plt>
 495ad7e:	e8 2d 7c 3c 03       	call   7d229b0 <pthread_mutex_lock@plt>
 495ae13:	e8 a8 7b 3c 03       	call   7d229c0 <pthread_mutex_unlock@plt>
 495aeb2:	e8 f9 7a 3c 03       	call   7d229b0 <pthread_mutex_lock@plt>
 495af97:	e9 24 7a 3c 03       	jmp    7d229c0 <pthread_mutex_unlock@plt>
 495b117:	e8 94 78 3c 03       	call   7d229b0 <pthread_mutex_lock@plt>
 495b1bd:	e8 fe 77 3c 03       	call   7d229c0 <pthread_mutex_unlock@plt>
 495b1f7:	e8 b4 77 3c 03       	call   7d229b0 <pthread_mutex_lock@plt>
 495c105:	e8 b6 68 3c 03       	call   7d229c0 <pthread_mutex_unlock@plt>
 495c60d:	e8 ae 63 3c 03       	call   7d229c0 <pthread_mutex_unlock@plt>
 495c7b7:	e8 04 62 3c 03       	call   7d229c0 <pthread_mutex_unlock@plt>
 495c7ca:	e8 f1 61 3c 03       	call   7d229c0 <pthread_mutex_unlock@plt>
 495c7df:	e8 dc 61 3c 03       	call   7d229c0 <pthread_mutex_unlock@plt>
 495c829:	e8 92 61 3c 03       	call   7d229c0 <pthread_mutex_unlock@plt>
 495cdc4:	e8 f7 5c 3c 03       	call   7d22ac0 <pthread_once@plt>
 49628f6:	e8 c5 01 3c 03       	call   7d22ac0 <pthread_once@plt>
 496d570:	e8 4b 55 3b 03       	call   7d22ac0 <pthread_once@plt>
 496fbe7:	e8 c4 2d 3b 03       	call   7d229b0 <pthread_mutex_lock@plt>
 496fc04:	e8 b7 2d 3b 03       	call   7d229c0 <pthread_mutex_unlock@plt>
 496fc21:	e8 8a 2d 3b 03       	call   7d229b0 <pthread_mutex_lock@plt>
 496fc34:	e8 87 2d 3b 03       	call   7d229c0 <pthread_mutex_unlock@plt>
 496ffac:	e8 ff 29 3b 03       	call   7d229b0 <pthread_mutex_lock@plt>
 496ffc3:	e8 f8 29 3b 03       	call   7d229c0 <pthread_mutex_unlock@plt>
 497055a:	e8 51 24 3b 03       	call   7d229b0 <pthread_mutex_lock@plt>
 4970577:	e8 44 24 3b 03       	call   7d229c0 <pthread_mutex_unlock@plt>
 49714dc:	e8 df 15 3b 03       	call   7d22ac0 <pthread_once@plt>
 49724e6:	e8 c5 04 3b 03       	call   7d229b0 <pthread_mutex_lock@plt>
 49724ff:	e8 bc 04 3b 03       	call   7d229c0 <pthread_mutex_unlock@plt>
 4972cf9:	e8 b2 fc 3a 03       	call   7d229b0 <pthread_mutex_lock@plt>
 4972db0:	e8 0b fc 3a 03       	call   7d229c0 <pthread_mutex_unlock@plt>
 4975e42:	e8 69 cb 3a 03       	call   7d229b0 <pthread_mutex_lock@plt>
 4975ea0:	e8 1b cb 3a 03       	call   7d229c0 <pthread_mutex_unlock@plt>
 497b296:	e8 15 77 3a 03       	call   7d229b0 <pthread_mutex_lock@plt>
 497b2d7:	e8 e4 76 3a 03       	call   7d229c0 <pthread_mutex_unlock@plt>
 497b976:	e8 35 70 3a 03       	call   7d229b0 <pthread_mutex_lock@plt>
 497b9b7:	e8 04 70 3a 03       	call   7d229c0 <pthread_mutex_unlock@plt>
 497c066:	e8 45 69 3a 03       	call   7d229b0 <pthread_mutex_lock@plt>
 497c0a7:	e8 14 69 3a 03       	call   7d229c0 <pthread_mutex_unlock@plt>
 497c756:	e8 55 62 3a 03       	call   7d229b0 <pthread_mutex_lock@plt>
 497c797:	e8 24 62 3a 03       	call   7d229c0 <pthread_mutex_unlock@plt>
 497ceb6:	e8 f5 5a 3a 03       	call   7d229b0 <pthread_mutex_lock@plt>
 497cef7:	e8 c4 5a 3a 03       	call   7d229c0 <pthread_mutex_unlock@plt>
 497e0b6:	e8 f5 48 3a 03       	call   7d229b0 <pthread_mutex_lock@plt>
 497e1e6:	e8 d5 47 3a 03       	call   7d229c0 <pthread_mutex_unlock@plt>
 497e3db:	e8 e0 45 3a 03       	call   7d229c0 <pthread_mutex_unlock@plt>
 497fd94:	e8 17 2c 3a 03       	call   7d229b0 <pthread_mutex_lock@plt>
 497fddf:	e8 dc 2b 3a 03       	call   7d229c0 <pthread_mutex_unlock@plt>
 4980661:	e8 4a 23 3a 03       	call   7d229b0 <pthread_mutex_lock@plt>
 4980751:	e8 6a 22 3a 03       	call   7d229c0 <pthread_mutex_unlock@plt>
 4981741:	e8 7a 12 3a 03       	call   7d229c0 <pthread_mutex_unlock@plt>
 498198c:	e8 2f 10 3a 03       	call   7d229c0 <pthread_mutex_unlock@plt>
 49850c4:	e8 e7 d8 39 03       	call   7d229b0 <pthread_mutex_lock@plt>
 49851b1:	e8 0a d8 39 03       	call   7d229c0 <pthread_mutex_unlock@plt>
 4985497:	e8 14 d5 39 03       	call   7d229b0 <pthread_mutex_lock@plt>
 49854f0:	e8 cb d4 39 03       	call   7d229c0 <pthread_mutex_unlock@plt>
 4985611:	e8 9a d3 39 03       	call   7d229b0 <pthread_mutex_lock@plt>
 498569b:	e8 20 d3 39 03       	call   7d229c0 <pthread_mutex_unlock@plt>
 4985741:	e8 7a d2 39 03       	call   7d229c0 <pthread_mutex_unlock@plt>
 4985a6a:	e8 41 cf 39 03       	call   7d229b0 <pthread_mutex_lock@plt>
 4985b2f:	e8 8c ce 39 03       	call   7d229c0 <pthread_mutex_unlock@plt>
 4985de0:	e8 db cb 39 03       	call   7d229c0 <pthread_mutex_unlock@plt>
 4986148:	e8 63 c8 39 03       	call   7d229b0 <pthread_mutex_lock@plt>
 498620a:	e8 b1 c7 39 03       	call   7d229c0 <pthread_mutex_unlock@plt>
 49862be:	e8 fd c6 39 03       	call   7d229c0 <pthread_mutex_unlock@plt>
 49865b1:	e8 fa c3 39 03       	call   7d229b0 <pthread_mutex_lock@plt>
 49866ae:	e8 0d c3 39 03       	call   7d229c0 <pthread_mutex_unlock@plt>
 4986caf:	e8 6c bd 39 03       	call   7d22a20 <pthread_mutex_init@plt>
 4988e67:	e8 a4 9f 39 03       	call   7d22e10 <pthread_mutex_destroy@plt>
 498969d:	e8 7e 93 39 03       	call   7d22a20 <pthread_mutex_init@plt>
 49898db:	e8 d0 90 39 03       	call   7d229b0 <pthread_mutex_lock@plt>
 49899b1:	e8 0a 90 39 03       	call   7d229c0 <pthread_mutex_unlock@plt>
 498bcf7:	e8 14 71 39 03       	call   7d22e10 <pthread_mutex_destroy@plt>
 498d0e2:	e8 39 59 39 03       	call   7d22a20 <pthread_mutex_init@plt>
 4993be9:	e8 c2 ed 38 03       	call   7d229b0 <pthread_mutex_lock@plt>
 4993c0f:	e8 ac ed 38 03       	call   7d229c0 <pthread_mutex_unlock@plt>
 4993c92:	e8 19 ed 38 03       	call   7d229b0 <pthread_mutex_lock@plt>
 4993cbe:	e8 fd ec 38 03       	call   7d229c0 <pthread_mutex_unlock@plt>
 4993e02:	e8 a9 eb 38 03       	call   7d229b0 <pthread_mutex_lock@plt>
 4994099:	e8 22 e9 38 03       	call   7d229c0 <pthread_mutex_unlock@plt>
 499474f:	e8 6c e2 38 03       	call   7d229c0 <pthread_mutex_unlock@plt>
 499491b:	e8 90 e0 38 03       	call   7d229b0 <pthread_mutex_lock@plt>
 4994943:	e8 78 e0 38 03       	call   7d229c0 <pthread_mutex_unlock@plt>
 4994ceb:	e8 c0 dc 38 03       	call   7d229b0 <pthread_mutex_lock@plt>
 4994d14:	e8 a7 dc 38 03       	call   7d229c0 <pthread_mutex_unlock@plt>
 4994eb4:	e8 f7 da 38 03       	call   7d229b0 <pthread_mutex_lock@plt>
 4994eea:	e8 d1 da 38 03       	call   7d229c0 <pthread_mutex_unlock@plt>
 4994f43:	e8 78 da 38 03       	call   7d229c0 <pthread_mutex_unlock@plt>
 4994f7c:	e8 2f da 38 03       	call   7d229b0 <pthread_mutex_lock@plt>
 4995103:	e8 b8 d8 38 03       	call   7d229c0 <pthread_mutex_unlock@plt>
 499697a:	e8 31 c0 38 03       	call   7d229b0 <pthread_mutex_lock@plt>
 4996992:	e8 29 c0 38 03       	call   7d229c0 <pthread_mutex_unlock@plt>
 4999e87:	e8 84 8f 38 03       	call   7d22e10 <pthread_mutex_destroy@plt>
 4999f8b:	e8 20 8a 38 03       	call   7d229b0 <pthread_mutex_lock@plt>
 4999ff7:	e8 c4 89 38 03       	call   7d229c0 <pthread_mutex_unlock@plt>
 499a053:	e8 68 89 38 03       	call   7d229c0 <pthread_mutex_unlock@plt>
 499a2c1:	e8 5a 87 38 03       	call   7d22a20 <pthread_mutex_init@plt>
 499a3ab:	e8 10 86 38 03       	call   7d229c0 <pthread_mutex_unlock@plt>
 499c622:	e8 89 63 38 03       	call   7d229b0 <pthread_mutex_lock@plt>
 499c6af:	e8 0c 63 38 03       	call   7d229c0 <pthread_mutex_unlock@plt>
 499c733:	e8 88 62 38 03       	call   7d229c0 <pthread_mutex_unlock@plt>
 499d24a:	e8 61 57 38 03       	call   7d229b0 <pthread_mutex_lock@plt>
 499d28f:	e8 2c 57 38 03       	call   7d229c0 <pthread_mutex_unlock@plt>
 499d83b:	e8 80 51 38 03       	call   7d229c0 <pthread_mutex_unlock@plt>
 499d913:	e8 98 50 38 03       	call   7d229b0 <pthread_mutex_lock@plt>
 499d969:	e8 52 50 38 03       	call   7d229c0 <pthread_mutex_unlock@plt>
 499db43:	e8 78 4e 38 03       	call   7d229c0 <pthread_mutex_unlock@plt>
 499dd88:	e8 33 4c 38 03       	call   7d229c0 <pthread_mutex_unlock@plt>
 499ddac:	e8 0f 4c 38 03       	call   7d229c0 <pthread_mutex_unlock@plt>
 49a206f:	e8 3c 09 38 03       	call   7d229b0 <pthread_mutex_lock@plt>
 49a20c3:	e8 f8 08 38 03       	call   7d229c0 <pthread_mutex_unlock@plt>
 49a21ea:	e8 c1 07 38 03       	call   7d229b0 <pthread_mutex_lock@plt>
 49a2207:	e8 b4 07 38 03       	call   7d229c0 <pthread_mutex_unlock@plt>
 49a2411:	e8 9a 05 38 03       	call   7d229b0 <pthread_mutex_lock@plt>
 49a24f0:	e8 cb 04 38 03       	call   7d229c0 <pthread_mutex_unlock@plt>
 49a286e:	e8 3d 01 38 03       	call   7d229b0 <pthread_mutex_lock@plt>
 49a2896:	e8 25 01 38 03       	call   7d229c0 <pthread_mutex_unlock@plt>
 49a2a4c:	e8 5f ff 37 03       	call   7d229b0 <pthread_mutex_lock@plt>
 49a2a78:	e8 43 ff 37 03       	call   7d229c0 <pthread_mutex_unlock@plt>
 49a2d42:	e8 69 fc 37 03       	call   7d229b0 <pthread_mutex_lock@plt>
 49a2db2:	e8 09 fc 37 03       	call   7d229c0 <pthread_mutex_unlock@plt>
 49b4297:	e8 74 eb 36 03       	call   7d22e10 <pthread_mutex_destroy@plt>
 49c397d:	e8 9e f0 35 03       	call   7d22a20 <pthread_mutex_init@plt>
 49c3af9:	e8 32 f3 35 03       	call   7d22e30 <pthread_mutex_trylock@plt>
 49c3be4:	e8 d7 ed 35 03       	call   7d229c0 <pthread_mutex_unlock@plt>
 49c4cd9:	e8 d2 dc 35 03       	call   7d229b0 <pthread_mutex_lock@plt>
 49c4f4b:	e8 70 da 35 03       	call   7d229c0 <pthread_mutex_unlock@plt>
 49c501d:	e8 9e d9 35 03       	call   7d229c0 <pthread_mutex_unlock@plt>
 49ce263:	e8 58 47 35 03       	call   7d229c0 <pthread_mutex_unlock@plt>
 49ce3e0:	e8 cb 45 35 03       	call   7d229b0 <pthread_mutex_lock@plt>
 49ce43e:	e8 7d 45 35 03       	call   7d229c0 <pthread_mutex_unlock@plt>
 49ce5c4:	e8 f7 43 35 03       	call   7d229c0 <pthread_mutex_unlock@plt>
 49ce600:	e8 ab 43 35 03       	call   7d229b0 <pthread_mutex_lock@plt>
 49ce711:	e8 aa 42 35 03       	call   7d229c0 <pthread_mutex_unlock@plt>
 49e06c2:	e8 59 23 34 03       	call   7d22a20 <pthread_mutex_init@plt>
 49e0888:	e8 93 21 34 03       	call   7d22a20 <pthread_mutex_init@plt>
 49e08ba:	e8 61 21 34 03       	call   7d22a20 <pthread_mutex_init@plt>
 49e08f2:	e8 29 21 34 03       	call   7d22a20 <pthread_mutex_init@plt>
 49e0928:	e8 f3 20 34 03       	call   7d22a20 <pthread_mutex_init@plt>
 49e095e:	e8 bd 20 34 03       	call   7d22a20 <pthread_mutex_init@plt>
 49e0994:	e8 87 20 34 03       	call   7d22a20 <pthread_mutex_init@plt>
 49e09d0:	e8 4b 20 34 03       	call   7d22a20 <pthread_mutex_init@plt>
 49e0a06:	e8 15 20 34 03       	call   7d22a20 <pthread_mutex_init@plt>
 49e0c0b:	e8 a0 1d 34 03       	call   7d229b0 <pthread_mutex_lock@plt>
 49e0c47:	e8 74 1d 34 03       	call   7d229c0 <pthread_mutex_unlock@plt>
 49e0ed7:	e8 34 1f 34 03       	call   7d22e10 <pthread_mutex_destroy@plt>
 49e0ef7:	e8 14 1f 34 03       	call   7d22e10 <pthread_mutex_destroy@plt>
 49e0f1b:	e8 f0 1e 34 03       	call   7d22e10 <pthread_mutex_destroy@plt>
 49e0f37:	e8 d4 1e 34 03       	call   7d22e10 <pthread_mutex_destroy@plt>
 49e0f57:	e8 b4 1e 34 03       	call   7d22e10 <pthread_mutex_destroy@plt>
 49e0f77:	e8 94 1e 34 03       	call   7d22e10 <pthread_mutex_destroy@plt>
 49e0f97:	e8 74 1e 34 03       	call   7d22e10 <pthread_mutex_destroy@plt>
 49e0fb7:	e8 54 1e 34 03       	call   7d22e10 <pthread_mutex_destroy@plt>
 49e0fd7:	e8 34 1e 34 03       	call   7d22e10 <pthread_mutex_destroy@plt>
 49e0ff7:	e8 14 1e 34 03       	call   7d22e10 <pthread_mutex_destroy@plt>
 49e1017:	e8 f4 1d 34 03       	call   7d22e10 <pthread_mutex_destroy@plt>
 49e1037:	e8 d4 1d 34 03       	call   7d22e10 <pthread_mutex_destroy@plt>
 49e1057:	e8 b4 1d 34 03       	call   7d22e10 <pthread_mutex_destroy@plt>
 49e1077:	e8 94 1d 34 03       	call   7d22e10 <pthread_mutex_destroy@plt>
 49e1097:	e8 74 1d 34 03       	call   7d22e10 <pthread_mutex_destroy@plt>
 49e208e:	e8 1d 09 34 03       	call   7d229b0 <pthread_mutex_lock@plt>
 49e20c5:	e8 f6 08 34 03       	call   7d229c0 <pthread_mutex_unlock@plt>
 49e2c8e:	e8 1d fd 33 03       	call   7d229b0 <pthread_mutex_lock@plt>
 49e2dd1:	e8 ea fb 33 03       	call   7d229c0 <pthread_mutex_unlock@plt>
 49e32ae:	e8 6d f7 33 03       	call   7d22a20 <pthread_mutex_init@plt>
 49e32e1:	e8 3a f7 33 03       	call   7d22a20 <pthread_mutex_init@plt>
 49e3314:	e8 07 f7 33 03       	call   7d22a20 <pthread_mutex_init@plt>
 49e334b:	e8 d0 f6 33 03       	call   7d22a20 <pthread_mutex_init@plt>
 49e3382:	e8 99 f6 33 03       	call   7d22a20 <pthread_mutex_init@plt>
 49e392f:	e8 dc f4 33 03       	call   7d22e10 <pthread_mutex_destroy@plt>
 49e3957:	e8 b4 f4 33 03       	call   7d22e10 <pthread_mutex_destroy@plt>
 49e3987:	e8 84 f4 33 03       	call   7d22e10 <pthread_mutex_destroy@plt>
 49e39b7:	e8 54 f4 33 03       	call   7d22e10 <pthread_mutex_destroy@plt>
 49e39e7:	e8 24 f4 33 03       	call   7d22e10 <pthread_mutex_destroy@plt>
 49e3e9e:	e8 1d eb 33 03       	call   7d229c0 <pthread_mutex_unlock@plt>
 49e6107:	e8 14 c9 33 03       	call   7d22a20 <pthread_mutex_init@plt>
 49e6140:	e8 db c8 33 03       	call   7d22a20 <pthread_mutex_init@plt>
 49e6179:	e8 a2 c8 33 03       	call   7d22a20 <pthread_mutex_init@plt>
 49e6219:	e8 02 c8 33 03       	call   7d22a20 <pthread_mutex_init@plt>
 49e63d5:	e8 36 ca 33 03       	call   7d22e10 <pthread_mutex_destroy@plt>
 49e63ef:	e8 1c ca 33 03       	call   7d22e10 <pthread_mutex_destroy@plt>
 49e6407:	e8 04 ca 33 03       	call   7d22e10 <pthread_mutex_destroy@plt>
 49e6427:	e8 e4 c9 33 03       	call   7d22e10 <pthread_mutex_destroy@plt>
 49e67ef:	e8 bc c1 33 03       	call   7d229b0 <pthread_mutex_lock@plt>
 49e6dbc:	e8 ff bb 33 03       	call   7d229c0 <pthread_mutex_unlock@plt>
 49e7159:	e8 62 b8 33 03       	call   7d229c0 <pthread_mutex_unlock@plt>
 49e72ab:	e8 10 b7 33 03       	call   7d229c0 <pthread_mutex_unlock@plt>
 49e72c2:	e8 f9 b6 33 03       	call   7d229c0 <pthread_mutex_unlock@plt>
 49e7379:	e8 32 b6 33 03       	call   7d229b0 <pthread_mutex_lock@plt>
 49e73ad:	e8 0e b6 33 03       	call   7d229c0 <pthread_mutex_unlock@plt>
 49e73cb:	e8 e0 b5 33 03       	call   7d229b0 <pthread_mutex_lock@plt>
 49e73db:	e8 d0 b5 33 03       	call   7d229b0 <pthread_mutex_lock@plt>
 49e755b:	e8 60 b4 33 03       	call   7d229c0 <pthread_mutex_unlock@plt>
 49e759c:	e8 1f b4 33 03       	call   7d229c0 <pthread_mutex_unlock@plt>
 49e77ef:	e8 2c b2 33 03       	call   7d22a20 <pthread_mutex_init@plt>
 49e7950:	e8 5b b0 33 03       	call   7d229b0 <pthread_mutex_lock@plt>
 49e798a:	e8 31 b0 33 03       	call   7d229c0 <pthread_mutex_unlock@plt>
 49e7aa1:	e8 0a af 33 03       	call   7d229b0 <pthread_mutex_lock@plt>
 49e7b29:	e8 92 ae 33 03       	call   7d229c0 <pthread_mutex_unlock@plt>
 49e7bc7:	e8 e4 ad 33 03       	call   7d229b0 <pthread_mutex_lock@plt>
 49e7c2a:	e8 81 ad 33 03       	call   7d229b0 <pthread_mutex_lock@plt>
 49e7c45:	e8 76 ad 33 03       	call   7d229c0 <pthread_mutex_unlock@plt>
 49e7c59:	e8 62 ad 33 03       	call   7d229c0 <pthread_mutex_unlock@plt>
 49e7cc4:	e8 f7 ac 33 03       	call   7d229c0 <pthread_mutex_unlock@plt>
 49e7d33:	e8 88 ac 33 03       	call   7d229c0 <pthread_mutex_unlock@plt>
 49e7d4b:	e8 c0 b0 33 03       	call   7d22e10 <pthread_mutex_destroy@plt>
 49e8ea7:	e8 64 9f 33 03       	call   7d22e10 <pthread_mutex_destroy@plt>
 49e90b1:	e8 6a 99 33 03       	call   7d22a20 <pthread_mutex_init@plt>
 49e93d3:	e8 d8 95 33 03       	call   7d229b0 <pthread_mutex_lock@plt>
 49e9428:	e8 93 95 33 03       	call   7d229c0 <pthread_mutex_unlock@plt>
 49e9486:	e8 25 95 33 03       	call   7d229b0 <pthread_mutex_lock@plt>
 49e94c7:	e8 f4 94 33 03       	call   7d229c0 <pthread_mutex_unlock@plt>
 49e96e1:	e8 ca 92 33 03       	call   7d229b0 <pthread_mutex_lock@plt>
 49ea420:	e8 8b 85 33 03       	call   7d229b0 <pthread_mutex_lock@plt>
 49ea54a:	e8 71 84 33 03       	call   7d229c0 <pthread_mutex_unlock@plt>
 49ea603:	e8 b8 83 33 03       	call   7d229c0 <pthread_mutex_unlock@plt>
 49ea666:	e8 55 83 33 03       	call   7d229c0 <pthread_mutex_unlock@plt>
 49ea68d:	e8 2e 83 33 03       	call   7d229c0 <pthread_mutex_unlock@plt>
 49ecc9e:	e8 0d 5d 33 03       	call   7d229b0 <pthread_mutex_lock@plt>
 49ed258:	e8 53 57 33 03       	call   7d229b0 <pthread_mutex_lock@plt>
 49ed2c1:	e8 fa 56 33 03       	call   7d229c0 <pthread_mutex_unlock@plt>
 49ed323:	e8 88 56 33 03       	call   7d229b0 <pthread_mutex_lock@plt>
 49ed3a7:	e8 14 56 33 03       	call   7d229c0 <pthread_mutex_unlock@plt>
 49ed404:	e8 a7 55 33 03       	call   7d229b0 <pthread_mutex_lock@plt>
 49ed46f:	e8 4c 55 33 03       	call   7d229c0 <pthread_mutex_unlock@plt>
 49ee7fe:	e8 ad 41 33 03       	call   7d229b0 <pthread_mutex_lock@plt>
 49f01dc:	e8 cf 27 33 03       	call   7d229b0 <pthread_mutex_lock@plt>
 49f02e6:	e8 d5 26 33 03       	call   7d229c0 <pthread_mutex_unlock@plt>
 49f07a1:	e8 0a 22 33 03       	call   7d229b0 <pthread_mutex_lock@plt>
 49f0881:	e8 2a 21 33 03       	call   7d229b0 <pthread_mutex_lock@plt>
 49f08d6:	e8 d5 20 33 03       	call   7d229b0 <pthread_mutex_lock@plt>
 49f0938:	e8 83 20 33 03       	call   7d229c0 <pthread_mutex_unlock@plt>
 49f09d8:	e8 e3 1f 33 03       	call   7d229c0 <pthread_mutex_unlock@plt>
 49f231a:	e8 a1 06 33 03       	call   7d229c0 <pthread_mutex_unlock@plt>
 49fe0a8:	e8 03 49 32 03       	call   7d229b0 <pthread_mutex_lock@plt>
 49fe0eb:	e8 d0 48 32 03       	call   7d229c0 <pthread_mutex_unlock@plt>
 49fe2d1:	e8 da 46 32 03       	call   7d229b0 <pthread_mutex_lock@plt>
 4a2982a:	e8 81 91 2f 03       	call   7d229b0 <pthread_mutex_lock@plt>
 4a2989f:	e8 1c 91 2f 03       	call   7d229c0 <pthread_mutex_unlock@plt>
 4a298c3:	e8 f8 90 2f 03       	call   7d229c0 <pthread_mutex_unlock@plt>
 4a29c46:	e8 65 8d 2f 03       	call   7d229b0 <pthread_mutex_lock@plt>
 4a29ca0:	e8 0b 8d 2f 03       	call   7d229b0 <pthread_mutex_lock@plt>
 4a29d08:	e8 b3 8c 2f 03       	call   7d229c0 <pthread_mutex_unlock@plt>
 4a29d5a:	e8 d1 90 2f 03       	call   7d22e30 <pthread_mutex_trylock@plt>
 4a29e56:	e8 65 8b 2f 03       	call   7d229c0 <pthread_mutex_unlock@plt>
 4a29ff5:	e8 b6 89 2f 03       	call   7d229b0 <pthread_mutex_lock@plt>
 4a2a104:	e8 b7 88 2f 03       	call   7d229c0 <pthread_mutex_unlock@plt>
 4a2a2c6:	e8 e5 86 2f 03       	call   7d229b0 <pthread_mutex_lock@plt>
 4a2ac45:	e8 66 7d 2f 03       	call   7d229b0 <pthread_mutex_lock@plt>
 4a2ac62:	e8 59 7d 2f 03       	call   7d229c0 <pthread_mutex_unlock@plt>
 4a2bed2:	e8 d9 6a 2f 03       	call   7d229b0 <pthread_mutex_lock@plt>
 4a2bf13:	e8 a8 6a 2f 03       	call   7d229c0 <pthread_mutex_unlock@plt>
 4a2bf7c:	e8 2f 6a 2f 03       	call   7d229b0 <pthread_mutex_lock@plt>
 4a2bfe6:	e8 d5 69 2f 03       	call   7d229c0 <pthread_mutex_unlock@plt>
 4a2bff6:	e8 c5 69 2f 03       	call   7d229c0 <pthread_mutex_unlock@plt>
 4a2c62e:	e8 7d 63 2f 03       	call   7d229b0 <pthread_mutex_lock@plt>
 4a2c65b:	e8 60 63 2f 03       	call   7d229c0 <pthread_mutex_unlock@plt>
 4a2c693:	e8 18 63 2f 03       	call   7d229b0 <pthread_mutex_lock@plt>
 4a2c943:	e8 68 60 2f 03       	call   7d229b0 <pthread_mutex_lock@plt>
 4a2c9a8:	e8 13 60 2f 03       	call   7d229c0 <pthread_mutex_unlock@plt>
 4a2ca08:	e8 a3 5f 2f 03       	call   7d229b0 <pthread_mutex_lock@plt>
 4a2ca35:	e8 86 5f 2f 03       	call   7d229c0 <pthread_mutex_unlock@plt>
 4a2ca53:	e8 68 5f 2f 03       	call   7d229c0 <pthread_mutex_unlock@plt>
 4a2ca7e:	e8 2d 5f 2f 03       	call   7d229b0 <pthread_mutex_lock@plt>
 4a2caa1:	e8 0a 5f 2f 03       	call   7d229b0 <pthread_mutex_lock@plt>
 4a2cb2b:	e8 90 5e 2f 03       	call   7d229c0 <pthread_mutex_unlock@plt>
 4a2cb52:	e8 69 5e 2f 03       	call   7d229c0 <pthread_mutex_unlock@plt>
 4a2cb99:	e8 12 5e 2f 03       	call   7d229b0 <pthread_mutex_lock@plt>
 4a2dd0b:	e8 a0 4c 2f 03       	call   7d229b0 <pthread_mutex_lock@plt>
 4a2dd72:	e8 49 4c 2f 03       	call   7d229c0 <pthread_mutex_unlock@plt>
 4a2e0cd:	e8 5e 4d 2f 03       	call   7d22e30 <pthread_mutex_trylock@plt>
 4a2e119:	e8 a2 48 2f 03       	call   7d229c0 <pthread_mutex_unlock@plt>
 4a2eb99:	e8 22 3e 2f 03       	call   7d229c0 <pthread_mutex_unlock@plt>
 4a2f433:	e8 88 35 2f 03       	call   7d229c0 <pthread_mutex_unlock@plt>
 4a2fadb:	e8 e0 2e 2f 03       	call   7d229c0 <pthread_mutex_unlock@plt>
 4a3026b:	e8 50 27 2f 03       	call   7d229c0 <pthread_mutex_unlock@plt>
 4a30709:	e8 b2 22 2f 03       	call   7d229c0 <pthread_mutex_unlock@plt>
 4a30f40:	e8 7b 1a 2f 03       	call   7d229c0 <pthread_mutex_unlock@plt>
 4a315ce:	e8 5d 18 2f 03       	call   7d22e30 <pthread_mutex_trylock@plt>
 4a31665:	e8 56 13 2f 03       	call   7d229c0 <pthread_mutex_unlock@plt>
 4a3763e:	e8 7d b3 2e 03       	call   7d229c0 <pthread_mutex_unlock@plt>
 4a3779c:	e8 0f b2 2e 03       	call   7d229b0 <pthread_mutex_lock@plt>
 4a37920:	e8 0b b5 2e 03       	call   7d22e30 <pthread_mutex_trylock@plt>
 4a37945:	e8 76 b0 2e 03       	call   7d229c0 <pthread_mutex_unlock@plt>
 4a37b88:	e8 23 ae 2e 03       	call   7d229b0 <pthread_mutex_lock@plt>
 4a3ba73:	e8 48 6f 2e 03       	call   7d229c0 <pthread_mutex_unlock@plt>
 4a3c09e:	e8 1d 69 2e 03       	call   7d229c0 <pthread_mutex_unlock@plt>
 4a3c5d3:	e8 e8 63 2e 03       	call   7d229c0 <pthread_mutex_unlock@plt>
 4a3d763:	e8 58 52 2e 03       	call   7d229c0 <pthread_mutex_unlock@plt>
 4a3d783:	e8 38 52 2e 03       	call   7d229c0 <pthread_mutex_unlock@plt>
 4a3da31:	e8 8a 4f 2e 03       	call   7d229c0 <pthread_mutex_unlock@plt>
 4a3db83:	e8 38 4e 2e 03       	call   7d229c0 <pthread_mutex_unlock@plt>
 4a3dc7d:	e8 3e 4d 2e 03       	call   7d229c0 <pthread_mutex_unlock@plt>
 4a3dcfd:	e8 be 4c 2e 03       	call   7d229c0 <pthread_mutex_unlock@plt>
 4a4049b:	e8 10 25 2e 03       	call   7d229b0 <pthread_mutex_lock@plt>
 4a404e1:	e8 da 24 2e 03       	call   7d229c0 <pthread_mutex_unlock@plt>
 4a40518:	e8 93 24 2e 03       	call   7d229b0 <pthread_mutex_lock@plt>
 4a43086:	e8 25 f9 2d 03       	call   7d229b0 <pthread_mutex_lock@plt>
 4a430cb:	e8 f0 f8 2d 03       	call   7d229c0 <pthread_mutex_unlock@plt>
 4a43a7b:	e8 30 ef 2d 03       	call   7d229b0 <pthread_mutex_lock@plt>
 4a43acc:	e8 df ee 2d 03       	call   7d229b0 <pthread_mutex_lock@plt>
 4a44daf:	e8 fc db 2d 03       	call   7d229b0 <pthread_mutex_lock@plt>
 4a44df2:	e8 c9 db 2d 03       	call   7d229c0 <pthread_mutex_unlock@plt>
 4a4584b:	e8 70 d1 2d 03       	call   7d229c0 <pthread_mutex_unlock@plt>
 4a458f5:	e8 b6 d0 2d 03       	call   7d229b0 <pthread_mutex_lock@plt>
 4a45cdc:	e8 df cc 2d 03       	call   7d229c0 <pthread_mutex_unlock@plt>
 4a45d95:	e8 16 cc 2d 03       	call   7d229b0 <pthread_mutex_lock@plt>
 4a46364:	e8 57 c6 2d 03       	call   7d229c0 <pthread_mutex_unlock@plt>
 4a46383:	e8 28 c6 2d 03       	call   7d229b0 <pthread_mutex_lock@plt>
 4a46bea:	e8 d1 bd 2d 03       	call   7d229c0 <pthread_mutex_unlock@plt>
 4a46c4a:	e8 61 bd 2d 03       	call   7d229b0 <pthread_mutex_lock@plt>
 4a46d55:	e8 66 bc 2d 03       	call   7d229c0 <pthread_mutex_unlock@plt>
 4a47a6f:	e8 4c af 2d 03       	call   7d229c0 <pthread_mutex_unlock@plt>
 4a47f8b:	e8 a0 ae 2d 03       	call   7d22e30 <pthread_mutex_trylock@plt>
 4a47fbc:	e8 ff a9 2d 03       	call   7d229c0 <pthread_mutex_unlock@plt>
 4a480c3:	e8 f8 a8 2d 03       	call   7d229c0 <pthread_mutex_unlock@plt>
 4a4a455:	e8 56 85 2d 03       	call   7d229b0 <pthread_mutex_lock@plt>
 4a4a49d:	e8 1e 85 2d 03       	call   7d229c0 <pthread_mutex_unlock@plt>
 4a4a4e0:	e8 cb 84 2d 03       	call   7d229b0 <pthread_mutex_lock@plt>
 4a522d5:	e8 e6 06 2d 03       	call   7d229c0 <pthread_mutex_unlock@plt>
 4a522f2:	e8 b9 06 2d 03       	call   7d229b0 <pthread_mutex_lock@plt>
 4a52704:	e8 a7 02 2d 03       	call   7d229b0 <pthread_mutex_lock@plt>
 4a5273e:	e8 7d 02 2d 03       	call   7d229c0 <pthread_mutex_unlock@plt>
 4a527af:	e8 fc 01 2d 03       	call   7d229b0 <pthread_mutex_lock@plt>
 4a54b28:	e8 83 de 2c 03       	call   7d229b0 <pthread_mutex_lock@plt>
 4a54bbb:	e8 00 de 2c 03       	call   7d229c0 <pthread_mutex_unlock@plt>
 4a54bd7:	e8 d4 dd 2c 03       	call   7d229b0 <pthread_mutex_lock@plt>
 4a54c6b:	e8 50 dd 2c 03       	call   7d229c0 <pthread_mutex_unlock@plt>
 4a54c87:	e8 24 dd 2c 03       	call   7d229b0 <pthread_mutex_lock@plt>
 4a54d1b:	e8 a0 dc 2c 03       	call   7d229c0 <pthread_mutex_unlock@plt>
 4a54dfa:	e8 b1 db 2c 03       	call   7d229b0 <pthread_mutex_lock@plt>
 4a54e32:	e8 89 db 2c 03       	call   7d229c0 <pthread_mutex_unlock@plt>
 4a54e74:	e8 37 db 2c 03       	call   7d229b0 <pthread_mutex_lock@plt>
 4a54eaa:	e8 11 db 2c 03       	call   7d229c0 <pthread_mutex_unlock@plt>
 4a54ed8:	e8 d3 da 2c 03       	call   7d229b0 <pthread_mutex_lock@plt>
 4a54f0a:	e8 b1 da 2c 03       	call   7d229c0 <pthread_mutex_unlock@plt>
 4a54f60:	e8 5b da 2c 03       	call   7d229c0 <pthread_mutex_unlock@plt>
 4a54fe1:	e8 da d9 2c 03       	call   7d229c0 <pthread_mutex_unlock@plt>
 4a5502b:	e8 90 d9 2c 03       	call   7d229c0 <pthread_mutex_unlock@plt>
 4a55140:	e8 6b d8 2c 03       	call   7d229b0 <pthread_mutex_lock@plt>
 4a55198:	e8 23 d8 2c 03       	call   7d229c0 <pthread_mutex_unlock@plt>
 4a55232:	e8 79 d7 2c 03       	call   7d229b0 <pthread_mutex_lock@plt>
 4a5528b:	e8 30 d7 2c 03       	call   7d229c0 <pthread_mutex_unlock@plt>
 4a552aa:	e8 01 d7 2c 03       	call   7d229b0 <pthread_mutex_lock@plt>
 4a55305:	e8 b6 d6 2c 03       	call   7d229c0 <pthread_mutex_unlock@plt>
 4a563c2:	e8 e9 c5 2c 03       	call   7d229b0 <pthread_mutex_lock@plt>
 4a56403:	e8 b8 c5 2c 03       	call   7d229c0 <pthread_mutex_unlock@plt>
 4a56458:	e8 53 c5 2c 03       	call   7d229b0 <pthread_mutex_lock@plt>
 4a56ad5:	e8 36 c3 2c 03       	call   7d22e10 <pthread_mutex_destroy@plt>
 4a56af5:	e8 16 c3 2c 03       	call   7d22e10 <pthread_mutex_destroy@plt>
 4a56ceb:	e8 d0 bc 2c 03       	call   7d229c0 <pthread_mutex_unlock@plt>
 4a56d13:	e8 a8 bc 2c 03       	call   7d229c0 <pthread_mutex_unlock@plt>
 4a56d38:	e8 73 bc 2c 03       	call   7d229b0 <pthread_mutex_lock@plt>
 4a56d5d:	e8 4e bc 2c 03       	call   7d229b0 <pthread_mutex_lock@plt>
 4a56f9a:	e8 11 ba 2c 03       	call   7d229b0 <pthread_mutex_lock@plt>
 4a56fdc:	e8 df b9 2c 03       	call   7d229c0 <pthread_mutex_unlock@plt>
 4a57010:	e8 9b b9 2c 03       	call   7d229b0 <pthread_mutex_lock@plt>
 4a57c3d:	e8 de ad 2c 03       	call   7d22a20 <pthread_mutex_init@plt>
 4a5c01e:	e8 8d 69 2c 03       	call   7d229b0 <pthread_mutex_lock@plt>
 4a5cde4:	e8 c7 5b 2c 03       	call   7d229b0 <pthread_mutex_lock@plt>
 4a5ce41:	e8 7a 5b 2c 03       	call   7d229c0 <pthread_mutex_unlock@plt>
 4a5d2c1:	e8 ea 56 2c 03       	call   7d229b0 <pthread_mutex_lock@plt>
 4a5d31f:	e8 9c 56 2c 03       	call   7d229c0 <pthread_mutex_unlock@plt>
 4a5d379:	e8 32 56 2c 03       	call   7d229b0 <pthread_mutex_lock@plt>
 4a5d3c8:	e8 f3 55 2c 03       	call   7d229c0 <pthread_mutex_unlock@plt>
 4a61639:	e8 72 13 2c 03       	call   7d229b0 <pthread_mutex_lock@plt>
 4a6167a:	e8 41 13 2c 03       	call   7d229c0 <pthread_mutex_unlock@plt>
 4a61984:	e8 27 10 2c 03       	call   7d229b0 <pthread_mutex_lock@plt>
 4a688cb:	e8 e0 a0 2b 03       	call   7d229b0 <pthread_mutex_lock@plt>
 4a6890c:	e8 af a0 2b 03       	call   7d229c0 <pthread_mutex_unlock@plt>
 4a68961:	e8 4a a0 2b 03       	call   7d229b0 <pthread_mutex_lock@plt>
 4a6abc5:	e8 e6 7d 2b 03       	call   7d229b0 <pthread_mutex_lock@plt>
 4a6ac05:	e8 b6 7d 2b 03       	call   7d229c0 <pthread_mutex_unlock@plt>
 4a6ac42:	e8 69 7d 2b 03       	call   7d229b0 <pthread_mutex_lock@plt>
 4a6b55e:	e8 4d 74 2b 03       	call   7d229b0 <pthread_mutex_lock@plt>
 4a6b97e:	e8 2d 70 2b 03       	call   7d229b0 <pthread_mutex_lock@plt>
 4a6b9c0:	e8 fb 6f 2b 03       	call   7d229c0 <pthread_mutex_unlock@plt>
 4a6bce1:	e8 ca 6c 2b 03       	call   7d229b0 <pthread_mutex_lock@plt>
 4a6bd20:	e8 9b 6c 2b 03       	call   7d229c0 <pthread_mutex_unlock@plt>
 4a6c537:	e8 74 64 2b 03       	call   7d229b0 <pthread_mutex_lock@plt>
 4a6c550:	e8 6b 64 2b 03       	call   7d229c0 <pthread_mutex_unlock@plt>
 4a6ca1e:	e8 8d 5f 2b 03       	call   7d229b0 <pthread_mutex_lock@plt>
 4a6ca67:	e8 54 5f 2b 03       	call   7d229c0 <pthread_mutex_unlock@plt>
 4a6cafd:	e8 ae 5e 2b 03       	call   7d229b0 <pthread_mutex_lock@plt>
 4a6cb38:	e8 83 5e 2b 03       	call   7d229c0 <pthread_mutex_unlock@plt>
 4a6cbe3:	e8 c8 5d 2b 03       	call   7d229b0 <pthread_mutex_lock@plt>
 4a6cc1e:	e8 9d 5d 2b 03       	call   7d229c0 <pthread_mutex_unlock@plt>
 4a6f5b4:	e8 f7 33 2b 03       	call   7d229b0 <pthread_mutex_lock@plt>
 4a6f794:	e8 27 32 2b 03       	call   7d229c0 <pthread_mutex_unlock@plt>
 4a6fb30:	e8 7b 2e 2b 03       	call   7d229b0 <pthread_mutex_lock@plt>
 4a6ff82:	e8 39 2a 2b 03       	call   7d229c0 <pthread_mutex_unlock@plt>
 4a7816e:	e8 3d a8 2a 03       	call   7d229b0 <pthread_mutex_lock@plt>
 4a788c0:	e8 eb a0 2a 03       	call   7d229b0 <pthread_mutex_lock@plt>
 4a78901:	e8 ba a0 2a 03       	call   7d229c0 <pthread_mutex_unlock@plt>
 4a78bb5:	e8 f6 9d 2a 03       	call   7d229b0 <pthread_mutex_lock@plt>
 4a78bf6:	e8 c5 9d 2a 03       	call   7d229c0 <pthread_mutex_unlock@plt>
 4a796ed:	e8 be 92 2a 03       	call   7d229b0 <pthread_mutex_lock@plt>
 4a79721:	e8 9a 92 2a 03       	call   7d229c0 <pthread_mutex_unlock@plt>
 4a79cde:	e8 cd 8c 2a 03       	call   7d229b0 <pthread_mutex_lock@plt>
 4a7affe:	e8 ad 79 2a 03       	call   7d229b0 <pthread_mutex_lock@plt>
 4a7bdac:	e8 ff 6b 2a 03       	call   7d229b0 <pthread_mutex_lock@plt>
 4a7bdf5:	e8 c6 6b 2a 03       	call   7d229c0 <pthread_mutex_unlock@plt>
 4a7d109:	e8 a2 58 2a 03       	call   7d229b0 <pthread_mutex_lock@plt>
 4a7d14c:	e8 6f 58 2a 03       	call   7d229c0 <pthread_mutex_unlock@plt>
 4a7d199:	e8 12 58 2a 03       	call   7d229b0 <pthread_mutex_lock@plt>
 4a7d1fe:	e8 bd 57 2a 03       	call   7d229c0 <pthread_mutex_unlock@plt>
 4a7d305:	e8 a6 56 2a 03       	call   7d229b0 <pthread_mutex_lock@plt>
 4a7d368:	e8 53 56 2a 03       	call   7d229c0 <pthread_mutex_unlock@plt>
 4a7d3c7:	e8 e4 55 2a 03       	call   7d229b0 <pthread_mutex_lock@plt>
 4a7d40c:	e8 af 55 2a 03       	call   7d229c0 <pthread_mutex_unlock@plt>
 4a7dace:	e8 dd 4e 2a 03       	call   7d229b0 <pthread_mutex_lock@plt>
 4a7daea:	e8 d1 4e 2a 03       	call   7d229c0 <pthread_mutex_unlock@plt>
 4a8042e:	e8 7d 25 2a 03       	call   7d229b0 <pthread_mutex_lock@plt>
 4a80485:	e8 36 25 2a 03       	call   7d229c0 <pthread_mutex_unlock@plt>
 4a80667:	e8 54 23 2a 03       	call   7d229c0 <pthread_mutex_unlock@plt>
 4a806f5:	e8 b6 22 2a 03       	call   7d229b0 <pthread_mutex_lock@plt>
 4a80746:	e8 75 22 2a 03       	call   7d229c0 <pthread_mutex_unlock@plt>
 4a80ced:	e8 be 1c 2a 03       	call   7d229b0 <pthread_mutex_lock@plt>
 4a80d33:	e8 88 1c 2a 03       	call   7d229c0 <pthread_mutex_unlock@plt>
 4a80d6b:	e8 40 1c 2a 03       	call   7d229b0 <pthread_mutex_lock@plt>
 4a80db0:	e8 0b 1c 2a 03       	call   7d229c0 <pthread_mutex_unlock@plt>
 4a80e05:	e8 a6 1b 2a 03       	call   7d229b0 <pthread_mutex_lock@plt>
 4a80ef7:	e8 b4 1a 2a 03       	call   7d229b0 <pthread_mutex_lock@plt>
 4a80f0d:	e8 ae 1a 2a 03       	call   7d229c0 <pthread_mutex_unlock@plt>
 4a80fbb:	e8 00 1a 2a 03       	call   7d229c0 <pthread_mutex_unlock@plt>
 4a81034:	e8 77 19 2a 03       	call   7d229b0 <pthread_mutex_lock@plt>
 4a8111b:	e8 90 18 2a 03       	call   7d229b0 <pthread_mutex_lock@plt>
 4a82214:	e8 f7 0b 2a 03       	call   7d22e10 <pthread_mutex_destroy@plt>
 4a822f4:	e8 b7 06 2a 03       	call   7d229b0 <pthread_mutex_lock@plt>
 4a8230e:	e8 ad 06 2a 03       	call   7d229c0 <pthread_mutex_unlock@plt>
 4a8234b:	e8 60 06 2a 03       	call   7d229b0 <pthread_mutex_lock@plt>
 4a82362:	e8 59 06 2a 03       	call   7d229c0 <pthread_mutex_unlock@plt>
 4a823a4:	e8 07 06 2a 03       	call   7d229b0 <pthread_mutex_lock@plt>
 4a823ca:	e8 f1 05 2a 03       	call   7d229c0 <pthread_mutex_unlock@plt>
 4a8240b:	e8 a0 05 2a 03       	call   7d229b0 <pthread_mutex_lock@plt>
 4a82447:	e8 74 05 2a 03       	call   7d229c0 <pthread_mutex_unlock@plt>
 4a82494:	e8 17 05 2a 03       	call   7d229b0 <pthread_mutex_lock@plt>
 4a824c5:	e8 f6 04 2a 03       	call   7d229c0 <pthread_mutex_unlock@plt>
 4a8253c:	e8 6f 04 2a 03       	call   7d229b0 <pthread_mutex_lock@plt>
 4a82558:	e8 63 04 2a 03       	call   7d229c0 <pthread_mutex_unlock@plt>
 4a82590:	e8 2b 04 2a 03       	call   7d229c0 <pthread_mutex_unlock@plt>
 4a825e0:	e8 cb 03 2a 03       	call   7d229b0 <pthread_mutex_lock@plt>
 4a82631:	e8 8a 03 2a 03       	call   7d229c0 <pthread_mutex_unlock@plt>
 4a8268d:	e8 2e 03 2a 03       	call   7d229c0 <pthread_mutex_unlock@plt>
 4a826f3:	e8 b8 02 2a 03       	call   7d229b0 <pthread_mutex_lock@plt>
 4a82895:	e8 26 01 2a 03       	call   7d229c0 <pthread_mutex_unlock@plt>
 4a829a4:	e8 07 00 2a 03       	call   7d229b0 <pthread_mutex_lock@plt>
 4a82ad8:	e8 e3 fe 29 03       	call   7d229c0 <pthread_mutex_unlock@plt>
 4a82b17:	e8 a4 fe 29 03       	call   7d229c0 <pthread_mutex_unlock@plt>
 4a82bd3:	e8 d8 fd 29 03       	call   7d229b0 <pthread_mutex_lock@plt>
 4a82c15:	e8 a6 fd 29 03       	call   7d229c0 <pthread_mutex_unlock@plt>
 4a82c8f:	e8 2c fd 29 03       	call   7d229c0 <pthread_mutex_unlock@plt>
 4a82f06:	e8 15 fb 29 03       	call   7d22a20 <pthread_mutex_init@plt>
 4a8772a:	e8 f1 b2 29 03       	call   7d22a20 <pthread_mutex_init@plt>
 4a87741:	e8 ba b8 29 03       	call   7d23000 <pthread_condattr_init@plt>
 4a87771:	e8 9a b8 29 03       	call   7d23010 <pthread_condattr_setclock@plt>
 4a87784:	e8 97 b8 29 03       	call   7d23020 <pthread_condattr_destroy@plt>
 4a877cb:	e8 60 b8 29 03       	call   7d23030 <pthread_cond_init@plt>
 4a877d7:	e8 44 b8 29 03       	call   7d23020 <pthread_condattr_destroy@plt>
 4a87a14:	e8 97 af 29 03       	call   7d229b0 <pthread_mutex_lock@plt>
 4a87ade:	e8 ed af 29 03       	call   7d22ad0 <pthread_cond_timedwait@plt>
 4a87b0e:	e8 ad ae 29 03       	call   7d229c0 <pthread_mutex_unlock@plt>
 4a87b8c:	e8 2f ae 29 03       	call   7d229c0 <pthread_mutex_unlock@plt>
 4a87c56:	e8 f5 b3 29 03       	call   7d23050 <pthread_cond_wait@plt>
 4a87f67:	e8 44 aa 29 03       	call   7d229b0 <pthread_mutex_lock@plt>
 4a87f74:	e8 e7 b0 29 03       	call   7d23060 <pthread_cond_broadcast@plt>
 4a87f7f:	e8 3c aa 29 03       	call   7d229c0 <pthread_mutex_unlock@plt>
 4a8801f:	e8 4c b0 29 03       	call   7d23070 <pthread_cond_destroy@plt>
 4a88030:	e8 db ad 29 03       	call   7d22e10 <pthread_mutex_destroy@plt>
 4a883fd:	e8 ce ac 29 03       	call   7d230d0 <pthread_create@plt>
 4a884af:	e8 2c ac 29 03       	call   7d230e0 <pthread_join@plt>
 4a884ec:	e8 ff ab 29 03       	call   7d230f0 <pthread_self@plt>
 4a88513:	e8 d8 ab 29 03       	call   7d230f0 <pthread_self@plt>
 4aab081:	e8 3a 79 27 03       	call   7d229c0 <pthread_mutex_unlock@plt>
 4ab04bb:	e8 f0 24 27 03       	call   7d229b0 <pthread_mutex_lock@plt>
 4ab0aca:	e8 f1 1e 27 03       	call   7d229c0 <pthread_mutex_unlock@plt>
 4abd7d3:	e8 d8 51 26 03       	call   7d229b0 <pthread_mutex_lock@plt>
 4abd83f:	e8 7c 51 26 03       	call   7d229c0 <pthread_mutex_unlock@plt>
 4abd886:	e8 25 51 26 03       	call   7d229b0 <pthread_mutex_lock@plt>
 4acfa81:	e8 3a 2f 25 03       	call   7d229c0 <pthread_mutex_unlock@plt>
 4ad00ad:	e8 fe 28 25 03       	call   7d229b0 <pthread_mutex_lock@plt>
 4ad0111:	e8 aa 28 25 03       	call   7d229c0 <pthread_mutex_unlock@plt>
 4ae88d0:	e8 eb a0 23 03       	call   7d229c0 <pthread_mutex_unlock@plt>
 4ae92fe:	e8 ad 96 23 03       	call   7d229b0 <pthread_mutex_lock@plt>
 4ae95a5:	e8 06 94 23 03       	call   7d229b0 <pthread_mutex_lock@plt>
 4aee3de:	e8 cd 45 23 03       	call   7d229b0 <pthread_mutex_lock@plt>
 4aee43c:	e8 7f 45 23 03       	call   7d229c0 <pthread_mutex_unlock@plt>
 4aee480:	e8 2b 45 23 03       	call   7d229b0 <pthread_mutex_lock@plt>
 4aee4d9:	e8 e2 44 23 03       	call   7d229c0 <pthread_mutex_unlock@plt>
 4aeef5e:	e8 cd 3e 23 03       	call   7d22e30 <pthread_mutex_trylock@plt>
 4aef0db:	e8 50 3d 23 03       	call   7d22e30 <pthread_mutex_trylock@plt>
 4aef145:	e8 e6 3c 23 03       	call   7d22e30 <pthread_mutex_trylock@plt>
 4aef222:	e8 09 3c 23 03       	call   7d22e30 <pthread_mutex_trylock@plt>
 4aef289:	e8 a2 3b 23 03       	call   7d22e30 <pthread_mutex_trylock@plt>
 4aef2da:	e8 51 3b 23 03       	call   7d22e30 <pthread_mutex_trylock@plt>
 4aef808:	e8 a3 31 23 03       	call   7d229b0 <pthread_mutex_lock@plt>
 4aef845:	e8 76 31 23 03       	call   7d229c0 <pthread_mutex_unlock@plt>
 4aef887:	e8 24 31 23 03       	call   7d229b0 <pthread_mutex_lock@plt>
 4aef8d0:	e8 eb 30 23 03       	call   7d229c0 <pthread_mutex_unlock@plt>
 4aef9c0:	e8 eb 2f 23 03       	call   7d229b0 <pthread_mutex_lock@plt>
 4aef9fd:	e8 be 2f 23 03       	call   7d229c0 <pthread_mutex_unlock@plt>
 4af76d7:	e8 d4 b2 22 03       	call   7d229b0 <pthread_mutex_lock@plt>
 4af779f:	e8 1c b2 22 03       	call   7d229c0 <pthread_mutex_unlock@plt>
 4af911c:	e8 8f 98 22 03       	call   7d229b0 <pthread_mutex_lock@plt>
 4af91ad:	e8 0e 98 22 03       	call   7d229c0 <pthread_mutex_unlock@plt>
 4afa811:	e8 9a 81 22 03       	call   7d229b0 <pthread_mutex_lock@plt>
 4afa84f:	e8 6c 81 22 03       	call   7d229c0 <pthread_mutex_unlock@plt>
 4afabc8:	e8 e3 7d 22 03       	call   7d229b0 <pthread_mutex_lock@plt>
 4afac16:	e8 a5 7d 22 03       	call   7d229c0 <pthread_mutex_unlock@plt>
 4afae6a:	e8 41 7b 22 03       	call   7d229b0 <pthread_mutex_lock@plt>
 4afb46b:	e8 50 75 22 03       	call   7d229c0 <pthread_mutex_unlock@plt>
 4afb5af:	e8 0c 74 22 03       	call   7d229c0 <pthread_mutex_unlock@plt>
 4b19e2b:	e8 80 8b 20 03       	call   7d229b0 <pthread_mutex_lock@plt>
 4b19e89:	e8 32 8b 20 03       	call   7d229c0 <pthread_mutex_unlock@plt>
 4b1a739:	e8 72 82 20 03       	call   7d229b0 <pthread_mutex_lock@plt>
 4b1d0c4:	e8 67 5d 20 03       	call   7d22e30 <pthread_mutex_trylock@plt>
 4b1d1cd:	e8 ee 57 20 03       	call   7d229c0 <pthread_mutex_unlock@plt>
 4b1d76d:	e8 be 56 20 03       	call   7d22e30 <pthread_mutex_trylock@plt>
 4b1e59e:	e8 0d 44 20 03       	call   7d229b0 <pthread_mutex_lock@plt>
 4b1ec72:	e8 39 3d 20 03       	call   7d229b0 <pthread_mutex_lock@plt>
 4b1ecac:	e8 0f 3d 20 03       	call   7d229c0 <pthread_mutex_unlock@plt>
 4b1f512:	e8 99 34 20 03       	call   7d229b0 <pthread_mutex_lock@plt>
 4b1f55a:	e8 61 34 20 03       	call   7d229c0 <pthread_mutex_unlock@plt>
 4b2092e:	e8 7d 20 20 03       	call   7d229b0 <pthread_mutex_lock@plt>
 4b20f7b:	e8 30 1a 20 03       	call   7d229b0 <pthread_mutex_lock@plt>
 4b20fcd:	e8 ee 19 20 03       	call   7d229c0 <pthread_mutex_unlock@plt>
 4b2101b:	e8 90 19 20 03       	call   7d229b0 <pthread_mutex_lock@plt>
 4b21078:	e8 43 19 20 03       	call   7d229c0 <pthread_mutex_unlock@plt>
 4b210c9:	e8 e2 18 20 03       	call   7d229b0 <pthread_mutex_lock@plt>
 4b2111b:	e8 a0 18 20 03       	call   7d229c0 <pthread_mutex_unlock@plt>
 4b2945f:	e8 4c 95 1f 03       	call   7d229b0 <pthread_mutex_lock@plt>
 4b294cf:	e8 ec 94 1f 03       	call   7d229c0 <pthread_mutex_unlock@plt>
 4b294f3:	e8 c8 94 1f 03       	call   7d229c0 <pthread_mutex_unlock@plt>
 4b29543:	e8 78 94 1f 03       	call   7d229c0 <pthread_mutex_unlock@plt>
 4b2f349:	e8 d2 36 1f 03       	call   7d22a20 <pthread_mutex_init@plt>
 4b2f4b8:	89 05 ba bf 40 03    	mov    %eax,0x340bfba(%rip)        # 7f3b478 <__wt_pthread_once_failed>
 4b2f529:	8b 05 49 bf 40 03    	mov    0x340bf49(%rip),%eax        # 7f3b478 <__wt_pthread_once_failed>
 4b2f544:	8b 05 2e bf 40 03    	mov    0x340bf2e(%rip),%eax        # 7f3b478 <__wt_pthread_once_failed>
 4b2f558:	89 05 1a bf 40 03    	mov    %eax,0x340bf1a(%rip)        # 7f3b478 <__wt_pthread_once_failed>
 4b2f57a:	e9 41 35 1f 03       	jmp    7d22ac0 <pthread_once@plt>
 4b31b51:	e8 ca 0e 1f 03       	call   7d22a20 <pthread_mutex_init@plt>
 4b31bb0:	e8 fb 0d 1f 03       	call   7d229b0 <pthread_mutex_lock@plt>
 4b31be0:	e8 db 0d 1f 03       	call   7d229c0 <pthread_mutex_unlock@plt>
 4b31c6b:	e8 a0 11 1f 03       	call   7d22e10 <pthread_mutex_destroy@plt>
 4b44c66:	e8 45 dd 1d 03       	call   7d229b0 <pthread_mutex_lock@plt>
 4b44f9c:	e8 1f da 1d 03       	call   7d229c0 <pthread_mutex_unlock@plt>
 4b4800e:	e8 9d a9 1d 03       	call   7d229b0 <pthread_mutex_lock@plt>
 4b48060:	e8 5b a9 1d 03       	call   7d229c0 <pthread_mutex_unlock@plt>
 4b481e2:	e8 d9 a7 1d 03       	call   7d229c0 <pthread_mutex_unlock@plt>
 4b4820e:	e8 9d a7 1d 03       	call   7d229b0 <pthread_mutex_lock@plt>
 4b4828e:	e8 1d a7 1d 03       	call   7d229b0 <pthread_mutex_lock@plt>
 4b482cd:	e8 ee a6 1d 03       	call   7d229c0 <pthread_mutex_unlock@plt>
 4b483c3:	e8 e8 a5 1d 03       	call   7d229b0 <pthread_mutex_lock@plt>
 4b483fd:	e8 be a5 1d 03       	call   7d229c0 <pthread_mutex_unlock@plt>
 4b48493:	e8 28 a5 1d 03       	call   7d229c0 <pthread_mutex_unlock@plt>
 4b50f8b:	e8 20 1a 1d 03       	call   7d229b0 <pthread_mutex_lock@plt>
 4b50fdc:	e8 cf 19 1d 03       	call   7d229b0 <pthread_mutex_lock@plt>
 4b54832:	e8 89 e1 1c 03       	call   7d229c0 <pthread_mutex_unlock@plt>
 4b553ea:	e8 d1 d5 1c 03       	call   7d229c0 <pthread_mutex_unlock@plt>
 4b558fb:	e8 c0 d0 1c 03       	call   7d229c0 <pthread_mutex_unlock@plt>
 4b55954:	e8 d7 d4 1c 03       	call   7d22e30 <pthread_mutex_trylock@plt>
 4b559b0:	e8 7b d4 1c 03       	call   7d22e30 <pthread_mutex_trylock@plt>
 4b55a03:	e8 b8 cf 1c 03       	call   7d229c0 <pthread_mutex_unlock@plt>
 4b62206:	e8 b5 08 1c 03       	call   7d22ac0 <pthread_once@plt>
 4b63376:	e8 45 f7 1b 03       	call   7d22ac0 <pthread_once@plt>
 4b63aad:	e8 fe ee 1b 03       	call   7d229b0 <pthread_mutex_lock@plt>
 4b63cb5:	e8 06 ed 1b 03       	call   7d229c0 <pthread_mutex_unlock@plt>
 4b63df7:	e8 b4 eb 1b 03       	call   7d229b0 <pthread_mutex_lock@plt>
 4b63e0b:	e8 b0 eb 1b 03       	call   7d229c0 <pthread_mutex_unlock@plt>
 4b63e4b:	e8 60 eb 1b 03       	call   7d229b0 <pthread_mutex_lock@plt>
 4b63e73:	e8 38 eb 1b 03       	call   7d229b0 <pthread_mutex_lock@plt>
 4b63e8c:	e8 2f eb 1b 03       	call   7d229c0 <pthread_mutex_unlock@plt>
 4b63ea2:	e9 19 eb 1b 03       	jmp    7d229c0 <pthread_mutex_unlock@plt>
 4b63ebe:	e8 ed ea 1b 03       	call   7d229b0 <pthread_mutex_lock@plt>
 4b63f31:	e8 8a ea 1b 03       	call   7d229c0 <pthread_mutex_unlock@plt>
 4b63f7d:	e8 2e ea 1b 03       	call   7d229b0 <pthread_mutex_lock@plt>
 4b63fa4:	e9 17 ea 1b 03       	jmp    7d229c0 <pthread_mutex_unlock@plt>
 4b63fbe:	e8 ed e9 1b 03       	call   7d229b0 <pthread_mutex_lock@plt>
 4b64033:	e8 88 e9 1b 03       	call   7d229c0 <pthread_mutex_unlock@plt>
 4b64077:	e8 34 e9 1b 03       	call   7d229b0 <pthread_mutex_lock@plt>
 4b640ea:	e9 d1 e8 1b 03       	jmp    7d229c0 <pthread_mutex_unlock@plt>
 4b6413c:	e8 6f e8 1b 03       	call   7d229b0 <pthread_mutex_lock@plt>
 4b641e5:	e8 d6 e7 1b 03       	call   7d229c0 <pthread_mutex_unlock@plt>
 4b643b5:	e8 f6 e5 1b 03       	call   7d229b0 <pthread_mutex_lock@plt>
 4b643e6:	e8 c5 e5 1b 03       	call   7d229b0 <pthread_mutex_lock@plt>
 4b64403:	e8 b8 e5 1b 03       	call   7d229c0 <pthread_mutex_unlock@plt>
 4b6440b:	e8 b0 e5 1b 03       	call   7d229c0 <pthread_mutex_unlock@plt>
 4b644f2:	e8 b9 e4 1b 03       	call   7d229b0 <pthread_mutex_lock@plt>
 4b64573:	e8 48 e4 1b 03       	call   7d229c0 <pthread_mutex_unlock@plt>
 4b647c0:	e8 eb e1 1b 03       	call   7d229b0 <pthread_mutex_lock@plt>
 4b647e4:	e8 d7 e1 1b 03       	call   7d229c0 <pthread_mutex_unlock@plt>
 4b648ea:	e8 c1 e0 1b 03       	call   7d229b0 <pthread_mutex_lock@plt>
 4b64922:	e8 99 e0 1b 03       	call   7d229c0 <pthread_mutex_unlock@plt>
 4b6494e:	e8 5d e0 1b 03       	call   7d229b0 <pthread_mutex_lock@plt>
 4b6498a:	e8 21 e0 1b 03       	call   7d229b0 <pthread_mutex_lock@plt>
 4b649a3:	e8 18 e0 1b 03       	call   7d229c0 <pthread_mutex_unlock@plt>
 4b649e9:	e8 d2 df 1b 03       	call   7d229c0 <pthread_mutex_unlock@plt>
 4b64a81:	e8 2a df 1b 03       	call   7d229b0 <pthread_mutex_lock@plt>
 4b64b14:	e8 a7 de 1b 03       	call   7d229c0 <pthread_mutex_unlock@plt>
 4b64b3d:	e8 6e de 1b 03       	call   7d229b0 <pthread_mutex_lock@plt>
 4b64b56:	e8 65 de 1b 03       	call   7d229c0 <pthread_mutex_unlock@plt>
 4b64b5e:	e8 5d de 1b 03       	call   7d229c0 <pthread_mutex_unlock@plt>
 4b64ba7:	e8 04 de 1b 03       	call   7d229b0 <pthread_mutex_lock@plt>
 4b64c2a:	e8 91 dd 1b 03       	call   7d229c0 <pthread_mutex_unlock@plt>
 4b64d37:	e8 74 dc 1b 03       	call   7d229b0 <pthread_mutex_lock@plt>
 4b64d90:	e8 1b dc 1b 03       	call   7d229b0 <pthread_mutex_lock@plt>
 4b64da9:	e8 12 dc 1b 03       	call   7d229c0 <pthread_mutex_unlock@plt>
 4b64e22:	e9 99 db 1b 03       	jmp    7d229c0 <pthread_mutex_unlock@plt>
 4b64e3e:	e8 6d db 1b 03       	call   7d229b0 <pthread_mutex_lock@plt>
 4b64eb1:	e8 0a db 1b 03       	call   7d229c0 <pthread_mutex_unlock@plt>
 4b64f30:	e8 8b da 1b 03       	call   7d229c0 <pthread_mutex_unlock@plt>
 4b6553b:	e8 80 d4 1b 03       	call   7d229c0 <pthread_mutex_unlock@plt>
 4b656bf:	e8 fc d2 1b 03       	call   7d229c0 <pthread_mutex_unlock@plt>
 4b65f7b:	e8 40 cb 1b 03       	call   7d22ac0 <pthread_once@plt>
 4b666a7:	e8 04 c3 1b 03       	call   7d229b0 <pthread_mutex_lock@plt>
 4b666b8:	e8 03 c3 1b 03       	call   7d229c0 <pthread_mutex_unlock@plt>
 4b671bd:	e8 ee b7 1b 03       	call   7d229b0 <pthread_mutex_lock@plt>
 4b671f3:	e9 c8 b7 1b 03       	jmp    7d229c0 <pthread_mutex_unlock@plt>
 4b6955b:	e8 60 95 1b 03       	call   7d22ac0 <pthread_once@plt>
 4b69a8a:	e8 21 8f 1b 03       	call   7d229b0 <pthread_mutex_lock@plt>
 4b69cfa:	e8 c1 8c 1b 03       	call   7d229c0 <pthread_mutex_unlock@plt>
 4b6a651:	e8 5a 83 1b 03       	call   7d229b0 <pthread_mutex_lock@plt>
 4b6a76e:	e8 3d 82 1b 03       	call   7d229b0 <pthread_mutex_lock@plt>
 4b6a787:	e8 34 82 1b 03       	call   7d229c0 <pthread_mutex_unlock@plt>
 4b6a7d1:	e8 da 81 1b 03       	call   7d229b0 <pthread_mutex_lock@plt>
 4b6a852:	e8 69 81 1b 03       	call   7d229c0 <pthread_mutex_unlock@plt>
 4b6a86d:	e8 4e 81 1b 03       	call   7d229c0 <pthread_mutex_unlock@plt>
 4b6a8e2:	e8 c9 80 1b 03       	call   7d229b0 <pthread_mutex_lock@plt>
 4b6a950:	e8 fb 83 1b 03       	call   7d22d50 <pthread_cond_clockwait@plt>
 4b6a981:	e8 2a 80 1b 03       	call   7d229b0 <pthread_mutex_lock@plt>
 4b6a9c5:	e8 e6 7f 1b 03       	call   7d229b0 <pthread_mutex_lock@plt>
 4b6b56c:	e8 3f 74 1b 03       	call   7d229b0 <pthread_mutex_lock@plt>
 4b6c85a:	e8 51 61 1b 03       	call   7d229b0 <pthread_mutex_lock@plt>
 4b6c8e6:	e8 c5 60 1b 03       	call   7d229b0 <pthread_mutex_lock@plt>
 4b6c912:	e8 a9 60 1b 03       	call   7d229c0 <pthread_mutex_unlock@plt>
 4b6c984:	e8 27 60 1b 03       	call   7d229b0 <pthread_mutex_lock@plt>
 4b6cab7:	e8 f4 5e 1b 03       	call   7d229b0 <pthread_mutex_lock@plt>
 4b6cad3:	e8 e8 5e 1b 03       	call   7d229c0 <pthread_mutex_unlock@plt>
 4b6cb63:	e8 48 5e 1b 03       	call   7d229b0 <pthread_mutex_lock@plt>
 4b6cb90:	e8 2b 5e 1b 03       	call   7d229c0 <pthread_mutex_unlock@plt>
 4b6cce9:	e8 c2 5c 1b 03       	call   7d229b0 <pthread_mutex_lock@plt>
 4b6cd6c:	e8 4f 5c 1b 03       	call   7d229c0 <pthread_mutex_unlock@plt>
 4b6cd90:	e8 2b 5c 1b 03       	call   7d229c0 <pthread_mutex_unlock@plt>
 4b6d162:	e8 49 58 1b 03       	call   7d229b0 <pthread_mutex_lock@plt>
 4b6e937:	e8 84 41 1b 03       	call   7d22ac0 <pthread_once@plt>
 4b6f723:	e8 88 32 1b 03       	call   7d229b0 <pthread_mutex_lock@plt>
 4b6f75b:	e8 60 32 1b 03       	call   7d229c0 <pthread_mutex_unlock@plt>
 4b70353:	e8 58 26 1b 03       	call   7d229b0 <pthread_mutex_lock@plt>
 4b7038b:	e8 30 26 1b 03       	call   7d229c0 <pthread_mutex_unlock@plt>
 4b722a0:	e8 0b 07 1b 03       	call   7d229b0 <pthread_mutex_lock@plt>
 4b722b7:	e8 04 07 1b 03       	call   7d229c0 <pthread_mutex_unlock@plt>
 4b722e2:	e8 c9 06 1b 03       	call   7d229b0 <pthread_mutex_lock@plt>
 4b7230e:	e8 ad 06 1b 03       	call   7d229c0 <pthread_mutex_unlock@plt>
 4b72381:	e8 3a 06 1b 03       	call   7d229c0 <pthread_mutex_unlock@plt>
 4b72806:	e8 a5 01 1b 03       	call   7d229b0 <pthread_mutex_lock@plt>
 4b72821:	e8 9a 01 1b 03       	call   7d229c0 <pthread_mutex_unlock@plt>
 4b7292d:	e8 7e 00 1b 03       	call   7d229b0 <pthread_mutex_lock@plt>
 4b72947:	e8 74 00 1b 03       	call   7d229c0 <pthread_mutex_unlock@plt>
 4b72a5a:	e8 51 ff 1a 03       	call   7d229b0 <pthread_mutex_lock@plt>
 4b72a75:	e8 46 ff 1a 03       	call   7d229c0 <pthread_mutex_unlock@plt>
 4b73cdd:	e8 de ed 1a 03       	call   7d22ac0 <pthread_once@plt>
 4b74bd1:	e8 da dd 1a 03       	call   7d229b0 <pthread_mutex_lock@plt>
 4b74be8:	e9 d3 dd 1a 03       	jmp    7d229c0 <pthread_mutex_unlock@plt>
 4b74c17:	e8 94 dd 1a 03       	call   7d229b0 <pthread_mutex_lock@plt>
 4b74c2b:	e8 90 dd 1a 03       	call   7d229c0 <pthread_mutex_unlock@plt>
 4b74c61:	e8 4a dd 1a 03       	call   7d229b0 <pthread_mutex_lock@plt>
 4b74c85:	e9 36 dd 1a 03       	jmp    7d229c0 <pthread_mutex_unlock@plt>
 4b7769b:	e8 10 b3 1a 03       	call   7d229b0 <pthread_mutex_lock@plt>
 4b776ba:	e8 01 b3 1a 03       	call   7d229c0 <pthread_mutex_unlock@plt>
 4b799d8:	e8 d3 8f 1a 03       	call   7d229b0 <pthread_mutex_lock@plt>
 4b799f0:	e8 cb 8f 1a 03       	call   7d229c0 <pthread_mutex_unlock@plt>
 4b79c1a:	e8 91 8d 1a 03       	call   7d229b0 <pthread_mutex_lock@plt>
 4b79e0c:	e8 af 8b 1a 03       	call   7d229c0 <pthread_mutex_unlock@plt>
 4b7aeaa:	e8 11 7b 1a 03       	call   7d229c0 <pthread_mutex_unlock@plt>
 4b7b437:	e8 84 76 1a 03       	call   7d22ac0 <pthread_once@plt>
 4b7e56e:	e8 4d 45 1a 03       	call   7d22ac0 <pthread_once@plt>
 4b7e8c8:	e8 e3 40 1a 03       	call   7d229b0 <pthread_mutex_lock@plt>
 4b7e8e4:	e9 d7 40 1a 03       	jmp    7d229c0 <pthread_mutex_unlock@plt>
 4b7fd15:	e8 a6 2d 1a 03       	call   7d22ac0 <pthread_once@plt>
 4b802b7:	e8 04 28 1a 03       	call   7d22ac0 <pthread_once@plt>
 4b80c2a:	e8 91 1e 1a 03       	call   7d22ac0 <pthread_once@plt>
 4b81458:	e8 53 15 1a 03       	call   7d229b0 <pthread_mutex_lock@plt>
 4b81472:	e8 49 15 1a 03       	call   7d229c0 <pthread_mutex_unlock@plt>
 4b814aa:	e8 01 15 1a 03       	call   7d229b0 <pthread_mutex_lock@plt>
 4b814fa:	e8 c1 14 1a 03       	call   7d229c0 <pthread_mutex_unlock@plt>
 4b8237e:	e8 2d 06 1a 03       	call   7d229b0 <pthread_mutex_lock@plt>
 4b8239a:	e8 21 06 1a 03       	call   7d229c0 <pthread_mutex_unlock@plt>
 4b8240e:	e8 9d 05 1a 03       	call   7d229b0 <pthread_mutex_lock@plt>
 4b824c1:	e9 fa 04 1a 03       	jmp    7d229c0 <pthread_mutex_unlock@plt>
 4b8250a:	e8 a1 04 1a 03       	call   7d229b0 <pthread_mutex_lock@plt>
 4b8251d:	e8 9e 04 1a 03       	call   7d229c0 <pthread_mutex_unlock@plt>
 4b8257d:	e8 2e 04 1a 03       	call   7d229b0 <pthread_mutex_lock@plt>
 4b825c7:	e9 f4 03 1a 03       	jmp    7d229c0 <pthread_mutex_unlock@plt>
 4b82780:	e8 2b 02 1a 03       	call   7d229b0 <pthread_mutex_lock@plt>
 4b82a94:	e8 27 ff 19 03       	call   7d229c0 <pthread_mutex_unlock@plt>
 4b83001:	e8 aa f9 19 03       	call   7d229b0 <pthread_mutex_lock@plt>
 4b83087:	e8 34 f9 19 03       	call   7d229c0 <pthread_mutex_unlock@plt>
 4b83599:	e8 12 f4 19 03       	call   7d229b0 <pthread_mutex_lock@plt>
 4b835d6:	e9 e5 f3 19 03       	jmp    7d229c0 <pthread_mutex_unlock@plt>
 4b835ea:	e8 c1 f3 19 03       	call   7d229b0 <pthread_mutex_lock@plt>
 4b83663:	e8 58 f3 19 03       	call   7d229c0 <pthread_mutex_unlock@plt>
 4b83c8c:	e8 2f ee 19 03       	call   7d22ac0 <pthread_once@plt>
 4b89672:	e8 49 93 19 03       	call   7d229c0 <pthread_mutex_unlock@plt>
 4b8a358:	e8 53 86 19 03       	call   7d229b0 <pthread_mutex_lock@plt>
 4b8a37f:	e8 3c 86 19 03       	call   7d229c0 <pthread_mutex_unlock@plt>
 4b8a53b:	e8 70 84 19 03       	call   7d229b0 <pthread_mutex_lock@plt>
 4b8a55a:	e8 61 84 19 03       	call   7d229c0 <pthread_mutex_unlock@plt>
 4b8a6d5:	e8 e6 82 19 03       	call   7d229c0 <pthread_mutex_unlock@plt>
 4b8a87e:	e8 3d 81 19 03       	call   7d229c0 <pthread_mutex_unlock@plt>
 4b8a9cf:	e8 dc 7f 19 03       	call   7d229b0 <pthread_mutex_lock@plt>
 4b8b018:	e8 a3 79 19 03       	call   7d229c0 <pthread_mutex_unlock@plt>
 4b8b044:	e8 77 79 19 03       	call   7d229c0 <pthread_mutex_unlock@plt>
 4b8b0c4:	e8 f7 78 19 03       	call   7d229c0 <pthread_mutex_unlock@plt>
 4b8c9ac:	e8 0f 60 19 03       	call   7d229c0 <pthread_mutex_unlock@plt>
 4b8dd76:	e8 45 4d 19 03       	call   7d22ac0 <pthread_once@plt>
 4b8f09a:	e8 21 3a 19 03       	call   7d22ac0 <pthread_once@plt>
 4b8f76c:	e8 3f 32 19 03       	call   7d229b0 <pthread_mutex_lock@plt>
 4b8f785:	e8 36 32 19 03       	call   7d229c0 <pthread_mutex_unlock@plt>
 4b8f7cc:	e8 df 31 19 03       	call   7d229b0 <pthread_mutex_lock@plt>
 4b8f7e0:	e8 db 31 19 03       	call   7d229c0 <pthread_mutex_unlock@plt>
 4b8f827:	e8 84 31 19 03       	call   7d229b0 <pthread_mutex_lock@plt>
 4b8f851:	e9 6a 31 19 03       	jmp    7d229c0 <pthread_mutex_unlock@plt>
 4b8f870:	e9 4b 31 19 03       	jmp    7d229c0 <pthread_mutex_unlock@plt>
 4b8f893:	e9 28 31 19 03       	jmp    7d229c0 <pthread_mutex_unlock@plt>
 4b8f8bc:	e8 ef 30 19 03       	call   7d229b0 <pthread_mutex_lock@plt>
 4b8f8cc:	e8 ef 30 19 03       	call   7d229c0 <pthread_mutex_unlock@plt>
 4b8f910:	e8 9b 30 19 03       	call   7d229b0 <pthread_mutex_lock@plt>
 4b8f942:	e8 69 30 19 03       	call   7d229b0 <pthread_mutex_lock@plt>
 4b8f95b:	e8 60 30 19 03       	call   7d229c0 <pthread_mutex_unlock@plt>
 4b8f971:	e9 4a 30 19 03       	jmp    7d229c0 <pthread_mutex_unlock@plt>
 4b8f98e:	e8 1d 30 19 03       	call   7d229b0 <pthread_mutex_lock@plt>
 4b8fa01:	e8 ba 2f 19 03       	call   7d229c0 <pthread_mutex_unlock@plt>
 4b8fa59:	e8 52 2f 19 03       	call   7d229b0 <pthread_mutex_lock@plt>
 4b8fa80:	e9 3b 2f 19 03       	jmp    7d229c0 <pthread_mutex_unlock@plt>
 4b8fa92:	e8 19 2f 19 03       	call   7d229b0 <pthread_mutex_lock@plt>
 4b8fb03:	e8 b8 2e 19 03       	call   7d229c0 <pthread_mutex_unlock@plt>
 4b8fc2f:	e8 7c 2d 19 03       	call   7d229b0 <pthread_mutex_lock@plt>
 4b8fc58:	e8 53 2d 19 03       	call   7d229b0 <pthread_mutex_lock@plt>
 4b8fcd0:	e8 db 2c 19 03       	call   7d229b0 <pthread_mutex_lock@plt>
 4b8fcee:	e8 cd 2c 19 03       	call   7d229c0 <pthread_mutex_unlock@plt>
 4b8fd29:	e8 82 2c 19 03       	call   7d229b0 <pthread_mutex_lock@plt>
 4b8fd49:	e8 72 2c 19 03       	call   7d229c0 <pthread_mutex_unlock@plt>
 4b8fe30:	e9 8b 2b 19 03       	jmp    7d229c0 <pthread_mutex_unlock@plt>
 4b90091:	e8 1a 29 19 03       	call   7d229b0 <pthread_mutex_lock@plt>
 4b900d2:	e8 e9 28 19 03       	call   7d229c0 <pthread_mutex_unlock@plt>
 4b904a2:	e8 09 25 19 03       	call   7d229b0 <pthread_mutex_lock@plt>
 4b904c3:	e8 f8 24 19 03       	call   7d229c0 <pthread_mutex_unlock@plt>
 4b905a2:	e8 09 24 19 03       	call   7d229b0 <pthread_mutex_lock@plt>
 4b905c4:	e8 f7 23 19 03       	call   7d229c0 <pthread_mutex_unlock@plt>
 4b91d1a:	e8 a1 0d 19 03       	call   7d22ac0 <pthread_once@plt>
 4b920da:	e8 d1 08 19 03       	call   7d229b0 <pthread_mutex_lock@plt>
 4b920ed:	e8 ce 08 19 03       	call   7d229c0 <pthread_mutex_unlock@plt>
 4b9212a:	e8 81 08 19 03       	call   7d229b0 <pthread_mutex_lock@plt>
 4b92142:	e8 79 08 19 03       	call   7d229c0 <pthread_mutex_unlock@plt>
 4b9217a:	e8 41 08 19 03       	call   7d229c0 <pthread_mutex_unlock@plt>
 4b921ba:	e8 f1 07 19 03       	call   7d229b0 <pthread_mutex_lock@plt>
 4b92c93:	e8 18 fd 18 03       	call   7d229b0 <pthread_mutex_lock@plt>
 4b92cc0:	e8 fb fc 18 03       	call   7d229c0 <pthread_mutex_unlock@plt>
 4b92e5a:	e8 51 fb 18 03       	call   7d229b0 <pthread_mutex_lock@plt>
 4b92e6d:	e8 4e fb 18 03       	call   7d229c0 <pthread_mutex_unlock@plt>
 4b92eb9:	e8 f2 fa 18 03       	call   7d229b0 <pthread_mutex_lock@plt>
 4b92ed8:	e8 e3 fa 18 03       	call   7d229c0 <pthread_mutex_unlock@plt>
 4b939eb:	e8 c0 ef 18 03       	call   7d229b0 <pthread_mutex_lock@plt>
 4b93a04:	e8 b7 ef 18 03       	call   7d229c0 <pthread_mutex_unlock@plt>
 4b93fd6:	e8 e5 e9 18 03       	call   7d229c0 <pthread_mutex_unlock@plt>
 4b9447c:	e8 3f e5 18 03       	call   7d229c0 <pthread_mutex_unlock@plt>
 4b9459b:	e8 10 e4 18 03       	call   7d229b0 <pthread_mutex_lock@plt>
 4b945bb:	e8 00 e4 18 03       	call   7d229c0 <pthread_mutex_unlock@plt>
 4b94631:	e8 7a e3 18 03       	call   7d229b0 <pthread_mutex_lock@plt>
 4b94991:	e8 1a e0 18 03       	call   7d229b0 <pthread_mutex_lock@plt>
 4b950d0:	e8 db d8 18 03       	call   7d229b0 <pthread_mutex_lock@plt>
 4b95135:	e9 86 d8 18 03       	jmp    7d229c0 <pthread_mutex_unlock@plt>
 4b957ad:	e8 fe d1 18 03       	call   7d229b0 <pthread_mutex_lock@plt>
 4b958dc:	e8 df d0 18 03       	call   7d229c0 <pthread_mutex_unlock@plt>
 4b95c90:	e8 1b cd 18 03       	call   7d229b0 <pthread_mutex_lock@plt>
 4b95ee7:	e9 d4 ca 18 03       	jmp    7d229c0 <pthread_mutex_unlock@plt>
 4b95f4b:	e8 60 ca 18 03       	call   7d229b0 <pthread_mutex_lock@plt>
 4b96583:	e8 38 c4 18 03       	call   7d229c0 <pthread_mutex_unlock@plt>
 4b96ab3:	e8 f8 be 18 03       	call   7d229b0 <pthread_mutex_lock@plt>
 4b96acd:	e8 ee be 18 03       	call   7d229c0 <pthread_mutex_unlock@plt>
 4b96e04:	e8 a7 bb 18 03       	call   7d229b0 <pthread_mutex_lock@plt>
 4b96e1d:	e8 9e bb 18 03       	call   7d229c0 <pthread_mutex_unlock@plt>
 4b97657:	e8 54 b3 18 03       	call   7d229b0 <pthread_mutex_lock@plt>
 4b97940:	e9 7b b0 18 03       	jmp    7d229c0 <pthread_mutex_unlock@plt>
 4b979a3:	e8 08 b0 18 03       	call   7d229b0 <pthread_mutex_lock@plt>
 4b97c0f:	e9 ac ad 18 03       	jmp    7d229c0 <pthread_mutex_unlock@plt>
 4b97dfa:	e8 c1 ab 18 03       	call   7d229c0 <pthread_mutex_unlock@plt>
 4b97e76:	e8 45 ab 18 03       	call   7d229c0 <pthread_mutex_unlock@plt>
 4b980af:	e8 0c a9 18 03       	call   7d229c0 <pthread_mutex_unlock@plt>
 4b9812e:	e8 8d a8 18 03       	call   7d229c0 <pthread_mutex_unlock@plt>
 4b982d2:	e8 e9 a6 18 03       	call   7d229c0 <pthread_mutex_unlock@plt>
 4b984c4:	e8 f7 a4 18 03       	call   7d229c0 <pthread_mutex_unlock@plt>
 4b9855a:	e8 61 a4 18 03       	call   7d229c0 <pthread_mutex_unlock@plt>
 4b985ef:	e8 cc a3 18 03       	call   7d229c0 <pthread_mutex_unlock@plt>
 4b986f8:	e8 c3 a2 18 03       	call   7d229c0 <pthread_mutex_unlock@plt>
 4b987b0:	e8 0b a2 18 03       	call   7d229c0 <pthread_mutex_unlock@plt>
 4b9889e:	e8 1d a1 18 03       	call   7d229c0 <pthread_mutex_unlock@plt>
 4b988b6:	e8 05 a1 18 03       	call   7d229c0 <pthread_mutex_unlock@plt>
 4b99265:	e8 56 98 18 03       	call   7d22ac0 <pthread_once@plt>
 4b9971a:	e8 91 92 18 03       	call   7d229b0 <pthread_mutex_lock@plt>
 4b9976a:	e8 51 92 18 03       	call   7d229c0 <pthread_mutex_unlock@plt>
 4b99be0:	e8 db 8e 18 03       	call   7d22ac0 <pthread_once@plt>
 4b99e07:	e8 b4 8c 18 03       	call   7d22ac0 <pthread_once@plt>
 4b9b1c1:	e8 ea 77 18 03       	call   7d229b0 <pthread_mutex_lock@plt>
 4b9d8ff:	e8 bc 51 18 03       	call   7d22ac0 <pthread_once@plt>
 4ba07db:	e8 e0 22 18 03       	call   7d22ac0 <pthread_once@plt>
 4ba216b:	e8 50 09 18 03       	call   7d22ac0 <pthread_once@plt>
 4ba7599:	e8 22 b5 17 03       	call   7d22ac0 <pthread_once@plt>
 4baa945:	e8 76 81 17 03       	call   7d22ac0 <pthread_once@plt>
 4bb0b62:	e8 59 1f 17 03       	call   7d22ac0 <pthread_once@plt>
 4bb10da:	e8 d1 18 17 03       	call   7d229b0 <pthread_mutex_lock@plt>
 4bb112a:	e8 91 18 17 03       	call   7d229c0 <pthread_mutex_unlock@plt>
 4bba7f7:	e8 c4 82 16 03       	call   7d22ac0 <pthread_once@plt>
 4bbb0fa:	e8 b1 78 16 03       	call   7d229b0 <pthread_mutex_lock@plt>
 4bbb14a:	e8 71 78 16 03       	call   7d229c0 <pthread_mutex_unlock@plt>
 4bbcd96:	e8 15 5c 16 03       	call   7d229b0 <pthread_mutex_lock@plt>
 4bbcf05:	e8 b6 5a 16 03       	call   7d229c0 <pthread_mutex_unlock@plt>
 4bc1547:	e8 74 15 16 03       	call   7d22ac0 <pthread_once@plt>
 4bc1c6a:	e8 41 0d 16 03       	call   7d229b0 <pthread_mutex_lock@plt>
 4bc1dba:	e8 01 0c 16 03       	call   7d229c0 <pthread_mutex_unlock@plt>
 4bc8063:	e8 48 a9 15 03       	call   7d229b0 <pthread_mutex_lock@plt>
 4bc8083:	e8 38 a9 15 03       	call   7d229c0 <pthread_mutex_unlock@plt>
 4bc872d:	e8 7e a2 15 03       	call   7d229b0 <pthread_mutex_lock@plt>
 4bc8880:	e8 3b a1 15 03       	call   7d229c0 <pthread_mutex_unlock@plt>
 4bca7c3:	e8 e8 81 15 03       	call   7d229b0 <pthread_mutex_lock@plt>
 4bca7e5:	e8 d6 81 15 03       	call   7d229c0 <pthread_mutex_unlock@plt>
 4bca8d3:	e8 d8 80 15 03       	call   7d229b0 <pthread_mutex_lock@plt>
 4bca936:	e8 85 80 15 03       	call   7d229c0 <pthread_mutex_unlock@plt>
 4bcad31:	e8 8a 7d 15 03       	call   7d22ac0 <pthread_once@plt>
 4bd2a20:	e8 9b ff 14 03       	call   7d229c0 <pthread_mutex_unlock@plt>
 4bd68fa:	e8 c1 c1 14 03       	call   7d22ac0 <pthread_once@plt>
 4bdf55a:	e8 61 35 14 03       	call   7d22ac0 <pthread_once@plt>
 4bdfc3a:	e8 71 2d 14 03       	call   7d229b0 <pthread_mutex_lock@plt>
 4bdfc8a:	e8 31 2d 14 03       	call   7d229c0 <pthread_mutex_unlock@plt>
 4be82be:	e8 ed a6 13 03       	call   7d229b0 <pthread_mutex_lock@plt>
 4bedd65:	e8 56 4d 13 03       	call   7d22ac0 <pthread_once@plt>
 4bef772:	e8 49 33 13 03       	call   7d22ac0 <pthread_once@plt>
 4bf048a:	e8 21 25 13 03       	call   7d229b0 <pthread_mutex_lock@plt>
 4bf04da:	e8 e1 24 13 03       	call   7d229c0 <pthread_mutex_unlock@plt>
 4bf0b13:	e8 98 1e 13 03       	call   7d229b0 <pthread_mutex_lock@plt>
 4bf0b8b:	e8 30 1e 13 03       	call   7d229c0 <pthread_mutex_unlock@plt>
 4bf0c08:	e8 b3 1d 13 03       	call   7d229c0 <pthread_mutex_unlock@plt>
 4bf120b:	e8 a0 17 13 03       	call   7d229b0 <pthread_mutex_lock@plt>
 4bf1262:	e8 59 17 13 03       	call   7d229c0 <pthread_mutex_unlock@plt>
 4bf16ba:	e8 01 13 13 03       	call   7d229c0 <pthread_mutex_unlock@plt>
 4bf1eac:	e8 ff 0a 13 03       	call   7d229b0 <pthread_mutex_lock@plt>
 4bf2658:	e8 63 03 13 03       	call   7d229c0 <pthread_mutex_unlock@plt>
 4bf284d:	e8 6e 01 13 03       	call   7d229c0 <pthread_mutex_unlock@plt>
 4bf28f5:	e8 c6 00 13 03       	call   7d229c0 <pthread_mutex_unlock@plt>
 4bf3495:	e8 16 f5 12 03       	call   7d229b0 <pthread_mutex_lock@plt>
 4bf34c6:	e8 f5 f4 12 03       	call   7d229c0 <pthread_mutex_unlock@plt>
 4bf3649:	e8 62 f3 12 03       	call   7d229b0 <pthread_mutex_lock@plt>
 4bf3662:	e8 59 f3 12 03       	call   7d229c0 <pthread_mutex_unlock@plt>
 4bf369e:	e8 0d f3 12 03       	call   7d229b0 <pthread_mutex_lock@plt>
 4bf371d:	e8 9e f2 12 03       	call   7d229c0 <pthread_mutex_unlock@plt>
 4bf438f:	e8 1c e6 12 03       	call   7d229b0 <pthread_mutex_lock@plt>
 4bf4458:	e8 63 e5 12 03       	call   7d229c0 <pthread_mutex_unlock@plt>
 4bf4a99:	e8 22 e0 12 03       	call   7d22ac0 <pthread_once@plt>
 4bf6c4a:	e8 71 be 12 03       	call   7d22ac0 <pthread_once@plt>
 4bf845e:	e8 4d a5 12 03       	call   7d229b0 <pthread_mutex_lock@plt>
 4bf849e:	e9 1d a5 12 03       	jmp    7d229c0 <pthread_mutex_unlock@plt>
 4bf84fb:	e8 b0 a4 12 03       	call   7d229b0 <pthread_mutex_lock@plt>
 4bf853b:	e9 80 a4 12 03       	jmp    7d229c0 <pthread_mutex_unlock@plt>
 4bf85a8:	e8 03 a4 12 03       	call   7d229b0 <pthread_mutex_lock@plt>
 4bf8847:	e9 74 a1 12 03       	jmp    7d229c0 <pthread_mutex_unlock@plt>
 4bf898d:	e8 1e a0 12 03       	call   7d229b0 <pthread_mutex_lock@plt>
 4bf89bb:	e8 00 a0 12 03       	call   7d229c0 <pthread_mutex_unlock@plt>
 4bf8ae4:	e8 d7 9e 12 03       	call   7d229c0 <pthread_mutex_unlock@plt>
 4bf8af8:	e8 c3 9e 12 03       	call   7d229c0 <pthread_mutex_unlock@plt>
 4bf8cd8:	e8 e3 9c 12 03       	call   7d229c0 <pthread_mutex_unlock@plt>
 4bf8cec:	e8 cf 9c 12 03       	call   7d229c0 <pthread_mutex_unlock@plt>
 4bf9de0:	e8 db 8c 12 03       	call   7d22ac0 <pthread_once@plt>
 4bfd21b:	e8 a0 58 12 03       	call   7d22ac0 <pthread_once@plt>
 4c00e82:	e8 39 1c 12 03       	call   7d22ac0 <pthread_once@plt>
 4c0497f:	e8 3c e1 11 03       	call   7d22ac0 <pthread_once@plt>
 4c0d30e:	e8 ad 57 11 03       	call   7d22ac0 <pthread_once@plt>
 4c0e72a:	e8 91 43 11 03       	call   7d22ac0 <pthread_once@plt>
 4c13292:	e8 29 f8 10 03       	call   7d22ac0 <pthread_once@plt>
 4c136e2:	e8 d9 f3 10 03       	call   7d22ac0 <pthread_once@plt>
 4c1a4c6:	e8 f5 85 10 03       	call   7d22ac0 <pthread_once@plt>
 4c23b3a:	e8 71 ee 0f 03       	call   7d229b0 <pthread_mutex_lock@plt>
 4c23b8a:	e8 31 ee 0f 03       	call   7d229c0 <pthread_mutex_unlock@plt>
 4c276a2:	e8 19 b4 0f 03       	call   7d22ac0 <pthread_once@plt>
 4c2dd4e:	e8 6d 4d 0f 03       	call   7d22ac0 <pthread_once@plt>
 4c307c6:	e8 f5 22 0f 03       	call   7d22ac0 <pthread_once@plt>
 4c33df7:	e8 c4 ec 0e 03       	call   7d22ac0 <pthread_once@plt>
 4c33f3c:	e8 7f eb 0e 03       	call   7d22ac0 <pthread_once@plt>
 4c3417c:	e8 3f e9 0e 03       	call   7d22ac0 <pthread_once@plt>
 4c395ab:	e8 10 95 0e 03       	call   7d22ac0 <pthread_once@plt>
 4c3f1c2:	e8 f9 38 0e 03       	call   7d22ac0 <pthread_once@plt>
 4c448ab:	e8 10 e2 0d 03       	call   7d22ac0 <pthread_once@plt>
 4c4806a:	e8 51 aa 0d 03       	call   7d22ac0 <pthread_once@plt>
 4c50391:	e8 2a 27 0d 03       	call   7d22ac0 <pthread_once@plt>
 4c5e113:	e8 a8 49 0c 03       	call   7d22ac0 <pthread_once@plt>
 4c5e93a:	e8 71 40 0c 03       	call   7d229b0 <pthread_mutex_lock@plt>
 4c5e9da:	e8 e1 3f 0c 03       	call   7d229c0 <pthread_mutex_unlock@plt>
 4c642ff:	e8 bc e7 0b 03       	call   7d22ac0 <pthread_once@plt>
 4c6715b:	e8 60 b9 0b 03       	call   7d22ac0 <pthread_once@plt>
 4c6a209:	e8 b2 88 0b 03       	call   7d22ac0 <pthread_once@plt>
 4c6e402:	e8 b9 46 0b 03       	call   7d22ac0 <pthread_once@plt>
 4c74389:	e8 32 e7 0a 03       	call   7d22ac0 <pthread_once@plt>
 4c75a67:	e8 54 d0 0a 03       	call   7d22ac0 <pthread_once@plt>
 4c771ba:	e8 01 b9 0a 03       	call   7d22ac0 <pthread_once@plt>
 4c7ac9a:	e8 21 7e 0a 03       	call   7d22ac0 <pthread_once@plt>
 4c84950:	e8 6b e1 09 03       	call   7d22ac0 <pthread_once@plt>
 4c897af:	e8 0c 93 09 03       	call   7d22ac0 <pthread_once@plt>
 4c8e4ff:	e8 bc 45 09 03       	call   7d22ac0 <pthread_once@plt>
 4c948ce:	e8 ed e1 08 03       	call   7d22ac0 <pthread_once@plt>
 4c977ca:	e8 f1 b2 08 03       	call   7d22ac0 <pthread_once@plt>
 4c9aa35:	e8 86 80 08 03       	call   7d22ac0 <pthread_once@plt>
 4c9ccd4:	e8 e7 5d 08 03       	call   7d22ac0 <pthread_once@plt>
 4c9d3bb:	e8 f0 55 08 03       	call   7d229b0 <pthread_mutex_lock@plt>
 4c9d3f1:	e8 ca 55 08 03       	call   7d229c0 <pthread_mutex_unlock@plt>
 4c9d5ba:	e8 01 54 08 03       	call   7d229c0 <pthread_mutex_unlock@plt>
 4c9d77a:	e8 41 52 08 03       	call   7d229c0 <pthread_mutex_unlock@plt>
 4c9d79d:	e8 1e 52 08 03       	call   7d229c0 <pthread_mutex_unlock@plt>
 4c9eaa7:	e8 04 3f 08 03       	call   7d229b0 <pthread_mutex_lock@plt>
 4c9eccd:	e8 ee 3c 08 03       	call   7d229c0 <pthread_mutex_unlock@plt>
 4c9eff7:	e8 b4 39 08 03       	call   7d229b0 <pthread_mutex_lock@plt>
 4c9f32c:	e8 8f 36 08 03       	call   7d229c0 <pthread_mutex_unlock@plt>
 4ca0074:	e8 47 29 08 03       	call   7d229c0 <pthread_mutex_unlock@plt>
 4ca00bc:	e8 ff 28 08 03       	call   7d229c0 <pthread_mutex_unlock@plt>
 4ca0a8a:	e8 31 20 08 03       	call   7d22ac0 <pthread_once@plt>
 4ca2fff:	e8 bc fa 07 03       	call   7d22ac0 <pthread_once@plt>
 4ca384a:	e8 61 f1 07 03       	call   7d229b0 <pthread_mutex_lock@plt>
 4ca389a:	e8 21 f1 07 03       	call   7d229c0 <pthread_mutex_unlock@plt>
 4ca7f81:	e8 3a ab 07 03       	call   7d22ac0 <pthread_once@plt>
 4cb568a:	e8 21 d3 06 03       	call   7d229b0 <pthread_mutex_lock@plt>
 4cb56da:	e8 e1 d2 06 03       	call   7d229c0 <pthread_mutex_unlock@plt>
 4cb7be9:	e8 d2 ae 06 03       	call   7d22ac0 <pthread_once@plt>
 4cb7eca:	e8 e1 aa 06 03       	call   7d229b0 <pthread_mutex_lock@plt>
 4cb7f1a:	e8 a1 aa 06 03       	call   7d229c0 <pthread_mutex_unlock@plt>
 4cba74e:	e8 5d 82 06 03       	call   7d229b0 <pthread_mutex_lock@plt>
 4cba7ff:	e8 ac 81 06 03       	call   7d229b0 <pthread_mutex_lock@plt>
 4cba81b:	e8 a0 81 06 03       	call   7d229c0 <pthread_mutex_unlock@plt>
 4cba831:	e9 8a 81 06 03       	jmp    7d229c0 <pthread_mutex_unlock@plt>
 4cba84a:	e8 61 81 06 03       	call   7d229b0 <pthread_mutex_lock@plt>
 4cba8be:	e8 fd 80 06 03       	call   7d229c0 <pthread_mutex_unlock@plt>
 4cbafe6:	e8 c5 79 06 03       	call   7d229b0 <pthread_mutex_lock@plt>
 4cbb2e6:	e8 c5 76 06 03       	call   7d229b0 <pthread_mutex_lock@plt>
 4cbb3a2:	e8 09 76 06 03       	call   7d229b0 <pthread_mutex_lock@plt>
 4cbb3be:	e8 fd 75 06 03       	call   7d229c0 <pthread_mutex_unlock@plt>
 4cbb3c6:	e8 f5 75 06 03       	call   7d229c0 <pthread_mutex_unlock@plt>
 4cbb570:	e8 4b 74 06 03       	call   7d229c0 <pthread_mutex_unlock@plt>
 4cbb58a:	e8 21 74 06 03       	call   7d229b0 <pthread_mutex_lock@plt>
 4cbb5fc:	e8 bf 73 06 03       	call   7d229c0 <pthread_mutex_unlock@plt>
 4cbd83a:	e8 81 52 06 03       	call   7d22ac0 <pthread_once@plt>
 4cc087c:	e8 3f 22 06 03       	call   7d22ac0 <pthread_once@plt>
 4cc4e49:	e8 72 dc 05 03       	call   7d22ac0 <pthread_once@plt>
 4cc552a:	e8 81 d4 05 03       	call   7d229b0 <pthread_mutex_lock@plt>
 4cc557a:	e8 41 d4 05 03       	call   7d229c0 <pthread_mutex_unlock@plt>
 4cd077a:	e8 31 22 05 03       	call   7d229b0 <pthread_mutex_lock@plt>
 4cd07ca:	e8 f1 21 05 03       	call   7d229c0 <pthread_mutex_unlock@plt>
 4cd12cc:	e8 df 16 05 03       	call   7d229b0 <pthread_mutex_lock@plt>
 4cd1477:	e8 44 15 05 03       	call   7d229c0 <pthread_mutex_unlock@plt>
 4cd2b2a:	e8 91 ff 04 03       	call   7d22ac0 <pthread_once@plt>
 4cd726a:	e8 51 b8 04 03       	call   7d22ac0 <pthread_once@plt>
 4cdcee5:	e8 d6 5b 04 03       	call   7d22ac0 <pthread_once@plt>
 4cdde2a:	e8 91 4c 04 03       	call   7d22ac0 <pthread_once@plt>
 4ce5722:	e8 99 d3 03 03       	call   7d22ac0 <pthread_once@plt>
 4ce9c3b:	e8 80 8e 03 03       	call   7d22ac0 <pthread_once@plt>
 4cef22a:	e8 91 38 03 03       	call   7d22ac0 <pthread_once@plt>
 4cf497a:	e8 41 e1 02 03       	call   7d22ac0 <pthread_once@plt>
 4cf87ef:	e8 cc a2 02 03       	call   7d22ac0 <pthread_once@plt>
 4d048f3:	e8 c8 e1 01 03       	call   7d22ac0 <pthread_once@plt>
 4d05c0a:	e8 a1 cd 01 03       	call   7d229b0 <pthread_mutex_lock@plt>
 4d05c5a:	e8 61 cd 01 03       	call   7d229c0 <pthread_mutex_unlock@plt>
 4d0f36c:	e8 4f 37 01 03       	call   7d22ac0 <pthread_once@plt>
 4d18f38:	e8 83 9b 00 03       	call   7d22ac0 <pthread_once@plt>
 4d1c33a:	e8 81 67 00 03       	call   7d22ac0 <pthread_once@plt>
 4d1eb22:	e8 99 3f 00 03       	call   7d22ac0 <pthread_once@plt>
 4d239d2:	e8 e9 f0 ff 02       	call   7d22ac0 <pthread_once@plt>
 4d2722b:	e8 90 b8 ff 02       	call   7d22ac0 <pthread_once@plt>
 4d2e0c2:	e8 f9 49 ff 02       	call   7d22ac0 <pthread_once@plt>
 4d30ecf:	e8 ec 1b ff 02       	call   7d22ac0 <pthread_once@plt>
 4d35d5f:	e8 5c cd fe 02       	call   7d22ac0 <pthread_once@plt>
 4d39111:	e8 aa 99 fe 02       	call   7d22ac0 <pthread_once@plt>
 4d3bb8a:	e8 31 6f fe 02       	call   7d22ac0 <pthread_once@plt>
 4d3c302:	e8 a9 66 fe 02       	call   7d229b0 <pthread_mutex_lock@plt>
 4d3c316:	e8 a5 66 fe 02       	call   7d229c0 <pthread_mutex_unlock@plt>
 4d3c7b5:	e8 f6 61 fe 02       	call   7d229b0 <pthread_mutex_lock@plt>
 4d3c7dc:	e8 df 61 fe 02       	call   7d229c0 <pthread_mutex_unlock@plt>
 4d3ca4e:	e8 5d 5f fe 02       	call   7d229b0 <pthread_mutex_lock@plt>
 4d3ca8d:	e9 2e 5f fe 02       	jmp    7d229c0 <pthread_mutex_unlock@plt>
 4d3cb6e:	e8 3d 5e fe 02       	call   7d229b0 <pthread_mutex_lock@plt>
 4d3cb85:	e8 36 5e fe 02       	call   7d229c0 <pthread_mutex_unlock@plt>
 4d3cb9d:	e8 0e 5e fe 02       	call   7d229b0 <pthread_mutex_lock@plt>
 4d3cc07:	e8 b4 5d fe 02       	call   7d229c0 <pthread_mutex_unlock@plt>
 4d3cc21:	e8 9a 5d fe 02       	call   7d229c0 <pthread_mutex_unlock@plt>
 4d3cc8b:	e8 30 5d fe 02       	call   7d229c0 <pthread_mutex_unlock@plt>
 4d3cc9a:	e8 11 5d fe 02       	call   7d229b0 <pthread_mutex_lock@plt>
 4d3ccae:	e8 0d 5d fe 02       	call   7d229c0 <pthread_mutex_unlock@plt>
 4d3ce41:	e8 6a 5b fe 02       	call   7d229b0 <pthread_mutex_lock@plt>
 4d3d19a:	e8 11 58 fe 02       	call   7d229b0 <pthread_mutex_lock@plt>
 4d3d1b1:	e8 0a 58 fe 02       	call   7d229c0 <pthread_mutex_unlock@plt>
 4d3d22b:	e8 80 57 fe 02       	call   7d229b0 <pthread_mutex_lock@plt>
 4d3d242:	e8 79 57 fe 02       	call   7d229c0 <pthread_mutex_unlock@plt>
 4d3d6af:	e8 fc 52 fe 02       	call   7d229b0 <pthread_mutex_lock@plt>
 4d3d6c6:	e8 f5 52 fe 02       	call   7d229c0 <pthread_mutex_unlock@plt>
 4d3d6de:	e8 cd 52 fe 02       	call   7d229b0 <pthread_mutex_lock@plt>
 4d3d711:	e8 aa 52 fe 02       	call   7d229c0 <pthread_mutex_unlock@plt>
 4d3d7b5:	e8 06 53 fe 02       	call   7d22ac0 <pthread_once@plt>
 4d3d9b4:	e8 f7 4f fe 02       	call   7d229b0 <pthread_mutex_lock@plt>
 4d3dad3:	e8 d8 4e fe 02       	call   7d229b0 <pthread_mutex_lock@plt>
 4d3daea:	e8 d1 4e fe 02       	call   7d229c0 <pthread_mutex_unlock@plt>
 4d3dcc6:	e8 e5 4c fe 02       	call   7d229b0 <pthread_mutex_lock@plt>
 4d3dcdd:	e8 de 4c fe 02       	call   7d229c0 <pthread_mutex_unlock@plt>
 4d3df54:	e8 67 4a fe 02       	call   7d229c0 <pthread_mutex_unlock@plt>
 4d3e0b9:	e8 f2 48 fe 02       	call   7d229b0 <pthread_mutex_lock@plt>
 4d3e145:	e8 66 48 fe 02       	call   7d229b0 <pthread_mutex_lock@plt>
 4d3e17f:	e8 3c 48 fe 02       	call   7d229c0 <pthread_mutex_unlock@plt>
 4d3e1f2:	e8 b9 47 fe 02       	call   7d229b0 <pthread_mutex_lock@plt>
 4d3e282:	e8 29 47 fe 02       	call   7d229b0 <pthread_mutex_lock@plt>
 4d3e2ba:	e8 01 47 fe 02       	call   7d229c0 <pthread_mutex_unlock@plt>
 4d3e602:	e8 a9 43 fe 02       	call   7d229b0 <pthread_mutex_lock@plt>
 4d3e619:	e8 a2 43 fe 02       	call   7d229c0 <pthread_mutex_unlock@plt>
 4d3e729:	e8 82 42 fe 02       	call   7d229b0 <pthread_mutex_lock@plt>
 4d3e740:	e8 7b 42 fe 02       	call   7d229c0 <pthread_mutex_unlock@plt>
 4d3e754:	e8 67 42 fe 02       	call   7d229c0 <pthread_mutex_unlock@plt>
 4d3e9b1:	e8 fa 3f fe 02       	call   7d229b0 <pthread_mutex_lock@plt>
 4d3e9cc:	e8 df 3f fe 02       	call   7d229b0 <pthread_mutex_lock@plt>
 4d3ebd0:	e8 eb 3d fe 02       	call   7d229c0 <pthread_mutex_unlock@plt>
 4d3ec1c:	e8 2f 41 fe 02       	call   7d22d50 <pthread_cond_clockwait@plt>
 4d3ec29:	e8 92 3d fe 02       	call   7d229c0 <pthread_mutex_unlock@plt>
 4d3ec45:	e8 66 3d fe 02       	call   7d229b0 <pthread_mutex_lock@plt>
 4d3ed6a:	e8 41 3c fe 02       	call   7d229b0 <pthread_mutex_lock@plt>
 4d3edf9:	e8 52 3f fe 02       	call   7d22d50 <pthread_cond_clockwait@plt>
 4d3ee06:	e8 b5 3b fe 02       	call   7d229c0 <pthread_mutex_unlock@plt>
 4d3ee90:	e8 1b 3b fe 02       	call   7d229b0 <pthread_mutex_lock@plt>
 4d3ef22:	e8 99 3a fe 02       	call   7d229c0 <pthread_mutex_unlock@plt>
 4d3f274:	e8 97 3b fe 02       	call   7d22e10 <pthread_mutex_destroy@plt>
 4d40584:	e8 37 24 fe 02       	call   7d229c0 <pthread_mutex_unlock@plt>
 4d406c2:	e8 e9 22 fe 02       	call   7d229b0 <pthread_mutex_lock@plt>
 4d40701:	e9 ba 22 fe 02       	jmp    7d229c0 <pthread_mutex_unlock@plt>
 4d407ee:	e8 bd 21 fe 02       	call   7d229b0 <pthread_mutex_lock@plt>
 4d40805:	e8 b6 21 fe 02       	call   7d229c0 <pthread_mutex_unlock@plt>
 4d4081d:	e8 8e 21 fe 02       	call   7d229b0 <pthread_mutex_lock@plt>
 4d40887:	e8 34 21 fe 02       	call   7d229c0 <pthread_mutex_unlock@plt>
 4d408a1:	e8 1a 21 fe 02       	call   7d229c0 <pthread_mutex_unlock@plt>
 4d4090b:	e8 b0 20 fe 02       	call   7d229c0 <pthread_mutex_unlock@plt>
 4d4091a:	e8 91 20 fe 02       	call   7d229b0 <pthread_mutex_lock@plt>
 4d4092e:	e8 8d 20 fe 02       	call   7d229c0 <pthread_mutex_unlock@plt>
 4d40d5b:	e8 60 1d fe 02       	call   7d22ac0 <pthread_once@plt>
 4d412ca:	e8 51 17 fe 02       	call   7d22a20 <pthread_mutex_init@plt>
 4d45952:	e8 69 d1 fd 02       	call   7d22ac0 <pthread_once@plt>
 4d4897f:	e8 3c a1 fd 02       	call   7d22ac0 <pthread_once@plt>
 4d4a086:	e8 35 8a fd 02       	call   7d22ac0 <pthread_once@plt>
 4d51af4:	e8 c7 0f fd 02       	call   7d22ac0 <pthread_once@plt>
 4d596d3:	e8 d8 92 fc 02       	call   7d229b0 <pthread_mutex_lock@plt>
 4d5972e:	e8 8d 92 fc 02       	call   7d229c0 <pthread_mutex_unlock@plt>
 4d5eed8:	e8 e3 3a fc 02       	call   7d229c0 <pthread_mutex_unlock@plt>
 4d60f93:	e8 18 1a fc 02       	call   7d229b0 <pthread_mutex_lock@plt>
 4d60fe4:	e8 d7 19 fc 02       	call   7d229c0 <pthread_mutex_unlock@plt>
 4d610d6:	e8 e5 18 fc 02       	call   7d229c0 <pthread_mutex_unlock@plt>
 4d61c70:	e8 4b 0e fc 02       	call   7d22ac0 <pthread_once@plt>
 4d66bf7:	e8 c4 be fb 02       	call   7d22ac0 <pthread_once@plt>
 4d66fca:	e8 e1 b9 fb 02       	call   7d229b0 <pthread_mutex_lock@plt>
 4d6701a:	e8 a1 b9 fb 02       	call   7d229c0 <pthread_mutex_unlock@plt>
 4d698dd:	e8 de 91 fb 02       	call   7d22ac0 <pthread_once@plt>
 4d6c112:	e8 a9 69 fb 02       	call   7d22ac0 <pthread_once@plt>
 4d6d12a:	e8 91 59 fb 02       	call   7d22ac0 <pthread_once@plt>
 4d6d70a:	e8 a1 52 fb 02       	call   7d229b0 <pthread_mutex_lock@plt>
 4d6d93a:	e8 81 50 fb 02       	call   7d229c0 <pthread_mutex_unlock@plt>
 4d6df78:	e8 33 4a fb 02       	call   7d229b0 <pthread_mutex_lock@plt>
 4d6e0a0:	e9 1b 49 fb 02       	jmp    7d229c0 <pthread_mutex_unlock@plt>
 4d6e26d:	e8 3e 47 fb 02       	call   7d229b0 <pthread_mutex_lock@plt>
 4d6e402:	e9 b9 45 fb 02       	jmp    7d229c0 <pthread_mutex_unlock@plt>
 4d6f19f:	e8 0c 38 fb 02       	call   7d229b0 <pthread_mutex_lock@plt>
 4d6f367:	e8 44 36 fb 02       	call   7d229b0 <pthread_mutex_lock@plt>
 4d6f521:	e8 9a 34 fb 02       	call   7d229c0 <pthread_mutex_unlock@plt>
 4d6f658:	e9 63 33 fb 02       	jmp    7d229c0 <pthread_mutex_unlock@plt>
 4d6f7e3:	e8 c8 31 fb 02       	call   7d229b0 <pthread_mutex_lock@plt>
 4d6faec:	e8 bf 2e fb 02       	call   7d229b0 <pthread_mutex_lock@plt>
 4d6fb6a:	e8 51 2e fb 02       	call   7d229c0 <pthread_mutex_unlock@plt>
 4d6fbac:	e8 0f 2e fb 02       	call   7d229c0 <pthread_mutex_unlock@plt>
 4d702eb:	e8 c0 26 fb 02       	call   7d229b0 <pthread_mutex_lock@plt>
 4d70450:	e8 6b 25 fb 02       	call   7d229c0 <pthread_mutex_unlock@plt>
 4d70657:	e8 54 23 fb 02       	call   7d229b0 <pthread_mutex_lock@plt>
 4d708a7:	e8 04 21 fb 02       	call   7d229b0 <pthread_mutex_lock@plt>
 4d709bf:	e9 fc 1f fb 02       	jmp    7d229c0 <pthread_mutex_unlock@plt>
 4d70e6d:	e8 3e 1b fb 02       	call   7d229b0 <pthread_mutex_lock@plt>
 4d7100b:	e9 b0 19 fb 02       	jmp    7d229c0 <pthread_mutex_unlock@plt>
 4d7114c:	e8 5f 18 fb 02       	call   7d229b0 <pthread_mutex_lock@plt>
 4d71338:	e8 83 16 fb 02       	call   7d229c0 <pthread_mutex_unlock@plt>
 4d713ca:	e8 e1 15 fb 02       	call   7d229b0 <pthread_mutex_lock@plt>
 4d71cff:	e8 ac 0c fb 02       	call   7d229b0 <pthread_mutex_lock@plt>
 4d75233:	e8 78 d7 fa 02       	call   7d229b0 <pthread_mutex_lock@plt>
 4d75e21:	e8 9a cb fa 02       	call   7d229c0 <pthread_mutex_unlock@plt>
 4d76193:	e8 28 c8 fa 02       	call   7d229c0 <pthread_mutex_unlock@plt>
 4d76635:	e8 86 c3 fa 02       	call   7d229c0 <pthread_mutex_unlock@plt>
 4d766ba:	e8 01 c3 fa 02       	call   7d229c0 <pthread_mutex_unlock@plt>
 4d76755:	e8 56 c2 fa 02       	call   7d229b0 <pthread_mutex_lock@plt>
 4d7677f:	e9 3c c2 fa 02       	jmp    7d229c0 <pthread_mutex_unlock@plt>
 4d76788:	e8 33 c2 fa 02       	call   7d229c0 <pthread_mutex_unlock@plt>
 4d767d1:	e8 da c1 fa 02       	call   7d229b0 <pthread_mutex_lock@plt>
 4d768ea:	e9 d1 c0 fa 02       	jmp    7d229c0 <pthread_mutex_unlock@plt>
 4d77627:	e8 84 b3 fa 02       	call   7d229b0 <pthread_mutex_lock@plt>
 4d77893:	e8 28 b1 fa 02       	call   7d229c0 <pthread_mutex_unlock@plt>
 4d77b27:	e8 94 ae fa 02       	call   7d229c0 <pthread_mutex_unlock@plt>
 4d78298:	e8 23 a7 fa 02       	call   7d229c0 <pthread_mutex_unlock@plt>
 4d78396:	e8 25 a6 fa 02       	call   7d229c0 <pthread_mutex_unlock@plt>
 4d78616:	e9 a5 a3 fa 02       	jmp    7d229c0 <pthread_mutex_unlock@plt>
 4d78645:	e8 76 a3 fa 02       	call   7d229c0 <pthread_mutex_unlock@plt>
 4d786f2:	e8 c9 a2 fa 02       	call   7d229c0 <pthread_mutex_unlock@plt>
 4d7972f:	e8 8c 92 fa 02       	call   7d229c0 <pthread_mutex_unlock@plt>
 4d799a8:	e8 13 90 fa 02       	call   7d229c0 <pthread_mutex_unlock@plt>
 4d79ac3:	e8 f8 8e fa 02       	call   7d229c0 <pthread_mutex_unlock@plt>
 4d7bde0:	e8 db 6c fa 02       	call   7d22ac0 <pthread_once@plt>
 4d806a4:	e8 07 23 fa 02       	call   7d229b0 <pthread_mutex_lock@plt>
 4d806fe:	e9 bd 22 fa 02       	jmp    7d229c0 <pthread_mutex_unlock@plt>
 4d80b75:	e8 36 1e fa 02       	call   7d229b0 <pthread_mutex_lock@plt>
 4d80bbc:	e8 ff 1d fa 02       	call   7d229c0 <pthread_mutex_unlock@plt>
 4d82150:	e8 5b 08 fa 02       	call   7d229b0 <pthread_mutex_lock@plt>
 4d82240:	e8 7b 07 fa 02       	call   7d229c0 <pthread_mutex_unlock@plt>
 4d82cae:	e8 0d fe f9 02       	call   7d22ac0 <pthread_once@plt>
 4d8467a:	e8 41 e4 f9 02       	call   7d22ac0 <pthread_once@plt>
 4d8540a:	e8 a1 d5 f9 02       	call   7d229b0 <pthread_mutex_lock@plt>
 4d8554a:	e8 71 d4 f9 02       	call   7d229c0 <pthread_mutex_unlock@plt>
 4daafe5:	e8 d6 7a f7 02       	call   7d22ac0 <pthread_once@plt>
 4dad347:	e8 64 56 f7 02       	call   7d229b0 <pthread_mutex_lock@plt>
 4dad36f:	e8 4c 56 f7 02       	call   7d229c0 <pthread_mutex_unlock@plt>
 4db36bc:	e8 ef f2 f6 02       	call   7d229b0 <pthread_mutex_lock@plt>
 4db3760:	e8 5b f2 f6 02       	call   7d229c0 <pthread_mutex_unlock@plt>
 4db3c41:	e8 7a ed f6 02       	call   7d229c0 <pthread_mutex_unlock@plt>
 4db3e87:	e8 24 eb f6 02       	call   7d229b0 <pthread_mutex_lock@plt>
 4db3f25:	e8 96 ea f6 02       	call   7d229c0 <pthread_mutex_unlock@plt>
 4db418f:	e8 1c e8 f6 02       	call   7d229b0 <pthread_mutex_lock@plt>
 4db422e:	e8 8d e7 f6 02       	call   7d229c0 <pthread_mutex_unlock@plt>
 4db4499:	e8 12 e5 f6 02       	call   7d229b0 <pthread_mutex_lock@plt>
 4db4537:	e8 84 e4 f6 02       	call   7d229c0 <pthread_mutex_unlock@plt>
 4db47a9:	e8 02 e2 f6 02       	call   7d229b0 <pthread_mutex_lock@plt>
 4db4847:	e8 74 e1 f6 02       	call   7d229c0 <pthread_mutex_unlock@plt>
 4db4ba1:	e8 1a de f6 02       	call   7d229c0 <pthread_mutex_unlock@plt>
 4db5fad:	e8 fe c9 f6 02       	call   7d229b0 <pthread_mutex_lock@plt>
 4db5fd4:	e8 e7 c9 f6 02       	call   7d229c0 <pthread_mutex_unlock@plt>
 4db607d:	e8 2e c9 f6 02       	call   7d229b0 <pthread_mutex_lock@plt>
 4db60a4:	e8 17 c9 f6 02       	call   7d229c0 <pthread_mutex_unlock@plt>
 4db614d:	e8 5e c8 f6 02       	call   7d229b0 <pthread_mutex_lock@plt>
 4db6174:	e8 47 c8 f6 02       	call   7d229c0 <pthread_mutex_unlock@plt>
 4db621d:	e8 8e c7 f6 02       	call   7d229b0 <pthread_mutex_lock@plt>
 4db6244:	e8 77 c7 f6 02       	call   7d229c0 <pthread_mutex_unlock@plt>
 4db649d:	e8 0e c5 f6 02       	call   7d229b0 <pthread_mutex_lock@plt>
 4db64c4:	e8 f7 c4 f6 02       	call   7d229c0 <pthread_mutex_unlock@plt>
 4db720f:	e8 9c b7 f6 02       	call   7d229b0 <pthread_mutex_lock@plt>
 4db7824:	e8 87 b1 f6 02       	call   7d229b0 <pthread_mutex_lock@plt>
 4db7865:	e8 56 b1 f6 02       	call   7d229c0 <pthread_mutex_unlock@plt>
 4db7acf:	e9 ec ae f6 02       	jmp    7d229c0 <pthread_mutex_unlock@plt>
 4db8d70:	e8 4b 9c f6 02       	call   7d229c0 <pthread_mutex_unlock@plt>
 4db8e66:	e8 55 9b f6 02       	call   7d229c0 <pthread_mutex_unlock@plt>
 4db8f0e:	e8 ad 9a f6 02       	call   7d229c0 <pthread_mutex_unlock@plt>
 4db8f6d:	e8 4e 9a f6 02       	call   7d229c0 <pthread_mutex_unlock@plt>
 4db9005:	e8 b6 99 f6 02       	call   7d229c0 <pthread_mutex_unlock@plt>
 4db90af:	e8 0c 99 f6 02       	call   7d229c0 <pthread_mutex_unlock@plt>
 4db914f:	e8 6c 98 f6 02       	call   7d229c0 <pthread_mutex_unlock@plt>
 4db9206:	e8 b5 97 f6 02       	call   7d229c0 <pthread_mutex_unlock@plt>
 4dba5b7:	e8 04 84 f6 02       	call   7d229c0 <pthread_mutex_unlock@plt>
 4dba621:	e8 9a 83 f6 02       	call   7d229c0 <pthread_mutex_unlock@plt>
 4dbc52d:	e8 8e 65 f6 02       	call   7d22ac0 <pthread_once@plt>
 4dbda92:	e8 29 50 f6 02       	call   7d22ac0 <pthread_once@plt>
 4dbe33a:	e8 71 46 f6 02       	call   7d229b0 <pthread_mutex_lock@plt>
 4dbe3c9:	e8 f2 46 f6 02       	call   7d22ac0 <pthread_once@plt>
 4dbe46d:	e8 3e 45 f6 02       	call   7d229b0 <pthread_mutex_lock@plt>
 4dbe489:	e8 32 45 f6 02       	call   7d229c0 <pthread_mutex_unlock@plt>
 4dbe4be:	e8 ed 44 f6 02       	call   7d229b0 <pthread_mutex_lock@plt>
 4dbe539:	e8 82 44 f6 02       	call   7d229c0 <pthread_mutex_unlock@plt>
 4dbe57a:	e8 41 44 f6 02       	call   7d229c0 <pthread_mutex_unlock@plt>
 4dbe5c1:	e8 ea 43 f6 02       	call   7d229b0 <pthread_mutex_lock@plt>
 4dbe5f5:	e8 b6 43 f6 02       	call   7d229b0 <pthread_mutex_lock@plt>
 4dbe655:	e8 66 43 f6 02       	call   7d229c0 <pthread_mutex_unlock@plt>
 4dbe663:	e8 58 43 f6 02       	call   7d229c0 <pthread_mutex_unlock@plt>
 4dbe672:	e8 39 43 f6 02       	call   7d229b0 <pthread_mutex_lock@plt>
 4dbe68a:	e8 31 43 f6 02       	call   7d229c0 <pthread_mutex_unlock@plt>
 4dbe6a0:	e9 1b 43 f6 02       	jmp    7d229c0 <pthread_mutex_unlock@plt>
 4dc3fee:	e8 bd e9 f5 02       	call   7d229b0 <pthread_mutex_lock@plt>
 4dc4020:	e8 8b e9 f5 02       	call   7d229b0 <pthread_mutex_lock@plt>
 4dc4083:	e8 38 e9 f5 02       	call   7d229c0 <pthread_mutex_unlock@plt>
 4dc4093:	e8 28 e9 f5 02       	call   7d229c0 <pthread_mutex_unlock@plt>
 4dc40a3:	e8 08 e9 f5 02       	call   7d229b0 <pthread_mutex_lock@plt>
 4dc40c0:	e8 fb e8 f5 02       	call   7d229c0 <pthread_mutex_unlock@plt>
 4dc40e9:	e9 d2 e8 f5 02       	jmp    7d229c0 <pthread_mutex_unlock@plt>
 4dc428a:	e8 31 e8 f5 02       	call   7d22ac0 <pthread_once@plt>
 4dc4988:	e8 23 e0 f5 02       	call   7d229b0 <pthread_mutex_lock@plt>
 4dc49b6:	e8 f5 df f5 02       	call   7d229b0 <pthread_mutex_lock@plt>
 4dc49df:	e8 dc df f5 02       	call   7d229c0 <pthread_mutex_unlock@plt>
 4dc49ef:	e8 bc df f5 02       	call   7d229b0 <pthread_mutex_lock@plt>
 4dc4e69:	e8 42 db f5 02       	call   7d229b0 <pthread_mutex_lock@plt>
 4dc4f26:	e8 95 da f5 02       	call   7d229c0 <pthread_mutex_unlock@plt>
 4dc65c0:	e8 eb c3 f5 02       	call   7d229b0 <pthread_mutex_lock@plt>
 4dc735e:	e8 4d b6 f5 02       	call   7d229b0 <pthread_mutex_lock@plt>
 4dcc6df:	e8 dc 63 f5 02       	call   7d22ac0 <pthread_once@plt>
 4dd0beb:	e8 d0 1e f5 02       	call   7d22ac0 <pthread_once@plt>
 4dd506b:	e8 50 da f4 02       	call   7d22ac0 <pthread_once@plt>
 4dd627a:	e8 41 c8 f4 02       	call   7d22ac0 <pthread_once@plt>
 4dd730a:	e8 b1 b7 f4 02       	call   7d22ac0 <pthread_once@plt>
 4ddb70a:	e8 b1 73 f4 02       	call   7d22ac0 <pthread_once@plt>
 4de139a:	e8 21 17 f4 02       	call   7d22ac0 <pthread_once@plt>
 4de304a:	e8 71 fa f3 02       	call   7d22ac0 <pthread_once@plt>
 4de6cca:	e8 f1 bd f3 02       	call   7d22ac0 <pthread_once@plt>
 4de729a:	e8 11 b7 f3 02       	call   7d229b0 <pthread_mutex_lock@plt>
 4de72ea:	e8 d1 b6 f3 02       	call   7d229c0 <pthread_mutex_unlock@plt>
 4deaaa8:	e8 13 7f f3 02       	call   7d229c0 <pthread_mutex_unlock@plt>
 4deb5e5:	e8 c6 73 f3 02       	call   7d229b0 <pthread_mutex_lock@plt>
 4deb9bd:	e8 fe 6f f3 02       	call   7d229c0 <pthread_mutex_unlock@plt>
 4ded2e6:	e8 d5 56 f3 02       	call   7d229c0 <pthread_mutex_unlock@plt>
 4dee74d:	e8 6e 43 f3 02       	call   7d22ac0 <pthread_once@plt>
 4dfac79:	e8 42 7e f2 02       	call   7d22ac0 <pthread_once@plt>
 4e01e22:	e8 99 0c f2 02       	call   7d22ac0 <pthread_once@plt>
 4e02ccc:	e8 ef fd f1 02       	call   7d22ac0 <pthread_once@plt>
 4e03f1d:	e8 9e eb f1 02       	call   7d22ac0 <pthread_once@plt>
 4e0c002:	e8 b9 6a f1 02       	call   7d22ac0 <pthread_once@plt>
 4e0c088:	e8 33 6a f1 02       	call   7d22ac0 <pthread_once@plt>
 4e0c10e:	e8 ad 69 f1 02       	call   7d22ac0 <pthread_once@plt>
 4e0f621:	e8 9a 34 f1 02       	call   7d22ac0 <pthread_once@plt>
 4e10c99:	e8 22 1e f1 02       	call   7d22ac0 <pthread_once@plt>
 4e12aea:	e8 d1 ff f0 02       	call   7d22ac0 <pthread_once@plt>
 4e1576a:	e8 51 d3 f0 02       	call   7d22ac0 <pthread_once@plt>
 4e1736f:	e8 4c b7 f0 02       	call   7d22ac0 <pthread_once@plt>
 4e18589:	e8 32 a5 f0 02       	call   7d22ac0 <pthread_once@plt>
 4e1a7da:	e8 e1 82 f0 02       	call   7d22ac0 <pthread_once@plt>
 4e21284:	e8 37 18 f0 02       	call   7d22ac0 <pthread_once@plt>
 4e4f547:	e8 74 35 ed 02       	call   7d22ac0 <pthread_once@plt>
 4e53e3a:	e8 41 f3 ec 02       	call   7d23180 <pthread_sigmask@plt>
 4e5404c:	e8 2f f1 ec 02       	call   7d23180 <pthread_sigmask@plt>
 4e59825:	e8 96 92 ec 02       	call   7d22ac0 <pthread_once@plt>
 4e5c90a:	e8 b1 61 ec 02       	call   7d22ac0 <pthread_once@plt>
 4e5f178:	e8 43 39 ec 02       	call   7d22ac0 <pthread_once@plt>
 4e60600:	e8 bb 24 ec 02       	call   7d22ac0 <pthread_once@plt>
 4e62d25:	e8 96 fd eb 02       	call   7d22ac0 <pthread_once@plt>
 4e68dc2:	e8 f9 9c eb 02       	call   7d22ac0 <pthread_once@plt>
 4e6f26c:	e8 4f 38 eb 02       	call   7d22ac0 <pthread_once@plt>
 4e70830:	e8 8b 22 eb 02       	call   7d22ac0 <pthread_once@plt>
 4e71acf:	e8 ec 0f eb 02       	call   7d22ac0 <pthread_once@plt>
 4e73a71:	e8 4a f0 ea 02       	call   7d22ac0 <pthread_once@plt>
 4e7c1ba:	e8 01 69 ea 02       	call   7d22ac0 <pthread_once@plt>
 4e8babb:	e8 00 70 e9 02       	call   7d22ac0 <pthread_once@plt>
 4e8c84a:	e8 71 62 e9 02       	call   7d22ac0 <pthread_once@plt>
 4e8c90f:	e8 ac 61 e9 02       	call   7d22ac0 <pthread_once@plt>
 4e8c9cd:	e8 ee 60 e9 02       	call   7d22ac0 <pthread_once@plt>
 4e94f88:	e8 33 db e8 02       	call   7d22ac0 <pthread_once@plt>
 4e9872a:	e8 91 a3 e8 02       	call   7d22ac0 <pthread_once@plt>
 4e9c34a:	e8 71 67 e8 02       	call   7d22ac0 <pthread_once@plt>
 4e9d33b:	e8 80 57 e8 02       	call   7d22ac0 <pthread_once@plt>
 4e9e461:	e8 5a 46 e8 02       	call   7d22ac0 <pthread_once@plt>
 4e9f336:	e8 85 37 e8 02       	call   7d22ac0 <pthread_once@plt>
 4ea03aa:	e8 11 27 e8 02       	call   7d22ac0 <pthread_once@plt>
 4ea1079:	e8 42 1a e8 02       	call   7d22ac0 <pthread_once@plt>
 4ea58e5:	e8 d6 d1 e7 02       	call   7d22ac0 <pthread_once@plt>
 4eaabba:	e8 01 7f e7 02       	call   7d22ac0 <pthread_once@plt>
 4eac539:	e8 82 65 e7 02       	call   7d22ac0 <pthread_once@plt>
 4ead25a:	e8 51 57 e7 02       	call   7d229b0 <pthread_mutex_lock@plt>
 4ead2aa:	e8 11 57 e7 02       	call   7d229c0 <pthread_mutex_unlock@plt>
 4eb5b49:	e8 72 cf e6 02       	call   7d22ac0 <pthread_once@plt>
 4eba8ba:	e8 01 82 e6 02       	call   7d22ac0 <pthread_once@plt>
 4ec0997:	e8 24 21 e6 02       	call   7d22ac0 <pthread_once@plt>
 4ec6dd2:	e8 e9 bc e5 02       	call   7d22ac0 <pthread_once@plt>
 4ec814c:	e8 6f a9 e5 02       	call   7d22ac0 <pthread_once@plt>
 4eca44a:	e8 71 86 e5 02       	call   7d22ac0 <pthread_once@plt>
 4ecbc4a:	e8 71 6e e5 02       	call   7d22ac0 <pthread_once@plt>
 4ecd4ca:	e8 f1 55 e5 02       	call   7d22ac0 <pthread_once@plt>
 4ecd8d4:	e8 d7 50 e5 02       	call   7d229b0 <pthread_mutex_lock@plt>
 4ecd9d4:	e9 e7 4f e5 02       	jmp    7d229c0 <pthread_mutex_unlock@plt>
 4ecea58:	e8 53 3f e5 02       	call   7d229b0 <pthread_mutex_lock@plt>
 4eceafa:	e8 c1 3e e5 02       	call   7d229c0 <pthread_mutex_unlock@plt>
 4ecf4f0:	e8 cb 34 e5 02       	call   7d229c0 <pthread_mutex_unlock@plt>
 4ecf705:	e8 b6 32 e5 02       	call   7d229c0 <pthread_mutex_unlock@plt>
 4ed1d5d:	e8 5e 0d e5 02       	call   7d22ac0 <pthread_once@plt>
 4ed4b06:	e8 b5 df e4 02       	call   7d22ac0 <pthread_once@plt>
 4ed7839:	e8 82 b2 e4 02       	call   7d22ac0 <pthread_once@plt>
 4ed9a9a:	e8 21 90 e4 02       	call   7d22ac0 <pthread_once@plt>
 4edb66b:	e8 50 74 e4 02       	call   7d22ac0 <pthread_once@plt>
 4edea65:	e8 56 40 e4 02       	call   7d22ac0 <pthread_once@plt>
 4ee6ca9:	e8 12 be e3 02       	call   7d22ac0 <pthread_once@plt>
 4ee7c8a:	e8 31 ae e3 02       	call   7d22ac0 <pthread_once@plt>
 4ee91db:	e8 e0 98 e3 02       	call   7d22ac0 <pthread_once@plt>
 4eea79b:	e8 20 83 e3 02       	call   7d22ac0 <pthread_once@plt>
 4eebc39:	e8 82 6e e3 02       	call   7d22ac0 <pthread_once@plt>
 4ef063e:	e8 7d 24 e3 02       	call   7d22ac0 <pthread_once@plt>
 4ef3e97:	e8 24 ec e2 02       	call   7d22ac0 <pthread_once@plt>
 4ef4d20:	e8 9b dd e2 02       	call   7d22ac0 <pthread_once@plt>
 4ef66cf:	e8 ec c3 e2 02       	call   7d22ac0 <pthread_once@plt>
 4ef95bb:	e8 00 95 e2 02       	call   7d22ac0 <pthread_once@plt>
 4efb27b:	e8 40 78 e2 02       	call   7d22ac0 <pthread_once@plt>
 4efba8a:	e8 21 6f e2 02       	call   7d229b0 <pthread_mutex_lock@plt>
 4efbada:	e8 e1 6e e2 02       	call   7d229c0 <pthread_mutex_unlock@plt>
 4f04a19:	e8 a2 e0 e1 02       	call   7d22ac0 <pthread_once@plt>
 4f0c213:	e8 a8 68 e1 02       	call   7d22ac0 <pthread_once@plt>
 4f187cf:	e8 ec a2 e0 02       	call   7d22ac0 <pthread_once@plt>
 4f1e256:	e8 65 48 e0 02       	call   7d22ac0 <pthread_once@plt>
 4f2349a:	e8 21 f6 df 02       	call   7d22ac0 <pthread_once@plt>
 4f28f8c:	e8 2f 9b df 02       	call   7d22ac0 <pthread_once@plt>
 4f2ec43:	e8 78 3e df 02       	call   7d22ac0 <pthread_once@plt>
 4f30ee0:	e8 db 1a df 02       	call   7d229c0 <pthread_mutex_unlock@plt>
 4f32041:	e8 7a 09 df 02       	call   7d229c0 <pthread_mutex_unlock@plt>
 4f33107:	e8 b4 f9 de 02       	call   7d22ac0 <pthread_once@plt>
 4f3eb46:	e8 75 3f de 02       	call   7d22ac0 <pthread_once@plt>
 4f3ee1a:	e8 91 3b de 02       	call   7d229b0 <pthread_mutex_lock@plt>
 4f3ee6a:	e8 51 3b de 02       	call   7d229c0 <pthread_mutex_unlock@plt>
 4f5b3c6:	e8 f5 76 dc 02       	call   7d22ac0 <pthread_once@plt>
 4f5f3ab:	e8 10 37 dc 02       	call   7d22ac0 <pthread_once@plt>
 4f65287:	e8 34 d8 db 02       	call   7d22ac0 <pthread_once@plt>
 4f684bb:	e8 00 a6 db 02       	call   7d22ac0 <pthread_once@plt>
 4f6d889:	e8 32 52 db 02       	call   7d22ac0 <pthread_once@plt>
 4f70de8:	e8 d3 1c db 02       	call   7d22ac0 <pthread_once@plt>
 4f7566e:	e8 4d d4 da 02       	call   7d22ac0 <pthread_once@plt>
 4f7793d:	e8 7e b1 da 02       	call   7d22ac0 <pthread_once@plt>
 4f784fa:	e8 c1 a4 da 02       	call   7d229c0 <pthread_mutex_unlock@plt>
 4f7853a:	e8 71 a4 da 02       	call   7d229b0 <pthread_mutex_lock@plt>
 4f78583:	e8 28 a4 da 02       	call   7d229b0 <pthread_mutex_lock@plt>
 4f78598:	e8 23 a4 da 02       	call   7d229c0 <pthread_mutex_unlock@plt>
 4f7b4db:	e8 d0 74 da 02       	call   7d229b0 <pthread_mutex_lock@plt>
 4f7b4f2:	e8 c9 74 da 02       	call   7d229c0 <pthread_mutex_unlock@plt>
 4f7b52a:	e8 81 74 da 02       	call   7d229b0 <pthread_mutex_lock@plt>
 4f7b541:	e8 7a 74 da 02       	call   7d229c0 <pthread_mutex_unlock@plt>
 4f7b84a:	e8 61 71 da 02       	call   7d229b0 <pthread_mutex_lock@plt>
 4f7b85d:	e8 5e 71 da 02       	call   7d229c0 <pthread_mutex_unlock@plt>
 4f7cc84:	e8 27 5d da 02       	call   7d229b0 <pthread_mutex_lock@plt>
 4f7ccde:	e9 dd 5c da 02       	jmp    7d229c0 <pthread_mutex_unlock@plt>
 4f7cd14:	e8 97 5c da 02       	call   7d229b0 <pthread_mutex_lock@plt>
 4f7cd3c:	e9 7f 5c da 02       	jmp    7d229c0 <pthread_mutex_unlock@plt>
 4f7cd64:	e8 47 5c da 02       	call   7d229b0 <pthread_mutex_lock@plt>
 4f7cd7e:	e9 3d 5c da 02       	jmp    7d229c0 <pthread_mutex_unlock@plt>
 4f7cda0:	e9 1b 5c da 02       	jmp    7d229c0 <pthread_mutex_unlock@plt>
 4f7d9f0:	e8 bb 4f da 02       	call   7d229b0 <pthread_mutex_lock@plt>
 4f7db84:	e9 37 4e da 02       	jmp    7d229c0 <pthread_mutex_unlock@plt>
 4f81edd:	e8 ce 0a da 02       	call   7d229b0 <pthread_mutex_lock@plt>
 4f81ef8:	e8 c3 0a da 02       	call   7d229c0 <pthread_mutex_unlock@plt>
 4f81f60:	e8 4b 0a da 02       	call   7d229b0 <pthread_mutex_lock@plt>
 4f81f7a:	e8 41 0a da 02       	call   7d229c0 <pthread_mutex_unlock@plt>
 4f841ba:	e8 f1 e7 d9 02       	call   7d229b0 <pthread_mutex_lock@plt>
 4f841d1:	e8 ea e7 d9 02       	call   7d229c0 <pthread_mutex_unlock@plt>
 4f8421a:	e8 91 e7 d9 02       	call   7d229b0 <pthread_mutex_lock@plt>
 4f84231:	e8 8a e7 d9 02       	call   7d229c0 <pthread_mutex_unlock@plt>
 4f84263:	e8 48 e7 d9 02       	call   7d229b0 <pthread_mutex_lock@plt>
 4f8427a:	e8 41 e7 d9 02       	call   7d229c0 <pthread_mutex_unlock@plt>
 4f896ba:	e8 f1 92 d9 02       	call   7d229b0 <pthread_mutex_lock@plt>
 4f897ee:	e9 cd 91 d9 02       	jmp    7d229c0 <pthread_mutex_unlock@plt>
 4f8d862:	e8 49 51 d9 02       	call   7d229b0 <pthread_mutex_lock@plt>
 4f8d892:	e8 29 51 d9 02       	call   7d229c0 <pthread_mutex_unlock@plt>
 4f8daa9:	e8 02 4f d9 02       	call   7d229b0 <pthread_mutex_lock@plt>
 4f8dbab:	e8 10 4e d9 02       	call   7d229c0 <pthread_mutex_unlock@plt>
 4f8dfbd:	e8 ee 49 d9 02       	call   7d229b0 <pthread_mutex_lock@plt>
 4f8dfec:	e8 cf 49 d9 02       	call   7d229c0 <pthread_mutex_unlock@plt>
 4f8e688:	e8 23 43 d9 02       	call   7d229b0 <pthread_mutex_lock@plt>
 4f8e771:	e8 4a 42 d9 02       	call   7d229c0 <pthread_mutex_unlock@plt>
 4f8edc0:	e8 fb 3b d9 02       	call   7d229c0 <pthread_mutex_unlock@plt>
 4f8f85a:	e8 61 32 d9 02       	call   7d22ac0 <pthread_once@plt>
 4f908ca:	e8 f1 21 d9 02       	call   7d22ac0 <pthread_once@plt>
 4f91124:	e8 87 18 d9 02       	call   7d229b0 <pthread_mutex_lock@plt>
 4f91158:	e8 63 18 d9 02       	call   7d229c0 <pthread_mutex_unlock@plt>
 4f915c1:	e8 ea 13 d9 02       	call   7d229b0 <pthread_mutex_lock@plt>
 4f915db:	e8 e0 13 d9 02       	call   7d229c0 <pthread_mutex_unlock@plt>
 4f91757:	e8 54 12 d9 02       	call   7d229b0 <pthread_mutex_lock@plt>
 4f9176e:	e8 4d 12 d9 02       	call   7d229c0 <pthread_mutex_unlock@plt>
 4f9205a:	e8 51 09 d9 02       	call   7d229b0 <pthread_mutex_lock@plt>
 4f923bf:	e9 fc 05 d9 02       	jmp    7d229c0 <pthread_mutex_unlock@plt>
 4f94497:	e8 24 e5 d8 02       	call   7d229c0 <pthread_mutex_unlock@plt>
 4f94c88:	e8 33 dd d8 02       	call   7d229c0 <pthread_mutex_unlock@plt>
 4f95e4d:	e8 6e cb d8 02       	call   7d229c0 <pthread_mutex_unlock@plt>
 4f96595:	e8 26 c4 d8 02       	call   7d229c0 <pthread_mutex_unlock@plt>
 4f96808:	e8 b3 c1 d8 02       	call   7d229c0 <pthread_mutex_unlock@plt>
 4f96d6f:	e8 4c bc d8 02       	call   7d229c0 <pthread_mutex_unlock@plt>
 4f9716d:	e8 4e b8 d8 02       	call   7d229c0 <pthread_mutex_unlock@plt>
 4fa14c8:	e8 f3 15 d8 02       	call   7d22ac0 <pthread_once@plt>
 4fa2319:	e8 92 06 d8 02       	call   7d229b0 <pthread_mutex_lock@plt>
 4fa23ec:	e9 cf 05 d8 02       	jmp    7d229c0 <pthread_mutex_unlock@plt>
 4fa2444:	e8 67 05 d8 02       	call   7d229b0 <pthread_mutex_lock@plt>
 4fa2522:	e9 99 04 d8 02       	jmp    7d229c0 <pthread_mutex_unlock@plt>
 4fa2a48:	e8 63 ff d7 02       	call   7d229b0 <pthread_mutex_lock@plt>
 4fa2a5e:	e8 5d ff d7 02       	call   7d229c0 <pthread_mutex_unlock@plt>
 4fa2bf9:	e8 b2 fd d7 02       	call   7d229b0 <pthread_mutex_lock@plt>
 4fa2f20:	e8 9b fa d7 02       	call   7d229c0 <pthread_mutex_unlock@plt>
 4fa3201:	e8 aa f7 d7 02       	call   7d229b0 <pthread_mutex_lock@plt>
 4fa3318:	e8 a3 f6 d7 02       	call   7d229c0 <pthread_mutex_unlock@plt>
 4fa394c:	e8 5f f0 d7 02       	call   7d229b0 <pthread_mutex_lock@plt>
 4fa3b89:	e8 22 ee d7 02       	call   7d229b0 <pthread_mutex_lock@plt>
 4fa3ba2:	e8 19 ee d7 02       	call   7d229c0 <pthread_mutex_unlock@plt>
 4fa4127:	e8 84 e8 d7 02       	call   7d229b0 <pthread_mutex_lock@plt>
 4fa41a6:	e8 15 e8 d7 02       	call   7d229c0 <pthread_mutex_unlock@plt>
 4fa41e4:	e9 d7 e7 d7 02       	jmp    7d229c0 <pthread_mutex_unlock@plt>
 4fa492d:	e8 7e e0 d7 02       	call   7d229b0 <pthread_mutex_lock@plt>
 4fa507c:	e8 3f d9 d7 02       	call   7d229c0 <pthread_mutex_unlock@plt>
 4fa54e8:	e8 d3 d4 d7 02       	call   7d229c0 <pthread_mutex_unlock@plt>
 4fa6412:	e8 a9 c5 d7 02       	call   7d229c0 <pthread_mutex_unlock@plt>
 4fa69eb:	e8 c0 bf d7 02       	call   7d229b0 <pthread_mutex_lock@plt>
 4fa6a73:	e8 38 bf d7 02       	call   7d229b0 <pthread_mutex_lock@plt>
 4fa6a97:	e8 24 bf d7 02       	call   7d229c0 <pthread_mutex_unlock@plt>
 4fa6aca:	e8 01 c0 d7 02       	call   7d22ad0 <pthread_cond_timedwait@plt>
 4fa6adb:	e8 e0 be d7 02       	call   7d229c0 <pthread_mutex_unlock@plt>
 4fa6b04:	e8 a7 be d7 02       	call   7d229b0 <pthread_mutex_lock@plt>
 4fa7624:	e8 87 b3 d7 02       	call   7d229b0 <pthread_mutex_lock@plt>
 4fa763d:	e8 7e b3 d7 02       	call   7d229c0 <pthread_mutex_unlock@plt>
 4fa76e7:	e8 c4 b2 d7 02       	call   7d229b0 <pthread_mutex_lock@plt>
 4fa7769:	e8 52 b2 d7 02       	call   7d229c0 <pthread_mutex_unlock@plt>
 4fa7cfb:	e8 c0 ad d7 02       	call   7d22ac0 <pthread_once@plt>
 4fa8836:	e8 85 a2 d7 02       	call   7d22ac0 <pthread_once@plt>
 4fa8cda:	e8 d1 9c d7 02       	call   7d229b0 <pthread_mutex_lock@plt>
 4fa8d2a:	e8 91 9c d7 02       	call   7d229c0 <pthread_mutex_unlock@plt>
 4fae1ee:	e8 bd 47 d7 02       	call   7d229b0 <pthread_mutex_lock@plt>
 4fae267:	e8 54 47 d7 02       	call   7d229c0 <pthread_mutex_unlock@plt>
 4fae2d5:	e8 d6 46 d7 02       	call   7d229b0 <pthread_mutex_lock@plt>
 4fafb6b:	e8 50 2f d7 02       	call   7d22ac0 <pthread_once@plt>
 4fb1faa:	e8 11 0b d7 02       	call   7d22ac0 <pthread_once@plt>
 4fb23ca:	e8 e1 05 d7 02       	call   7d229b0 <pthread_mutex_lock@plt>
 4fb241a:	e8 a1 05 d7 02       	call   7d229c0 <pthread_mutex_unlock@plt>
 4fb284d:	e8 5e 01 d7 02       	call   7d229b0 <pthread_mutex_lock@plt>
 4fb2869:	e8 52 01 d7 02       	call   7d229c0 <pthread_mutex_unlock@plt>
 4fb2882:	e8 29 01 d7 02       	call   7d229b0 <pthread_mutex_lock@plt>
 4fb28f3:	e8 c8 00 d7 02       	call   7d229c0 <pthread_mutex_unlock@plt>
 4fb296a:	e8 41 00 d7 02       	call   7d229b0 <pthread_mutex_lock@plt>
 4fb2999:	e8 22 00 d7 02       	call   7d229c0 <pthread_mutex_unlock@plt>
 4fb2d8b:	e8 20 fc d6 02       	call   7d229b0 <pthread_mutex_lock@plt>
 4fb2dc0:	e8 fb fb d6 02       	call   7d229c0 <pthread_mutex_unlock@plt>
 4fb2e88:	e8 23 fb d6 02       	call   7d229b0 <pthread_mutex_lock@plt>
 4fb2efc:	e8 bf fa d6 02       	call   7d229c0 <pthread_mutex_unlock@plt>
 4fb31af:	e8 fc f7 d6 02       	call   7d229b0 <pthread_mutex_lock@plt>
 4fb31ca:	e8 f1 f7 d6 02       	call   7d229c0 <pthread_mutex_unlock@plt>
 4fb3282:	e8 39 f7 d6 02       	call   7d229c0 <pthread_mutex_unlock@plt>
 4fb3457:	e8 64 f5 d6 02       	call   7d229c0 <pthread_mutex_unlock@plt>
 4fb386f:	e8 4c f1 d6 02       	call   7d229c0 <pthread_mutex_unlock@plt>
 4fb3902:	e8 b9 f0 d6 02       	call   7d229c0 <pthread_mutex_unlock@plt>
 4fb3b8f:	e8 2c ee d6 02       	call   7d229c0 <pthread_mutex_unlock@plt>
 4fb3f88:	e8 23 ea d6 02       	call   7d229b0 <pthread_mutex_lock@plt>
 4fb3fb6:	e8 05 ea d6 02       	call   7d229c0 <pthread_mutex_unlock@plt>
 4fb3fda:	e8 e1 e9 d6 02       	call   7d229c0 <pthread_mutex_unlock@plt>
 4fb3fe9:	e8 c2 e9 d6 02       	call   7d229b0 <pthread_mutex_lock@plt>
 4fb4005:	e8 b6 e9 d6 02       	call   7d229c0 <pthread_mutex_unlock@plt>
 4fb4016:	e8 95 e9 d6 02       	call   7d229b0 <pthread_mutex_lock@plt>
 4fb4044:	e8 67 e9 d6 02       	call   7d229b0 <pthread_mutex_lock@plt>
 4fb4111:	e9 aa e8 d6 02       	jmp    7d229c0 <pthread_mutex_unlock@plt>
 4fb4190:	e8 1b e8 d6 02       	call   7d229b0 <pthread_mutex_lock@plt>
 4fb41ad:	e8 0e e8 d6 02       	call   7d229c0 <pthread_mutex_unlock@plt>
 4fb41cb:	e8 e0 e7 d6 02       	call   7d229b0 <pthread_mutex_lock@plt>
 4fb4242:	e8 79 e7 d6 02       	call   7d229c0 <pthread_mutex_unlock@plt>
 4fb4a79:	e8 42 df d6 02       	call   7d229c0 <pthread_mutex_unlock@plt>
 4fb4aaf:	e8 0c df d6 02       	call   7d229c0 <pthread_mutex_unlock@plt>
 4fb4c59:	e8 62 dd d6 02       	call   7d229c0 <pthread_mutex_unlock@plt>
 4fb4cfa:	e8 b1 dc d6 02       	call   7d229b0 <pthread_mutex_lock@plt>
 4fb4db9:	e8 02 dc d6 02       	call   7d229c0 <pthread_mutex_unlock@plt>
 4fb4fc1:	e8 ea d9 d6 02       	call   7d229b0 <pthread_mutex_lock@plt>
 4fb4fee:	e8 cd d9 d6 02       	call   7d229c0 <pthread_mutex_unlock@plt>
 4fb5066:	e8 45 d9 d6 02       	call   7d229b0 <pthread_mutex_lock@plt>
 4fb509a:	e8 21 d9 d6 02       	call   7d229c0 <pthread_mutex_unlock@plt>
 4fb5131:	e8 7a d8 d6 02       	call   7d229b0 <pthread_mutex_lock@plt>
 4fb5162:	e8 59 d8 d6 02       	call   7d229c0 <pthread_mutex_unlock@plt>
 4fb538f:	e8 1c d6 d6 02       	call   7d229b0 <pthread_mutex_lock@plt>
 4fb53c3:	e8 f8 d5 d6 02       	call   7d229c0 <pthread_mutex_unlock@plt>
 4fb7522:	e8 89 b4 d6 02       	call   7d229b0 <pthread_mutex_lock@plt>
 4fb762c:	e8 8f b3 d6 02       	call   7d229c0 <pthread_mutex_unlock@plt>
 4fb8042:	e8 69 a9 d6 02       	call   7d229b0 <pthread_mutex_lock@plt>
 4fb8068:	e8 53 a9 d6 02       	call   7d229c0 <pthread_mutex_unlock@plt>
 4fb89dc:	e8 cf 9f d6 02       	call   7d229b0 <pthread_mutex_lock@plt>
 4fb8a68:	e8 53 9f d6 02       	call   7d229c0 <pthread_mutex_unlock@plt>
 4fb8b57:	e8 54 9e d6 02       	call   7d229b0 <pthread_mutex_lock@plt>
 4fb8b75:	e8 46 9e d6 02       	call   7d229c0 <pthread_mutex_unlock@plt>
 4fb8b93:	e8 28 9e d6 02       	call   7d229c0 <pthread_mutex_unlock@plt>
 4fb8b9f:	e8 0c 9e d6 02       	call   7d229b0 <pthread_mutex_lock@plt>
 4fb8bba:	e8 01 9e d6 02       	call   7d229c0 <pthread_mutex_unlock@plt>
 4fb8c10:	e8 9b 9d d6 02       	call   7d229b0 <pthread_mutex_lock@plt>
 4fb8cb6:	e8 05 9d d6 02       	call   7d229c0 <pthread_mutex_unlock@plt>
 4fb8f73:	e8 48 9a d6 02       	call   7d229c0 <pthread_mutex_unlock@plt>
 4fb914b:	e8 60 98 d6 02       	call   7d229b0 <pthread_mutex_lock@plt>
 4fb918a:	e8 21 98 d6 02       	call   7d229b0 <pthread_mutex_lock@plt>
 4fb91a8:	e8 13 98 d6 02       	call   7d229c0 <pthread_mutex_unlock@plt>
 4fb921e:	e8 9d 97 d6 02       	call   7d229c0 <pthread_mutex_unlock@plt>
 4fb9f90:	e8 1b 8a d6 02       	call   7d229b0 <pthread_mutex_lock@plt>
 4fba236:	e8 85 87 d6 02       	call   7d229c0 <pthread_mutex_unlock@plt>
 4fba277:	e8 44 87 d6 02       	call   7d229c0 <pthread_mutex_unlock@plt>
 4fba74d:	e8 6e 83 d6 02       	call   7d22ac0 <pthread_once@plt>
 4fc0457:	e8 64 26 d6 02       	call   7d22ac0 <pthread_once@plt>
 4fc0b3a:	e8 71 1e d6 02       	call   7d229b0 <pthread_mutex_lock@plt>
 4fc0b8a:	e8 31 1e d6 02       	call   7d229c0 <pthread_mutex_unlock@plt>
 4fc13c3:	e8 e8 15 d6 02       	call   7d229b0 <pthread_mutex_lock@plt>
 4fc1446:	e8 65 15 d6 02       	call   7d229b0 <pthread_mutex_lock@plt>
 4fc14ca:	e8 e1 14 d6 02       	call   7d229b0 <pthread_mutex_lock@plt>
 4fc1561:	e8 4a 14 d6 02       	call   7d229b0 <pthread_mutex_lock@plt>
 4fc157d:	e8 3e 14 d6 02       	call   7d229c0 <pthread_mutex_unlock@plt>
 4fc1593:	e8 28 14 d6 02       	call   7d229c0 <pthread_mutex_unlock@plt>
 4fc159f:	e8 0c 14 d6 02       	call   7d229b0 <pthread_mutex_lock@plt>
 4fc15c6:	e9 f5 13 d6 02       	jmp    7d229c0 <pthread_mutex_unlock@plt>
 4fc15ce:	e8 ed 13 d6 02       	call   7d229c0 <pthread_mutex_unlock@plt>
 4fc15db:	e8 d0 13 d6 02       	call   7d229b0 <pthread_mutex_lock@plt>
 4fc15fa:	e8 c1 13 d6 02       	call   7d229c0 <pthread_mutex_unlock@plt>
 4fc1609:	e8 a2 13 d6 02       	call   7d229b0 <pthread_mutex_lock@plt>
 4fc162a:	e8 81 13 d6 02       	call   7d229b0 <pthread_mutex_lock@plt>
 4fc16a3:	e8 18 13 d6 02       	call   7d229c0 <pthread_mutex_unlock@plt>
 4fc2289:	e8 22 07 d6 02       	call   7d229b0 <pthread_mutex_lock@plt>
 4fc22aa:	e8 11 07 d6 02       	call   7d229c0 <pthread_mutex_unlock@plt>
 4fc22cd:	e8 de 06 d6 02       	call   7d229b0 <pthread_mutex_lock@plt>
 4fc2366:	e8 55 06 d6 02       	call   7d229c0 <pthread_mutex_unlock@plt>
 4fc238b:	e8 30 06 d6 02       	call   7d229c0 <pthread_mutex_unlock@plt>
 4fc2396:	e8 15 06 d6 02       	call   7d229b0 <pthread_mutex_lock@plt>
 4fc23bc:	e8 ff 05 d6 02       	call   7d229c0 <pthread_mutex_unlock@plt>
 4fc2839:	e8 72 01 d6 02       	call   7d229b0 <pthread_mutex_lock@plt>
 4fc2cf0:	e8 cb fc d5 02       	call   7d229c0 <pthread_mutex_unlock@plt>
 4fc44da:	e8 e1 e5 d5 02       	call   7d22ac0 <pthread_once@plt>
 4fc55fb:	e8 c0 d4 d5 02       	call   7d22ac0 <pthread_once@plt>
 4fca0ab:	e8 10 8a d5 02       	call   7d22ac0 <pthread_once@plt>
 4fcadd0:	e8 eb 7c d5 02       	call   7d22ac0 <pthread_once@plt>
 4fcb64d:	e8 6e 74 d5 02       	call   7d22ac0 <pthread_once@plt>
 4fcda5b:	e8 50 4f d5 02       	call   7d229b0 <pthread_mutex_lock@plt>
 4fcda8b:	e8 30 4f d5 02       	call   7d229c0 <pthread_mutex_unlock@plt>
 4fce76e:	e8 3d 42 d5 02       	call   7d229b0 <pthread_mutex_lock@plt>
 4fce7ff:	e8 bc 41 d5 02       	call   7d229c0 <pthread_mutex_unlock@plt>
 4fcf21b:	e8 a0 37 d5 02       	call   7d229c0 <pthread_mutex_unlock@plt>
 4fcf45a:	e8 61 36 d5 02       	call   7d22ac0 <pthread_once@plt>
 4fd0899:	e8 22 22 d5 02       	call   7d22ac0 <pthread_once@plt>
 4fd152b:	e8 80 14 d5 02       	call   7d229b0 <pthread_mutex_lock@plt>
 4fd1698:	e8 23 13 d5 02       	call   7d229c0 <pthread_mutex_unlock@plt>
 4fd3429:	e8 82 f5 d4 02       	call   7d229b0 <pthread_mutex_lock@plt>
 4fd346a:	e8 51 f5 d4 02       	call   7d229c0 <pthread_mutex_unlock@plt>
 4fd9c29:	e8 82 8d d4 02       	call   7d229b0 <pthread_mutex_lock@plt>
 4fd9c6a:	e8 51 8d d4 02       	call   7d229c0 <pthread_mutex_unlock@plt>
 4fda674:	e8 37 83 d4 02       	call   7d229b0 <pthread_mutex_lock@plt>
 4fda6db:	e9 e0 82 d4 02       	jmp    7d229c0 <pthread_mutex_unlock@plt>
 4fe1c31:	e8 8a 0d d4 02       	call   7d229c0 <pthread_mutex_unlock@plt>
 4fe2015:	e8 a6 09 d4 02       	call   7d229c0 <pthread_mutex_unlock@plt>
 4fe330e:	e8 ad f6 d3 02       	call   7d229c0 <pthread_mutex_unlock@plt>
 4fe34c6:	e8 f5 f4 d3 02       	call   7d229c0 <pthread_mutex_unlock@plt>
 4fe8e76:	e8 35 9b d3 02       	call   7d229b0 <pthread_mutex_lock@plt>
 4fe8ea5:	e9 16 9b d3 02       	jmp    7d229c0 <pthread_mutex_unlock@plt>
 4fe8ec1:	e8 fa 9a d3 02       	call   7d229c0 <pthread_mutex_unlock@plt>
 4fea373:	e8 38 86 d3 02       	call   7d229b0 <pthread_mutex_lock@plt>
 4fea3a3:	e8 18 86 d3 02       	call   7d229c0 <pthread_mutex_unlock@plt>
 4fea432:	e8 89 85 d3 02       	call   7d229c0 <pthread_mutex_unlock@plt>
 4fea863:	e8 48 81 d3 02       	call   7d229b0 <pthread_mutex_lock@plt>
 4fea893:	e8 28 81 d3 02       	call   7d229c0 <pthread_mutex_unlock@plt>
 4fea97f:	e8 3c 80 d3 02       	call   7d229c0 <pthread_mutex_unlock@plt>
 4ff03fa:	e8 c1 26 d3 02       	call   7d22ac0 <pthread_once@plt>
 4ff18bf:	e8 ec 10 d3 02       	call   7d229b0 <pthread_mutex_lock@plt>
 4ff18dd:	e8 de 10 d3 02       	call   7d229c0 <pthread_mutex_unlock@plt>
 4ff1942:	e8 69 10 d3 02       	call   7d229b0 <pthread_mutex_lock@plt>
 4ff1a66:	e8 55 0f d3 02       	call   7d229c0 <pthread_mutex_unlock@plt>
 4ff1b73:	e8 38 0e d3 02       	call   7d229b0 <pthread_mutex_lock@plt>
 4ff1cae:	e8 0d 0d d3 02       	call   7d229c0 <pthread_mutex_unlock@plt>
 4ff1ee4:	e8 c7 0a d3 02       	call   7d229b0 <pthread_mutex_lock@plt>
 4ff2056:	e8 65 09 d3 02       	call   7d229c0 <pthread_mutex_unlock@plt>
 4ff21d8:	e8 d3 07 d3 02       	call   7d229b0 <pthread_mutex_lock@plt>
 4ff2341:	e8 7a 06 d3 02       	call   7d229c0 <pthread_mutex_unlock@plt>
 4ff2479:	e8 32 05 d3 02       	call   7d229b0 <pthread_mutex_lock@plt>
 4ff2560:	e8 5b 04 d3 02       	call   7d229c0 <pthread_mutex_unlock@plt>
 4ff27fa:	e8 c1 01 d3 02       	call   7d229c0 <pthread_mutex_unlock@plt>
 4ff29f2:	e8 b9 ff d2 02       	call   7d229b0 <pthread_mutex_lock@plt>
 4ff2c26:	e8 95 fd d2 02       	call   7d229c0 <pthread_mutex_unlock@plt>
 4ff2cea:	e8 c1 fc d2 02       	call   7d229b0 <pthread_mutex_lock@plt>
 4ff2ebc:	e8 ff fa d2 02       	call   7d229c0 <pthread_mutex_unlock@plt>
 4ff332c:	e8 7f f6 d2 02       	call   7d229b0 <pthread_mutex_lock@plt>
 4ff4ab3:	e8 08 df d2 02       	call   7d229c0 <pthread_mutex_unlock@plt>
 4ff4b2a:	e8 81 de d2 02       	call   7d229b0 <pthread_mutex_lock@plt>
 4ff50f7:	e8 14 dd d2 02       	call   7d22e10 <pthread_mutex_destroy@plt>
 4ff51c7:	e8 44 dc d2 02       	call   7d22e10 <pthread_mutex_destroy@plt>
 4ff58a9:	e8 12 d2 d2 02       	call   7d22ac0 <pthread_once@plt>
 4ff666a:	e8 41 c3 d2 02       	call   7d229b0 <pthread_mutex_lock@plt>
 4ff66ba:	e8 01 c3 d2 02       	call   7d229c0 <pthread_mutex_unlock@plt>
 4ffcba2:	e8 09 5e d2 02       	call   7d229b0 <pthread_mutex_lock@plt>
 4ffd20e:	e8 9d 57 d2 02       	call   7d229b0 <pthread_mutex_lock@plt>
 5001444:	e8 77 16 d2 02       	call   7d22ac0 <pthread_once@plt>
 5007227:	e8 94 b8 d1 02       	call   7d22ac0 <pthread_once@plt>
 5008241:	e8 7a a8 d1 02       	call   7d22ac0 <pthread_once@plt>
 50082e1:	e8 da a7 d1 02       	call   7d22ac0 <pthread_once@plt>
 5008381:	e8 3a a7 d1 02       	call   7d22ac0 <pthread_once@plt>
 501a130:	e8 8b 89 d0 02       	call   7d22ac0 <pthread_once@plt>
 5045e0d:	e8 ae cc cd 02       	call   7d22ac0 <pthread_once@plt>
 504b21a:	e8 a1 78 cd 02       	call   7d22ac0 <pthread_once@plt>
 504dfca:	e8 e1 49 cd 02       	call   7d229b0 <pthread_mutex_lock@plt>
 504e2ba:	e8 01 47 cd 02       	call   7d229c0 <pthread_mutex_unlock@plt>
 504f19a:	e8 11 38 cd 02       	call   7d229b0 <pthread_mutex_lock@plt>
 504f22d:	e9 8e 37 cd 02       	jmp    7d229c0 <pthread_mutex_unlock@plt>
 504f2b1:	e8 fa 36 cd 02       	call   7d229b0 <pthread_mutex_lock@plt>
 504f2cf:	e9 ec 36 cd 02       	jmp    7d229c0 <pthread_mutex_unlock@plt>
 5051afb:	e8 b0 0e cd 02       	call   7d229b0 <pthread_mutex_lock@plt>
 5051b82:	e8 39 0e cd 02       	call   7d229c0 <pthread_mutex_unlock@plt>
 5052de0:	e8 cb fb cc 02       	call   7d229b0 <pthread_mutex_lock@plt>
 5052e01:	e8 ba fb cc 02       	call   7d229c0 <pthread_mutex_unlock@plt>
 5052f29:	e8 82 fa cc 02       	call   7d229b0 <pthread_mutex_lock@plt>
 5052faa:	e8 11 fa cc 02       	call   7d229c0 <pthread_mutex_unlock@plt>
 50530d7:	e9 e4 f8 cc 02       	jmp    7d229c0 <pthread_mutex_unlock@plt>
 50533ab:	e8 00 f6 cc 02       	call   7d229b0 <pthread_mutex_lock@plt>
 5053691:	e8 2a f3 cc 02       	call   7d229c0 <pthread_mutex_unlock@plt>
 505ccae:	e8 0d 5d cc 02       	call   7d229c0 <pthread_mutex_unlock@plt>
 505d4d6:	e8 e5 54 cc 02       	call   7d229c0 <pthread_mutex_unlock@plt>
 505fa50:	e8 6b 30 cc 02       	call   7d22ac0 <pthread_once@plt>
 506145a:	e8 61 16 cc 02       	call   7d22ac0 <pthread_once@plt>
 5061515:	e8 a6 15 cc 02       	call   7d22ac0 <pthread_once@plt>
 50615d0:	e8 eb 14 cc 02       	call   7d22ac0 <pthread_once@plt>
 506274a:	e8 71 03 cc 02       	call   7d22ac0 <pthread_once@plt>
 50682ff:	e8 bc a7 cb 02       	call   7d22ac0 <pthread_once@plt>
 506a756:	e8 65 83 cb 02       	call   7d22ac0 <pthread_once@plt>
 506cc54:	e8 67 5e cb 02       	call   7d22ac0 <pthread_once@plt>
 507262a:	e8 91 04 cb 02       	call   7d22ac0 <pthread_once@plt>
 5072cf4:	e8 b7 fc ca 02       	call   7d229b0 <pthread_mutex_lock@plt>
 5072da3:	e9 18 fc ca 02       	jmp    7d229c0 <pthread_mutex_unlock@plt>
 5072ee2:	e8 c9 fa ca 02       	call   7d229b0 <pthread_mutex_lock@plt>
 5072f43:	e8 78 fa ca 02       	call   7d229c0 <pthread_mutex_unlock@plt>
 5072f53:	e8 68 fa ca 02       	call   7d229c0 <pthread_mutex_unlock@plt>
 5072f60:	e8 4b fa ca 02       	call   7d229b0 <pthread_mutex_lock@plt>
 5072f76:	e8 45 fa ca 02       	call   7d229c0 <pthread_mutex_unlock@plt>
 5073079:	e8 32 f9 ca 02       	call   7d229b0 <pthread_mutex_lock@plt>
 50733ab:	e8 10 f6 ca 02       	call   7d229c0 <pthread_mutex_unlock@plt>
 50733c8:	e8 f3 f5 ca 02       	call   7d229c0 <pthread_mutex_unlock@plt>
 5073efb:	e8 c0 eb ca 02       	call   7d22ac0 <pthread_once@plt>
 507e95d:	e8 4e 40 ca 02       	call   7d229b0 <pthread_mutex_lock@plt>
 507e972:	e9 49 40 ca 02       	jmp    7d229c0 <pthread_mutex_unlock@plt>
 507e98d:	e8 1e 40 ca 02       	call   7d229b0 <pthread_mutex_lock@plt>
 507e9a7:	e9 14 40 ca 02       	jmp    7d229c0 <pthread_mutex_unlock@plt>
 507e9f6:	e8 b5 3f ca 02       	call   7d229b0 <pthread_mutex_lock@plt>
 507ec32:	e8 89 3d ca 02       	call   7d229c0 <pthread_mutex_unlock@plt>
 507ee81:	e8 2a 3b ca 02       	call   7d229b0 <pthread_mutex_lock@plt>
 507f205:	e8 b6 37 ca 02       	call   7d229c0 <pthread_mutex_unlock@plt>
 507f716:	e8 a5 32 ca 02       	call   7d229c0 <pthread_mutex_unlock@plt>
 507f892:	e8 19 31 ca 02       	call   7d229b0 <pthread_mutex_lock@plt>
 507fca9:	e8 12 2d ca 02       	call   7d229c0 <pthread_mutex_unlock@plt>
 5080179:	e8 42 28 ca 02       	call   7d229c0 <pthread_mutex_unlock@plt>
 50802fa:	e8 b1 26 ca 02       	call   7d229b0 <pthread_mutex_lock@plt>
 5080698:	e8 23 23 ca 02       	call   7d229c0 <pthread_mutex_unlock@plt>
 50810ee:	e8 cd 18 ca 02       	call   7d229c0 <pthread_mutex_unlock@plt>
 5081127:	e8 94 18 ca 02       	call   7d229c0 <pthread_mutex_unlock@plt>
 508117e:	e8 3d 18 ca 02       	call   7d229c0 <pthread_mutex_unlock@plt>
 50811f2:	e8 c9 17 ca 02       	call   7d229c0 <pthread_mutex_unlock@plt>
 50828db:	e8 e0 01 ca 02       	call   7d22ac0 <pthread_once@plt>
 5082a7a:	e8 31 ff c9 02       	call   7d229b0 <pthread_mutex_lock@plt>
 5082aca:	e8 f1 fe c9 02       	call   7d229c0 <pthread_mutex_unlock@plt>
 50859ba:	e8 f1 cf c9 02       	call   7d229b0 <pthread_mutex_lock@plt>
 5087a1e:	e8 9d b0 c9 02       	call   7d22ac0 <pthread_once@plt>
 50889ca:	e8 e1 9f c9 02       	call   7d229b0 <pthread_mutex_lock@plt>
 5088b1a:	e8 a1 9e c9 02       	call   7d229c0 <pthread_mutex_unlock@plt>
 508ebae:	e8 0d 3f c9 02       	call   7d22ac0 <pthread_once@plt>
 5094419:	e8 a2 e6 c8 02       	call   7d22ac0 <pthread_once@plt>
 50a83eb:	e8 d0 a6 c7 02       	call   7d22ac0 <pthread_once@plt>
 50a883a:	e8 71 a1 c7 02       	call   7d229b0 <pthread_mutex_lock@plt>
 50a888a:	e8 31 a1 c7 02       	call   7d229c0 <pthread_mutex_unlock@plt>
 50ac85e:	e8 4d 61 c7 02       	call   7d229b0 <pthread_mutex_lock@plt>
 50adf38:	e8 83 4b c7 02       	call   7d22ac0 <pthread_once@plt>
 50b1d17:	e8 a4 0d c7 02       	call   7d22ac0 <pthread_once@plt>
 50b491d:	e8 9e e1 c6 02       	call   7d22ac0 <pthread_once@plt>
 50b62e6:	e8 c5 c6 c6 02       	call   7d229b0 <pthread_mutex_lock@plt>
 50b6852:	e8 69 c1 c6 02       	call   7d229c0 <pthread_mutex_unlock@plt>
 50b6eb7:	e8 f4 ba c6 02       	call   7d229b0 <pthread_mutex_lock@plt>
 50b6ede:	e9 dd ba c6 02       	jmp    7d229c0 <pthread_mutex_unlock@plt>
 50b6f1e:	e8 8d ba c6 02       	call   7d229b0 <pthread_mutex_lock@plt>
 50b6f44:	e9 77 ba c6 02       	jmp    7d229c0 <pthread_mutex_unlock@plt>
 50b6f7e:	e8 2d ba c6 02       	call   7d229b0 <pthread_mutex_lock@plt>
 50b6fa4:	e9 17 ba c6 02       	jmp    7d229c0 <pthread_mutex_unlock@plt>
 50b7a75:	e8 46 af c6 02       	call   7d229c0 <pthread_mutex_unlock@plt>
 50b7d94:	e8 27 ac c6 02       	call   7d229c0 <pthread_mutex_unlock@plt>
 50b7da8:	e8 13 ac c6 02       	call   7d229c0 <pthread_mutex_unlock@plt>
 50b7dbc:	e8 ff ab c6 02       	call   7d229c0 <pthread_mutex_unlock@plt>
 50b84dd:	e8 de a5 c6 02       	call   7d22ac0 <pthread_once@plt>
 50c1bbb:	e8 00 0f c6 02       	call   7d22ac0 <pthread_once@plt>
 50c26f6:	e8 c5 03 c6 02       	call   7d22ac0 <pthread_once@plt>
 50c47bb:	e8 00 e3 c5 02       	call   7d22ac0 <pthread_once@plt>
 50cd623:	e8 88 53 c5 02       	call   7d229b0 <pthread_mutex_lock@plt>
 50cda2d:	e9 8e 4f c5 02       	jmp    7d229c0 <pthread_mutex_unlock@plt>
 50cddf4:	e8 c7 4b c5 02       	call   7d229c0 <pthread_mutex_unlock@plt>
 50cdffa:	e8 b1 49 c5 02       	call   7d229b0 <pthread_mutex_lock@plt>
 50ce04a:	e8 71 49 c5 02       	call   7d229c0 <pthread_mutex_unlock@plt>
 50d4497:	e8 24 e6 c4 02       	call   7d22ac0 <pthread_once@plt>
 50de93e:	e8 7d 41 c4 02       	call   7d22ac0 <pthread_once@plt>
 50e4cf8:	e8 c3 dd c3 02       	call   7d22ac0 <pthread_once@plt>
 50e5cfa:	e8 c1 cd c3 02       	call   7d22ac0 <pthread_once@plt>
 50e6786:	e8 25 c2 c3 02       	call   7d229b0 <pthread_mutex_lock@plt>
 50e69a4:	e9 17 c0 c3 02       	jmp    7d229c0 <pthread_mutex_unlock@plt>
 50e6ad5:	e8 d6 be c3 02       	call   7d229b0 <pthread_mutex_lock@plt>
 50e6b14:	e9 a7 be c3 02       	jmp    7d229c0 <pthread_mutex_unlock@plt>
 50e6ee0:	e8 db ba c3 02       	call   7d229c0 <pthread_mutex_unlock@plt>
 50e76fd:	e8 be b3 c3 02       	call   7d22ac0 <pthread_once@plt>
 50ea2ab:	e8 10 88 c3 02       	call   7d22ac0 <pthread_once@plt>
 50eba6f:	e8 4c 70 c3 02       	call   7d22ac0 <pthread_once@plt>
 50ed9aa:	e8 11 51 c3 02       	call   7d22ac0 <pthread_once@plt>
 50ef22b:	e8 90 38 c3 02       	call   7d22ac0 <pthread_once@plt>
 50ef88a:	e8 21 31 c3 02       	call   7d229b0 <pthread_mutex_lock@plt>
 50efa7a:	e8 41 2f c3 02       	call   7d229c0 <pthread_mutex_unlock@plt>
 511310b:	e8 b0 f9 c0 02       	call   7d22ac0 <pthread_once@plt>
 511437d:	e8 2e e6 c0 02       	call   7d229b0 <pthread_mutex_lock@plt>
 51143bc:	e8 ff e5 c0 02       	call   7d229c0 <pthread_mutex_unlock@plt>
 51143fd:	e8 be e5 c0 02       	call   7d229c0 <pthread_mutex_unlock@plt>
 5114daf:	e8 0c dd c0 02       	call   7d22ac0 <pthread_once@plt>
 51194db:	e8 e0 95 c0 02       	call   7d22ac0 <pthread_once@plt>
 511966a:	e8 41 93 c0 02       	call   7d229b0 <pthread_mutex_lock@plt>
 51196ba:	e8 01 93 c0 02       	call   7d229c0 <pthread_mutex_unlock@plt>
 511aacd:	e8 ee 7f c0 02       	call   7d22ac0 <pthread_once@plt>
 511b940:	e8 6b 70 c0 02       	call   7d229b0 <pthread_mutex_lock@plt>
 511bbe8:	e8 d3 6d c0 02       	call   7d229c0 <pthread_mutex_unlock@plt>
 51209da:	e8 e1 20 c0 02       	call   7d22ac0 <pthread_once@plt>
 5120e1a:	e8 91 1b c0 02       	call   7d229b0 <pthread_mutex_lock@plt>
 5120e6a:	e8 51 1b c0 02       	call   7d229c0 <pthread_mutex_unlock@plt>
 512140d:	e8 9e 15 c0 02       	call   7d229b0 <pthread_mutex_lock@plt>
 5121717:	e9 a4 12 c0 02       	jmp    7d229c0 <pthread_mutex_unlock@plt>
 51224ea:	e8 c1 04 c0 02       	call   7d229b0 <pthread_mutex_lock@plt>
 5122546:	e8 75 04 c0 02       	call   7d229c0 <pthread_mutex_unlock@plt>
 5122bb7:	e8 04 fe bf 02       	call   7d229c0 <pthread_mutex_unlock@plt>
 5123201:	e8 aa f7 bf 02       	call   7d229b0 <pthread_mutex_lock@plt>
 5123215:	e9 a6 f7 bf 02       	jmp    7d229c0 <pthread_mutex_unlock@plt>
 512327b:	e8 30 f7 bf 02       	call   7d229b0 <pthread_mutex_lock@plt>
 51232ce:	e9 ed f6 bf 02       	jmp    7d229c0 <pthread_mutex_unlock@plt>
 51239f1:	e8 ca f0 bf 02       	call   7d22ac0 <pthread_once@plt>
 5124da6:	e8 15 dd bf 02       	call   7d22ac0 <pthread_once@plt>
 51253ba:	e8 f1 d5 bf 02       	call   7d229b0 <pthread_mutex_lock@plt>
 512540a:	e8 b1 d5 bf 02       	call   7d229c0 <pthread_mutex_unlock@plt>
 512b7ea:	e8 d1 72 bf 02       	call   7d22ac0 <pthread_once@plt>
 5134b0b:	e8 b0 df be 02       	call   7d22ac0 <pthread_once@plt>
 5137575:	e8 46 b5 be 02       	call   7d22ac0 <pthread_once@plt>
 5137c82:	e8 39 ae be 02       	call   7d22ac0 <pthread_once@plt>
 513b35c:	e8 5f 77 be 02       	call   7d22ac0 <pthread_once@plt>
 513ca4a:	e8 71 60 be 02       	call   7d22ac0 <pthread_once@plt>
 513d77e:	e8 2d 52 be 02       	call   7d229b0 <pthread_mutex_lock@plt>
 513d795:	e8 26 52 be 02       	call   7d229c0 <pthread_mutex_unlock@plt>
 513d7f6:	e8 b5 51 be 02       	call   7d229b0 <pthread_mutex_lock@plt>
 513dbc3:	e8 f8 4d be 02       	call   7d229c0 <pthread_mutex_unlock@plt>
 513e8a1:	e8 0a 41 be 02       	call   7d229b0 <pthread_mutex_lock@plt>
 513e8cb:	e8 f0 40 be 02       	call   7d229c0 <pthread_mutex_unlock@plt>
 513ee18:	e8 a3 3b be 02       	call   7d229c0 <pthread_mutex_unlock@plt>
 513ee2c:	e8 8f 3b be 02       	call   7d229c0 <pthread_mutex_unlock@plt>
 513ef00:	e8 bb 3a be 02       	call   7d229c0 <pthread_mutex_unlock@plt>
 513fc5a:	e8 61 2e be 02       	call   7d22ac0 <pthread_once@plt>
 51409c9:	e8 f2 20 be 02       	call   7d22ac0 <pthread_once@plt>
 5143b6b:	e8 50 ef bd 02       	call   7d22ac0 <pthread_once@plt>
 5144eeb:	e8 d0 db bd 02       	call   7d22ac0 <pthread_once@plt>
 5149e2a:	e8 91 8c bd 02       	call   7d22ac0 <pthread_once@plt>
 514cace:	e8 ed 5f bd 02       	call   7d22ac0 <pthread_once@plt>
 514d6a4:	e8 17 54 bd 02       	call   7d22ac0 <pthread_once@plt>
 514d72a:	e8 91 53 bd 02       	call   7d22ac0 <pthread_once@plt>
 514f21b:	e8 a0 38 bd 02       	call   7d22ac0 <pthread_once@plt>
 514f26c:	e8 4f 38 bd 02       	call   7d22ac0 <pthread_once@plt>
 5150be0:	e8 db 1e bd 02       	call   7d22ac0 <pthread_once@plt>
 515c0b3:	e8 08 6a bc 02       	call   7d22ac0 <pthread_once@plt>
 515defa:	e8 c1 4b bc 02       	call   7d22ac0 <pthread_once@plt>
 515eaca:	e8 e1 3e bc 02       	call   7d229b0 <pthread_mutex_lock@plt>
 515eafe:	e9 bd 3e bc 02       	jmp    7d229c0 <pthread_mutex_unlock@plt>
 515ed3a:	e8 71 3c bc 02       	call   7d229b0 <pthread_mutex_lock@plt>
 515ed55:	e8 66 3c bc 02       	call   7d229c0 <pthread_mutex_unlock@plt>
 515f3ab:	e8 00 36 bc 02       	call   7d229b0 <pthread_mutex_lock@plt>
 515f3f5:	e8 c6 35 bc 02       	call   7d229c0 <pthread_mutex_unlock@plt>
 515f4fb:	e8 b0 34 bc 02       	call   7d229b0 <pthread_mutex_lock@plt>
 515f541:	e8 7a 34 bc 02       	call   7d229c0 <pthread_mutex_unlock@plt>
 516009a:	e8 21 2a bc 02       	call   7d22ac0 <pthread_once@plt>
 5164d39:	e8 82 dd bb 02       	call   7d22ac0 <pthread_once@plt>
 516557a:	e8 31 d4 bb 02       	call   7d229b0 <pthread_mutex_lock@plt>
 51656ba:	e8 01 d3 bb 02       	call   7d229c0 <pthread_mutex_unlock@plt>
 516fa9c:	e8 1f 30 bb 02       	call   7d22ac0 <pthread_once@plt>
 517616d:	e8 4e c9 ba 02       	call   7d22ac0 <pthread_once@plt>
 517736a:	e8 41 b6 ba 02       	call   7d229b0 <pthread_mutex_lock@plt>
 51773ba:	e8 01 b6 ba 02       	call   7d229c0 <pthread_mutex_unlock@plt>
 5179122:	e8 89 98 ba 02       	call   7d229b0 <pthread_mutex_lock@plt>
 51793eb:	e8 d0 95 ba 02       	call   7d229c0 <pthread_mutex_unlock@plt>
 5179cfa:	e8 c1 8d ba 02       	call   7d22ac0 <pthread_once@plt>
 517c806:	e8 b5 62 ba 02       	call   7d22ac0 <pthread_once@plt>
 518c557:	e8 64 65 b9 02       	call   7d22ac0 <pthread_once@plt>
 518d8fa:	e8 b1 50 b9 02       	call   7d229b0 <pthread_mutex_lock@plt>
 518d94a:	e8 71 50 b9 02       	call   7d229c0 <pthread_mutex_unlock@plt>
 518e293:	e8 28 48 b9 02       	call   7d22ac0 <pthread_once@plt>
 5190c24:	e8 97 1e b9 02       	call   7d22ac0 <pthread_once@plt>
 519623a:	e8 71 c7 b8 02       	call   7d229b0 <pthread_mutex_lock@plt>
 519628a:	e8 31 c7 b8 02       	call   7d229c0 <pthread_mutex_unlock@plt>
 51977a8:	e8 13 b3 b8 02       	call   7d22ac0 <pthread_once@plt>
 519b256:	e8 65 78 b8 02       	call   7d22ac0 <pthread_once@plt>
 519bc5a:	e8 51 6d b8 02       	call   7d229b0 <pthread_mutex_lock@plt>
 519bcaa:	e8 11 6d b8 02       	call   7d229c0 <pthread_mutex_unlock@plt>
 51a0441:	e8 6a 25 b8 02       	call   7d229b0 <pthread_mutex_lock@plt>
 51a2dd8:	e8 e3 fc b7 02       	call   7d22ac0 <pthread_once@plt>
 51a4f6a:	e8 51 db b7 02       	call   7d22ac0 <pthread_once@plt>
 51a79a4:	e8 17 b1 b7 02       	call   7d22ac0 <pthread_once@plt>
 51a8f2e:	e8 8d 9b b7 02       	call   7d22ac0 <pthread_once@plt>
 51b5219:	e8 a2 d8 b6 02       	call   7d22ac0 <pthread_once@plt>
 51b5cb4:	e8 f7 cc b6 02       	call   7d229b0 <pthread_mutex_lock@plt>
 51b6361:	e8 5a c6 b6 02       	call   7d229c0 <pthread_mutex_unlock@plt>
 51b65b5:	e8 06 c4 b6 02       	call   7d229c0 <pthread_mutex_unlock@plt>
 51b6baa:	e8 11 bf b6 02       	call   7d22ac0 <pthread_once@plt>
 51bc1b9:	e8 02 69 b6 02       	call   7d22ac0 <pthread_once@plt>
 51bd2da:	e8 d1 56 b6 02       	call   7d229b0 <pthread_mutex_lock@plt>
 51bd304:	e8 b7 56 b6 02       	call   7d229c0 <pthread_mutex_unlock@plt>
 51bd42f:	e8 7c 55 b6 02       	call   7d229b0 <pthread_mutex_lock@plt>
 51bd4fc:	e9 bf 54 b6 02       	jmp    7d229c0 <pthread_mutex_unlock@plt>
 51bd57c:	e8 2f 54 b6 02       	call   7d229b0 <pthread_mutex_lock@plt>
 51bd9a5:	e9 16 50 b6 02       	jmp    7d229c0 <pthread_mutex_unlock@plt>
 51bdbaf:	e8 fc 4d b6 02       	call   7d229b0 <pthread_mutex_lock@plt>
 51bdc73:	e8 48 4d b6 02       	call   7d229c0 <pthread_mutex_unlock@plt>
 51bdf48:	e8 73 4a b6 02       	call   7d229c0 <pthread_mutex_unlock@plt>
 51be0fe:	e8 ad 48 b6 02       	call   7d229b0 <pthread_mutex_lock@plt>
 51be166:	e8 55 48 b6 02       	call   7d229c0 <pthread_mutex_unlock@plt>
 51be462:	e8 49 45 b6 02       	call   7d229b0 <pthread_mutex_lock@plt>
 51be4d3:	e8 e8 44 b6 02       	call   7d229c0 <pthread_mutex_unlock@plt>
 51bed79:	e8 42 3c b6 02       	call   7d229c0 <pthread_mutex_unlock@plt>
 51bee5b:	e8 60 3b b6 02       	call   7d229c0 <pthread_mutex_unlock@plt>
 51bee75:	e8 46 3b b6 02       	call   7d229c0 <pthread_mutex_unlock@plt>
 51bf98a:	e8 31 31 b6 02       	call   7d22ac0 <pthread_once@plt>
 51c0bba:	e8 f1 1d b6 02       	call   7d229b0 <pthread_mutex_lock@plt>
 51c0c0a:	e8 b1 1d b6 02       	call   7d229c0 <pthread_mutex_unlock@plt>
 51c2afe:	e8 bd ff b5 02       	call   7d22ac0 <pthread_once@plt>
 51c2ba4:	e8 17 ff b5 02       	call   7d22ac0 <pthread_once@plt>
 51c2c4a:	e8 71 fe b5 02       	call   7d22ac0 <pthread_once@plt>
 51cfaca:	e8 f1 2f b5 02       	call   7d22ac0 <pthread_once@plt>
 51d4f84:	e8 37 db b4 02       	call   7d22ac0 <pthread_once@plt>
 51d6396:	e8 25 c7 b4 02       	call   7d22ac0 <pthread_once@plt>
 51d64d1:	e8 ea c5 b4 02       	call   7d22ac0 <pthread_once@plt>
 51d65ca:	e8 f1 c4 b4 02       	call   7d22ac0 <pthread_once@plt>
 51d6e46:	e8 75 bc b4 02       	call   7d22ac0 <pthread_once@plt>
 51d78cf:	e8 ec b1 b4 02       	call   7d22ac0 <pthread_once@plt>
 51e3257:	e8 54 f7 b3 02       	call   7d229b0 <pthread_mutex_lock@plt>
 51e326d:	e8 4e f7 b3 02       	call   7d229c0 <pthread_mutex_unlock@plt>
 51e32e8:	e8 d3 f6 b3 02       	call   7d229c0 <pthread_mutex_unlock@plt>
 51e497d:	e8 3e e1 b3 02       	call   7d22ac0 <pthread_once@plt>
 51e54fa:	e8 c1 d4 b3 02       	call   7d229c0 <pthread_mutex_unlock@plt>
 51e56ba:	e8 f1 d2 b3 02       	call   7d229b0 <pthread_mutex_lock@plt>
 51e5e1d:	e8 8e cb b3 02       	call   7d229b0 <pthread_mutex_lock@plt>
 51e5e45:	e9 76 cb b3 02       	jmp    7d229c0 <pthread_mutex_unlock@plt>
 51e5f3a:	e8 71 ca b3 02       	call   7d229b0 <pthread_mutex_lock@plt>
 51e5f5b:	e8 60 ca b3 02       	call   7d229c0 <pthread_mutex_unlock@plt>
 51e5faa:	e8 01 ca b3 02       	call   7d229b0 <pthread_mutex_lock@plt>
 51e5fbe:	e8 fd c9 b3 02       	call   7d229c0 <pthread_mutex_unlock@plt>
 51e5ffa:	e8 b1 c9 b3 02       	call   7d229b0 <pthread_mutex_lock@plt>
 51e6011:	e8 aa c9 b3 02       	call   7d229c0 <pthread_mutex_unlock@plt>
 51e604a:	e8 61 c9 b3 02       	call   7d229b0 <pthread_mutex_lock@plt>
 51e6066:	e8 55 c9 b3 02       	call   7d229c0 <pthread_mutex_unlock@plt>
 51e609a:	e8 11 c9 b3 02       	call   7d229b0 <pthread_mutex_lock@plt>
 51e60b1:	e8 0a c9 b3 02       	call   7d229c0 <pthread_mutex_unlock@plt>
 51e60ea:	e8 c1 c8 b3 02       	call   7d229b0 <pthread_mutex_lock@plt>
 51e6102:	e8 b9 c8 b3 02       	call   7d229c0 <pthread_mutex_unlock@plt>
 51e613a:	e8 71 c8 b3 02       	call   7d229b0 <pthread_mutex_lock@plt>
 51e6151:	e8 6a c8 b3 02       	call   7d229c0 <pthread_mutex_unlock@plt>
 51e618a:	e8 21 c8 b3 02       	call   7d229b0 <pthread_mutex_lock@plt>
 51e61a1:	e8 1a c8 b3 02       	call   7d229c0 <pthread_mutex_unlock@plt>
 51e61dd:	e8 ce c7 b3 02       	call   7d229b0 <pthread_mutex_lock@plt>
 51e61fe:	e8 bd c7 b3 02       	call   7d229c0 <pthread_mutex_unlock@plt>
 51e623a:	e8 71 c7 b3 02       	call   7d229b0 <pthread_mutex_lock@plt>
 51e6252:	e8 69 c7 b3 02       	call   7d229c0 <pthread_mutex_unlock@plt>
 51e6288:	e8 23 c7 b3 02       	call   7d229b0 <pthread_mutex_lock@plt>
 51e62a2:	e8 19 c7 b3 02       	call   7d229c0 <pthread_mutex_unlock@plt>
 51e62de:	e8 cd c6 b3 02       	call   7d229b0 <pthread_mutex_lock@plt>
 51e6300:	e9 bb c6 b3 02       	jmp    7d229c0 <pthread_mutex_unlock@plt>
 51e6324:	e8 87 c6 b3 02       	call   7d229b0 <pthread_mutex_lock@plt>
 51e634a:	e9 71 c6 b3 02       	jmp    7d229c0 <pthread_mutex_unlock@plt>
 51e65ab:	e8 00 c4 b3 02       	call   7d229b0 <pthread_mutex_lock@plt>
 51e6613:	e9 a8 c3 b3 02       	jmp    7d229c0 <pthread_mutex_unlock@plt>
 51e665e:	e8 4d c3 b3 02       	call   7d229b0 <pthread_mutex_lock@plt>
 51e66d7:	e9 e4 c2 b3 02       	jmp    7d229c0 <pthread_mutex_unlock@plt>
 51e6745:	e8 66 c2 b3 02       	call   7d229b0 <pthread_mutex_lock@plt>
 51e67a6:	e9 15 c2 b3 02       	jmp    7d229c0 <pthread_mutex_unlock@plt>
 51e680e:	e8 9d c1 b3 02       	call   7d229b0 <pthread_mutex_lock@plt>
 51e6871:	e9 4a c1 b3 02       	jmp    7d229c0 <pthread_mutex_unlock@plt>
 51e68be:	e8 ed c0 b3 02       	call   7d229b0 <pthread_mutex_lock@plt>
 51e6968:	e9 53 c0 b3 02       	jmp    7d229c0 <pthread_mutex_unlock@plt>
 51e6a0d:	e8 9e bf b3 02       	call   7d229b0 <pthread_mutex_lock@plt>
 51e6a74:	e9 47 bf b3 02       	jmp    7d229c0 <pthread_mutex_unlock@plt>
 51e6b7f:	e8 2c be b3 02       	call   7d229b0 <pthread_mutex_lock@plt>
 51e6bae:	e8 0d be b3 02       	call   7d229c0 <pthread_mutex_unlock@plt>
 51e6da2:	e8 19 bc b3 02       	call   7d229c0 <pthread_mutex_unlock@plt>
 51e6f93:	e8 18 ba b3 02       	call   7d229b0 <pthread_mutex_lock@plt>
 51e707b:	e9 40 b9 b3 02       	jmp    7d229c0 <pthread_mutex_unlock@plt>
 51e75fc:	e9 bf b3 b3 02       	jmp    7d229c0 <pthread_mutex_unlock@plt>
 51e7743:	e8 68 b2 b3 02       	call   7d229b0 <pthread_mutex_lock@plt>
 51e784b:	e9 70 b1 b3 02       	jmp    7d229c0 <pthread_mutex_unlock@plt>
 51e7919:	e8 92 b0 b3 02       	call   7d229b0 <pthread_mutex_lock@plt>
 51e798c:	e9 2f b0 b3 02       	jmp    7d229c0 <pthread_mutex_unlock@plt>
 51e7b58:	e8 53 ae b3 02       	call   7d229b0 <pthread_mutex_lock@plt>
 51e7be1:	e8 da ad b3 02       	call   7d229c0 <pthread_mutex_unlock@plt>
 51e829d:	e8 0e a7 b3 02       	call   7d229b0 <pthread_mutex_lock@plt>
 51e831f:	e9 9c a6 b3 02       	jmp    7d229c0 <pthread_mutex_unlock@plt>
 51e841b:	e9 a0 a5 b3 02       	jmp    7d229c0 <pthread_mutex_unlock@plt>
 51e877c:	e8 3f a2 b3 02       	call   7d229c0 <pthread_mutex_unlock@plt>
 51e8c7d:	e9 3e 9d b3 02       	jmp    7d229c0 <pthread_mutex_unlock@plt>
 51e8e77:	e9 44 9b b3 02       	jmp    7d229c0 <pthread_mutex_unlock@plt>
 51e915e:	e8 5d 98 b3 02       	call   7d229c0 <pthread_mutex_unlock@plt>
 51e9584:	e8 37 94 b3 02       	call   7d229c0 <pthread_mutex_unlock@plt>
 51e99dd:	e8 de 8f b3 02       	call   7d229c0 <pthread_mutex_unlock@plt>
 51ea246:	e9 75 87 b3 02       	jmp    7d229c0 <pthread_mutex_unlock@plt>
 51ea5fa:	e8 c1 83 b3 02       	call   7d229c0 <pthread_mutex_unlock@plt>
 51ea654:	e8 67 83 b3 02       	call   7d229c0 <pthread_mutex_unlock@plt>
 51ea698:	e8 23 83 b3 02       	call   7d229c0 <pthread_mutex_unlock@plt>
 51ea6be:	e8 fd 82 b3 02       	call   7d229c0 <pthread_mutex_unlock@plt>
 51ea6ec:	e8 cf 82 b3 02       	call   7d229c0 <pthread_mutex_unlock@plt>
 51ea718:	e8 a3 82 b3 02       	call   7d229c0 <pthread_mutex_unlock@plt>
 51ea76d:	e8 4e 82 b3 02       	call   7d229c0 <pthread_mutex_unlock@plt>
 51ea7c1:	e8 fa 81 b3 02       	call   7d229c0 <pthread_mutex_unlock@plt>
 51ea846:	e8 75 81 b3 02       	call   7d229c0 <pthread_mutex_unlock@plt>
 51ea8e0:	e8 db 80 b3 02       	call   7d229c0 <pthread_mutex_unlock@plt>
 51ea922:	e8 99 80 b3 02       	call   7d229c0 <pthread_mutex_unlock@plt>
 51ea952:	e8 69 80 b3 02       	call   7d229c0 <pthread_mutex_unlock@plt>
 51ea9b3:	e8 08 80 b3 02       	call   7d229c0 <pthread_mutex_unlock@plt>
 51eac0a:	e8 b1 7d b3 02       	call   7d229c0 <pthread_mutex_unlock@plt>
 51eac6f:	e8 4c 7d b3 02       	call   7d229c0 <pthread_mutex_unlock@plt>
 51eae06:	e8 b5 7b b3 02       	call   7d229c0 <pthread_mutex_unlock@plt>
 51eaf54:	e8 67 7a b3 02       	call   7d229c0 <pthread_mutex_unlock@plt>
 51eb07f:	e8 3c 79 b3 02       	call   7d229c0 <pthread_mutex_unlock@plt>
 51eb120:	e8 9b 78 b3 02       	call   7d229c0 <pthread_mutex_unlock@plt>
 51eb2db:	e8 e0 76 b3 02       	call   7d229c0 <pthread_mutex_unlock@plt>
 51eb4ae:	e8 0d 75 b3 02       	call   7d229c0 <pthread_mutex_unlock@plt>
 51eb9ff:	e8 bc 70 b3 02       	call   7d22ac0 <pthread_once@plt>
 51ec4fa:	e8 b1 64 b3 02       	call   7d229b0 <pthread_mutex_lock@plt>
 51ec54a:	e8 71 64 b3 02       	call   7d229c0 <pthread_mutex_unlock@plt>
 51ecf9c:	e8 0f 5a b3 02       	call   7d229b0 <pthread_mutex_lock@plt>
 51ecfb4:	e9 07 5a b3 02       	jmp    7d229c0 <pthread_mutex_unlock@plt>
 51ecfcd:	e8 de 59 b3 02       	call   7d229b0 <pthread_mutex_lock@plt>
 51ecfea:	e9 d1 59 b3 02       	jmp    7d229c0 <pthread_mutex_unlock@plt>
 51ed00b:	e8 a0 59 b3 02       	call   7d229b0 <pthread_mutex_lock@plt>
 51ed01c:	e8 9f 59 b3 02       	call   7d229c0 <pthread_mutex_unlock@plt>
 51ed04d:	e8 5e 59 b3 02       	call   7d229b0 <pthread_mutex_lock@plt>
 51ed060:	e8 5b 59 b3 02       	call   7d229c0 <pthread_mutex_unlock@plt>
 51ed072:	e8 39 59 b3 02       	call   7d229b0 <pthread_mutex_lock@plt>
 51ed08e:	e9 2d 59 b3 02       	jmp    7d229c0 <pthread_mutex_unlock@plt>
 51ed0d0:	e8 db 58 b3 02       	call   7d229b0 <pthread_mutex_lock@plt>
 51ed1fc:	e9 bf 57 b3 02       	jmp    7d229c0 <pthread_mutex_unlock@plt>
 51ed3d7:	e8 d4 55 b3 02       	call   7d229b0 <pthread_mutex_lock@plt>
 51ed698:	e8 23 53 b3 02       	call   7d229c0 <pthread_mutex_unlock@plt>
 51ed7e6:	e8 c5 51 b3 02       	call   7d229b0 <pthread_mutex_lock@plt>
 51ed952:	e8 69 50 b3 02       	call   7d229c0 <pthread_mutex_unlock@plt>
 51edb7c:	e8 2f 4e b3 02       	call   7d229b0 <pthread_mutex_lock@plt>
 51edbb6:	e9 05 4e b3 02       	jmp    7d229c0 <pthread_mutex_unlock@plt>
 51edf04:	e8 a7 4a b3 02       	call   7d229b0 <pthread_mutex_lock@plt>
 51ee0da:	e9 e1 48 b3 02       	jmp    7d229c0 <pthread_mutex_unlock@plt>
 51ee12e:	e8 7d 48 b3 02       	call   7d229b0 <pthread_mutex_lock@plt>
 51ee1ad:	e8 0e 48 b3 02       	call   7d229c0 <pthread_mutex_unlock@plt>
 51ee220:	e8 8b 47 b3 02       	call   7d229b0 <pthread_mutex_lock@plt>
 51eea20:	e8 8b 3f b3 02       	call   7d229b0 <pthread_mutex_lock@plt>
 51eefb9:	e8 f2 39 b3 02       	call   7d229b0 <pthread_mutex_lock@plt>
 51ef22f:	e9 8c 37 b3 02       	jmp    7d229c0 <pthread_mutex_unlock@plt>
 51f02e7:	e8 c4 26 b3 02       	call   7d229b0 <pthread_mutex_lock@plt>
 51f0a25:	e8 86 1f b3 02       	call   7d229b0 <pthread_mutex_lock@plt>
 51f0a3e:	e8 7d 1f b3 02       	call   7d229c0 <pthread_mutex_unlock@plt>
 51f0a73:	e9 48 1f b3 02       	jmp    7d229c0 <pthread_mutex_unlock@plt>
 51f0ad2:	e8 d9 1e b3 02       	call   7d229b0 <pthread_mutex_lock@plt>
 51f0b52:	e8 69 1e b3 02       	call   7d229c0 <pthread_mutex_unlock@plt>
 51f0ca2:	e8 09 1d b3 02       	call   7d229b0 <pthread_mutex_lock@plt>
 51f0fcd:	e8 ee 19 b3 02       	call   7d229c0 <pthread_mutex_unlock@plt>
 51f1f28:	e8 93 0b b3 02       	call   7d22ac0 <pthread_once@plt>
 51f4a76:	e8 45 e0 b2 02       	call   7d22ac0 <pthread_once@plt>
 51f97d4:	e8 e7 92 b2 02       	call   7d22ac0 <pthread_once@plt>
 51fa95e:	e8 4d 80 b2 02       	call   7d229b0 <pthread_mutex_lock@plt>
 51fa9b2:	e8 09 80 b2 02       	call   7d229c0 <pthread_mutex_unlock@plt>
 51fab57:	e8 54 7e b2 02       	call   7d229b0 <pthread_mutex_lock@plt>
 51facde:	e8 dd 7c b2 02       	call   7d229c0 <pthread_mutex_unlock@plt>
 51fb11a:	e8 91 78 b2 02       	call   7d229b0 <pthread_mutex_lock@plt>
 51fb132:	e8 89 78 b2 02       	call   7d229c0 <pthread_mutex_unlock@plt>
 51fb364:	e8 47 76 b2 02       	call   7d229b0 <pthread_mutex_lock@plt>
 51fb404:	e8 b7 75 b2 02       	call   7d229c0 <pthread_mutex_unlock@plt>
 51fbdbe:	e8 ed 6b b2 02       	call   7d229b0 <pthread_mutex_lock@plt>
 51fc014:	e8 a7 69 b2 02       	call   7d229c0 <pthread_mutex_unlock@plt>
 51fce4a:	e8 61 5b b2 02       	call   7d229b0 <pthread_mutex_lock@plt>
 51fce6c:	e9 4f 5b b2 02       	jmp    7d229c0 <pthread_mutex_unlock@plt>
 51fce9e:	e8 0d 5b b2 02       	call   7d229b0 <pthread_mutex_lock@plt>
 51fcee2:	e9 d9 5a b2 02       	jmp    7d229c0 <pthread_mutex_unlock@plt>
 51fd08f:	e8 1c 59 b2 02       	call   7d229b0 <pthread_mutex_lock@plt>
 51fd17a:	e9 41 58 b2 02       	jmp    7d229c0 <pthread_mutex_unlock@plt>
 51fd9a7:	e8 04 50 b2 02       	call   7d229b0 <pthread_mutex_lock@plt>
 51fda7e:	e8 3d 4f b2 02       	call   7d229c0 <pthread_mutex_unlock@plt>
 51fdca8:	e8 03 4d b2 02       	call   7d229b0 <pthread_mutex_lock@plt>
 51fe15d:	e8 5e 48 b2 02       	call   7d229c0 <pthread_mutex_unlock@plt>
 51fe33e:	e8 6d 46 b2 02       	call   7d229b0 <pthread_mutex_lock@plt>
 51fe3a9:	e8 12 46 b2 02       	call   7d229c0 <pthread_mutex_unlock@plt>
 51fe7a4:	e8 07 42 b2 02       	call   7d229b0 <pthread_mutex_lock@plt>
 51feafa:	e8 c1 3e b2 02       	call   7d229c0 <pthread_mutex_unlock@plt>
 51ff3ab:	e8 00 36 b2 02       	call   7d229b0 <pthread_mutex_lock@plt>
 51ff4ca:	e8 f1 34 b2 02       	call   7d229c0 <pthread_mutex_unlock@plt>
 52006d7:	e8 d4 22 b2 02       	call   7d229b0 <pthread_mutex_lock@plt>
 5200826:	e8 95 21 b2 02       	call   7d229c0 <pthread_mutex_unlock@plt>
 5203299:	e8 12 f7 b1 02       	call   7d229b0 <pthread_mutex_lock@plt>
 52035d7:	e8 e4 f3 b1 02       	call   7d229c0 <pthread_mutex_unlock@plt>
 52043d0:	e8 db e5 b1 02       	call   7d229b0 <pthread_mutex_lock@plt>
 5204665:	e8 56 e3 b1 02       	call   7d229c0 <pthread_mutex_unlock@plt>
 5204b04:	e8 b7 de b1 02       	call   7d229c0 <pthread_mutex_unlock@plt>
 5204b40:	e8 7b de b1 02       	call   7d229c0 <pthread_mutex_unlock@plt>
 5204bb3:	e8 08 de b1 02       	call   7d229c0 <pthread_mutex_unlock@plt>
 5204d3e:	e8 7d dc b1 02       	call   7d229c0 <pthread_mutex_unlock@plt>
 5204e9c:	e8 1f db b1 02       	call   7d229c0 <pthread_mutex_unlock@plt>
 5204ec8:	e8 f3 da b1 02       	call   7d229c0 <pthread_mutex_unlock@plt>
 5204f26:	e8 95 da b1 02       	call   7d229c0 <pthread_mutex_unlock@plt>
 5204fe9:	e8 d2 d9 b1 02       	call   7d229c0 <pthread_mutex_unlock@plt>
 5205014:	e8 a7 d9 b1 02       	call   7d229c0 <pthread_mutex_unlock@plt>
 52050ee:	e8 cd d8 b1 02       	call   7d229c0 <pthread_mutex_unlock@plt>
 5205170:	e8 4b d8 b1 02       	call   7d229c0 <pthread_mutex_unlock@plt>
 52052fb:	e8 c0 d6 b1 02       	call   7d229c0 <pthread_mutex_unlock@plt>
 52058a6:	e8 15 d1 b1 02       	call   7d229c0 <pthread_mutex_unlock@plt>
 5205ea7:	e8 14 cb b1 02       	call   7d229c0 <pthread_mutex_unlock@plt>
 52060f8:	e8 c3 c8 b1 02       	call   7d229c0 <pthread_mutex_unlock@plt>
 5207575:	e8 36 b4 b1 02       	call   7d229b0 <pthread_mutex_lock@plt>
 52076df:	e9 dc b2 b1 02       	jmp    7d229c0 <pthread_mutex_unlock@plt>
 5207d9a:	e8 21 ad b1 02       	call   7d22ac0 <pthread_once@plt>
 5209f3a:	e8 71 8a b1 02       	call   7d229b0 <pthread_mutex_lock@plt>
 5209f61:	e8 5a 8a b1 02       	call   7d229c0 <pthread_mutex_unlock@plt>
 5209fb3:	e8 f8 89 b1 02       	call   7d229b0 <pthread_mutex_lock@plt>
 520a264:	e8 57 87 b1 02       	call   7d229c0 <pthread_mutex_unlock@plt>
 520a347:	e8 64 86 b1 02       	call   7d229b0 <pthread_mutex_lock@plt>
 520a357:	e8 64 86 b1 02       	call   7d229c0 <pthread_mutex_unlock@plt>
 520a9a3:	e8 08 80 b1 02       	call   7d229b0 <pthread_mutex_lock@plt>
 520ac09:	e9 b2 7d b1 02       	jmp    7d229c0 <pthread_mutex_unlock@plt>
 520ac9d:	e8 0e 7d b1 02       	call   7d229b0 <pthread_mutex_lock@plt>
 520ad1f:	e8 9c 7c b1 02       	call   7d229c0 <pthread_mutex_unlock@plt>
 520ad85:	e8 26 7c b1 02       	call   7d229b0 <pthread_mutex_lock@plt>
 520afff:	e8 bc 79 b1 02       	call   7d229c0 <pthread_mutex_unlock@plt>
 520bd51:	e8 5a 6c b1 02       	call   7d229b0 <pthread_mutex_lock@plt>
 520bd6e:	e8 4d 6c b1 02       	call   7d229c0 <pthread_mutex_unlock@plt>
 520bec4:	e8 e7 6a b1 02       	call   7d229b0 <pthread_mutex_lock@plt>
 520bee1:	e8 da 6a b1 02       	call   7d229c0 <pthread_mutex_unlock@plt>
 520c462:	e8 49 65 b1 02       	call   7d229b0 <pthread_mutex_lock@plt>
 520c4ef:	e8 cc 64 b1 02       	call   7d229c0 <pthread_mutex_unlock@plt>
 520c5ef:	e8 bc 63 b1 02       	call   7d229b0 <pthread_mutex_lock@plt>
 520c847:	e8 74 61 b1 02       	call   7d229c0 <pthread_mutex_unlock@plt>
 520cced:	e8 be 5c b1 02       	call   7d229b0 <pthread_mutex_lock@plt>
 520cf87:	e8 34 5a b1 02       	call   7d229c0 <pthread_mutex_unlock@plt>
 520d87a:	e8 41 51 b1 02       	call   7d229c0 <pthread_mutex_unlock@plt>
 520d8a6:	e8 15 51 b1 02       	call   7d229c0 <pthread_mutex_unlock@plt>
 520d8ef:	e8 cc 50 b1 02       	call   7d229c0 <pthread_mutex_unlock@plt>
 520db3e:	e8 7d 4e b1 02       	call   7d229c0 <pthread_mutex_unlock@plt>
 520dd9d:	e8 1e 4c b1 02       	call   7d229c0 <pthread_mutex_unlock@plt>
 520e4a5:	e8 16 46 b1 02       	call   7d22ac0 <pthread_once@plt>
 520fb1b:	e8 a0 2f b1 02       	call   7d22ac0 <pthread_once@plt>
 5210734:	e8 87 23 b1 02       	call   7d22ac0 <pthread_once@plt>
 52107cc:	e8 ef 22 b1 02       	call   7d22ac0 <pthread_once@plt>
 521086b:	e8 50 22 b1 02       	call   7d22ac0 <pthread_once@plt>
 5210a99:	e8 12 1f b1 02       	call   7d229b0 <pthread_mutex_lock@plt>
 5210bde:	e9 dd 1d b1 02       	jmp    7d229c0 <pthread_mutex_unlock@plt>
 5210ec0:	e8 eb 1a b1 02       	call   7d229b0 <pthread_mutex_lock@plt>
 5210f88:	e9 33 1a b1 02       	jmp    7d229c0 <pthread_mutex_unlock@plt>
 5211060:	e8 4b 19 b1 02       	call   7d229b0 <pthread_mutex_lock@plt>
 5211149:	e9 72 18 b1 02       	jmp    7d229c0 <pthread_mutex_unlock@plt>
 5211249:	e8 62 17 b1 02       	call   7d229b0 <pthread_mutex_lock@plt>
 5211403:	e8 b8 15 b1 02       	call   7d229c0 <pthread_mutex_unlock@plt>
 521158c:	e8 1f 14 b1 02       	call   7d229b0 <pthread_mutex_lock@plt>
 5211762:	e9 59 12 b1 02       	jmp    7d229c0 <pthread_mutex_unlock@plt>
 5211e26:	e8 85 0b b1 02       	call   7d229b0 <pthread_mutex_lock@plt>
 5211efd:	e9 be 0a b1 02       	jmp    7d229c0 <pthread_mutex_unlock@plt>
 5211f49:	e8 62 0a b1 02       	call   7d229b0 <pthread_mutex_lock@plt>
 5211f8c:	e9 2f 0a b1 02       	jmp    7d229c0 <pthread_mutex_unlock@plt>
 521200f:	e8 9c 09 b1 02       	call   7d229b0 <pthread_mutex_lock@plt>
 521202c:	e8 8f 09 b1 02       	call   7d229c0 <pthread_mutex_unlock@plt>
 5212522:	e8 89 04 b1 02       	call   7d229b0 <pthread_mutex_lock@plt>
 52126b2:	e8 09 03 b1 02       	call   7d229c0 <pthread_mutex_unlock@plt>
 5212b1c:	e8 8f fe b0 02       	call   7d229b0 <pthread_mutex_lock@plt>
 5212c3d:	e8 7e fd b0 02       	call   7d229c0 <pthread_mutex_unlock@plt>
 5212d3c:	e8 6f fc b0 02       	call   7d229b0 <pthread_mutex_lock@plt>
 5212f19:	e9 a2 fa b0 02       	jmp    7d229c0 <pthread_mutex_unlock@plt>
 5213264:	e8 47 f7 b0 02       	call   7d229b0 <pthread_mutex_lock@plt>
 5213379:	e9 42 f6 b0 02       	jmp    7d229c0 <pthread_mutex_unlock@plt>
 5213b11:	e8 9a ee b0 02       	call   7d229b0 <pthread_mutex_lock@plt>
 521463c:	e9 7f e3 b0 02       	jmp    7d229c0 <pthread_mutex_unlock@plt>
 521498c:	e8 1f e0 b0 02       	call   7d229b0 <pthread_mutex_lock@plt>
 5214adc:	e9 df de b0 02       	jmp    7d229c0 <pthread_mutex_unlock@plt>
 5214c32:	e8 89 dd b0 02       	call   7d229c0 <pthread_mutex_unlock@plt>
 5214c76:	e8 45 dd b0 02       	call   7d229c0 <pthread_mutex_unlock@plt>
 5214c8e:	e8 2d dd b0 02       	call   7d229c0 <pthread_mutex_unlock@plt>
 5214ceb:	e8 d0 dc b0 02       	call   7d229c0 <pthread_mutex_unlock@plt>
 5214d39:	e8 82 dc b0 02       	call   7d229c0 <pthread_mutex_unlock@plt>
 5214d52:	e8 69 dc b0 02       	call   7d229c0 <pthread_mutex_unlock@plt>
 5214db1:	e8 0a dc b0 02       	call   7d229c0 <pthread_mutex_unlock@plt>
 5214fd6:	e8 e5 d9 b0 02       	call   7d229c0 <pthread_mutex_unlock@plt>
 5215128:	e8 93 d8 b0 02       	call   7d229c0 <pthread_mutex_unlock@plt>
 5215313:	e8 a8 d6 b0 02       	call   7d229c0 <pthread_mutex_unlock@plt>
 5215448:	e8 73 d5 b0 02       	call   7d229c0 <pthread_mutex_unlock@plt>
 5215ca3:	e8 18 ce b0 02       	call   7d22ac0 <pthread_once@plt>
 5217b31:	e8 8a af b0 02       	call   7d22ac0 <pthread_once@plt>
 521827a:	e8 31 a7 b0 02       	call   7d229b0 <pthread_mutex_lock@plt>
 52182ca:	e8 f1 a6 b0 02       	call   7d229c0 <pthread_mutex_unlock@plt>
 5219a0e:	e8 ad 90 b0 02       	call   7d22ac0 <pthread_once@plt>
 5219aa6:	e8 15 90 b0 02       	call   7d22ac0 <pthread_once@plt>
 5219b3e:	e8 7d 8f b0 02       	call   7d22ac0 <pthread_once@plt>
 5223a8a:	e8 21 ef af 02       	call   7d229b0 <pthread_mutex_lock@plt>
 5223c5a:	e8 61 ed af 02       	call   7d229c0 <pthread_mutex_unlock@plt>
 52244ed:	e8 be e4 af 02       	call   7d229b0 <pthread_mutex_lock@plt>
 52246ee:	e9 cd e2 af 02       	jmp    7d229c0 <pthread_mutex_unlock@plt>
 522491a:	e8 91 e0 af 02       	call   7d229b0 <pthread_mutex_lock@plt>
 522493b:	e8 80 e0 af 02       	call   7d229c0 <pthread_mutex_unlock@plt>
 5224ae6:	e8 c5 de af 02       	call   7d229b0 <pthread_mutex_lock@plt>
 5224b66:	e9 55 de af 02       	jmp    7d229c0 <pthread_mutex_unlock@plt>
 5224bb9:	e8 f2 dd af 02       	call   7d229b0 <pthread_mutex_lock@plt>
 5224c1e:	e8 8d dd af 02       	call   7d229b0 <pthread_mutex_lock@plt>
 5224c79:	e8 42 dd af 02       	call   7d229c0 <pthread_mutex_unlock@plt>
 5224d2b:	e8 80 dc af 02       	call   7d229b0 <pthread_mutex_lock@plt>
 5224d93:	e8 28 dc af 02       	call   7d229c0 <pthread_mutex_unlock@plt>
 522529b:	e8 10 d7 af 02       	call   7d229b0 <pthread_mutex_lock@plt>
 52253a7:	e9 14 d6 af 02       	jmp    7d229c0 <pthread_mutex_unlock@plt>
 52256af:	e8 fc d2 af 02       	call   7d229b0 <pthread_mutex_lock@plt>
 5225a68:	e8 43 cf af 02       	call   7d229b0 <pthread_mutex_lock@plt>
 5225aec:	e8 cf ce af 02       	call   7d229c0 <pthread_mutex_unlock@plt>
 5225d50:	e8 5b cc af 02       	call   7d229b0 <pthread_mutex_lock@plt>
 5225d79:	e8 42 cc af 02       	call   7d229c0 <pthread_mutex_unlock@plt>
 5225e60:	e8 4b cb af 02       	call   7d229b0 <pthread_mutex_lock@plt>
 52261a8:	e9 13 c8 af 02       	jmp    7d229c0 <pthread_mutex_unlock@plt>
 5226262:	e8 49 c7 af 02       	call   7d229b0 <pthread_mutex_lock@plt>
 52262c0:	e8 fb c6 af 02       	call   7d229c0 <pthread_mutex_unlock@plt>
 52264a2:	e8 09 c5 af 02       	call   7d229b0 <pthread_mutex_lock@plt>
 5226572:	e8 39 c4 af 02       	call   7d229b0 <pthread_mutex_lock@plt>
 52265df:	e8 dc c3 af 02       	call   7d229c0 <pthread_mutex_unlock@plt>
 52267ba:	e8 f1 c1 af 02       	call   7d229b0 <pthread_mutex_lock@plt>
 52269ea:	e8 d1 bf af 02       	call   7d229c0 <pthread_mutex_unlock@plt>
 5226a4a:	e8 71 bf af 02       	call   7d229c0 <pthread_mutex_unlock@plt>
 5226ae4:	e8 d7 be af 02       	call   7d229c0 <pthread_mutex_unlock@plt>
 5226b15:	e8 96 be af 02       	call   7d229b0 <pthread_mutex_lock@plt>
 5226b42:	e8 79 be af 02       	call   7d229c0 <pthread_mutex_unlock@plt>
 5226bc2:	e9 f9 bd af 02       	jmp    7d229c0 <pthread_mutex_unlock@plt>
 5226bec:	e8 cf bd af 02       	call   7d229c0 <pthread_mutex_unlock@plt>
 5226cb4:	e8 07 bd af 02       	call   7d229c0 <pthread_mutex_unlock@plt>
 5226e03:	e8 b8 bb af 02       	call   7d229c0 <pthread_mutex_unlock@plt>
 5227066:	e8 55 b9 af 02       	call   7d229c0 <pthread_mutex_unlock@plt>
 522732a:	e8 91 b6 af 02       	call   7d229c0 <pthread_mutex_unlock@plt>
 522741b:	e8 a0 b5 af 02       	call   7d229c0 <pthread_mutex_unlock@plt>
 5227b03:	e8 a8 ae af 02       	call   7d229b0 <pthread_mutex_lock@plt>
 5227bbe:	e9 fd ad af 02       	jmp    7d229c0 <pthread_mutex_unlock@plt>
 52283e5:	e8 d6 a6 af 02       	call   7d22ac0 <pthread_once@plt>
 5228af7:	e8 b4 9e af 02       	call   7d229b0 <pthread_mutex_lock@plt>
 5228b08:	e8 b3 9e af 02       	call   7d229c0 <pthread_mutex_unlock@plt>
 5229171:	e8 3a 98 af 02       	call   7d229b0 <pthread_mutex_lock@plt>
 5229185:	e9 36 98 af 02       	jmp    7d229c0 <pthread_mutex_unlock@plt>
 52292dd:	e8 ce 96 af 02       	call   7d229b0 <pthread_mutex_lock@plt>
 52294a0:	e9 1b 95 af 02       	jmp    7d229c0 <pthread_mutex_unlock@plt>
 5229590:	e8 1b 94 af 02       	call   7d229b0 <pthread_mutex_lock@plt>
 52298f9:	e9 c2 90 af 02       	jmp    7d229c0 <pthread_mutex_unlock@plt>
 5229b87:	e8 24 8e af 02       	call   7d229b0 <pthread_mutex_lock@plt>
 522a342:	e8 79 86 af 02       	call   7d229c0 <pthread_mutex_unlock@plt>
 522ac45:	e8 76 7d af 02       	call   7d229c0 <pthread_mutex_unlock@plt>
 522add0:	e8 eb 7b af 02       	call   7d229c0 <pthread_mutex_unlock@plt>
 522ae3c:	e8 7f 7b af 02       	call   7d229c0 <pthread_mutex_unlock@plt>
 522b3f8:	e8 c3 76 af 02       	call   7d22ac0 <pthread_once@plt>
 522ec51:	e8 6a 3e af 02       	call   7d22ac0 <pthread_once@plt>
 522f26a:	e8 41 37 af 02       	call   7d229b0 <pthread_mutex_lock@plt>
 522f2ba:	e8 01 37 af 02       	call   7d229c0 <pthread_mutex_unlock@plt>
 523b4e7:	e8 d4 75 ae 02       	call   7d22ac0 <pthread_once@plt>
 523bb50:	e8 6b 6f ae 02       	call   7d22ac0 <pthread_once@plt>
 523c1a5:	e8 16 69 ae 02       	call   7d22ac0 <pthread_once@plt>
 523c872:	e8 49 62 ae 02       	call   7d22ac0 <pthread_once@plt>
 523cb93:	e8 28 5f ae 02       	call   7d22ac0 <pthread_once@plt>
 523d2c0:	e8 fb 57 ae 02       	call   7d22ac0 <pthread_once@plt>
 523d41c:	e8 9f 56 ae 02       	call   7d22ac0 <pthread_once@plt>
 523d4be:	e8 fd 55 ae 02       	call   7d22ac0 <pthread_once@plt>
 523d783:	e8 38 53 ae 02       	call   7d22ac0 <pthread_once@plt>
 523e5c1:	e8 fa 44 ae 02       	call   7d22ac0 <pthread_once@plt>
 523feae:	e8 0d 2c ae 02       	call   7d22ac0 <pthread_once@plt>
 52412b8:	e8 03 18 ae 02       	call   7d22ac0 <pthread_once@plt>
 5241679:	e8 42 14 ae 02       	call   7d22ac0 <pthread_once@plt>
 52418b0:	e8 0b 12 ae 02       	call   7d22ac0 <pthread_once@plt>
 5242604:	e8 b7 04 ae 02       	call   7d22ac0 <pthread_once@plt>
 524c249:	e8 72 68 ad 02       	call   7d22ac0 <pthread_once@plt>
 525a912:	e8 a9 81 ac 02       	call   7d22ac0 <pthread_once@plt>
 525d60e:	e8 ad 54 ac 02       	call   7d22ac0 <pthread_once@plt>
 5267860:	e8 5b b2 ab 02       	call   7d22ac0 <pthread_once@plt>
 52686ab:	e8 10 a4 ab 02       	call   7d22ac0 <pthread_once@plt>
 5268db4:	e8 f7 9b ab 02       	call   7d229b0 <pthread_mutex_lock@plt>
 5268ddb:	e8 e0 9b ab 02       	call   7d229c0 <pthread_mutex_unlock@plt>
 5268e24:	e8 87 9b ab 02       	call   7d229b0 <pthread_mutex_lock@plt>
 5268e3f:	e8 7c 9b ab 02       	call   7d229c0 <pthread_mutex_unlock@plt>
 5268fff:	e8 bc 9a ab 02       	call   7d22ac0 <pthread_once@plt>
 5269ba7:	e8 04 8e ab 02       	call   7d229b0 <pthread_mutex_lock@plt>
 5269bd5:	e8 e6 8d ab 02       	call   7d229c0 <pthread_mutex_unlock@plt>
 526c896:	e8 25 62 ab 02       	call   7d22ac0 <pthread_once@plt>
 526cb03:	e8 b8 5f ab 02       	call   7d22ac0 <pthread_once@plt>
 526cc93:	e8 28 5e ab 02       	call   7d22ac0 <pthread_once@plt>
 526ce23:	e8 98 5c ab 02       	call   7d22ac0 <pthread_once@plt>
 526f3dc:	e8 3f 36 ab 02       	call   7d22a20 <pthread_mutex_init@plt>
 5270fa6:	e8 15 1b ab 02       	call   7d22ac0 <pthread_once@plt>
 5271cab:	e8 10 0e ab 02       	call   7d22ac0 <pthread_once@plt>
 5271e9a:	e8 11 0b ab 02       	call   7d229b0 <pthread_mutex_lock@plt>
 5271eea:	e8 d1 0a ab 02       	call   7d229c0 <pthread_mutex_unlock@plt>
 527437a:	e8 41 e7 aa 02       	call   7d22ac0 <pthread_once@plt>
 527569b:	e8 20 d4 aa 02       	call   7d22ac0 <pthread_once@plt>
 5275e7a:	e8 41 cc aa 02       	call   7d22ac0 <pthread_once@plt>
 527da1e:	e8 9d 50 aa 02       	call   7d22ac0 <pthread_once@plt>
 527dbba:	e8 f1 4d aa 02       	call   7d229b0 <pthread_mutex_lock@plt>
 527dc0a:	e8 b1 4d aa 02       	call   7d229c0 <pthread_mutex_unlock@plt>
 5281ff0:	e8 bb 09 aa 02       	call   7d229b0 <pthread_mutex_lock@plt>
 5289b75:	e8 46 8f a9 02       	call   7d22ac0 <pthread_once@plt>
 528b73b:	e8 80 73 a9 02       	call   7d22ac0 <pthread_once@plt>
 528c2c9:	e8 f2 67 a9 02       	call   7d22ac0 <pthread_once@plt>
 528c79f:	e8 1c 63 a9 02       	call   7d22ac0 <pthread_once@plt>
 528c83f:	e8 7c 62 a9 02       	call   7d22ac0 <pthread_once@plt>
 528c8df:	e8 dc 61 a9 02       	call   7d22ac0 <pthread_once@plt>
 528ef07:	e8 b4 3b a9 02       	call   7d22ac0 <pthread_once@plt>
 529185b:	e8 60 12 a9 02       	call   7d22ac0 <pthread_once@plt>
 52965f5:	e8 c6 c4 a8 02       	call   7d22ac0 <pthread_once@plt>
 52980db:	e8 e0 a9 a8 02       	call   7d22ac0 <pthread_once@plt>
 52a07ce:	e8 ed 22 a8 02       	call   7d22ac0 <pthread_once@plt>
 52a4119:	e8 a2 e9 a7 02       	call   7d22ac0 <pthread_once@plt>
 52a596b:	e8 50 d1 a7 02       	call   7d22ac0 <pthread_once@plt>
 52a86ab:	e8 10 a4 a7 02       	call   7d22ac0 <pthread_once@plt>
 52aaf9b:	e8 20 7b a7 02       	call   7d22ac0 <pthread_once@plt>
 52aedf6:	e8 c5 3c a7 02       	call   7d22ac0 <pthread_once@plt>
 52b2a3a:	e8 81 00 a7 02       	call   7d22ac0 <pthread_once@plt>
 52b3eeb:	e8 c0 ea a6 02       	call   7d229b0 <pthread_mutex_lock@plt>
 52b3f6c:	e9 4f ea a6 02       	jmp    7d229c0 <pthread_mutex_unlock@plt>
 52b4527:	e8 84 e4 a6 02       	call   7d229b0 <pthread_mutex_lock@plt>
 52b45b0:	e9 0b e4 a6 02       	jmp    7d229c0 <pthread_mutex_unlock@plt>
 52b460f:	e8 9c e3 a6 02       	call   7d229b0 <pthread_mutex_lock@plt>
 52b464e:	e8 6d e3 a6 02       	call   7d229c0 <pthread_mutex_unlock@plt>
 52b5694:	e8 17 d3 a6 02       	call   7d229b0 <pthread_mutex_lock@plt>
 52b56fe:	e9 bd d2 a6 02       	jmp    7d229c0 <pthread_mutex_unlock@plt>
 52b870e:	e8 ad a2 a6 02       	call   7d229c0 <pthread_mutex_unlock@plt>
 52b87ce:	e8 ed a1 a6 02       	call   7d229c0 <pthread_mutex_unlock@plt>
 52b8906:	e8 b5 a0 a6 02       	call   7d229c0 <pthread_mutex_unlock@plt>
 52ba0ee:	e8 cd 89 a6 02       	call   7d22ac0 <pthread_once@plt>
 52bb5aa:	e8 11 75 a6 02       	call   7d22ac0 <pthread_once@plt>
 52bb807:	e8 b4 72 a6 02       	call   7d22ac0 <pthread_once@plt>
 52bd29a:	e8 21 58 a6 02       	call   7d22ac0 <pthread_once@plt>
 52c874a:	e8 71 a3 a5 02       	call   7d22ac0 <pthread_once@plt>
 52d2982:	e8 39 01 a5 02       	call   7d22ac0 <pthread_once@plt>
 52d5a1a:	e8 a1 d0 a4 02       	call   7d22ac0 <pthread_once@plt>
 52dc35a:	e8 61 67 a4 02       	call   7d22ac0 <pthread_once@plt>
 52e896b:	e8 50 a1 a3 02       	call   7d22ac0 <pthread_once@plt>
 52e9b2b:	e8 90 8f a3 02       	call   7d22ac0 <pthread_once@plt>
 52ec99b:	e8 20 61 a3 02       	call   7d22ac0 <pthread_once@plt>
 52f4f1e:	e8 9d db a2 02       	call   7d22ac0 <pthread_once@plt>
 52f5a66:	e8 55 d0 a2 02       	call   7d22ac0 <pthread_once@plt>
 531b283:	e8 38 78 a0 02       	call   7d22ac0 <pthread_once@plt>
 531cd4a:	e8 61 5c a0 02       	call   7d229b0 <pthread_mutex_lock@plt>
 531cd9a:	e8 21 5c a0 02       	call   7d229c0 <pthread_mutex_unlock@plt>
 53284db:	e8 e0 a5 9f 02       	call   7d22ac0 <pthread_once@plt>
 532866a:	e8 41 a3 9f 02       	call   7d229b0 <pthread_mutex_lock@plt>
 53286ba:	e8 01 a3 9f 02       	call   7d229c0 <pthread_mutex_unlock@plt>
 5329af2:	e8 c9 8f 9f 02       	call   7d22ac0 <pthread_once@plt>
 532ad06:	e8 b5 7d 9f 02       	call   7d22ac0 <pthread_once@plt>
 532b75a:	e8 51 72 9f 02       	call   7d229b0 <pthread_mutex_lock@plt>
 532b7aa:	e8 11 72 9f 02       	call   7d229c0 <pthread_mutex_unlock@plt>
 5336cb4:	e8 f7 bc 9e 02       	call   7d229b0 <pthread_mutex_lock@plt>
 533df0a:	e8 b1 4b 9e 02       	call   7d22ac0 <pthread_once@plt>
 533f516:	e8 a5 35 9e 02       	call   7d22ac0 <pthread_once@plt>
 534359c:	e8 1f f5 9d 02       	call   7d22ac0 <pthread_once@plt>
 5344649:	e8 62 e3 9d 02       	call   7d229b0 <pthread_mutex_lock@plt>
 53448d0:	e8 db e0 9d 02       	call   7d229b0 <pthread_mutex_lock@plt>
 5344f66:	e8 45 da 9d 02       	call   7d229b0 <pthread_mutex_lock@plt>
 53452d5:	e8 d6 d6 9d 02       	call   7d229b0 <pthread_mutex_lock@plt>
 53455bb:	e8 f0 d3 9d 02       	call   7d229b0 <pthread_mutex_lock@plt>
 5345699:	e8 22 d3 9d 02       	call   7d229c0 <pthread_mutex_unlock@plt>
 53457ea:	e8 c1 d1 9d 02       	call   7d229b0 <pthread_mutex_lock@plt>
 5345e04:	e8 a7 cb 9d 02       	call   7d229b0 <pthread_mutex_lock@plt>
 53462eb:	e8 20 cb 9d 02       	call   7d22e10 <pthread_mutex_destroy@plt>
 5346d6a:	e8 51 bc 9d 02       	call   7d229c0 <pthread_mutex_unlock@plt>
 5346de8:	e8 33 bc 9d 02       	call   7d22a20 <pthread_mutex_init@plt>
 5347787:	e8 34 b2 9d 02       	call   7d229c0 <pthread_mutex_unlock@plt>
 5348973:	e8 38 a0 9d 02       	call   7d229b0 <pthread_mutex_lock@plt>
 5348b82:	e8 39 9e 9d 02       	call   7d229c0 <pthread_mutex_unlock@plt>
 5348cd6:	e8 d5 9c 9d 02       	call   7d229b0 <pthread_mutex_lock@plt>
 5348dcd:	e8 de 9b 9d 02       	call   7d229b0 <pthread_mutex_lock@plt>
 5348e85:	e8 26 9b 9d 02       	call   7d229b0 <pthread_mutex_lock@plt>
 5348f19:	e8 a2 9a 9d 02       	call   7d229c0 <pthread_mutex_unlock@plt>
 5348f4a:	e8 71 9a 9d 02       	call   7d229c0 <pthread_mutex_unlock@plt>
 534997c:	e8 8f 94 9d 02       	call   7d22e10 <pthread_mutex_destroy@plt>
 5349c52:	e8 69 8d 9d 02       	call   7d229c0 <pthread_mutex_unlock@plt>
 5349ccb:	e8 f0 8c 9d 02       	call   7d229c0 <pthread_mutex_unlock@plt>
 5349d02:	e8 b9 8c 9d 02       	call   7d229c0 <pthread_mutex_unlock@plt>
 5349d8a:	e8 31 8c 9d 02       	call   7d229c0 <pthread_mutex_unlock@plt>
 534afad:	e8 fe 79 9d 02       	call   7d229b0 <pthread_mutex_lock@plt>
 534b04f:	e8 6c 79 9d 02       	call   7d229c0 <pthread_mutex_unlock@plt>
 534b2c6:	e8 f5 76 9d 02       	call   7d229c0 <pthread_mutex_unlock@plt>
 534b332:	e8 79 76 9d 02       	call   7d229b0 <pthread_mutex_lock@plt>
 534b3da:	e8 e1 75 9d 02       	call   7d229c0 <pthread_mutex_unlock@plt>
 534b415:	e8 96 75 9d 02       	call   7d229b0 <pthread_mutex_lock@plt>
 534b6a7:	e8 14 73 9d 02       	call   7d229c0 <pthread_mutex_unlock@plt>
 534c647:	e8 74 64 9d 02       	call   7d22ac0 <pthread_once@plt>
 534cd38:	e8 73 5c 9d 02       	call   7d229b0 <pthread_mutex_lock@plt>
 534cd6f:	e8 4c 5c 9d 02       	call   7d229c0 <pthread_mutex_unlock@plt>
 53520ea:	e8 d1 09 9d 02       	call   7d22ac0 <pthread_once@plt>
 535552a:	e8 91 d5 9c 02       	call   7d22ac0 <pthread_once@plt>
 535592a:	e8 81 d0 9c 02       	call   7d229b0 <pthread_mutex_lock@plt>
 535597a:	e8 41 d0 9c 02       	call   7d229c0 <pthread_mutex_unlock@plt>
 535a297:	e8 24 88 9c 02       	call   7d22ac0 <pthread_once@plt>
 535b7c6:	e8 f5 72 9c 02       	call   7d22ac0 <pthread_once@plt>
 536352a:	e8 91 f5 9b 02       	call   7d22ac0 <pthread_once@plt>
 53656ea:	e8 c1 d2 9b 02       	call   7d229b0 <pthread_mutex_lock@plt>
 536577d:	e9 3e d2 9b 02       	jmp    7d229c0 <pthread_mutex_unlock@plt>
 5366073:	e8 48 c9 9b 02       	call   7d229c0 <pthread_mutex_unlock@plt>
 536616f:	e8 4c c8 9b 02       	call   7d229c0 <pthread_mutex_unlock@plt>
 536618c:	e8 2f c8 9b 02       	call   7d229c0 <pthread_mutex_unlock@plt>
 5366320:	e8 9b c6 9b 02       	call   7d229c0 <pthread_mutex_unlock@plt>
 536c517:	e8 a4 65 9b 02       	call   7d22ac0 <pthread_once@plt>
 536dfda:	e8 e1 4a 9b 02       	call   7d22ac0 <pthread_once@plt>
 537167a:	e8 41 14 9b 02       	call   7d22ac0 <pthread_once@plt>
 53755aa:	e8 11 d5 9a 02       	call   7d22ac0 <pthread_once@plt>
 53765b6:	e8 05 c5 9a 02       	call   7d22ac0 <pthread_once@plt>
 537964a:	e8 71 94 9a 02       	call   7d22ac0 <pthread_once@plt>
 537afea:	e8 d1 7a 9a 02       	call   7d22ac0 <pthread_once@plt>
 537d9da:	e8 e1 50 9a 02       	call   7d22ac0 <pthread_once@plt>
 5386759:	e8 62 c3 99 02       	call   7d22ac0 <pthread_once@plt>
 538a5fa:	e8 c1 84 99 02       	call   7d22ac0 <pthread_once@plt>
 538e2fa:	e8 c1 47 99 02       	call   7d22ac0 <pthread_once@plt>
 53902da:	e8 e1 27 99 02       	call   7d22ac0 <pthread_once@plt>
 539354a:	e8 71 f5 98 02       	call   7d22ac0 <pthread_once@plt>
 5394f0a:	e8 b1 db 98 02       	call   7d22ac0 <pthread_once@plt>
 53971ba:	e8 01 b9 98 02       	call   7d22ac0 <pthread_once@plt>
 53a148e:	e8 1d 15 98 02       	call   7d229b0 <pthread_mutex_lock@plt>
 53a16ca:	e8 f1 12 98 02       	call   7d229c0 <pthread_mutex_unlock@plt>
 53a1de6:	e8 d5 0c 98 02       	call   7d22ac0 <pthread_once@plt>
 53a5650:	e8 5b d3 97 02       	call   7d229b0 <pthread_mutex_lock@plt>
 53a6234:	e8 87 c7 97 02       	call   7d229c0 <pthread_mutex_unlock@plt>
 53aa69a:	e8 21 84 97 02       	call   7d22ac0 <pthread_once@plt>
 53acbea:	e8 d1 5e 97 02       	call   7d22ac0 <pthread_once@plt>
 53b285f:	e8 5c 02 97 02       	call   7d22ac0 <pthread_once@plt>
 53b6aa7:	e8 04 bf 96 02       	call   7d229b0 <pthread_mutex_lock@plt>
 53b70da:	e9 e1 b8 96 02       	jmp    7d229c0 <pthread_mutex_unlock@plt>
 53b7ad6:	e8 e5 ae 96 02       	call   7d229c0 <pthread_mutex_unlock@plt>
 53b960a:	e8 b1 94 96 02       	call   7d22ac0 <pthread_once@plt>
 53bece8:	e8 d3 3d 96 02       	call   7d22ac0 <pthread_once@plt>
 53c059a:	e8 21 25 96 02       	call   7d22ac0 <pthread_once@plt>
 53c187a:	e8 41 12 96 02       	call   7d22ac0 <pthread_once@plt>
 53c2d8a:	e8 31 fd 95 02       	call   7d22ac0 <pthread_once@plt>
 53c433a:	e8 81 e7 95 02       	call   7d22ac0 <pthread_once@plt>
 53c63da:	e8 e1 c6 95 02       	call   7d22ac0 <pthread_once@plt>
 53c95b2:	e8 09 95 95 02       	call   7d22ac0 <pthread_once@plt>
 53cbaea:	e8 d1 6f 95 02       	call   7d22ac0 <pthread_once@plt>
 53cd31a:	e8 a1 57 95 02       	call   7d22ac0 <pthread_once@plt>
 53d334a:	e8 71 f7 94 02       	call   7d22ac0 <pthread_once@plt>
 53d4f6a:	e8 51 db 94 02       	call   7d22ac0 <pthread_once@plt>
 53d6c5a:	e8 61 be 94 02       	call   7d22ac0 <pthread_once@plt>
 53db62a:	e8 91 74 94 02       	call   7d22ac0 <pthread_once@plt>
 53dbbbd:	e8 ee 6d 94 02       	call   7d229b0 <pthread_mutex_lock@plt>
 53dbc18:	e8 a3 6d 94 02       	call   7d229c0 <pthread_mutex_unlock@plt>
 53dbcdf:	e8 dc 6c 94 02       	call   7d229c0 <pthread_mutex_unlock@plt>
 53dbde0:	e8 db 6b 94 02       	call   7d229c0 <pthread_mutex_unlock@plt>
 53dbe32:	e8 89 6b 94 02       	call   7d229c0 <pthread_mutex_unlock@plt>
 53de4ba:	e8 01 46 94 02       	call   7d22ac0 <pthread_once@plt>
 53e1a99:	e8 22 10 94 02       	call   7d22ac0 <pthread_once@plt>
 53e740b:	e8 b0 b6 93 02       	call   7d22ac0 <pthread_once@plt>
 53e845a:	e8 61 a6 93 02       	call   7d22ac0 <pthread_once@plt>
 53ea76a:	e8 51 83 93 02       	call   7d22ac0 <pthread_once@plt>
 53ec9e2:	e8 d9 60 93 02       	call   7d22ac0 <pthread_once@plt>
 53ecf4a:	e8 61 5a 93 02       	call   7d229b0 <pthread_mutex_lock@plt>
 53ecf9a:	e8 21 5a 93 02       	call   7d229c0 <pthread_mutex_unlock@plt>
 53f3a46:	e8 75 f0 92 02       	call   7d22ac0 <pthread_once@plt>
 53f6e1a:	e8 a1 bc 92 02       	call   7d22ac0 <pthread_once@plt>
 53fabbe:	e8 fd 7e 92 02       	call   7d22ac0 <pthread_once@plt>
 53fe198:	e8 23 49 92 02       	call   7d22ac0 <pthread_once@plt>
 5405037:	e8 84 da 91 02       	call   7d22ac0 <pthread_once@plt>
 54074fa:	e8 c1 b5 91 02       	call   7d22ac0 <pthread_once@plt>
 54083aa:	e8 11 a7 91 02       	call   7d22ac0 <pthread_once@plt>
 540f1c4:	e8 e7 37 91 02       	call   7d229b0 <pthread_mutex_lock@plt>
 540f31f:	e8 9c 36 91 02       	call   7d229c0 <pthread_mutex_unlock@plt>
 54141c2:	e8 f9 e7 90 02       	call   7d229c0 <pthread_mutex_unlock@plt>
 54167ae:	e8 0d c3 90 02       	call   7d22ac0 <pthread_once@plt>
 5419f8c:	e8 2f 8b 90 02       	call   7d22ac0 <pthread_once@plt>
 541c5ea:	e8 d1 64 90 02       	call   7d22ac0 <pthread_once@plt>
 541e1ca:	e8 f1 48 90 02       	call   7d22ac0 <pthread_once@plt>
 54224ea:	e8 d1 05 90 02       	call   7d22ac0 <pthread_once@plt>
 5428c8f:	e8 2c 9e 8f 02       	call   7d22ac0 <pthread_once@plt>
 5429e7d:	e8 3e 8c 8f 02       	call   7d22ac0 <pthread_once@plt>
 542cbb9:	e8 02 5f 8f 02       	call   7d22ac0 <pthread_once@plt>
 5435d57:	e8 54 cc 8e 02       	call   7d229b0 <pthread_mutex_lock@plt>
 5435d78:	e8 43 cc 8e 02       	call   7d229c0 <pthread_mutex_unlock@plt>
 543d854:	e8 67 51 8e 02       	call   7d229c0 <pthread_mutex_unlock@plt>
 544dc46:	e8 75 4e 8d 02       	call   7d22ac0 <pthread_once@plt>
 5463392:	e8 29 f7 8b 02       	call   7d22ac0 <pthread_once@plt>
 546507b:	e8 40 da 8b 02       	call   7d22ac0 <pthread_once@plt>
 5465ad9:	e8 e2 cf 8b 02       	call   7d22ac0 <pthread_once@plt>
 547e9b1:	e8 0a 41 8a 02       	call   7d22ac0 <pthread_once@plt>
 5483d5f:	e8 5c ed 89 02       	call   7d22ac0 <pthread_once@plt>
 5484b5d:	e8 4e de 89 02       	call   7d229b0 <pthread_mutex_lock@plt>
 5484d81:	e8 3a dc 89 02       	call   7d229c0 <pthread_mutex_unlock@plt>
 5484e25:	e8 96 db 89 02       	call   7d229c0 <pthread_mutex_unlock@plt>
 548a289:	e8 32 88 89 02       	call   7d22ac0 <pthread_once@plt>
 548b43a:	e8 81 76 89 02       	call   7d22ac0 <pthread_once@plt>
 548e36f:	e8 4c 47 89 02       	call   7d22ac0 <pthread_once@plt>
 548fbea:	e8 c1 2d 89 02       	call   7d229b0 <pthread_mutex_lock@plt>
 548fc3a:	e8 81 2d 89 02       	call   7d229c0 <pthread_mutex_unlock@plt>
 5494d47:	e8 74 dd 88 02       	call   7d22ac0 <pthread_once@plt>
 549520a:	e8 a1 d7 88 02       	call   7d229b0 <pthread_mutex_lock@plt>
 549525a:	e8 61 d7 88 02       	call   7d229c0 <pthread_mutex_unlock@plt>
 549c92f:	e8 8c 61 88 02       	call   7d22ac0 <pthread_once@plt>
 54a01f5:	e8 c6 28 88 02       	call   7d22ac0 <pthread_once@plt>
 54a903f:	e8 7c 9a 87 02       	call   7d22ac0 <pthread_once@plt>
 54ae971:	e8 4a 41 87 02       	call   7d22ac0 <pthread_once@plt>
 54aedea:	e8 c1 3b 87 02       	call   7d229b0 <pthread_mutex_lock@plt>
 54aee3a:	e8 81 3b 87 02       	call   7d229c0 <pthread_mutex_unlock@plt>
 54afccd:	e8 de 2c 87 02       	call   7d229b0 <pthread_mutex_lock@plt>
 54b00b8:	e8 03 29 87 02       	call   7d229c0 <pthread_mutex_unlock@plt>
 54b140a:	e8 b1 16 87 02       	call   7d22ac0 <pthread_once@plt>
 54b62da:	e8 e1 c7 86 02       	call   7d22ac0 <pthread_once@plt>
 54b7a7a:	e8 41 b0 86 02       	call   7d22ac0 <pthread_once@plt>
 54b88ea:	e8 d1 a1 86 02       	call   7d22ac0 <pthread_once@plt>
 54ba01a:	e8 a1 8a 86 02       	call   7d22ac0 <pthread_once@plt>
 54bf6ea:	e8 d1 33 86 02       	call   7d22ac0 <pthread_once@plt>
 54c0d94:	e8 17 1c 86 02       	call   7d229b0 <pthread_mutex_lock@plt>
 54c0e21:	e9 9a 1b 86 02       	jmp    7d229c0 <pthread_mutex_unlock@plt>
 54c1320:	e8 9b 16 86 02       	call   7d229c0 <pthread_mutex_unlock@plt>
 54c13c1:	e8 fa 15 86 02       	call   7d229c0 <pthread_mutex_unlock@plt>
 54c14d7:	e8 e4 14 86 02       	call   7d229c0 <pthread_mutex_unlock@plt>
 54c1513:	e8 a8 14 86 02       	call   7d229c0 <pthread_mutex_unlock@plt>
 54ca892:	e8 29 82 85 02       	call   7d22ac0 <pthread_once@plt>
 54d16c9:	e8 e2 12 85 02       	call   7d229b0 <pthread_mutex_lock@plt>
 54d1dfc:	e8 bf 0b 85 02       	call   7d229c0 <pthread_mutex_unlock@plt>
 54d3baa:	e8 11 ef 84 02       	call   7d22ac0 <pthread_once@plt>
 54d547a:	e8 41 d6 84 02       	call   7d22ac0 <pthread_once@plt>
 5505961:	e8 5a d1 81 02       	call   7d22ac0 <pthread_once@plt>
 5513d4c:	e8 6f ed 80 02       	call   7d22ac0 <pthread_once@plt>
 5520732:	e8 89 23 80 02       	call   7d22ac0 <pthread_once@plt>
 552c2b3:	e8 08 68 7f 02       	call   7d22ac0 <pthread_once@plt>
 552d3cf:	e8 ec 56 7f 02       	call   7d22ac0 <pthread_once@plt>
 55626df:	e8 dc 03 7c 02       	call   7d22ac0 <pthread_once@plt>
 556eddb:	e8 e0 3c 7b 02       	call   7d22ac0 <pthread_once@plt>
 55748b3:	e8 08 e2 7a 02       	call   7d22ac0 <pthread_once@plt>
 557586b:	e8 50 d2 7a 02       	call   7d22ac0 <pthread_once@plt>
 5585f86:	e8 35 cb 79 02       	call   7d22ac0 <pthread_once@plt>
 5595b86:	e8 35 cf 78 02       	call   7d22ac0 <pthread_once@plt>
 55a3185:	e8 36 f9 77 02       	call   7d22ac0 <pthread_once@plt>
 55aaa5f:	e8 5c 80 77 02       	call   7d22ac0 <pthread_once@plt>
 55b09eb:	e8 d0 20 77 02       	call   7d22ac0 <pthread_once@plt>
 55b37ba:	e8 01 f3 76 02       	call   7d22ac0 <pthread_once@plt>
 55b4fba:	e8 01 db 76 02       	call   7d22ac0 <pthread_once@plt>
 55b669a:	e8 21 c4 76 02       	call   7d22ac0 <pthread_once@plt>
 55bcb54:	e8 67 5f 76 02       	call   7d22ac0 <pthread_once@plt>
 55bcfda:	e8 d1 59 76 02       	call   7d229b0 <pthread_mutex_lock@plt>
 55bd02a:	e8 91 59 76 02       	call   7d229c0 <pthread_mutex_unlock@plt>
 55bea92:	e8 29 40 76 02       	call   7d22ac0 <pthread_once@plt>
 55c2821:	e8 9a 02 76 02       	call   7d22ac0 <pthread_once@plt>
 55c36db:	e8 e0 f3 75 02       	call   7d22ac0 <pthread_once@plt>
 55c3d95:	e8 26 ed 75 02       	call   7d22ac0 <pthread_once@plt>
 55c4c8a:	e8 31 de 75 02       	call   7d22ac0 <pthread_once@plt>
 55c8a60:	e8 5b 9f 75 02       	call   7d229c0 <pthread_mutex_unlock@plt>
 55c8e6b:	e8 50 9b 75 02       	call   7d229c0 <pthread_mutex_unlock@plt>
 55c94d5:	e8 e6 95 75 02       	call   7d22ac0 <pthread_once@plt>
 55cecfb:	e8 c0 3d 75 02       	call   7d22ac0 <pthread_once@plt>
 55cfe2c:	e8 7f 2b 75 02       	call   7d229b0 <pthread_mutex_lock@plt>
 55cff37:	e8 84 2a 75 02       	call   7d229c0 <pthread_mutex_unlock@plt>
 55d056b:	e8 40 24 75 02       	call   7d229b0 <pthread_mutex_lock@plt>
 55d05bf:	e8 fc 23 75 02       	call   7d229c0 <pthread_mutex_unlock@plt>
 55d05d3:	e8 d8 23 75 02       	call   7d229b0 <pthread_mutex_lock@plt>
 55d066b:	e8 50 23 75 02       	call   7d229c0 <pthread_mutex_unlock@plt>
 55d08b0:	e8 fb 20 75 02       	call   7d229b0 <pthread_mutex_lock@plt>
 55d0a16:	e9 a5 1f 75 02       	jmp    7d229c0 <pthread_mutex_unlock@plt>
 55d0fcd:	e8 de 19 75 02       	call   7d229b0 <pthread_mutex_lock@plt>
 55d1041:	e9 7a 19 75 02       	jmp    7d229c0 <pthread_mutex_unlock@plt>
 55d13b1:	e8 fa 15 75 02       	call   7d229b0 <pthread_mutex_lock@plt>
 55d1402:	e9 b9 15 75 02       	jmp    7d229c0 <pthread_mutex_unlock@plt>
 55d1625:	e8 86 13 75 02       	call   7d229b0 <pthread_mutex_lock@plt>
 55d198c:	e8 2f 10 75 02       	call   7d229c0 <pthread_mutex_unlock@plt>
 55d2754:	e8 57 02 75 02       	call   7d229b0 <pthread_mutex_lock@plt>
 55d27d1:	e8 ea 01 75 02       	call   7d229c0 <pthread_mutex_unlock@plt>
 55d2c4c:	e8 5f fd 74 02       	call   7d229b0 <pthread_mutex_lock@plt>
 55d2c80:	e8 3b fd 74 02       	call   7d229c0 <pthread_mutex_unlock@plt>
 55d2d6b:	e8 50 fc 74 02       	call   7d229c0 <pthread_mutex_unlock@plt>
 55d3083:	e8 38 f9 74 02       	call   7d229c0 <pthread_mutex_unlock@plt>
 55d318c:	e8 2f f8 74 02       	call   7d229c0 <pthread_mutex_unlock@plt>
 55d3316:	e8 a5 f6 74 02       	call   7d229c0 <pthread_mutex_unlock@plt>
 55d335e:	e8 5d f6 74 02       	call   7d229c0 <pthread_mutex_unlock@plt>
 55d3394:	e8 27 f6 74 02       	call   7d229c0 <pthread_mutex_unlock@plt>
 55d344e:	e8 6d f5 74 02       	call   7d229c0 <pthread_mutex_unlock@plt>
 55d411e:	e8 9d e8 74 02       	call   7d229c0 <pthread_mutex_unlock@plt>
 55d4256:	e8 55 e7 74 02       	call   7d229b0 <pthread_mutex_lock@plt>
 55d428d:	e8 2e e7 74 02       	call   7d229c0 <pthread_mutex_unlock@plt>
 55d7d6b:	e8 50 ad 74 02       	call   7d22ac0 <pthread_once@plt>
 55d8f5d:	e8 5e 9b 74 02       	call   7d22ac0 <pthread_once@plt>
 55da14a:	e8 71 89 74 02       	call   7d22ac0 <pthread_once@plt>
 55dcd3a:	e8 71 5c 74 02       	call   7d229b0 <pthread_mutex_lock@plt>
 55dcd8a:	e8 31 5c 74 02       	call   7d229c0 <pthread_mutex_unlock@plt>
 55dd276:	e8 35 57 74 02       	call   7d229b0 <pthread_mutex_lock@plt>
 55dd2c5:	e8 f6 56 74 02       	call   7d229c0 <pthread_mutex_unlock@plt>
 55dd7d1:	e8 da 51 74 02       	call   7d229b0 <pthread_mutex_lock@plt>
 55dd83d:	e9 7e 51 74 02       	jmp    7d229c0 <pthread_mutex_unlock@plt>
 55dda1a:	e8 91 4f 74 02       	call   7d229b0 <pthread_mutex_lock@plt>
 55ddb23:	e8 98 4e 74 02       	call   7d229c0 <pthread_mutex_unlock@plt>
 55de295:	e8 16 47 74 02       	call   7d229b0 <pthread_mutex_lock@plt>
 55de364:	e8 47 46 74 02       	call   7d229b0 <pthread_mutex_lock@plt>
 55de46a:	e8 51 45 74 02       	call   7d229c0 <pthread_mutex_unlock@plt>
 55de645:	e8 76 43 74 02       	call   7d229c0 <pthread_mutex_unlock@plt>
 55decbe:	e8 ed 3c 74 02       	call   7d229b0 <pthread_mutex_lock@plt>
 55ded99:	e8 22 3c 74 02       	call   7d229c0 <pthread_mutex_unlock@plt>
 55dfc64:	e8 57 2d 74 02       	call   7d229c0 <pthread_mutex_unlock@plt>
 55dfd03:	e8 b8 2c 74 02       	call   7d229c0 <pthread_mutex_unlock@plt>
 55dfdbf:	e8 fc 2b 74 02       	call   7d229c0 <pthread_mutex_unlock@plt>
 55dff0b:	e8 b0 2a 74 02       	call   7d229c0 <pthread_mutex_unlock@plt>
 55dff14:	e8 a7 2a 74 02       	call   7d229c0 <pthread_mutex_unlock@plt>
 55e0009:	e8 b2 29 74 02       	call   7d229c0 <pthread_mutex_unlock@plt>
 55e121e:	e8 9d 18 74 02       	call   7d22ac0 <pthread_once@plt>
 55e1a1a:	e8 91 0f 74 02       	call   7d229b0 <pthread_mutex_lock@plt>
 55e1a6a:	e8 51 0f 74 02       	call   7d229c0 <pthread_mutex_unlock@plt>
 55e2973:	e8 38 00 74 02       	call   7d229b0 <pthread_mutex_lock@plt>
 55e29c0:	e9 fb ff 73 02       	jmp    7d229c0 <pthread_mutex_unlock@plt>
 55e506a:	e8 41 d9 73 02       	call   7d229b0 <pthread_mutex_lock@plt>
 55e5141:	e8 7a d8 73 02       	call   7d229c0 <pthread_mutex_unlock@plt>
 55e565d:	e8 5e d3 73 02       	call   7d229c0 <pthread_mutex_unlock@plt>
 55e58ab:	e8 00 d1 73 02       	call   7d229b0 <pthread_mutex_lock@plt>
 55e5b1c:	e8 9f ce 73 02       	call   7d229c0 <pthread_mutex_unlock@plt>
 55e70c6:	e8 e5 b8 73 02       	call   7d229b0 <pthread_mutex_lock@plt>
 55e7266:	e8 55 b7 73 02       	call   7d229c0 <pthread_mutex_unlock@plt>
 55ea316:	e8 95 86 73 02       	call   7d229b0 <pthread_mutex_lock@plt>
 55ea658:	e8 63 83 73 02       	call   7d229c0 <pthread_mutex_unlock@plt>
 55ea8ef:	e8 bc 80 73 02       	call   7d229b0 <pthread_mutex_lock@plt>
 55eaa53:	e8 68 7f 73 02       	call   7d229c0 <pthread_mutex_unlock@plt>
 55eb5e5:	e8 d6 73 73 02       	call   7d229c0 <pthread_mutex_unlock@plt>
 55eb833:	e8 88 71 73 02       	call   7d229c0 <pthread_mutex_unlock@plt>
 55ebe84:	e8 37 6b 73 02       	call   7d229c0 <pthread_mutex_unlock@plt>
 55ec0ad:	e8 0e 69 73 02       	call   7d229c0 <pthread_mutex_unlock@plt>
 55ef75d:	e8 5e 33 73 02       	call   7d22ac0 <pthread_once@plt>
 55f4376:	e8 45 e7 72 02       	call   7d22ac0 <pthread_once@plt>
 55f4e99:	e8 12 db 72 02       	call   7d229b0 <pthread_mutex_lock@plt>
 55f4ed7:	e8 e4 da 72 02       	call   7d229c0 <pthread_mutex_unlock@plt>
 55f4f1d:	e8 9e da 72 02       	call   7d229c0 <pthread_mutex_unlock@plt>
 55f4f33:	e8 78 da 72 02       	call   7d229b0 <pthread_mutex_lock@plt>
 55f4f55:	e8 66 da 72 02       	call   7d229c0 <pthread_mutex_unlock@plt>
 55f606d:	e8 4e ca 72 02       	call   7d22ac0 <pthread_once@plt>
 55f79ab:	e8 00 b0 72 02       	call   7d229b0 <pthread_mutex_lock@plt>
 55f79bc:	e8 ff af 72 02       	call   7d229c0 <pthread_mutex_unlock@plt>
 55f79f3:	e8 b8 af 72 02       	call   7d229b0 <pthread_mutex_lock@plt>
 55f7a42:	e8 79 af 72 02       	call   7d229c0 <pthread_mutex_unlock@plt>
 55f7a7b:	e8 30 af 72 02       	call   7d229b0 <pthread_mutex_lock@plt>
 55f7a8f:	e8 2c af 72 02       	call   7d229c0 <pthread_mutex_unlock@plt>
 55f7acd:	e8 de ae 72 02       	call   7d229b0 <pthread_mutex_lock@plt>
 55f7c3a:	e8 81 ad 72 02       	call   7d229c0 <pthread_mutex_unlock@plt>
 55f7d07:	e8 a4 ac 72 02       	call   7d229b0 <pthread_mutex_lock@plt>
 55f7eb9:	e9 02 ab 72 02       	jmp    7d229c0 <pthread_mutex_unlock@plt>
 55f7fae:	e8 fd a9 72 02       	call   7d229b0 <pthread_mutex_lock@plt>
 55f7fca:	e9 f1 a9 72 02       	jmp    7d229c0 <pthread_mutex_unlock@plt>
 55f7ff7:	e8 b4 a9 72 02       	call   7d229b0 <pthread_mutex_lock@plt>
 55f8208:	e9 b3 a7 72 02       	jmp    7d229c0 <pthread_mutex_unlock@plt>
 55f82a3:	e8 08 a7 72 02       	call   7d229b0 <pthread_mutex_lock@plt>
 55f8425:	e8 96 a5 72 02       	call   7d229c0 <pthread_mutex_unlock@plt>
 55f895e:	e8 4d a0 72 02       	call   7d229b0 <pthread_mutex_lock@plt>
 55f897a:	e9 41 a0 72 02       	jmp    7d229c0 <pthread_mutex_unlock@plt>
 55f8aeb:	e8 c0 9e 72 02       	call   7d229b0 <pthread_mutex_lock@plt>
 55f8b09:	e8 b2 9e 72 02       	call   7d229c0 <pthread_mutex_unlock@plt>
 55f8c4a:	e8 61 9d 72 02       	call   7d229b0 <pthread_mutex_lock@plt>
 55f8de5:	e8 d6 9b 72 02       	call   7d229c0 <pthread_mutex_unlock@plt>
 55f8e4a:	e8 61 9b 72 02       	call   7d229b0 <pthread_mutex_lock@plt>
 55f8ff7:	e8 c4 99 72 02       	call   7d229c0 <pthread_mutex_unlock@plt>
 55f906d:	e8 3e 99 72 02       	call   7d229b0 <pthread_mutex_lock@plt>
 55f91e9:	e8 d2 97 72 02       	call   7d229c0 <pthread_mutex_unlock@plt>
 55f9256:	e8 55 97 72 02       	call   7d229b0 <pthread_mutex_lock@plt>
 55f9364:	e9 57 96 72 02       	jmp    7d229c0 <pthread_mutex_unlock@plt>
 55f946c:	e8 3f 95 72 02       	call   7d229b0 <pthread_mutex_lock@plt>
 55f96df:	e8 dc 92 72 02       	call   7d229c0 <pthread_mutex_unlock@plt>
 55f976f:	e8 3c 92 72 02       	call   7d229b0 <pthread_mutex_lock@plt>
 55f9994:	e8 27 90 72 02       	call   7d229c0 <pthread_mutex_unlock@plt>
 55f9ab7:	e8 04 8f 72 02       	call   7d229c0 <pthread_mutex_unlock@plt>
 55f9ae2:	e8 d9 8e 72 02       	call   7d229c0 <pthread_mutex_unlock@plt>
 55f9af5:	e8 c6 8e 72 02       	call   7d229c0 <pthread_mutex_unlock@plt>
 55f9b08:	e8 b3 8e 72 02       	call   7d229c0 <pthread_mutex_unlock@plt>
 55f9b3f:	e8 7c 8e 72 02       	call   7d229c0 <pthread_mutex_unlock@plt>
 55f9bbf:	e8 fc 8d 72 02       	call   7d229c0 <pthread_mutex_unlock@plt>
 55f9bd2:	e8 e9 8d 72 02       	call   7d229c0 <pthread_mutex_unlock@plt>
 55f9c15:	e8 a6 8d 72 02       	call   7d229c0 <pthread_mutex_unlock@plt>
 55f9c40:	e8 7b 8d 72 02       	call   7d229c0 <pthread_mutex_unlock@plt>
 55f9c53:	e8 68 8d 72 02       	call   7d229c0 <pthread_mutex_unlock@plt>
 55f9c66:	e8 55 8d 72 02       	call   7d229c0 <pthread_mutex_unlock@plt>
 55f9d0a:	e8 b1 8c 72 02       	call   7d229c0 <pthread_mutex_unlock@plt>
 55f9d1d:	e8 9e 8c 72 02       	call   7d229c0 <pthread_mutex_unlock@plt>
 5609c1a:	e8 91 8d 71 02       	call   7d229b0 <pthread_mutex_lock@plt>
 5609c6a:	e8 51 8d 71 02       	call   7d229c0 <pthread_mutex_unlock@plt>
 560b4d2:	e8 d9 74 71 02       	call   7d229b0 <pthread_mutex_lock@plt>
 560b4ee:	e9 cd 74 71 02       	jmp    7d229c0 <pthread_mutex_unlock@plt>
 560b508:	e9 b3 74 71 02       	jmp    7d229c0 <pthread_mutex_unlock@plt>
 560c6a2:	e8 19 63 71 02       	call   7d229c0 <pthread_mutex_unlock@plt>
 560ce7a:	e8 41 5c 71 02       	call   7d22ac0 <pthread_once@plt>
 560e0ba:	e8 f1 48 71 02       	call   7d229b0 <pthread_mutex_lock@plt>
 560e10a:	e8 b1 48 71 02       	call   7d229c0 <pthread_mutex_unlock@plt>
 5610b25:	e8 86 1e 71 02       	call   7d229b0 <pthread_mutex_lock@plt>
 5610b56:	e8 65 1e 71 02       	call   7d229c0 <pthread_mutex_unlock@plt>
 5610cb1:	e8 fa 1c 71 02       	call   7d229b0 <pthread_mutex_lock@plt>
 5610cca:	e8 f1 1c 71 02       	call   7d229c0 <pthread_mutex_unlock@plt>
 5610cfe:	e8 ad 1c 71 02       	call   7d229b0 <pthread_mutex_lock@plt>
 5610d75:	e8 46 1c 71 02       	call   7d229c0 <pthread_mutex_unlock@plt>
 56157d6:	e8 e5 d2 70 02       	call   7d22ac0 <pthread_once@plt>
 5615bda:	e8 d1 cd 70 02       	call   7d229b0 <pthread_mutex_lock@plt>
 5615d9a:	e8 21 cc 70 02       	call   7d229c0 <pthread_mutex_unlock@plt>
 56162be:	e8 ed c6 70 02       	call   7d229b0 <pthread_mutex_lock@plt>
 5616377:	e8 34 c6 70 02       	call   7d229b0 <pthread_mutex_lock@plt>
 56163f0:	e8 cb c5 70 02       	call   7d229c0 <pthread_mutex_unlock@plt>
 561641a:	e8 a1 c5 70 02       	call   7d229c0 <pthread_mutex_unlock@plt>
 5616455:	e8 56 c5 70 02       	call   7d229b0 <pthread_mutex_lock@plt>
 561780f:	e8 9c b1 70 02       	call   7d229b0 <pthread_mutex_lock@plt>
 561786b:	e8 50 b1 70 02       	call   7d229c0 <pthread_mutex_unlock@plt>
 56179fb:	e8 b0 af 70 02       	call   7d229b0 <pthread_mutex_lock@plt>
 5617af2:	e8 c9 ae 70 02       	call   7d229c0 <pthread_mutex_unlock@plt>
 5617c55:	e8 66 ad 70 02       	call   7d229c0 <pthread_mutex_unlock@plt>
 5618044:	e8 67 a9 70 02       	call   7d229b0 <pthread_mutex_lock@plt>
 5618082:	e8 29 a9 70 02       	call   7d229b0 <pthread_mutex_lock@plt>
 56180b9:	e8 f2 a8 70 02       	call   7d229b0 <pthread_mutex_lock@plt>
 561810b:	e8 b0 a8 70 02       	call   7d229c0 <pthread_mutex_unlock@plt>
 5618148:	e8 73 a8 70 02       	call   7d229c0 <pthread_mutex_unlock@plt>
 5618416:	e8 a5 a5 70 02       	call   7d229c0 <pthread_mutex_unlock@plt>
 561844f:	e8 5c a5 70 02       	call   7d229b0 <pthread_mutex_lock@plt>
 561880d:	e8 9e a1 70 02       	call   7d229b0 <pthread_mutex_lock@plt>
 56197db:	e8 d0 91 70 02       	call   7d229b0 <pthread_mutex_lock@plt>
 561a00a:	e9 b1 89 70 02       	jmp    7d229c0 <pthread_mutex_unlock@plt>
 561a43a:	e8 71 85 70 02       	call   7d229b0 <pthread_mutex_lock@plt>
 561a4be:	e8 ed 84 70 02       	call   7d229b0 <pthread_mutex_lock@plt>
 561a507:	e8 b4 84 70 02       	call   7d229c0 <pthread_mutex_unlock@plt>
 561a50f:	e8 ac 84 70 02       	call   7d229c0 <pthread_mutex_unlock@plt>
 561a5d4:	e9 e7 83 70 02       	jmp    7d229c0 <pthread_mutex_unlock@plt>
 561af1e:	e8 9d 7a 70 02       	call   7d229c0 <pthread_mutex_unlock@plt>
 561af2a:	e8 91 7a 70 02       	call   7d229c0 <pthread_mutex_unlock@plt>
 561b8bf:	e8 fc 70 70 02       	call   7d229c0 <pthread_mutex_unlock@plt>
 561ba63:	e8 58 6f 70 02       	call   7d229c0 <pthread_mutex_unlock@plt>
 561c2f3:	e8 c8 67 70 02       	call   7d22ac0 <pthread_once@plt>
 561dbba:	e8 01 4f 70 02       	call   7d22ac0 <pthread_once@plt>
 561f5aa:	e8 01 34 70 02       	call   7d229b0 <pthread_mutex_lock@plt>
 561f5fa:	e8 c1 33 70 02       	call   7d229c0 <pthread_mutex_unlock@plt>
 5622401:	e8 aa 05 70 02       	call   7d229b0 <pthread_mutex_lock@plt>
 562292f:	e8 8c 00 70 02       	call   7d229c0 <pthread_mutex_unlock@plt>
 5623530:	e8 8b f5 6f 02       	call   7d22ac0 <pthread_once@plt>
 5624a9b:	e8 20 e0 6f 02       	call   7d22ac0 <pthread_once@plt>
 5626eda:	e8 e1 bb 6f 02       	call   7d22ac0 <pthread_once@plt>
 562752a:	e8 81 b4 6f 02       	call   7d229b0 <pthread_mutex_lock@plt>
 562757a:	e8 41 b4 6f 02       	call   7d229c0 <pthread_mutex_unlock@plt>
 56278b7:	e8 f4 b0 6f 02       	call   7d229b0 <pthread_mutex_lock@plt>
 56278fd:	e9 be b0 6f 02       	jmp    7d229c0 <pthread_mutex_unlock@plt>
 562794b:	e8 60 b0 6f 02       	call   7d229b0 <pthread_mutex_lock@plt>
 5627982:	e8 39 b0 6f 02       	call   7d229c0 <pthread_mutex_unlock@plt>
 56279e3:	e8 d8 af 6f 02       	call   7d229c0 <pthread_mutex_unlock@plt>
 5627a6d:	e8 3e af 6f 02       	call   7d229b0 <pthread_mutex_lock@plt>
 5627ad0:	e8 eb ae 6f 02       	call   7d229c0 <pthread_mutex_unlock@plt>
 5627ae3:	e8 d8 ae 6f 02       	call   7d229c0 <pthread_mutex_unlock@plt>
 5627af3:	e8 b8 ae 6f 02       	call   7d229b0 <pthread_mutex_lock@plt>
 5627b09:	e8 b2 ae 6f 02       	call   7d229c0 <pthread_mutex_unlock@plt>
 5627ce8:	e8 c3 ac 6f 02       	call   7d229b0 <pthread_mutex_lock@plt>
 5627d1d:	e8 8e ac 6f 02       	call   7d229b0 <pthread_mutex_lock@plt>
 5627d4b:	e8 70 ac 6f 02       	call   7d229c0 <pthread_mutex_unlock@plt>
 5627d53:	e8 68 ac 6f 02       	call   7d229c0 <pthread_mutex_unlock@plt>
 5627e29:	e8 82 ab 6f 02       	call   7d229b0 <pthread_mutex_lock@plt>
 5627ed3:	e8 e8 aa 6f 02       	call   7d229c0 <pthread_mutex_unlock@plt>
 5627ffc:	e8 af a9 6f 02       	call   7d229b0 <pthread_mutex_lock@plt>
 5628110:	e8 ab a8 6f 02       	call   7d229c0 <pthread_mutex_unlock@plt>
 5628230:	e8 7b a7 6f 02       	call   7d229b0 <pthread_mutex_lock@plt>
 562829d:	e8 0e a7 6f 02       	call   7d229b0 <pthread_mutex_lock@plt>
 56282cc:	e8 ef a6 6f 02       	call   7d229c0 <pthread_mutex_unlock@plt>
 56282d4:	e8 e7 a6 6f 02       	call   7d229c0 <pthread_mutex_unlock@plt>
 56283b2:	e8 f9 a5 6f 02       	call   7d229b0 <pthread_mutex_lock@plt>
 562845b:	e8 60 a5 6f 02       	call   7d229c0 <pthread_mutex_unlock@plt>
 56287d5:	e8 d6 a1 6f 02       	call   7d229b0 <pthread_mutex_lock@plt>
 5628841:	e8 7a a1 6f 02       	call   7d229c0 <pthread_mutex_unlock@plt>
 5628874:	e8 37 a1 6f 02       	call   7d229b0 <pthread_mutex_lock@plt>
 5628911:	e8 9a a0 6f 02       	call   7d229b0 <pthread_mutex_lock@plt>
 5628934:	e8 87 a0 6f 02       	call   7d229c0 <pthread_mutex_unlock@plt>
 5628973:	e8 38 a0 6f 02       	call   7d229b0 <pthread_mutex_lock@plt>
 562898f:	e8 2c a0 6f 02       	call   7d229c0 <pthread_mutex_unlock@plt>
 5628a39:	e8 82 9f 6f 02       	call   7d229c0 <pthread_mutex_unlock@plt>
 5628b6a:	e8 51 9e 6f 02       	call   7d229c0 <pthread_mutex_unlock@plt>
 5628bb4:	e8 17 9f 6f 02       	call   7d22ad0 <pthread_cond_timedwait@plt>
 5628bc8:	e8 f3 9d 6f 02       	call   7d229c0 <pthread_mutex_unlock@plt>
 5628bf1:	e8 ba 9d 6f 02       	call   7d229b0 <pthread_mutex_lock@plt>
 5628cb7:	e8 f4 9c 6f 02       	call   7d229b0 <pthread_mutex_lock@plt>
 5628d28:	e8 a3 9d 6f 02       	call   7d22ad0 <pthread_cond_timedwait@plt>
 5628d3c:	e8 7f 9c 6f 02       	call   7d229c0 <pthread_mutex_unlock@plt>
 5628d70:	e8 3b 9c 6f 02       	call   7d229b0 <pthread_mutex_lock@plt>
 5628e8b:	e8 20 9b 6f 02       	call   7d229b0 <pthread_mutex_lock@plt>
 5628ece:	e8 ed 9a 6f 02       	call   7d229c0 <pthread_mutex_unlock@plt>
 56290f3:	e8 b8 98 6f 02       	call   7d229b0 <pthread_mutex_lock@plt>
 562910f:	e8 ac 98 6f 02       	call   7d229c0 <pthread_mutex_unlock@plt>
 562911b:	e8 90 98 6f 02       	call   7d229b0 <pthread_mutex_lock@plt>
 5629139:	e8 82 98 6f 02       	call   7d229c0 <pthread_mutex_unlock@plt>
 5629199:	e8 12 98 6f 02       	call   7d229b0 <pthread_mutex_lock@plt>
 5629213:	e8 a8 97 6f 02       	call   7d229c0 <pthread_mutex_unlock@plt>
 5629231:	e8 7a 97 6f 02       	call   7d229b0 <pthread_mutex_lock@plt>
 56292c2:	e8 f9 96 6f 02       	call   7d229c0 <pthread_mutex_unlock@plt>
 56293e3:	e8 d8 95 6f 02       	call   7d229c0 <pthread_mutex_unlock@plt>
 5629419:	e8 92 95 6f 02       	call   7d229b0 <pthread_mutex_lock@plt>
 562948c:	e8 2f 95 6f 02       	call   7d229c0 <pthread_mutex_unlock@plt>
 56295d8:	e8 d3 93 6f 02       	call   7d229b0 <pthread_mutex_lock@plt>
 5629850:	e8 6b 91 6f 02       	call   7d229c0 <pthread_mutex_unlock@plt>
 5629bfa:	e8 c1 8d 6f 02       	call   7d229c0 <pthread_mutex_unlock@plt>
 562a141:	e8 7a 88 6f 02       	call   7d229c0 <pthread_mutex_unlock@plt>
 562a180:	e8 2b 88 6f 02       	call   7d229b0 <pthread_mutex_lock@plt>
 562a211:	e8 aa 87 6f 02       	call   7d229c0 <pthread_mutex_unlock@plt>
 562a34b:	e8 70 86 6f 02       	call   7d229c0 <pthread_mutex_unlock@plt>
 562ae4a:	e8 71 7c 6f 02       	call   7d22ac0 <pthread_once@plt>
 562b1ca:	e8 e1 77 6f 02       	call   7d229b0 <pthread_mutex_lock@plt>
 562b31a:	e8 a1 76 6f 02       	call   7d229c0 <pthread_mutex_unlock@plt>
 562b637:	e8 74 73 6f 02       	call   7d229b0 <pthread_mutex_lock@plt>
 562b64b:	e8 70 73 6f 02       	call   7d229c0 <pthread_mutex_unlock@plt>
 562b760:	e8 4b 72 6f 02       	call   7d229b0 <pthread_mutex_lock@plt>
 562b7ca:	e8 e1 71 6f 02       	call   7d229b0 <pthread_mutex_lock@plt>
 562b7f9:	e8 c2 71 6f 02       	call   7d229c0 <pthread_mutex_unlock@plt>
 562b801:	e8 ba 71 6f 02       	call   7d229c0 <pthread_mutex_unlock@plt>
 562b8e2:	e8 c9 70 6f 02       	call   7d229b0 <pthread_mutex_lock@plt>
 562ba43:	e8 78 6f 6f 02       	call   7d229c0 <pthread_mutex_unlock@plt>
 562bd50:	e8 5b 6c 6f 02       	call   7d229b0 <pthread_mutex_lock@plt>
 562c100:	e8 bb 68 6f 02       	call   7d229c0 <pthread_mutex_unlock@plt>
 562c62b:	e8 90 63 6f 02       	call   7d229c0 <pthread_mutex_unlock@plt>
 562c7b4:	e8 f7 61 6f 02       	call   7d229b0 <pthread_mutex_lock@plt>
 562ca53:	e8 68 5f 6f 02       	call   7d229c0 <pthread_mutex_unlock@plt>
 562cc57:	e8 54 5d 6f 02       	call   7d229b0 <pthread_mutex_lock@plt>
 562cc9b:	e8 20 5d 6f 02       	call   7d229c0 <pthread_mutex_unlock@plt>
 562cdf4:	e8 b7 5b 6f 02       	call   7d229b0 <pthread_mutex_lock@plt>
 562ce56:	e8 65 5b 6f 02       	call   7d229c0 <pthread_mutex_unlock@plt>
 562ce93:	e8 28 5b 6f 02       	call   7d229c0 <pthread_mutex_unlock@plt>
 562ce9f:	e8 0c 5b 6f 02       	call   7d229b0 <pthread_mutex_lock@plt>
 562ceb4:	e8 07 5b 6f 02       	call   7d229c0 <pthread_mutex_unlock@plt>
 562d58d:	e8 1e 54 6f 02       	call   7d229b0 <pthread_mutex_lock@plt>
 562d5b0:	e8 0b 54 6f 02       	call   7d229c0 <pthread_mutex_unlock@plt>
 562d608:	e8 43 57 6f 02       	call   7d22d50 <pthread_cond_clockwait@plt>
 562d61d:	e8 9e 53 6f 02       	call   7d229c0 <pthread_mutex_unlock@plt>
 562d645:	e8 66 53 6f 02       	call   7d229b0 <pthread_mutex_lock@plt>
 562d6b3:	e8 f8 52 6f 02       	call   7d229b0 <pthread_mutex_lock@plt>
 562dd5a:	e8 61 4d 6f 02       	call   7d22ac0 <pthread_once@plt>
 562e11a:	e8 91 48 6f 02       	call   7d229b0 <pthread_mutex_lock@plt>
 562e40a:	e8 b1 45 6f 02       	call   7d229c0 <pthread_mutex_unlock@plt>
 562ea5a:	e8 51 3f 6f 02       	call   7d229b0 <pthread_mutex_lock@plt>
 562eaa3:	e8 18 3f 6f 02       	call   7d229c0 <pthread_mutex_unlock@plt>
 562f221:	e8 8a 37 6f 02       	call   7d229b0 <pthread_mutex_lock@plt>
 562f2eb:	e8 c0 36 6f 02       	call   7d229b0 <pthread_mutex_lock@plt>
 562f36e:	e8 4d 36 6f 02       	call   7d229c0 <pthread_mutex_unlock@plt>
 562ff56:	e8 55 2a 6f 02       	call   7d229b0 <pthread_mutex_lock@plt>
 5630093:	e8 18 29 6f 02       	call   7d229b0 <pthread_mutex_lock@plt>
 56300f6:	e8 c5 28 6f 02       	call   7d229c0 <pthread_mutex_unlock@plt>
 563027a:	e8 41 27 6f 02       	call   7d229c0 <pthread_mutex_unlock@plt>
 56326c4:	e8 f7 02 6f 02       	call   7d229c0 <pthread_mutex_unlock@plt>
 5634011:	e8 aa e9 6e 02       	call   7d229c0 <pthread_mutex_unlock@plt>
 5634bb3:	e8 08 df 6e 02       	call   7d22ac0 <pthread_once@plt>
 56352f4:	e8 b7 d6 6e 02       	call   7d229b0 <pthread_mutex_lock@plt>
 5636639:	e8 72 c3 6e 02       	call   7d229b0 <pthread_mutex_lock@plt>
 563671b:	e8 a0 c2 6e 02       	call   7d229c0 <pthread_mutex_unlock@plt>
 5636a7c:	e8 3f bf 6e 02       	call   7d229c0 <pthread_mutex_unlock@plt>
 56391a8:	e8 03 98 6e 02       	call   7d229b0 <pthread_mutex_lock@plt>
 56397d9:	e8 d2 91 6e 02       	call   7d229b0 <pthread_mutex_lock@plt>
 5639821:	e8 9a 91 6e 02       	call   7d229c0 <pthread_mutex_unlock@plt>
 5639e15:	e8 96 8b 6e 02       	call   7d229b0 <pthread_mutex_lock@plt>
 563b7f8:	e8 b3 71 6e 02       	call   7d229b0 <pthread_mutex_lock@plt>
 563b8fb:	e8 c0 70 6e 02       	call   7d229c0 <pthread_mutex_unlock@plt>
 563b997:	e8 24 70 6e 02       	call   7d229c0 <pthread_mutex_unlock@plt>
 563b9e3:	e8 c8 6f 6e 02       	call   7d229b0 <pthread_mutex_lock@plt>
 563ba51:	e8 6a 6f 6e 02       	call   7d229c0 <pthread_mutex_unlock@plt>
 563e52b:	e8 90 45 6e 02       	call   7d22ac0 <pthread_once@plt>
 56437e4:	e8 d7 f2 6d 02       	call   7d22ac0 <pthread_once@plt>
 564851b:	e8 a0 a5 6d 02       	call   7d22ac0 <pthread_once@plt>
 5648be3:	e8 78 a6 6d 02       	call   7d23260 <pthread_rwlock_rdlock@plt>
 5648e98:	e8 d3 a3 6d 02       	call   7d23270 <pthread_rwlock_unlock@plt>
 5648f72:	e8 09 a3 6d 02       	call   7d23280 <pthread_rwlock_wrlock@plt>
 5649223:	e8 48 a0 6d 02       	call   7d23270 <pthread_rwlock_unlock@plt>
 5653eaf:	e8 0c ec 6c 02       	call   7d22ac0 <pthread_once@plt>
 56611d6:	e8 e5 18 6c 02       	call   7d22ac0 <pthread_once@plt>
 56631e1:	e8 da f8 6b 02       	call   7d22ac0 <pthread_once@plt>
 566ec94:	e8 27 3e 6b 02       	call   7d22ac0 <pthread_once@plt>
 5670224:	e8 97 28 6b 02       	call   7d22ac0 <pthread_once@plt>
 56720b2:	e8 09 0a 6b 02       	call   7d22ac0 <pthread_once@plt>
 567474a:	e8 71 e3 6a 02       	call   7d22ac0 <pthread_once@plt>
 56865fe:	e8 bd c4 69 02       	call   7d22ac0 <pthread_once@plt>
 5694433:	e8 88 e6 68 02       	call   7d22ac0 <pthread_once@plt>
 5697bda:	e8 e1 ae 68 02       	call   7d22ac0 <pthread_once@plt>
 5699753:	e8 68 93 68 02       	call   7d22ac0 <pthread_once@plt>
 569e21b:	e8 a0 48 68 02       	call   7d22ac0 <pthread_once@plt>
 56a2c3f:	e8 7c fe 67 02       	call   7d22ac0 <pthread_once@plt>
 56a8753:	e8 68 a3 67 02       	call   7d22ac0 <pthread_once@plt>
 56aa1aa:	e8 11 89 67 02       	call   7d22ac0 <pthread_once@plt>
 56aafca:	e8 f1 7a 67 02       	call   7d22ac0 <pthread_once@plt>
 56ad4c1:	e8 fa 55 67 02       	call   7d22ac0 <pthread_once@plt>
 56b8dc1:	e8 fa 9c 66 02       	call   7d22ac0 <pthread_once@plt>
 56c1100:	e8 bb 19 66 02       	call   7d22ac0 <pthread_once@plt>
 56c36d5:	e8 e6 f3 65 02       	call   7d22ac0 <pthread_once@plt>
 56d78d9:	e8 e2 b1 64 02       	call   7d22ac0 <pthread_once@plt>
 56dc520:	e8 9b 65 64 02       	call   7d22ac0 <pthread_once@plt>
 56dc9c6:	e8 f5 60 64 02       	call   7d22ac0 <pthread_once@plt>
 56dca77:	e8 44 60 64 02       	call   7d22ac0 <pthread_once@plt>
 56dd67a:	e8 41 54 64 02       	call   7d22ac0 <pthread_once@plt>
 56ddc27:	e8 94 4e 64 02       	call   7d22ac0 <pthread_once@plt>
 56ddfa7:	e8 14 4b 64 02       	call   7d22ac0 <pthread_once@plt>
 56de2fa:	e8 c1 47 64 02       	call   7d22ac0 <pthread_once@plt>
 56e0965:	e8 56 21 64 02       	call   7d22ac0 <pthread_once@plt>
 56e153d:	e8 7e 15 64 02       	call   7d22ac0 <pthread_once@plt>
 56e2f8e:	e8 2d fb 63 02       	call   7d22ac0 <pthread_once@plt>
 56e6c50:	e8 6b be 63 02       	call   7d22ac0 <pthread_once@plt>
 56eace0:	e8 db 7d 63 02       	call   7d22ac0 <pthread_once@plt>
 56ed8d4:	e8 e7 51 63 02       	call   7d22ac0 <pthread_once@plt>
 56eff25:	e8 96 2b 63 02       	call   7d22ac0 <pthread_once@plt>
 56f2775:	e8 46 03 63 02       	call   7d22ac0 <pthread_once@plt>
 56fa585:	e8 36 85 62 02       	call   7d22ac0 <pthread_once@plt>
 56fdc24:	e8 97 4e 62 02       	call   7d22ac0 <pthread_once@plt>
 5700f31:	e8 8a 1b 62 02       	call   7d22ac0 <pthread_once@plt>
 57047ed:	e8 ce e2 61 02       	call   7d22ac0 <pthread_once@plt>
 570addd:	e8 de 7c 61 02       	call   7d22ac0 <pthread_once@plt>
 571b745:	e8 76 73 60 02       	call   7d22ac0 <pthread_once@plt>
 5728e7d:	e8 3e 9c 5f 02       	call   7d22ac0 <pthread_once@plt>
 572afcd:	e8 ee 7a 5f 02       	call   7d22ac0 <pthread_once@plt>
 572b06f:	e8 4c 7a 5f 02       	call   7d22ac0 <pthread_once@plt>
 572b10a:	e8 b1 79 5f 02       	call   7d22ac0 <pthread_once@plt>
 5734ec0:	e8 fb db 5e 02       	call   7d22ac0 <pthread_once@plt>
 5735fc6:	e8 f5 ca 5e 02       	call   7d22ac0 <pthread_once@plt>
 5739ddb:	e8 e0 8c 5e 02       	call   7d22ac0 <pthread_once@plt>
 573d8c1:	e8 fa 51 5e 02       	call   7d22ac0 <pthread_once@plt>
 5740c81:	e8 3a 1e 5e 02       	call   7d22ac0 <pthread_once@plt>
 57436bb:	e8 00 f4 5d 02       	call   7d22ac0 <pthread_once@plt>
 574455a:	e8 51 e4 5d 02       	call   7d229b0 <pthread_mutex_lock@plt>
 57445a1:	e8 1a e4 5d 02       	call   7d229c0 <pthread_mutex_unlock@plt>
 5744634:	e8 77 e3 5d 02       	call   7d229b0 <pthread_mutex_lock@plt>
 5744652:	e9 69 e3 5d 02       	jmp    7d229c0 <pthread_mutex_unlock@plt>
 574467d:	e8 2e e3 5d 02       	call   7d229b0 <pthread_mutex_lock@plt>
 57446a0:	e9 1b e3 5d 02       	jmp    7d229c0 <pthread_mutex_unlock@plt>
 57446ca:	e8 e1 e2 5d 02       	call   7d229b0 <pthread_mutex_lock@plt>
 5744765:	e8 56 e2 5d 02       	call   7d229c0 <pthread_mutex_unlock@plt>
 5744855:	e8 56 e1 5d 02       	call   7d229b0 <pthread_mutex_lock@plt>
 57448bb:	e8 00 e1 5d 02       	call   7d229c0 <pthread_mutex_unlock@plt>
 5744b00:	e8 bb df 5d 02       	call   7d22ac0 <pthread_once@plt>
 5744d90:	e8 2b dd 5d 02       	call   7d22ac0 <pthread_once@plt>
 57456f8:	e8 b3 d2 5d 02       	call   7d229b0 <pthread_mutex_lock@plt>
 5745713:	e8 a8 d2 5d 02       	call   7d229c0 <pthread_mutex_unlock@plt>
 5745780:	e8 2b d2 5d 02       	call   7d229b0 <pthread_mutex_lock@plt>
 57457de:	e8 dd d1 5d 02       	call   7d229c0 <pthread_mutex_unlock@plt>
 5745cb2:	e8 f9 cc 5d 02       	call   7d229b0 <pthread_mutex_lock@plt>
 5745d1f:	e8 9c cc 5d 02       	call   7d229c0 <pthread_mutex_unlock@plt>
 5746bd9:	e8 d2 bd 5d 02       	call   7d229b0 <pthread_mutex_lock@plt>
 5746c2b:	e8 90 bd 5d 02       	call   7d229c0 <pthread_mutex_unlock@plt>
 5747d8d:	e8 1e ac 5d 02       	call   7d229b0 <pthread_mutex_lock@plt>
 5747da8:	e8 13 ac 5d 02       	call   7d229c0 <pthread_mutex_unlock@plt>
 5747e10:	e8 9b ab 5d 02       	call   7d229b0 <pthread_mutex_lock@plt>
 5747ea0:	e8 1b ab 5d 02       	call   7d229c0 <pthread_mutex_unlock@plt>
 5748ded:	e8 be 9b 5d 02       	call   7d229b0 <pthread_mutex_lock@plt>
 5748e25:	e9 96 9b 5d 02       	jmp    7d229c0 <pthread_mutex_unlock@plt>
 574929f:	e8 0c 97 5d 02       	call   7d229b0 <pthread_mutex_lock@plt>
 57493a4:	e8 17 96 5d 02       	call   7d229c0 <pthread_mutex_unlock@plt>
 5749c13:	e8 98 8d 5d 02       	call   7d229b0 <pthread_mutex_lock@plt>
 5749d14:	e8 a7 8c 5d 02       	call   7d229c0 <pthread_mutex_unlock@plt>
 574a074:	e8 37 89 5d 02       	call   7d229b0 <pthread_mutex_lock@plt>
 574a13f:	e9 7c 88 5d 02       	jmp    7d229c0 <pthread_mutex_unlock@plt>
 574afe8:	e8 d3 79 5d 02       	call   7d229c0 <pthread_mutex_unlock@plt>
 574b01d:	e8 9e 79 5d 02       	call   7d229c0 <pthread_mutex_unlock@plt>
 574b0c3:	e8 f8 78 5d 02       	call   7d229c0 <pthread_mutex_unlock@plt>
 574b664:	e8 57 73 5d 02       	call   7d229c0 <pthread_mutex_unlock@plt>
 574b723:	e8 98 72 5d 02       	call   7d229c0 <pthread_mutex_unlock@plt>
 574b9ac:	e8 0f 70 5d 02       	call   7d229c0 <pthread_mutex_unlock@plt>
 574babe:	e8 fd 6e 5d 02       	call   7d229c0 <pthread_mutex_unlock@plt>
 574bd4a:	e8 71 6c 5d 02       	call   7d229c0 <pthread_mutex_unlock@plt>
 574bd7b:	e8 40 6c 5d 02       	call   7d229c0 <pthread_mutex_unlock@plt>
 574c24c:	e8 6f 68 5d 02       	call   7d22ac0 <pthread_once@plt>
 574dc44:	e8 77 4e 5d 02       	call   7d22ac0 <pthread_once@plt>
 57512eb:	e8 d0 17 5d 02       	call   7d22ac0 <pthread_once@plt>
 5759952:	e8 69 91 5c 02       	call   7d22ac0 <pthread_once@plt>
 5760425:	e8 96 26 5c 02       	call   7d22ac0 <pthread_once@plt>
 57608ca:	e8 e1 20 5c 02       	call   7d229b0 <pthread_mutex_lock@plt>
 576091a:	e8 a1 20 5c 02       	call   7d229c0 <pthread_mutex_unlock@plt>
 5761b8a:	e8 21 0e 5c 02       	call   7d229b0 <pthread_mutex_lock@plt>
 57620f7:	e8 b4 08 5c 02       	call   7d229b0 <pthread_mutex_lock@plt>
 5762420:	e8 9b 05 5c 02       	call   7d229c0 <pthread_mutex_unlock@plt>
 5762836:	e8 85 01 5c 02       	call   7d229c0 <pthread_mutex_unlock@plt>
 5762adc:	e8 cf fe 5b 02       	call   7d229b0 <pthread_mutex_lock@plt>
 5762c3b:	e9 80 fd 5b 02       	jmp    7d229c0 <pthread_mutex_unlock@plt>
 5762c99:	e8 12 fd 5b 02       	call   7d229b0 <pthread_mutex_lock@plt>
 5762d02:	e8 b9 fc 5b 02       	call   7d229c0 <pthread_mutex_unlock@plt>
 5762d13:	e8 a8 fc 5b 02       	call   7d229c0 <pthread_mutex_unlock@plt>
 5762d20:	e8 8b fc 5b 02       	call   7d229b0 <pthread_mutex_lock@plt>
 5762d3a:	e8 81 fc 5b 02       	call   7d229c0 <pthread_mutex_unlock@plt>
 5762d5b:	e8 50 fc 5b 02       	call   7d229b0 <pthread_mutex_lock@plt>
 5762dba:	e8 01 fc 5b 02       	call   7d229c0 <pthread_mutex_unlock@plt>
 5762dcb:	e8 f0 fb 5b 02       	call   7d229c0 <pthread_mutex_unlock@plt>
 5762dd7:	e8 d4 fb 5b 02       	call   7d229b0 <pthread_mutex_lock@plt>
 5762df0:	e8 cb fb 5b 02       	call   7d229c0 <pthread_mutex_unlock@plt>
 57632f8:	e8 c3 f6 5b 02       	call   7d229c0 <pthread_mutex_unlock@plt>
 57637aa:	e8 11 f3 5b 02       	call   7d22ac0 <pthread_once@plt>
 5765d8a:	e8 31 cd 5b 02       	call   7d22ac0 <pthread_once@plt>
 57671c2:	e8 f9 b8 5b 02       	call   7d22ac0 <pthread_once@plt>
 576def4:	e8 c7 4b 5b 02       	call   7d22ac0 <pthread_once@plt>
 577f888:	e8 33 32 5a 02       	call   7d22ac0 <pthread_once@plt>
 5782835:	e8 86 02 5a 02       	call   7d22ac0 <pthread_once@plt>
 578450b:	e8 b0 e5 59 02       	call   7d22ac0 <pthread_once@plt>
 5785dee:	e8 bd cb 59 02       	call   7d229b0 <pthread_mutex_lock@plt>
 5785ee0:	e8 db ca 59 02       	call   7d229c0 <pthread_mutex_unlock@plt>
 5786624:	e8 87 c3 59 02       	call   7d229b0 <pthread_mutex_lock@plt>
 57867bc:	e9 ff c1 59 02       	jmp    7d229c0 <pthread_mutex_unlock@plt>
 57868db:	e8 e0 c0 59 02       	call   7d229c0 <pthread_mutex_unlock@plt>
 578693d:	e8 7e c0 59 02       	call   7d229c0 <pthread_mutex_unlock@plt>
 578777a:	e8 41 b3 59 02       	call   7d22ac0 <pthread_once@plt>
 578ee5b:	e8 60 3c 59 02       	call   7d22ac0 <pthread_once@plt>
 579224b:	e8 70 08 59 02       	call   7d22ac0 <pthread_once@plt>
 5793a6a:	e8 51 f0 58 02       	call   7d22ac0 <pthread_once@plt>
 579a84f:	e8 6c 82 58 02       	call   7d22ac0 <pthread_once@plt>
 579c09b:	e8 20 6a 58 02       	call   7d22ac0 <pthread_once@plt>
 579c56a:	e8 41 64 58 02       	call   7d229b0 <pthread_mutex_lock@plt>
 579c5ba:	e8 01 64 58 02       	call   7d229c0 <pthread_mutex_unlock@plt>
 579de3a:	e8 81 4c 58 02       	call   7d22ac0 <pthread_once@plt>
 57b61cb:	e8 f0 c8 56 02       	call   7d22ac0 <pthread_once@plt>
 57b6efb:	e8 b0 ba 56 02       	call   7d229b0 <pthread_mutex_lock@plt>
 57b6f31:	e9 8a ba 56 02       	jmp    7d229c0 <pthread_mutex_unlock@plt>
 57b72f5:	e8 b6 b6 56 02       	call   7d229b0 <pthread_mutex_lock@plt>
 57b781d:	e8 8e b1 56 02       	call   7d229b0 <pthread_mutex_lock@plt>
 57b785e:	e8 5d b1 56 02       	call   7d229c0 <pthread_mutex_unlock@plt>
 57b78cf:	e9 ec b0 56 02       	jmp    7d229c0 <pthread_mutex_unlock@plt>
 57b8624:	e8 97 a3 56 02       	call   7d229c0 <pthread_mutex_unlock@plt>
 57b8947:	e8 64 a0 56 02       	call   7d229b0 <pthread_mutex_lock@plt>
 57b898d:	e8 2e a0 56 02       	call   7d229c0 <pthread_mutex_unlock@plt>
 57b9960:	e8 5b 90 56 02       	call   7d229c0 <pthread_mutex_unlock@plt>
 57ba0ea:	e8 d1 88 56 02       	call   7d229c0 <pthread_mutex_unlock@plt>
 57ba852:	e8 69 81 56 02       	call   7d229c0 <pthread_mutex_unlock@plt>
 57ba914:	e8 a7 80 56 02       	call   7d229c0 <pthread_mutex_unlock@plt>
 57ba974:	e8 47 80 56 02       	call   7d229c0 <pthread_mutex_unlock@plt>
 57bad40:	e8 7b 7c 56 02       	call   7d229c0 <pthread_mutex_unlock@plt>
 57bae31:	e8 8a 7b 56 02       	call   7d229c0 <pthread_mutex_unlock@plt>
 57baef1:	e8 ca 7a 56 02       	call   7d229c0 <pthread_mutex_unlock@plt>
 57bc2d0:	e8 eb 67 56 02       	call   7d22ac0 <pthread_once@plt>
 57bdcdb:	e8 d0 4c 56 02       	call   7d229b0 <pthread_mutex_lock@plt>
 57bdd33:	e8 88 4c 56 02       	call   7d229c0 <pthread_mutex_unlock@plt>
 57bde4b:	e8 60 4b 56 02       	call   7d229b0 <pthread_mutex_lock@plt>
 57bdea4:	e8 17 4b 56 02       	call   7d229c0 <pthread_mutex_unlock@plt>
 57bf6ca:	e8 f1 33 56 02       	call   7d22ac0 <pthread_once@plt>
 57c053d:	e8 7e 25 56 02       	call   7d22ac0 <pthread_once@plt>
 57c0a3a:	e8 71 1f 56 02       	call   7d229b0 <pthread_mutex_lock@plt>
 57c0baa:	e8 11 1e 56 02       	call   7d229c0 <pthread_mutex_unlock@plt>
 57c13c7:	e8 e4 15 56 02       	call   7d229b0 <pthread_mutex_lock@plt>
 57c13d7:	e8 e4 15 56 02       	call   7d229c0 <pthread_mutex_unlock@plt>
 57c217b:	e8 30 08 56 02       	call   7d229b0 <pthread_mutex_lock@plt>
 57c226d:	e8 4e 07 56 02       	call   7d229c0 <pthread_mutex_unlock@plt>
 57c2333:	e8 78 06 56 02       	call   7d229b0 <pthread_mutex_lock@plt>
 57c25ea:	e9 d1 03 56 02       	jmp    7d229c0 <pthread_mutex_unlock@plt>
 57c2650:	e8 5b 03 56 02       	call   7d229b0 <pthread_mutex_lock@plt>
 57c26f0:	e8 cb 02 56 02       	call   7d229c0 <pthread_mutex_unlock@plt>
 57c2c3b:	e8 70 fd 55 02       	call   7d229b0 <pthread_mutex_lock@plt>
 57c2dd4:	e9 e7 fb 55 02       	jmp    7d229c0 <pthread_mutex_unlock@plt>
 57c2f02:	e8 a9 fa 55 02       	call   7d229b0 <pthread_mutex_lock@plt>
 57c324e:	e9 6d f7 55 02       	jmp    7d229c0 <pthread_mutex_unlock@plt>
 57c33fd:	e8 ae f5 55 02       	call   7d229b0 <pthread_mutex_lock@plt>
 57c34cd:	e8 de f4 55 02       	call   7d229b0 <pthread_mutex_lock@plt>
 57c34f0:	e8 cb f4 55 02       	call   7d229c0 <pthread_mutex_unlock@plt>
 57c3548:	e8 73 f4 55 02       	call   7d229c0 <pthread_mutex_unlock@plt>
 57c3681:	e8 2a f3 55 02       	call   7d229b0 <pthread_mutex_lock@plt>
 57c3720:	e8 9b f2 55 02       	call   7d229c0 <pthread_mutex_unlock@plt>
 57c39b4:	e9 07 f0 55 02       	jmp    7d229c0 <pthread_mutex_unlock@plt>
 57c4c68:	e8 43 dd 55 02       	call   7d229b0 <pthread_mutex_lock@plt>
 57c53c7:	e8 e4 d5 55 02       	call   7d229b0 <pthread_mutex_lock@plt>
 57c5fd3:	e8 d8 c9 55 02       	call   7d229b0 <pthread_mutex_lock@plt>
 57c60b7:	e9 04 c9 55 02       	jmp    7d229c0 <pthread_mutex_unlock@plt>
 57c61e3:	e8 c8 c7 55 02       	call   7d229b0 <pthread_mutex_lock@plt>
 57c690b:	e8 b0 c0 55 02       	call   7d229c0 <pthread_mutex_unlock@plt>
 57c6fb3:	e8 08 ba 55 02       	call   7d229c0 <pthread_mutex_unlock@plt>
 57c79f7:	e8 c4 af 55 02       	call   7d229c0 <pthread_mutex_unlock@plt>
 57c7ade:	e8 dd ae 55 02       	call   7d229c0 <pthread_mutex_unlock@plt>
 57c7b24:	e8 97 ae 55 02       	call   7d229c0 <pthread_mutex_unlock@plt>
 57c81d2:	e8 e9 a7 55 02       	call   7d229c0 <pthread_mutex_unlock@plt>
 57c824a:	e8 71 a7 55 02       	call   7d229c0 <pthread_mutex_unlock@plt>
 57c93d5:	e8 e6 96 55 02       	call   7d22ac0 <pthread_once@plt>
 57cb13a:	e8 81 79 55 02       	call   7d22ac0 <pthread_once@plt>
 57d3001:	e8 ba fa 54 02       	call   7d22ac0 <pthread_once@plt>
 57d937a:	e8 41 97 54 02       	call   7d22ac0 <pthread_once@plt>
 57d994a:	e8 61 90 54 02       	call   7d229b0 <pthread_mutex_lock@plt>
 57d999a:	e8 21 90 54 02       	call   7d229c0 <pthread_mutex_unlock@plt>
 57d9dbd:	e8 ee 8b 54 02       	call   7d229b0 <pthread_mutex_lock@plt>
 57d9dd9:	e8 e2 8b 54 02       	call   7d229c0 <pthread_mutex_unlock@plt>
 57d9dea:	e8 c1 8b 54 02       	call   7d229b0 <pthread_mutex_lock@plt>
 57d9e63:	e8 58 8b 54 02       	call   7d229c0 <pthread_mutex_unlock@plt>
 57dea86:	e8 25 3f 54 02       	call   7d229b0 <pthread_mutex_lock@plt>
 57deb2b:	e8 80 3e 54 02       	call   7d229b0 <pthread_mutex_lock@plt>
 57e8b42:	e8 69 9e 53 02       	call   7d229b0 <pthread_mutex_lock@plt>
 57e91a7:	e8 04 98 53 02       	call   7d229b0 <pthread_mutex_lock@plt>
 57e9a39:	e8 72 8f 53 02       	call   7d229b0 <pthread_mutex_lock@plt>
 57e9a5b:	e8 50 8f 53 02       	call   7d229b0 <pthread_mutex_lock@plt>
 57e9a7a:	e8 41 8f 53 02       	call   7d229c0 <pthread_mutex_unlock@plt>
 57e9b25:	e8 96 8e 53 02       	call   7d229c0 <pthread_mutex_unlock@plt>
 57e9eb6:	e8 05 8c 53 02       	call   7d22ac0 <pthread_once@plt>
 57ecceb:	e8 d0 5d 53 02       	call   7d22ac0 <pthread_once@plt>
 57ed3aa:	e8 01 56 53 02       	call   7d229b0 <pthread_mutex_lock@plt>
 57ed3e8:	e8 d3 55 53 02       	call   7d229c0 <pthread_mutex_unlock@plt>
 57ed409:	e8 a2 55 53 02       	call   7d229b0 <pthread_mutex_lock@plt>
 57ed4ae:	e8 fd 54 53 02       	call   7d229b0 <pthread_mutex_lock@plt>
 57ed4c7:	e8 f4 54 53 02       	call   7d229c0 <pthread_mutex_unlock@plt>
 57ed57a:	e8 41 54 53 02       	call   7d229c0 <pthread_mutex_unlock@plt>
 57ed5fb:	e8 b0 53 53 02       	call   7d229b0 <pthread_mutex_lock@plt>
 57ed671:	e8 4a 53 53 02       	call   7d229c0 <pthread_mutex_unlock@plt>
 57ed702:	e8 a9 52 53 02       	call   7d229b0 <pthread_mutex_lock@plt>
 57ed743:	e8 78 52 53 02       	call   7d229c0 <pthread_mutex_unlock@plt>
 57ed7a0:	e8 0b 52 53 02       	call   7d229b0 <pthread_mutex_lock@plt>
 57ed7d6:	e9 e5 51 53 02       	jmp    7d229c0 <pthread_mutex_unlock@plt>
 57eda10:	e9 ab 4f 53 02       	jmp    7d229c0 <pthread_mutex_unlock@plt>
 57eda36:	e8 85 4f 53 02       	call   7d229c0 <pthread_mutex_unlock@plt>
 57ee3ba:	e8 01 47 53 02       	call   7d22ac0 <pthread_once@plt>
 57f3560:	e8 5b f5 52 02       	call   7d22ac0 <pthread_once@plt>
 57f81a7:	e8 14 a9 52 02       	call   7d22ac0 <pthread_once@plt>
 57f941b:	e8 a0 96 52 02       	call   7d22ac0 <pthread_once@plt>
 57fb24a:	e8 71 78 52 02       	call   7d22ac0 <pthread_once@plt>
 58010ad:	e8 0e 1a 52 02       	call   7d22ac0 <pthread_once@plt>
 580171a:	e8 91 12 52 02       	call   7d229b0 <pthread_mutex_lock@plt>
 580176a:	e8 51 12 52 02       	call   7d229c0 <pthread_mutex_unlock@plt>
 58021da:	e8 d1 07 52 02       	call   7d229b0 <pthread_mutex_lock@plt>
 58021f6:	e8 c5 07 52 02       	call   7d229c0 <pthread_mutex_unlock@plt>
 580223a:	e8 71 07 52 02       	call   7d229b0 <pthread_mutex_lock@plt>
 58022a5:	e9 16 07 52 02       	jmp    7d229c0 <pthread_mutex_unlock@plt>
 580231a:	e8 91 06 52 02       	call   7d229b0 <pthread_mutex_lock@plt>
 580232d:	e8 8e 06 52 02       	call   7d229c0 <pthread_mutex_unlock@plt>
 580236a:	e8 41 06 52 02       	call   7d229b0 <pthread_mutex_lock@plt>
 5802381:	e8 3a 06 52 02       	call   7d229c0 <pthread_mutex_unlock@plt>
 58023f6:	e8 b5 05 52 02       	call   7d229b0 <pthread_mutex_lock@plt>
 5802442:	e8 69 05 52 02       	call   7d229b0 <pthread_mutex_lock@plt>
 580245e:	e8 5d 05 52 02       	call   7d229c0 <pthread_mutex_unlock@plt>
 58024d8:	e8 e3 04 52 02       	call   7d229c0 <pthread_mutex_unlock@plt>
 580252e:	e8 7d 04 52 02       	call   7d229b0 <pthread_mutex_lock@plt>
 58025a1:	e8 1a 04 52 02       	call   7d229c0 <pthread_mutex_unlock@plt>
 58026b0:	e8 fb 02 52 02       	call   7d229b0 <pthread_mutex_lock@plt>
 5802a32:	e8 89 ff 51 02       	call   7d229c0 <pthread_mutex_unlock@plt>
 5802be5:	e8 c6 fd 51 02       	call   7d229b0 <pthread_mutex_lock@plt>
 5802e80:	e8 3b fb 51 02       	call   7d229c0 <pthread_mutex_unlock@plt>
 580312e:	e8 7d f8 51 02       	call   7d229b0 <pthread_mutex_lock@plt>
 5803171:	e8 4a f8 51 02       	call   7d229c0 <pthread_mutex_unlock@plt>
 5803226:	e8 85 f7 51 02       	call   7d229b0 <pthread_mutex_lock@plt>
 58033e1:	e8 da f5 51 02       	call   7d229c0 <pthread_mutex_unlock@plt>
 5804043:	e8 68 e9 51 02       	call   7d229b0 <pthread_mutex_lock@plt>
 580405a:	e8 61 e9 51 02       	call   7d229c0 <pthread_mutex_unlock@plt>
 5804b33:	e8 78 de 51 02       	call   7d229b0 <pthread_mutex_lock@plt>
 5804b59:	e8 62 de 51 02       	call   7d229c0 <pthread_mutex_unlock@plt>
 580608a:	e8 31 c9 51 02       	call   7d229c0 <pthread_mutex_unlock@plt>
 5806128:	e8 93 c8 51 02       	call   7d229c0 <pthread_mutex_unlock@plt>
 5806238:	e8 83 c7 51 02       	call   7d229c0 <pthread_mutex_unlock@plt>
 58062bc:	e8 ff c6 51 02       	call   7d229c0 <pthread_mutex_unlock@plt>
 5807762:	e8 59 b3 51 02       	call   7d22ac0 <pthread_once@plt>
 5807d1a:	e8 91 ac 51 02       	call   7d229b0 <pthread_mutex_lock@plt>
 5807f3a:	e8 81 aa 51 02       	call   7d229c0 <pthread_mutex_unlock@plt>
 5808b17:	e8 94 9e 51 02       	call   7d229b0 <pthread_mutex_lock@plt>
 5808b28:	e8 93 9e 51 02       	call   7d229c0 <pthread_mutex_unlock@plt>
 58094ed:	e8 be 94 51 02       	call   7d229b0 <pthread_mutex_lock@plt>
 5809507:	e8 b4 94 51 02       	call   7d229c0 <pthread_mutex_unlock@plt>
 580952f:	e8 7c 94 51 02       	call   7d229b0 <pthread_mutex_lock@plt>
 580954a:	e8 71 94 51 02       	call   7d229c0 <pthread_mutex_unlock@plt>
 580956b:	e8 40 94 51 02       	call   7d229b0 <pthread_mutex_lock@plt>
 5809586:	e8 35 94 51 02       	call   7d229c0 <pthread_mutex_unlock@plt>
 58095a7:	e8 04 94 51 02       	call   7d229b0 <pthread_mutex_lock@plt>
 58095c2:	e8 f9 93 51 02       	call   7d229c0 <pthread_mutex_unlock@plt>
 58095e3:	e8 c8 93 51 02       	call   7d229b0 <pthread_mutex_lock@plt>
 58095fe:	e8 bd 93 51 02       	call   7d229c0 <pthread_mutex_unlock@plt>
 580961f:	e8 8c 93 51 02       	call   7d229b0 <pthread_mutex_lock@plt>
 580963a:	e8 81 93 51 02       	call   7d229c0 <pthread_mutex_unlock@plt>
 580965b:	e8 50 93 51 02       	call   7d229b0 <pthread_mutex_lock@plt>
 5809676:	e8 45 93 51 02       	call   7d229c0 <pthread_mutex_unlock@plt>
 5809693:	e8 18 93 51 02       	call   7d229b0 <pthread_mutex_lock@plt>
 58096ae:	e8 0d 93 51 02       	call   7d229c0 <pthread_mutex_unlock@plt>
 58096cb:	e8 e0 92 51 02       	call   7d229b0 <pthread_mutex_lock@plt>
 58096de:	e8 dd 92 51 02       	call   7d229c0 <pthread_mutex_unlock@plt>
 5809758:	e8 63 92 51 02       	call   7d229c0 <pthread_mutex_unlock@plt>
 580977d:	e8 3e 92 51 02       	call   7d229c0 <pthread_mutex_unlock@plt>
 58097aa:	e8 11 92 51 02       	call   7d229c0 <pthread_mutex_unlock@plt>
 5809e0f:	e8 9c 8b 51 02       	call   7d229b0 <pthread_mutex_lock@plt>
 5809eb8:	e8 03 8b 51 02       	call   7d229c0 <pthread_mutex_unlock@plt>
 5809edb:	e8 d0 8a 51 02       	call   7d229b0 <pthread_mutex_lock@plt>
 5809f31:	e9 8a 8a 51 02       	jmp    7d229c0 <pthread_mutex_unlock@plt>
 5809f6b:	e8 50 8a 51 02       	call   7d229c0 <pthread_mutex_unlock@plt>
 5809f85:	e8 26 8a 51 02       	call   7d229b0 <pthread_mutex_lock@plt>
 580a036:	e8 75 89 51 02       	call   7d229b0 <pthread_mutex_lock@plt>
 580a0bb:	e8 00 89 51 02       	call   7d229c0 <pthread_mutex_unlock@plt>
 580a0e1:	e8 ca 88 51 02       	call   7d229b0 <pthread_mutex_lock@plt>
 580a2b3:	e8 f8 86 51 02       	call   7d229b0 <pthread_mutex_lock@plt>
 580a43f:	e8 6c 85 51 02       	call   7d229b0 <pthread_mutex_lock@plt>
 580a4e8:	e8 d3 84 51 02       	call   7d229c0 <pthread_mutex_unlock@plt>
 580a50b:	e8 a0 84 51 02       	call   7d229b0 <pthread_mutex_lock@plt>
 580a561:	e9 5a 84 51 02       	jmp    7d229c0 <pthread_mutex_unlock@plt>
 580a59b:	e8 20 84 51 02       	call   7d229c0 <pthread_mutex_unlock@plt>
 580a5b5:	e8 f6 83 51 02       	call   7d229b0 <pthread_mutex_lock@plt>
 580a65f:	e8 4c 83 51 02       	call   7d229b0 <pthread_mutex_lock@plt>
 580a708:	e8 b3 82 51 02       	call   7d229c0 <pthread_mutex_unlock@plt>
 580a72b:	e8 80 82 51 02       	call   7d229b0 <pthread_mutex_lock@plt>
 580a781:	e9 3a 82 51 02       	jmp    7d229c0 <pthread_mutex_unlock@plt>
 580a7bb:	e8 00 82 51 02       	call   7d229c0 <pthread_mutex_unlock@plt>
 580a7d5:	e8 d6 81 51 02       	call   7d229b0 <pthread_mutex_lock@plt>
 580a889:	e8 22 81 51 02       	call   7d229b0 <pthread_mutex_lock@plt>
 580a90e:	e8 ad 80 51 02       	call   7d229c0 <pthread_mutex_unlock@plt>
 580a934:	e8 77 80 51 02       	call   7d229b0 <pthread_mutex_lock@plt>
 580aacb:	e8 f0 7e 51 02       	call   7d229c0 <pthread_mutex_unlock@plt>
 580aaea:	e8 c1 7e 51 02       	call   7d229b0 <pthread_mutex_lock@plt>
 580b58a:	e8 21 74 51 02       	call   7d229b0 <pthread_mutex_lock@plt>
 580b5c2:	e8 f9 73 51 02       	call   7d229c0 <pthread_mutex_unlock@plt>
 580b87b:	e8 40 71 51 02       	call   7d229c0 <pthread_mutex_unlock@plt>
 580bbd4:	e8 e7 6e 51 02       	call   7d22ac0 <pthread_once@plt>
 580c41a:	e8 91 65 51 02       	call   7d229b0 <pthread_mutex_lock@plt>
 580c482:	e8 39 65 51 02       	call   7d229c0 <pthread_mutex_unlock@plt>
 580c6ba:	e8 f1 62 51 02       	call   7d229b0 <pthread_mutex_lock@plt>
 580c7af:	e8 0c 62 51 02       	call   7d229c0 <pthread_mutex_unlock@plt>
 580cbc3:	e8 f8 5d 51 02       	call   7d229c0 <pthread_mutex_unlock@plt>
 580cc00:	e8 bb 5d 51 02       	call   7d229c0 <pthread_mutex_unlock@plt>
 580cd5a:	e8 51 5c 51 02       	call   7d229b0 <pthread_mutex_lock@plt>
 580cdc2:	e8 f9 5b 51 02       	call   7d229c0 <pthread_mutex_unlock@plt>
 580cffa:	e8 b1 59 51 02       	call   7d229b0 <pthread_mutex_lock@plt>
 580d0ef:	e8 cc 58 51 02       	call   7d229c0 <pthread_mutex_unlock@plt>
 580d503:	e8 b8 54 51 02       	call   7d229c0 <pthread_mutex_unlock@plt>
 580d540:	e8 7b 54 51 02       	call   7d229c0 <pthread_mutex_unlock@plt>
 580d69a:	e8 11 53 51 02       	call   7d229b0 <pthread_mutex_lock@plt>
 580d714:	e8 a7 52 51 02       	call   7d229c0 <pthread_mutex_unlock@plt>
 580d884:	e8 27 51 51 02       	call   7d229b0 <pthread_mutex_lock@plt>
 580d957:	e8 64 50 51 02       	call   7d229c0 <pthread_mutex_unlock@plt>
 580dde6:	e8 d5 4b 51 02       	call   7d229c0 <pthread_mutex_unlock@plt>
 580dea2:	e8 19 4b 51 02       	call   7d229c0 <pthread_mutex_unlock@plt>
 580df66:	e8 45 4a 51 02       	call   7d229b0 <pthread_mutex_lock@plt>
 580dfe0:	e8 db 49 51 02       	call   7d229c0 <pthread_mutex_unlock@plt>
 580e119:	e8 92 48 51 02       	call   7d229b0 <pthread_mutex_lock@plt>
 580e1ef:	e8 cc 47 51 02       	call   7d229c0 <pthread_mutex_unlock@plt>
 580e666:	e8 55 43 51 02       	call   7d229c0 <pthread_mutex_unlock@plt>
 580e726:	e8 95 42 51 02       	call   7d229c0 <pthread_mutex_unlock@plt>
 580e7da:	e8 d1 41 51 02       	call   7d229b0 <pthread_mutex_lock@plt>
 580e854:	e8 67 41 51 02       	call   7d229c0 <pthread_mutex_unlock@plt>
 580e9a6:	e8 05 40 51 02       	call   7d229b0 <pthread_mutex_lock@plt>
 580ea7f:	e8 3c 3f 51 02       	call   7d229c0 <pthread_mutex_unlock@plt>
 580eef6:	e8 c5 3a 51 02       	call   7d229c0 <pthread_mutex_unlock@plt>
 580efb6:	e8 05 3a 51 02       	call   7d229c0 <pthread_mutex_unlock@plt>
 5811b46:	e8 75 0f 51 02       	call   7d22ac0 <pthread_once@plt>
 5812791:	e8 1a 02 51 02       	call   7d229b0 <pthread_mutex_lock@plt>
 58128a6:	e8 15 01 51 02       	call   7d229c0 <pthread_mutex_unlock@plt>
 5812cf4:	e8 c7 fd 50 02       	call   7d22ac0 <pthread_once@plt>
 5813127:	e8 94 f8 50 02       	call   7d229c0 <pthread_mutex_unlock@plt>
 581394a:	e8 71 f1 50 02       	call   7d22ac0 <pthread_once@plt>
 58168db:	e8 e0 c1 50 02       	call   7d22ac0 <pthread_once@plt>
 5818b4a:	e8 71 9f 50 02       	call   7d22ac0 <pthread_once@plt>
 581aaba:	e8 01 80 50 02       	call   7d22ac0 <pthread_once@plt>
 581d02d:	e8 8e 5a 50 02       	call   7d22ac0 <pthread_once@plt>
 581f184:	e8 37 39 50 02       	call   7d22ac0 <pthread_once@plt>
 581fbad:	e8 0e 2f 50 02       	call   7d22ac0 <pthread_once@plt>
 5820a5a:	e8 61 20 50 02       	call   7d22ac0 <pthread_once@plt>
 58227ba:	e8 01 03 50 02       	call   7d22ac0 <pthread_once@plt>
 5822d87:	e8 24 fc 4f 02       	call   7d229b0 <pthread_mutex_lock@plt>
 5822d97:	e8 24 fc 4f 02       	call   7d229c0 <pthread_mutex_unlock@plt>
 5822dda:	e8 d1 fb 4f 02       	call   7d229b0 <pthread_mutex_lock@plt>
 5822ea2:	e8 19 fb 4f 02       	call   7d229c0 <pthread_mutex_unlock@plt>
 5823903:	e8 a8 f0 4f 02       	call   7d229b0 <pthread_mutex_lock@plt>
 5823c38:	e8 83 ed 4f 02       	call   7d229c0 <pthread_mutex_unlock@plt>
 5824387:	e8 24 e6 4f 02       	call   7d229b0 <pthread_mutex_lock@plt>
 58245cf:	e8 ec e3 4f 02       	call   7d229c0 <pthread_mutex_unlock@plt>
 58246be:	e8 ed e2 4f 02       	call   7d229b0 <pthread_mutex_lock@plt>
 5824945:	e8 76 e0 4f 02       	call   7d229c0 <pthread_mutex_unlock@plt>
 5824a16:	e8 95 df 4f 02       	call   7d229b0 <pthread_mutex_lock@plt>
 5824a59:	e8 62 df 4f 02       	call   7d229c0 <pthread_mutex_unlock@plt>
 5824b15:	e8 96 de 4f 02       	call   7d229b0 <pthread_mutex_lock@plt>
 5824b43:	e8 78 de 4f 02       	call   7d229c0 <pthread_mutex_unlock@plt>
 5824fc4:	e8 e7 d9 4f 02       	call   7d229b0 <pthread_mutex_lock@plt>
 58252f7:	e8 c4 d6 4f 02       	call   7d229c0 <pthread_mutex_unlock@plt>
 5825b73:	e8 38 ce 4f 02       	call   7d229b0 <pthread_mutex_lock@plt>
 5825cca:	e8 f1 cc 4f 02       	call   7d229c0 <pthread_mutex_unlock@plt>
 5825dfe:	e8 ad cb 4f 02       	call   7d229b0 <pthread_mutex_lock@plt>
 582609b:	e8 20 c9 4f 02       	call   7d229c0 <pthread_mutex_unlock@plt>
 58262cf:	e8 dc c6 4f 02       	call   7d229b0 <pthread_mutex_lock@plt>
 582632b:	e8 90 c6 4f 02       	call   7d229c0 <pthread_mutex_unlock@plt>
 58263e4:	e8 c7 c5 4f 02       	call   7d229b0 <pthread_mutex_lock@plt>
 5826778:	e8 43 c2 4f 02       	call   7d229c0 <pthread_mutex_unlock@plt>
 5826ff9:	e8 b2 b9 4f 02       	call   7d229b0 <pthread_mutex_lock@plt>
 5827021:	e8 9a b9 4f 02       	call   7d229c0 <pthread_mutex_unlock@plt>
 582704f:	e8 5c b9 4f 02       	call   7d229b0 <pthread_mutex_lock@plt>
 582707a:	e8 41 b9 4f 02       	call   7d229c0 <pthread_mutex_unlock@plt>
 58270d4:	e8 d7 b8 4f 02       	call   7d229b0 <pthread_mutex_lock@plt>
 58273b7:	e8 04 b6 4f 02       	call   7d229c0 <pthread_mutex_unlock@plt>
 58284c5:	e8 e6 a4 4f 02       	call   7d229b0 <pthread_mutex_lock@plt>
 58284ec:	e8 cf a4 4f 02       	call   7d229c0 <pthread_mutex_unlock@plt>
 58286ff:	e8 ac a2 4f 02       	call   7d229b0 <pthread_mutex_lock@plt>
 5828731:	e8 8a a2 4f 02       	call   7d229c0 <pthread_mutex_unlock@plt>
 5828968:	e8 53 a0 4f 02       	call   7d229c0 <pthread_mutex_unlock@plt>
 5828d46:	e8 75 9c 4f 02       	call   7d229c0 <pthread_mutex_unlock@plt>
 5828e5e:	e8 5d 9b 4f 02       	call   7d229c0 <pthread_mutex_unlock@plt>
 5828e7a:	e8 41 9b 4f 02       	call   7d229c0 <pthread_mutex_unlock@plt>
 58290fe:	e8 bd 98 4f 02       	call   7d229c0 <pthread_mutex_unlock@plt>
 5829166:	e8 55 98 4f 02       	call   7d229c0 <pthread_mutex_unlock@plt>
 5829245:	e8 76 97 4f 02       	call   7d229c0 <pthread_mutex_unlock@plt>
 5829357:	e8 64 96 4f 02       	call   7d229c0 <pthread_mutex_unlock@plt>
 582961f:	e8 9c 93 4f 02       	call   7d229c0 <pthread_mutex_unlock@plt>
 5829640:	e8 7b 93 4f 02       	call   7d229c0 <pthread_mutex_unlock@plt>
 5829746:	e8 75 92 4f 02       	call   7d229c0 <pthread_mutex_unlock@plt>
 58297c0:	e8 fb 91 4f 02       	call   7d229c0 <pthread_mutex_unlock@plt>
 5829828:	e8 83 91 4f 02       	call   7d229b0 <pthread_mutex_lock@plt>
 5829863:	e8 58 91 4f 02       	call   7d229c0 <pthread_mutex_unlock@plt>
 58298fe:	e8 bd 90 4f 02       	call   7d229c0 <pthread_mutex_unlock@plt>
 5829be9:	e8 d2 8d 4f 02       	call   7d229c0 <pthread_mutex_unlock@plt>
 5829f37:	e8 84 8a 4f 02       	call   7d229c0 <pthread_mutex_unlock@plt>
 5829f4b:	e8 70 8a 4f 02       	call   7d229c0 <pthread_mutex_unlock@plt>
 582ac1e:	e8 9d 7e 4f 02       	call   7d22ac0 <pthread_once@plt>
 582d08b:	e8 30 5a 4f 02       	call   7d22ac0 <pthread_once@plt>
 582dce9:	e8 d2 4d 4f 02       	call   7d22ac0 <pthread_once@plt>
 582eef6:	e8 c5 3b 4f 02       	call   7d22ac0 <pthread_once@plt>
 58481d2:	e8 e9 a8 4d 02       	call   7d22ac0 <pthread_once@plt>
 585111a:	e8 a1 19 4d 02       	call   7d22ac0 <pthread_once@plt>
 585574a:	e8 71 d3 4c 02       	call   7d22ac0 <pthread_once@plt>
 585694a:	e8 71 c1 4c 02       	call   7d22ac0 <pthread_once@plt>
 585722a:	e8 81 b7 4c 02       	call   7d229b0 <pthread_mutex_lock@plt>
 585727a:	e8 41 b7 4c 02       	call   7d229c0 <pthread_mutex_unlock@plt>
 585785d:	e8 4e b1 4c 02       	call   7d229b0 <pthread_mutex_lock@plt>
 5857881:	e9 3a b1 4c 02       	jmp    7d229c0 <pthread_mutex_unlock@plt>
 58578a3:	e8 08 b1 4c 02       	call   7d229b0 <pthread_mutex_lock@plt>
 58579a4:	e9 17 b0 4c 02       	jmp    7d229c0 <pthread_mutex_unlock@plt>
 58579c3:	e8 e8 af 4c 02       	call   7d229b0 <pthread_mutex_lock@plt>
 5857ae5:	e9 d6 ae 4c 02       	jmp    7d229c0 <pthread_mutex_unlock@plt>
 5857cb7:	e8 f4 ac 4c 02       	call   7d229b0 <pthread_mutex_lock@plt>
 5857cd4:	e8 e7 ac 4c 02       	call   7d229c0 <pthread_mutex_unlock@plt>
 5857cdc:	e8 df ac 4c 02       	call   7d229c0 <pthread_mutex_unlock@plt>
 5857cfb:	e8 b0 ac 4c 02       	call   7d229b0 <pthread_mutex_lock@plt>
 5857d28:	e8 83 ac 4c 02       	call   7d229b0 <pthread_mutex_lock@plt>
 5857da0:	e8 1b ac 4c 02       	call   7d229c0 <pthread_mutex_unlock@plt>
 58588fb:	e8 b0 a0 4c 02       	call   7d229b0 <pthread_mutex_lock@plt>
 5858c6b:	e8 40 9d 4c 02       	call   7d229b0 <pthread_mutex_lock@plt>
 5859e70:	e8 3b 8b 4c 02       	call   7d229b0 <pthread_mutex_lock@plt>
 5859eb7:	e8 f4 8a 4c 02       	call   7d229b0 <pthread_mutex_lock@plt>
 5859ed4:	e8 e7 8a 4c 02       	call   7d229c0 <pthread_mutex_unlock@plt>
 5859edc:	e8 df 8a 4c 02       	call   7d229c0 <pthread_mutex_unlock@plt>
 5859efe:	e8 ad 8a 4c 02       	call   7d229b0 <pthread_mutex_lock@plt>
 5859f2e:	e8 7d 8a 4c 02       	call   7d229b0 <pthread_mutex_lock@plt>
 5859fb5:	e8 06 8a 4c 02       	call   7d229c0 <pthread_mutex_unlock@plt>
 585ff92:	e8 29 2b 4c 02       	call   7d22ac0 <pthread_once@plt>
 586ba5e:	e8 5d 70 4b 02       	call   7d22ac0 <pthread_once@plt>
 587234e:	e8 6d 07 4b 02       	call   7d22ac0 <pthread_once@plt>
 587d4c2:	e8 f9 55 4a 02       	call   7d22ac0 <pthread_once@plt>
 588212a:	e8 91 09 4a 02       	call   7d22ac0 <pthread_once@plt>
 588693e:	e8 7d c1 49 02       	call   7d22ac0 <pthread_once@plt>
 589091f:	e8 9c 21 49 02       	call   7d22ac0 <pthread_once@plt>
 58976be:	e8 fd b3 48 02       	call   7d22ac0 <pthread_once@plt>
 589c454:	e8 67 66 48 02       	call   7d22ac0 <pthread_once@plt>
 593a88f:	e8 2c 82 3e 02       	call   7d22ac0 <pthread_once@plt>
 5940fa7:	e8 14 1b 3e 02       	call   7d22ac0 <pthread_once@plt>
 5946e6e:	e8 4d bc 3d 02       	call   7d22ac0 <pthread_once@plt>
 594c4ba:	e8 01 66 3d 02       	call   7d22ac0 <pthread_once@plt>
 5950b4a:	e8 71 1f 3d 02       	call   7d22ac0 <pthread_once@plt>
 595447a:	e8 41 e6 3c 02       	call   7d22ac0 <pthread_once@plt>
 59573aa:	e8 11 b7 3c 02       	call   7d22ac0 <pthread_once@plt>
 595880a:	e8 b1 a2 3c 02       	call   7d22ac0 <pthread_once@plt>
 5959daa:	e8 11 8d 3c 02       	call   7d22ac0 <pthread_once@plt>
 5964dee:	e8 cd dc 3b 02       	call   7d22ac0 <pthread_once@plt>
 596da2a:	e8 91 50 3b 02       	call   7d22ac0 <pthread_once@plt>
 5971264:	e8 47 17 3b 02       	call   7d229b0 <pthread_mutex_lock@plt>
 5971290:	e8 2b 17 3b 02       	call   7d229c0 <pthread_mutex_unlock@plt>
 5976974:	e8 47 c0 3a 02       	call   7d229c0 <pthread_mutex_unlock@plt>
 59792c2:	e8 f9 97 3a 02       	call   7d22ac0 <pthread_once@plt>
 597ef57:	e8 64 3b 3a 02       	call   7d22ac0 <pthread_once@plt>
 5983b52:	e8 69 ef 39 02       	call   7d22ac0 <pthread_once@plt>
 598630b:	e8 b0 c7 39 02       	call   7d22ac0 <pthread_once@plt>
 59888eb:	e8 d0 a1 39 02       	call   7d22ac0 <pthread_once@plt>
 598bf8a:	e8 31 6b 39 02       	call   7d22ac0 <pthread_once@plt>
 598f8c7:	e8 f4 31 39 02       	call   7d22ac0 <pthread_once@plt>
 5991354:	e8 67 17 39 02       	call   7d22ac0 <pthread_once@plt>
 599228a:	e8 31 08 39 02       	call   7d22ac0 <pthread_once@plt>
 5994bca:	e8 f1 de 38 02       	call   7d22ac0 <pthread_once@plt>
 5995f04:	e8 b7 cb 38 02       	call   7d22ac0 <pthread_once@plt>
 5997dba:	e8 01 ad 38 02       	call   7d22ac0 <pthread_once@plt>
 599bc1a:	e8 a1 6e 38 02       	call   7d22ac0 <pthread_once@plt>
 599e08b:	e8 30 4a 38 02       	call   7d22ac0 <pthread_once@plt>
 599f9b4:	e8 07 31 38 02       	call   7d22ac0 <pthread_once@plt>
 59a26a4:	e8 17 04 38 02       	call   7d22ac0 <pthread_once@plt>
 59a479a:	e8 21 e3 37 02       	call   7d22ac0 <pthread_once@plt>
 59a8987:	e8 34 a1 37 02       	call   7d22ac0 <pthread_once@plt>
 59add54:	e8 67 4d 37 02       	call   7d22ac0 <pthread_once@plt>
 59aefa4:	e8 17 3b 37 02       	call   7d22ac0 <pthread_once@plt>
 59b04b4:	e8 07 26 37 02       	call   7d22ac0 <pthread_once@plt>
 59b446a:	e8 51 e6 36 02       	call   7d22ac0 <pthread_once@plt>
 59b75db:	e8 e0 b4 36 02       	call   7d22ac0 <pthread_once@plt>
 59b83fa:	e8 c1 a6 36 02       	call   7d22ac0 <pthread_once@plt>
 59b92da:	e8 e1 97 36 02       	call   7d22ac0 <pthread_once@plt>
 59bf66a:	e8 51 34 36 02       	call   7d22ac0 <pthread_once@plt>
 59c6597:	e8 24 c5 35 02       	call   7d22ac0 <pthread_once@plt>
 59cc8cb:	e8 f0 61 35 02       	call   7d22ac0 <pthread_once@plt>
 59cd139:	e8 82 59 35 02       	call   7d22ac0 <pthread_once@plt>
 59dacf7:	e8 c4 7d 34 02       	call   7d22ac0 <pthread_once@plt>
 59dadb1:	e8 0a 7d 34 02       	call   7d22ac0 <pthread_once@plt>
 59dae6b:	e8 50 7c 34 02       	call   7d22ac0 <pthread_once@plt>
 59dc7e1:	e8 da 62 34 02       	call   7d22ac0 <pthread_once@plt>
 59de42a:	e8 81 45 34 02       	call   7d229b0 <pthread_mutex_lock@plt>
 59de47a:	e8 41 45 34 02       	call   7d229c0 <pthread_mutex_unlock@plt>
 59de7d5:	e8 d6 41 34 02       	call   7d229b0 <pthread_mutex_lock@plt>
 59de9b3:	e8 08 40 34 02       	call   7d229c0 <pthread_mutex_unlock@plt>
 59deb27:	e8 84 3e 34 02       	call   7d229b0 <pthread_mutex_lock@plt>
 59ded40:	e8 7b 3c 34 02       	call   7d229c0 <pthread_mutex_unlock@plt>
 59dfd24:	e8 87 2c 34 02       	call   7d229b0 <pthread_mutex_lock@plt>
 59dfd41:	e8 7a 2c 34 02       	call   7d229c0 <pthread_mutex_unlock@plt>
 59dfdbb:	e8 f0 2b 34 02       	call   7d229b0 <pthread_mutex_lock@plt>
 59dff70:	e8 4b 2a 34 02       	call   7d229c0 <pthread_mutex_unlock@plt>
 59e03d2:	e8 d9 25 34 02       	call   7d229b0 <pthread_mutex_lock@plt>
 59e07d8:	e8 e3 21 34 02       	call   7d229c0 <pthread_mutex_unlock@plt>
 59e0998:	e8 23 20 34 02       	call   7d229c0 <pthread_mutex_unlock@plt>
 59e09ce:	e8 ed 1f 34 02       	call   7d229c0 <pthread_mutex_unlock@plt>
 59e0a2c:	e8 8f 1f 34 02       	call   7d229c0 <pthread_mutex_unlock@plt>
 59e0a57:	e8 64 1f 34 02       	call   7d229c0 <pthread_mutex_unlock@plt>
 59e36f2:	e8 c9 f3 33 02       	call   7d22ac0 <pthread_once@plt>
 59e379c:	e8 1f f3 33 02       	call   7d22ac0 <pthread_once@plt>
 59e38d1:	e8 ea f1 33 02       	call   7d22ac0 <pthread_once@plt>
 59e4c5a:	e8 61 de 33 02       	call   7d22ac0 <pthread_once@plt>
 59e711a:	e8 a1 b9 33 02       	call   7d22ac0 <pthread_once@plt>
 59ea14a:	e8 71 89 33 02       	call   7d22ac0 <pthread_once@plt>
 59eb69a:	e8 21 74 33 02       	call   7d22ac0 <pthread_once@plt>
 59ec536:	e8 85 65 33 02       	call   7d22ac0 <pthread_once@plt>
 59f09ed:	e8 ce 20 33 02       	call   7d22ac0 <pthread_once@plt>
 59fac60:	e8 5b 7e 32 02       	call   7d22ac0 <pthread_once@plt>
 5a00dfa:	e8 c1 1c 32 02       	call   7d22ac0 <pthread_once@plt>
 5a0367a:	e8 41 f4 31 02       	call   7d22ac0 <pthread_once@plt>
 5a16673:	e8 48 c4 30 02       	call   7d22ac0 <pthread_once@plt>
 5a27394:	e8 27 b7 2f 02       	call   7d22ac0 <pthread_once@plt>
 5a33492:	e8 29 f6 2e 02       	call   7d22ac0 <pthread_once@plt>
 5a3a7bf:	e8 fc 82 2e 02       	call   7d22ac0 <pthread_once@plt>
 5a43e07:	e8 b4 ec 2d 02       	call   7d22ac0 <pthread_once@plt>
 5a4853a:	e8 81 a5 2d 02       	call   7d22ac0 <pthread_once@plt>
 5a5dd3e:	e8 7d 4d 2c 02       	call   7d22ac0 <pthread_once@plt>
 5a5ea40:	e8 6b 3f 2c 02       	call   7d229b0 <pthread_mutex_lock@plt>
 5a5ed19:	e9 a2 3c 2c 02       	jmp    7d229c0 <pthread_mutex_unlock@plt>
 5a5ee18:	e8 93 3b 2c 02       	call   7d229b0 <pthread_mutex_lock@plt>
 5a5eef1:	e8 ca 3a 2c 02       	call   7d229c0 <pthread_mutex_unlock@plt>
 5a5ef4b:	e8 60 3a 2c 02       	call   7d229b0 <pthread_mutex_lock@plt>
 5a5f112:	e9 a9 38 2c 02       	jmp    7d229c0 <pthread_mutex_unlock@plt>
 5a5f4c3:	e8 e8 34 2c 02       	call   7d229b0 <pthread_mutex_lock@plt>
 5a5f6b7:	e8 04 33 2c 02       	call   7d229c0 <pthread_mutex_unlock@plt>
 5a5f818:	e8 93 31 2c 02       	call   7d229b0 <pthread_mutex_lock@plt>
 5a5fa6f:	e8 4c 2f 2c 02       	call   7d229c0 <pthread_mutex_unlock@plt>
 5a5fc1e:	e8 9d 2d 2c 02       	call   7d229c0 <pthread_mutex_unlock@plt>
 5a5fc3a:	e8 81 2d 2c 02       	call   7d229c0 <pthread_mutex_unlock@plt>
 5a5fcea:	e8 d1 2c 2c 02       	call   7d229c0 <pthread_mutex_unlock@plt>
 5a5fe66:	e8 55 2b 2c 02       	call   7d229c0 <pthread_mutex_unlock@plt>
 5a6095a:	e8 61 21 2c 02       	call   7d22ac0 <pthread_once@plt>
 5a75376:	e8 45 d7 2a 02       	call   7d22ac0 <pthread_once@plt>
 5a7934b:	e8 70 97 2a 02       	call   7d22ac0 <pthread_once@plt>
 5a7cb86:	e8 35 5f 2a 02       	call   7d22ac0 <pthread_once@plt>
 5a7e84a:	e8 71 42 2a 02       	call   7d22ac0 <pthread_once@plt>
 5a7fa6a:	e8 51 30 2a 02       	call   7d22ac0 <pthread_once@plt>
 5a80b80:	e8 2b 1e 2a 02       	call   7d229b0 <pthread_mutex_lock@plt>
 5a80ed1:	e8 ea 1a 2a 02       	call   7d229c0 <pthread_mutex_unlock@plt>
 5a81b83:	e8 28 0e 2a 02       	call   7d229b0 <pthread_mutex_lock@plt>
 5a81bb9:	e8 02 0e 2a 02       	call   7d229c0 <pthread_mutex_unlock@plt>
 5a81da2:	e8 19 0c 2a 02       	call   7d229c0 <pthread_mutex_unlock@plt>
 5a81fe3:	e8 c8 09 2a 02       	call   7d229b0 <pthread_mutex_lock@plt>
 5a82059:	e8 62 09 2a 02       	call   7d229c0 <pthread_mutex_unlock@plt>
 5a828d4:	e8 e7 00 2a 02       	call   7d229c0 <pthread_mutex_unlock@plt>
 5a82b08:	e8 a3 fe 29 02       	call   7d229b0 <pthread_mutex_lock@plt>
 5a82f14:	e8 a7 fa 29 02       	call   7d229c0 <pthread_mutex_unlock@plt>
 5a83e7a:	e8 41 ec 29 02       	call   7d22ac0 <pthread_once@plt>
 5a8a1e2:	e8 d9 88 29 02       	call   7d22ac0 <pthread_once@plt>
 5a905a1:	e8 1a 25 29 02       	call   7d22ac0 <pthread_once@plt>
 5a93cda:	e8 e1 ed 28 02       	call   7d22ac0 <pthread_once@plt>
 5a97e92:	e8 29 ac 28 02       	call   7d22ac0 <pthread_once@plt>
 5a9928a:	e8 31 98 28 02       	call   7d22ac0 <pthread_once@plt>
 5a99b1c:	e8 8f 8e 28 02       	call   7d229b0 <pthread_mutex_lock@plt>
 5a99b2d:	e8 8e 8e 28 02       	call   7d229c0 <pthread_mutex_unlock@plt>
 5a9a3ad:	e8 0e 87 28 02       	call   7d22ac0 <pthread_once@plt>
 5ab9423:	e8 98 96 26 02       	call   7d22ac0 <pthread_once@plt>
 5acc341:	e8 7a 67 25 02       	call   7d22ac0 <pthread_once@plt>
 5adc31a:	e8 a1 67 24 02       	call   7d22ac0 <pthread_once@plt>
 5b04eba:	e8 01 dc 21 02       	call   7d22ac0 <pthread_once@plt>
 5b07fda:	e8 e1 aa 21 02       	call   7d22ac0 <pthread_once@plt>
 5b0b19b:	e8 20 79 21 02       	call   7d22ac0 <pthread_once@plt>
 5b0f641:	e8 7a 34 21 02       	call   7d22ac0 <pthread_once@plt>
 5b111d6:	e8 e5 18 21 02       	call   7d22ac0 <pthread_once@plt>
 5b15e8e:	e8 2d cc 20 02       	call   7d22ac0 <pthread_once@plt>
 5b27f54:	e8 67 ab 1f 02       	call   7d22ac0 <pthread_once@plt>
 5b311a1:	e8 1a 19 1f 02       	call   7d22ac0 <pthread_once@plt>
 5b3363b:	e8 80 f4 1e 02       	call   7d22ac0 <pthread_once@plt>
 5b351c6:	e8 f5 d8 1e 02       	call   7d22ac0 <pthread_once@plt>
 5b37dc1:	e8 fa ac 1e 02       	call   7d22ac0 <pthread_once@plt>
 5b46d3e:	e8 7d bd 1d 02       	call   7d22ac0 <pthread_once@plt>
 5b4a270:	e8 4b 88 1d 02       	call   7d22ac0 <pthread_once@plt>
 5b4b1da:	e8 d1 77 1d 02       	call   7d229b0 <pthread_mutex_lock@plt>
 5b4b356:	e9 65 76 1d 02       	jmp    7d229c0 <pthread_mutex_unlock@plt>
 5b4dacc:	e8 df 4e 1d 02       	call   7d229b0 <pthread_mutex_lock@plt>
 5b4dd13:	e8 98 4c 1d 02       	call   7d229b0 <pthread_mutex_lock@plt>
 5b4dd2f:	e8 8c 4c 1d 02       	call   7d229c0 <pthread_mutex_unlock@plt>
 5b4dd61:	e8 4a 4c 1d 02       	call   7d229b0 <pthread_mutex_lock@plt>
 5b4de11:	e8 aa 4b 1d 02       	call   7d229c0 <pthread_mutex_unlock@plt>
 5b4e7a2:	e8 19 42 1d 02       	call   7d229c0 <pthread_mutex_unlock@plt>
 5b4fc87:	e8 24 2d 1d 02       	call   7d229b0 <pthread_mutex_lock@plt>
 5b4fcab:	e8 10 2d 1d 02       	call   7d229c0 <pthread_mutex_unlock@plt>
 5b4fd22:	e8 89 2c 1d 02       	call   7d229b0 <pthread_mutex_lock@plt>
 5b4fd81:	e8 2a 2c 1d 02       	call   7d229b0 <pthread_mutex_lock@plt>
 5b4fda5:	e8 16 2c 1d 02       	call   7d229c0 <pthread_mutex_unlock@plt>
 5b508fc:	e8 bf 21 1d 02       	call   7d22ac0 <pthread_once@plt>
 5b579f3:	e8 c8 b0 1c 02       	call   7d22ac0 <pthread_once@plt>
 5b5bb78:	e8 43 6f 1c 02       	call   7d22ac0 <pthread_once@plt>
 5b6b229:	e8 92 78 1b 02       	call   7d22ac0 <pthread_once@plt>
 5b6cf41:	e8 7a 5b 1b 02       	call   7d22ac0 <pthread_once@plt>
 5b6f4dc:	e8 df 35 1b 02       	call   7d22ac0 <pthread_once@plt>
 5b6f57a:	e8 41 35 1b 02       	call   7d22ac0 <pthread_once@plt>
 5b6fdba:	e8 01 2d 1b 02       	call   7d22ac0 <pthread_once@plt>
 5b7a356:	e8 65 87 1a 02       	call   7d22ac0 <pthread_once@plt>
 5b803f8:	e8 c3 26 1a 02       	call   7d22ac0 <pthread_once@plt>
 5b8fdf1:	e8 ca 2c 19 02       	call   7d22ac0 <pthread_once@plt>
 5b94ff1:	e8 ca da 18 02       	call   7d22ac0 <pthread_once@plt>
 5b96011:	e8 aa ca 18 02       	call   7d22ac0 <pthread_once@plt>
 5b99551:	e8 6a 95 18 02       	call   7d22ac0 <pthread_once@plt>
 5b9d50d:	e8 ae 55 18 02       	call   7d22ac0 <pthread_once@plt>
 5ba09e9:	e8 d2 20 18 02       	call   7d22ac0 <pthread_once@plt>
 5ba25f1:	e8 ca 04 18 02       	call   7d22ac0 <pthread_once@plt>
 5ba4dfa:	e8 c1 dc 17 02       	call   7d22ac0 <pthread_once@plt>
 5ba6961:	e8 5a c1 17 02       	call   7d22ac0 <pthread_once@plt>
 5ba83a1:	e8 1a a7 17 02       	call   7d22ac0 <pthread_once@plt>
 5baa7e1:	e8 da 82 17 02       	call   7d22ac0 <pthread_once@plt>
 5bbb131:	e8 8a 79 16 02       	call   7d22ac0 <pthread_once@plt>
 5bbd491:	e8 2a 56 16 02       	call   7d22ac0 <pthread_once@plt>
 5bc011b:	e8 a0 29 16 02       	call   7d22ac0 <pthread_once@plt>
 5bc0fee:	e8 cd 1a 16 02       	call   7d22ac0 <pthread_once@plt>
 5bc3b42:	e8 79 ef 15 02       	call   7d22ac0 <pthread_once@plt>
 5bc8801:	e8 ba a2 15 02       	call   7d22ac0 <pthread_once@plt>
 5bc95ff:	e8 bc 94 15 02       	call   7d22ac0 <pthread_once@plt>
 5bc9d6f:	e8 4c 8d 15 02       	call   7d22ac0 <pthread_once@plt>
 5bcc86b:	e8 50 62 15 02       	call   7d22ac0 <pthread_once@plt>
 5bcd820:	e8 9b 52 15 02       	call   7d22ac0 <pthread_once@plt>
 5bd814d:	e8 6e a9 14 02       	call   7d22ac0 <pthread_once@plt>
 5bd81e7:	e8 d4 a8 14 02       	call   7d22ac0 <pthread_once@plt>
 5bd87f6:	e8 c5 a2 14 02       	call   7d22ac0 <pthread_once@plt>
 5be8cc5:	e8 f6 9d 13 02       	call   7d22ac0 <pthread_once@plt>
 5bf070e:	e8 ad 23 13 02       	call   7d22ac0 <pthread_once@plt>
 5bf07c1:	e8 fa 22 13 02       	call   7d22ac0 <pthread_once@plt>
 5bf0874:	e8 47 22 13 02       	call   7d22ac0 <pthread_once@plt>
 5bf1fde:	e8 dd 0a 13 02       	call   7d22ac0 <pthread_once@plt>
 5bf9c55:	e8 66 8e 12 02       	call   7d22ac0 <pthread_once@plt>
 5bfba61:	e8 5a 70 12 02       	call   7d22ac0 <pthread_once@plt>
 5bfe4e1:	e8 da 45 12 02       	call   7d22ac0 <pthread_once@plt>
 5bfe599:	e8 22 45 12 02       	call   7d22ac0 <pthread_once@plt>
 5bfe651:	e8 6a 44 12 02       	call   7d22ac0 <pthread_once@plt>
 5c0363f:	e8 7c f4 11 02       	call   7d22ac0 <pthread_once@plt>
 5c06e31:	e8 8a bc 11 02       	call   7d22ac0 <pthread_once@plt>
 5c0a0a6:	e8 15 8a 11 02       	call   7d22ac0 <pthread_once@plt>
 5c0b840:	e8 6b 71 11 02       	call   7d229b0 <pthread_mutex_lock@plt>
 5c0b950:	e8 6b 70 11 02       	call   7d229c0 <pthread_mutex_unlock@plt>
 5c0c420:	e8 9b 66 11 02       	call   7d22ac0 <pthread_once@plt>
 5c0e098:	e8 23 49 11 02       	call   7d229c0 <pthread_mutex_unlock@plt>
 5c102be:	e8 fd 27 11 02       	call   7d22ac0 <pthread_once@plt>
 5c132d1:	e8 ea f7 10 02       	call   7d22ac0 <pthread_once@plt>
 5c16001:	e8 ba ca 10 02       	call   7d22ac0 <pthread_once@plt>
 5c188b0:	e8 0b a2 10 02       	call   7d22ac0 <pthread_once@plt>
 5c1bdd0:	e8 eb 6c 10 02       	call   7d22ac0 <pthread_once@plt>
 5c2a96a:	e8 51 81 0f 02       	call   7d22ac0 <pthread_once@plt>
 5c2f7ea:	e8 d1 32 0f 02       	call   7d22ac0 <pthread_once@plt>
 5c32c61:	e8 5a fe 0e 02       	call   7d22ac0 <pthread_once@plt>
 5c3b07e:	e8 3d 7a 0e 02       	call   7d22ac0 <pthread_once@plt>
 5c3c5cc:	e8 ef 64 0e 02       	call   7d22ac0 <pthread_once@plt>
 5c3d961:	e8 5a 51 0e 02       	call   7d22ac0 <pthread_once@plt>
 5c3dff1:	e8 ca 4a 0e 02       	call   7d22ac0 <pthread_once@plt>
 5c3e102:	e8 b9 49 0e 02       	call   7d22ac0 <pthread_once@plt>
 5c3e352:	e8 69 47 0e 02       	call   7d22ac0 <pthread_once@plt>
 5c3ff3a:	e8 81 2b 0e 02       	call   7d22ac0 <pthread_once@plt>
 5c41d81:	e8 3a 0d 0e 02       	call   7d22ac0 <pthread_once@plt>
 5c56b2b:	e8 90 bf 0c 02       	call   7d22ac0 <pthread_once@plt>
 5c6539e:	e8 1d d7 0b 02       	call   7d22ac0 <pthread_once@plt>
 5c69878:	e8 43 92 0b 02       	call   7d22ac0 <pthread_once@plt>
 5c6afaa:	e8 11 7b 0b 02       	call   7d22ac0 <pthread_once@plt>
 5c6cd4b:	e8 70 5d 0b 02       	call   7d22ac0 <pthread_once@plt>
 5c6cdf6:	e8 c5 5c 0b 02       	call   7d22ac0 <pthread_once@plt>
 5c6cea1:	e8 1a 5c 0b 02       	call   7d22ac0 <pthread_once@plt>
 5c740a3:	e8 18 ea 0a 02       	call   7d22ac0 <pthread_once@plt>
 5c78c7e:	e8 3d 9e 0a 02       	call   7d22ac0 <pthread_once@plt>
 5c7a3b8:	e8 03 87 0a 02       	call   7d22ac0 <pthread_once@plt>
 5c81ef7:	e8 c4 0b 0a 02       	call   7d22ac0 <pthread_once@plt>
 5c833da:	e8 e1 f6 09 02       	call   7d22ac0 <pthread_once@plt>
 5c8965a:	e8 61 94 09 02       	call   7d22ac0 <pthread_once@plt>
 5c8b0da:	e8 e1 79 09 02       	call   7d22ac0 <pthread_once@plt>
 5c8c51a:	e8 a1 65 09 02       	call   7d22ac0 <pthread_once@plt>
 5c8df1a:	e8 a1 4b 09 02       	call   7d22ac0 <pthread_once@plt>
 5c92a3a:	e8 81 00 09 02       	call   7d22ac0 <pthread_once@plt>
 5c9741a:	e8 a1 b6 08 02       	call   7d22ac0 <pthread_once@plt>
 5c9b9e8:	e8 d3 70 08 02       	call   7d22ac0 <pthread_once@plt>
 5c9d71a:	e8 a1 53 08 02       	call   7d22ac0 <pthread_once@plt>
 5ca043a:	e8 81 26 08 02       	call   7d22ac0 <pthread_once@plt>
 5ca391a:	e8 a1 f1 07 02       	call   7d22ac0 <pthread_once@plt>
 5ca603a:	e8 81 ca 07 02       	call   7d22ac0 <pthread_once@plt>
 5ca6c39:	e8 82 be 07 02       	call   7d22ac0 <pthread_once@plt>
 5ca6ccb:	e8 f0 bd 07 02       	call   7d22ac0 <pthread_once@plt>
 5ca6d5e:	e8 5d bd 07 02       	call   7d22ac0 <pthread_once@plt>
 5ca872a:	e8 91 a3 07 02       	call   7d22ac0 <pthread_once@plt>
 5ca8b4a:	e8 61 9e 07 02       	call   7d229b0 <pthread_mutex_lock@plt>
 5ca8b9a:	e8 21 9e 07 02       	call   7d229c0 <pthread_mutex_unlock@plt>
 5cac944:	e8 77 61 07 02       	call   7d22ac0 <pthread_once@plt>
 5cad0ba:	e8 f1 58 07 02       	call   7d229b0 <pthread_mutex_lock@plt>
 5cad10a:	e8 b1 58 07 02       	call   7d229c0 <pthread_mutex_unlock@plt>
 5cb806a:	e8 51 aa 06 02       	call   7d22ac0 <pthread_once@plt>
 5cb981a:	e8 a1 92 06 02       	call   7d22ac0 <pthread_once@plt>
 5cba94a:	e8 71 81 06 02       	call   7d22ac0 <pthread_once@plt>
 5cbc232:	e8 89 68 06 02       	call   7d22ac0 <pthread_once@plt>
 5cc58fa:	e8 c1 d1 05 02       	call   7d22ac0 <pthread_once@plt>
 5cc89d1:	e8 da 9f 05 02       	call   7d229b0 <pthread_mutex_lock@plt>
 5cc8ab6:	e8 05 9f 05 02       	call   7d229c0 <pthread_mutex_unlock@plt>
 5cc8bbc:	e8 ef 9d 05 02       	call   7d229b0 <pthread_mutex_lock@plt>
 5cc8bea:	e8 d1 9d 05 02       	call   7d229c0 <pthread_mutex_unlock@plt>
 5cc9372:	e8 49 96 05 02       	call   7d229c0 <pthread_mutex_unlock@plt>
 5cc93ec:	e8 cf 95 05 02       	call   7d229c0 <pthread_mutex_unlock@plt>
 5cc998a:	e8 31 91 05 02       	call   7d22ac0 <pthread_once@plt>
 5cccc1a:	e8 a1 5e 05 02       	call   7d22ac0 <pthread_once@plt>
 5cce1a6:	e8 05 48 05 02       	call   7d229b0 <pthread_mutex_lock@plt>
 5cce1ce:	e9 ed 47 05 02       	jmp    7d229c0 <pthread_mutex_unlock@plt>
 5cce20a:	e8 a1 47 05 02       	call   7d229b0 <pthread_mutex_lock@plt>
 5cce26c:	e9 4f 47 05 02       	jmp    7d229c0 <pthread_mutex_unlock@plt>
 5cce4a6:	e8 05 45 05 02       	call   7d229b0 <pthread_mutex_lock@plt>
 5cce4d0:	e9 eb 44 05 02       	jmp    7d229c0 <pthread_mutex_unlock@plt>
 5ccf99e:	e8 0d 30 05 02       	call   7d229b0 <pthread_mutex_lock@plt>
 5ccf9c2:	e9 f9 2f 05 02       	jmp    7d229c0 <pthread_mutex_unlock@plt>
 5ccf9f7:	e8 b4 2f 05 02       	call   7d229b0 <pthread_mutex_lock@plt>
 5ccfbee:	e9 cd 2d 05 02       	jmp    7d229c0 <pthread_mutex_unlock@plt>
 5ccfc9e:	e8 0d 2d 05 02       	call   7d229b0 <pthread_mutex_lock@plt>
 5ccfce6:	e8 d5 2c 05 02       	call   7d229c0 <pthread_mutex_unlock@plt>
 5ccfe49:	e8 62 2b 05 02       	call   7d229b0 <pthread_mutex_lock@plt>
 5cd017b:	e8 40 28 05 02       	call   7d229c0 <pthread_mutex_unlock@plt>
 5cd0386:	e8 35 26 05 02       	call   7d229c0 <pthread_mutex_unlock@plt>
 5cd039a:	e8 21 26 05 02       	call   7d229c0 <pthread_mutex_unlock@plt>
 5cd03c6:	e8 f5 25 05 02       	call   7d229c0 <pthread_mutex_unlock@plt>
 5cd0702:	e8 b9 22 05 02       	call   7d229c0 <pthread_mutex_unlock@plt>
 5cd0716:	e8 a5 22 05 02       	call   7d229c0 <pthread_mutex_unlock@plt>
 5cd0888:	e8 33 21 05 02       	call   7d229c0 <pthread_mutex_unlock@plt>
 5cd08a7:	e8 14 21 05 02       	call   7d229c0 <pthread_mutex_unlock@plt>
 5cd0f5a:	e8 61 1b 05 02       	call   7d22ac0 <pthread_once@plt>
 5cd42fb:	e8 c0 e7 04 02       	call   7d22ac0 <pthread_once@plt>
 5cd4e0a:	e8 b1 dc 04 02       	call   7d22ac0 <pthread_once@plt>
 5cd99cc:	e8 ef 90 04 02       	call   7d22ac0 <pthread_once@plt>
 5cdaa0a:	e8 b1 80 04 02       	call   7d22ac0 <pthread_once@plt>
 5cdca31:	e8 8a 60 04 02       	call   7d22ac0 <pthread_once@plt>
 5cdd129:	e8 92 59 04 02       	call   7d22ac0 <pthread_once@plt>
 5ce32d4:	e8 e7 f7 03 02       	call   7d22ac0 <pthread_once@plt>
 5ce411a:	e8 a1 e9 03 02       	call   7d22ac0 <pthread_once@plt>
 5ce69ab:	e8 10 c1 03 02       	call   7d22ac0 <pthread_once@plt>
 5ce915a:	e8 61 99 03 02       	call   7d22ac0 <pthread_once@plt>
 5cebd7b:	e8 40 6d 03 02       	call   7d22ac0 <pthread_once@plt>
 5cf1dab:	e8 10 0d 03 02       	call   7d22ac0 <pthread_once@plt>
 5cf37b4:	e8 07 f3 02 02       	call   7d22ac0 <pthread_once@plt>
 5cffa6d:	e8 4e 30 02 02       	call   7d22ac0 <pthread_once@plt>
 5d0a776:	e8 45 83 01 02       	call   7d22ac0 <pthread_once@plt>
 5d15c63:	e8 58 ce 00 02       	call   7d22ac0 <pthread_once@plt>
 5d226e2:	e8 d9 03 00 02       	call   7d22ac0 <pthread_once@plt>
 5d27cb6:	e8 05 ae ff 01       	call   7d22ac0 <pthread_once@plt>
 5d37ee3:	e8 d8 ab fe 01       	call   7d22ac0 <pthread_once@plt>
 5d4a2b4:	e8 07 88 fd 01       	call   7d22ac0 <pthread_once@plt>
 5d6440d:	e8 ae e6 fb 01       	call   7d22ac0 <pthread_once@plt>
 5d79e16:	e8 a5 8c fa 01       	call   7d22ac0 <pthread_once@plt>
 5d8b9f3:	e8 c8 70 f9 01       	call   7d22ac0 <pthread_once@plt>
 5d8d35b:	e8 60 57 f9 01       	call   7d22ac0 <pthread_once@plt>
 5d8ee0b:	e8 b0 3c f9 01       	call   7d22ac0 <pthread_once@plt>
 5da2743:	e8 78 03 f8 01       	call   7d22ac0 <pthread_once@plt>
 5da506a:	e8 51 da f7 01       	call   7d22ac0 <pthread_once@plt>
 5da75d6:	e8 e5 b4 f7 01       	call   7d22ac0 <pthread_once@plt>
 5dac06a:	e8 51 6a f7 01       	call   7d22ac0 <pthread_once@plt>
 5dae3ea:	e8 d1 46 f7 01       	call   7d22ac0 <pthread_once@plt>
 5db1c46:	e8 75 0e f7 01       	call   7d22ac0 <pthread_once@plt>
 5db67ed:	e8 ce c2 f6 01       	call   7d22ac0 <pthread_once@plt>
 5dbada8:	e8 13 7d f6 01       	call   7d22ac0 <pthread_once@plt>
 5dbeb53:	e8 68 3f f6 01       	call   7d22ac0 <pthread_once@plt>
 5dc14b8:	e8 03 16 f6 01       	call   7d22ac0 <pthread_once@plt>
 5dc2cd8:	e8 e3 fd f5 01       	call   7d22ac0 <pthread_once@plt>
 5dc60db:	e8 e0 c9 f5 01       	call   7d22ac0 <pthread_once@plt>
 5dcf718:	e8 a3 33 f5 01       	call   7d22ac0 <pthread_once@plt>
 5dd0f38:	e8 83 1b f5 01       	call   7d22ac0 <pthread_once@plt>
 5dd332b:	e8 90 f7 f4 01       	call   7d22ac0 <pthread_once@plt>
 5dd5c72:	e8 49 ce f4 01       	call   7d22ac0 <pthread_once@plt>
 5dda438:	e8 83 86 f4 01       	call   7d22ac0 <pthread_once@plt>
 5de28a8:	e8 13 02 f4 01       	call   7d22ac0 <pthread_once@plt>
 5dfa4df:	e8 dc 85 f2 01       	call   7d22ac0 <pthread_once@plt>
 5dfdff8:	e8 c3 4a f2 01       	call   7d22ac0 <pthread_once@plt>
 5e0116d:	e8 4e 19 f2 01       	call   7d22ac0 <pthread_once@plt>
 5e0720d:	e8 ae b8 f1 01       	call   7d22ac0 <pthread_once@plt>
 5e0b838:	e8 83 72 f1 01       	call   7d22ac0 <pthread_once@plt>
 5e10b74:	e8 47 1f f1 01       	call   7d22ac0 <pthread_once@plt>
 5e13356:	e8 65 f7 f0 01       	call   7d22ac0 <pthread_once@plt>
 5e14fad:	e8 0e db f0 01       	call   7d22ac0 <pthread_once@plt>
 5e17dcd:	e8 ee ac f0 01       	call   7d22ac0 <pthread_once@plt>
 5e1950d:	e8 ae 95 f0 01       	call   7d22ac0 <pthread_once@plt>
 5e1d3cf:	e8 ec 56 f0 01       	call   7d22ac0 <pthread_once@plt>
 5e1fe6a:	e8 51 2c f0 01       	call   7d22ac0 <pthread_once@plt>
 5e21cb8:	e8 03 0e f0 01       	call   7d22ac0 <pthread_once@plt>
 5e28a9e:	e8 1d a0 ef 01       	call   7d22ac0 <pthread_once@plt>
 5e3fe2a:	e8 91 2c ee 01       	call   7d22ac0 <pthread_once@plt>
 5e42c8b:	e8 30 fe ed 01       	call   7d22ac0 <pthread_once@plt>
 5e43fd8:	e8 e3 ea ed 01       	call   7d22ac0 <pthread_once@plt>
 5e45f7b:	e8 40 cb ed 01       	call   7d22ac0 <pthread_once@plt>
 5e461da:	e8 d1 c7 ed 01       	call   7d229b0 <pthread_mutex_lock@plt>
 5e4644a:	e8 71 c5 ed 01       	call   7d229c0 <pthread_mutex_unlock@plt>
 5e467fa:	e8 b1 c1 ed 01       	call   7d229b0 <pthread_mutex_lock@plt>
 5e46843:	e8 78 c1 ed 01       	call   7d229c0 <pthread_mutex_unlock@plt>
 5e46e87:	e8 24 bb ed 01       	call   7d229b0 <pthread_mutex_lock@plt>
 5e4712d:	e8 7e b8 ed 01       	call   7d229b0 <pthread_mutex_lock@plt>
 5e471c1:	e8 fa b7 ed 01       	call   7d229c0 <pthread_mutex_unlock@plt>
 5e4766f:	e8 3c b3 ed 01       	call   7d229b0 <pthread_mutex_lock@plt>
 5e47873:	e8 38 b1 ed 01       	call   7d229b0 <pthread_mutex_lock@plt>
 5e478d7:	e8 e4 b0 ed 01       	call   7d229c0 <pthread_mutex_unlock@plt>
 5e47b28:	e8 93 ae ed 01       	call   7d229c0 <pthread_mutex_unlock@plt>
 5e47bb1:	e8 0a ae ed 01       	call   7d229c0 <pthread_mutex_unlock@plt>
 5e48440:	e8 7b a5 ed 01       	call   7d229c0 <pthread_mutex_unlock@plt>
 5e485a2:	e8 19 a4 ed 01       	call   7d229c0 <pthread_mutex_unlock@plt>
 5e486aa:	e8 11 a3 ed 01       	call   7d229c0 <pthread_mutex_unlock@plt>
 5e49aa1:	e8 1a 8f ed 01       	call   7d229c0 <pthread_mutex_unlock@plt>
 5e4a8aa:	e8 01 81 ed 01       	call   7d229b0 <pthread_mutex_lock@plt>
 5e4a964:	e8 57 80 ed 01       	call   7d229c0 <pthread_mutex_unlock@plt>
 5e4aa40:	e8 7b 7f ed 01       	call   7d229c0 <pthread_mutex_unlock@plt>
 5e4d5e5:	e8 c6 53 ed 01       	call   7d229b0 <pthread_mutex_lock@plt>
 5e4db8d:	e8 1e 4e ed 01       	call   7d229b0 <pthread_mutex_lock@plt>
 5e4dbd5:	e8 e6 4d ed 01       	call   7d229c0 <pthread_mutex_unlock@plt>
 5e4dc37:	e8 74 4d ed 01       	call   7d229b0 <pthread_mutex_lock@plt>
 5e4dd4d:	e8 6e 4c ed 01       	call   7d229c0 <pthread_mutex_unlock@plt>
 5e4e4b6:	e8 f5 44 ed 01       	call   7d229b0 <pthread_mutex_lock@plt>
 5e4fca3:	e8 08 2d ed 01       	call   7d229b0 <pthread_mutex_lock@plt>
 5e50294:	e8 27 28 ed 01       	call   7d22ac0 <pthread_once@plt>
 5e5040a:	e8 a1 25 ed 01       	call   7d229b0 <pthread_mutex_lock@plt>
 5e5045a:	e8 61 25 ed 01       	call   7d229c0 <pthread_mutex_unlock@plt>
 5e5144b:	e8 70 16 ed 01       	call   7d22ac0 <pthread_once@plt>
 5e54cc4:	e8 f7 dd ec 01       	call   7d22ac0 <pthread_once@plt>
 5e5dae5:	e8 d6 4f ec 01       	call   7d22ac0 <pthread_once@plt>
 5e6382b:	e8 90 f2 eb 01       	call   7d22ac0 <pthread_once@plt>
 5e6f0e1:	e8 da 39 eb 01       	call   7d22ac0 <pthread_once@plt>
 5e7205b:	e8 60 0a eb 01       	call   7d22ac0 <pthread_once@plt>
 5e7a174:	e8 47 89 ea 01       	call   7d22ac0 <pthread_once@plt>
 5e7c91b:	e8 a0 61 ea 01       	call   7d22ac0 <pthread_once@plt>
 5ef1e8f:	e8 2c 0c e3 01       	call   7d22ac0 <pthread_once@plt>
 5ef5a2b:	e8 90 d0 e2 01       	call   7d22ac0 <pthread_once@plt>
 5efc3e4:	e8 d7 66 e2 01       	call   7d22ac0 <pthread_once@plt>
 5f07462:	e8 59 b6 e1 01       	call   7d22ac0 <pthread_once@plt>
 5f0c954:	e8 67 61 e1 01       	call   7d22ac0 <pthread_once@plt>
 5f0eecb:	e8 f0 3b e1 01       	call   7d22ac0 <pthread_once@plt>
 5f2ba72:	e8 49 70 df 01       	call   7d22ac0 <pthread_once@plt>
 5f2d06b:	e8 50 5a df 01       	call   7d22ac0 <pthread_once@plt>
 5f38f3b:	e8 80 9b de 01       	call   7d22ac0 <pthread_once@plt>
 5f405bb:	e8 00 25 de 01       	call   7d22ac0 <pthread_once@plt>
 5f4d1e4:	e8 d7 58 dd 01       	call   7d22ac0 <pthread_once@plt>
 5f56b14:	e8 a7 bf dc 01       	call   7d22ac0 <pthread_once@plt>
 5f5939b:	e8 20 97 dc 01       	call   7d22ac0 <pthread_once@plt>
 5f91f34:	e8 87 0b d9 01       	call   7d22ac0 <pthread_once@plt>
 5f9215a:	e8 51 08 d9 01       	call   7d229b0 <pthread_mutex_lock@plt>
 5f921aa:	e8 11 08 d9 01       	call   7d229c0 <pthread_mutex_unlock@plt>
 5f95525:	e8 96 d5 d8 01       	call   7d22ac0 <pthread_once@plt>
 5f975ba:	e8 01 b5 d8 01       	call   7d22ac0 <pthread_once@plt>
 5fac843:	e8 78 62 d7 01       	call   7d22ac0 <pthread_once@plt>
 5fc29da:	e8 e1 00 d6 01       	call   7d22ac0 <pthread_once@plt>
 5fc4a6b:	e8 50 e0 d5 01       	call   7d22ac0 <pthread_once@plt>
 5fd43c8:	e8 f3 e6 d4 01       	call   7d22ac0 <pthread_once@plt>
 5fdc11b:	e8 a0 69 d4 01       	call   7d22ac0 <pthread_once@plt>
 5fdce5a:	e8 61 5c d4 01       	call   7d22ac0 <pthread_once@plt>
 5fddbfa:	e8 c1 4e d4 01       	call   7d22ac0 <pthread_once@plt>
 5fdf38a:	e8 31 37 d4 01       	call   7d22ac0 <pthread_once@plt>
 5fe0d6e:	e8 4d 1d d4 01       	call   7d22ac0 <pthread_once@plt>
 5fe31ca:	e8 f1 f8 d3 01       	call   7d22ac0 <pthread_once@plt>
 5fe3c4a:	e8 71 ee d3 01       	call   7d22ac0 <pthread_once@plt>
 5fe808b:	e8 30 aa d3 01       	call   7d22ac0 <pthread_once@plt>
 5fef6a2:	e8 19 34 d3 01       	call   7d22ac0 <pthread_once@plt>
 5ff10fb:	e8 c0 19 d3 01       	call   7d22ac0 <pthread_once@plt>
 5ff1d7b:	e8 40 0d d3 01       	call   7d22ac0 <pthread_once@plt>
 5ff68db:	e8 e0 c1 d2 01       	call   7d22ac0 <pthread_once@plt>
 5ff86bb:	e8 00 a4 d2 01       	call   7d22ac0 <pthread_once@plt>
 6020cae:	e8 0d 1e d0 01       	call   7d22ac0 <pthread_once@plt>
 6027bbb:	e8 00 af cf 01       	call   7d22ac0 <pthread_once@plt>
 6029dcb:	e8 f0 8c cf 01       	call   7d22ac0 <pthread_once@plt>
 60318f7:	e8 c4 11 cf 01       	call   7d22ac0 <pthread_once@plt>
 6037622:	e8 99 b4 ce 01       	call   7d22ac0 <pthread_once@plt>
 603ad43:	e8 78 7d ce 01       	call   7d22ac0 <pthread_once@plt>
 60466b8:	e8 03 c4 cd 01       	call   7d22ac0 <pthread_once@plt>
 6047bfb:	e8 c0 ae cd 01       	call   7d22ac0 <pthread_once@plt>
 604e05b:	e8 60 4a cd 01       	call   7d22ac0 <pthread_once@plt>
 6051c9a:	e8 21 0e cd 01       	call   7d22ac0 <pthread_once@plt>
 6054cfd:	e8 be dd cc 01       	call   7d22ac0 <pthread_once@plt>
 6056e0a:	e8 b1 bc cc 01       	call   7d22ac0 <pthread_once@plt>
 607a423:	e8 88 85 ca 01       	call   7d229b0 <pthread_mutex_lock@plt>
 607a539:	e8 82 84 ca 01       	call   7d229c0 <pthread_mutex_unlock@plt>
 607a684:	e8 27 83 ca 01       	call   7d229b0 <pthread_mutex_lock@plt>
 607a6c5:	e8 f6 82 ca 01       	call   7d229c0 <pthread_mutex_unlock@plt>
 607a7e2:	e8 d9 81 ca 01       	call   7d229c0 <pthread_mutex_unlock@plt>
 607a7f8:	e8 b3 81 ca 01       	call   7d229b0 <pthread_mutex_lock@plt>
 607a830:	e8 7b 81 ca 01       	call   7d229b0 <pthread_mutex_lock@plt>
 607a88e:	e8 1d 81 ca 01       	call   7d229b0 <pthread_mutex_lock@plt>
 607a8b2:	e8 09 81 ca 01       	call   7d229c0 <pthread_mutex_unlock@plt>
 607a911:	e8 9a 80 ca 01       	call   7d229b0 <pthread_mutex_lock@plt>
 607a934:	e8 87 80 ca 01       	call   7d229c0 <pthread_mutex_unlock@plt>
 607a98b:	e8 30 80 ca 01       	call   7d229c0 <pthread_mutex_unlock@plt>
 607a9c7:	e8 e4 7f ca 01       	call   7d229b0 <pthread_mutex_lock@plt>
 607aa43:	e8 78 7f ca 01       	call   7d229c0 <pthread_mutex_unlock@plt>
 607aa4b:	e8 70 7f ca 01       	call   7d229c0 <pthread_mutex_unlock@plt>
 607aa64:	e8 47 7f ca 01       	call   7d229b0 <pthread_mutex_lock@plt>
 607aa94:	e8 17 7f ca 01       	call   7d229b0 <pthread_mutex_lock@plt>
 607aab3:	e8 08 7f ca 01       	call   7d229c0 <pthread_mutex_unlock@plt>
 607acd3:	e8 e8 7c ca 01       	call   7d229c0 <pthread_mutex_unlock@plt>
 6093e5e:	e8 5d ec c8 01       	call   7d22ac0 <pthread_once@plt>
 60c072a:	e8 91 23 c6 01       	call   7d22ac0 <pthread_once@plt>
 60c29ab:	e8 10 01 c6 01       	call   7d22ac0 <pthread_once@plt>
 60c60c8:	e8 f3 c9 c5 01       	call   7d22ac0 <pthread_once@plt>
 60c615d:	e8 5e c9 c5 01       	call   7d22ac0 <pthread_once@plt>
 60c61f2:	e8 c9 c8 c5 01       	call   7d22ac0 <pthread_once@plt>
 60c8bb1:	e8 0a 9f c5 01       	call   7d22ac0 <pthread_once@plt>
 60ca94b:	e8 70 81 c5 01       	call   7d22ac0 <pthread_once@plt>
 60d3ecb:	e8 e0 ea c4 01       	call   7d229b0 <pthread_mutex_lock@plt>
 60d4709:	e8 b2 e2 c4 01       	call   7d229c0 <pthread_mutex_unlock@plt>
 60d86b5:	e8 06 a3 c4 01       	call   7d229c0 <pthread_mutex_unlock@plt>
 60e2c2c:	e8 8f fe c3 01       	call   7d22ac0 <pthread_once@plt>
 60e4b6a:	e8 51 de c3 01       	call   7d229c0 <pthread_mutex_unlock@plt>
 60e5535:	e8 76 d4 c3 01       	call   7d229b0 <pthread_mutex_lock@plt>
 60e5fad:	e8 0e ca c3 01       	call   7d229c0 <pthread_mutex_unlock@plt>
 60e650b:	e8 b0 c5 c3 01       	call   7d22ac0 <pthread_once@plt>
 60e6e8a:	e8 21 bb c3 01       	call   7d229b0 <pthread_mutex_lock@plt>
 60e6eda:	e8 e1 ba c3 01       	call   7d229c0 <pthread_mutex_unlock@plt>
 60ee0b7:	e8 04 4a c3 01       	call   7d22ac0 <pthread_once@plt>
 60f021a:	e8 a1 28 c3 01       	call   7d22ac0 <pthread_once@plt>
 60f1cdb:	e8 e0 0d c3 01       	call   7d22ac0 <pthread_once@plt>
 60f32eb:	e8 d0 f7 c2 01       	call   7d22ac0 <pthread_once@plt>
 60f6b8a:	e8 31 bf c2 01       	call   7d22ac0 <pthread_once@plt>
 60f97db:	e8 e0 92 c2 01       	call   7d22ac0 <pthread_once@plt>
 60fa40b:	e8 b0 86 c2 01       	call   7d22ac0 <pthread_once@plt>
 60fbe5b:	e8 60 6c c2 01       	call   7d22ac0 <pthread_once@plt>
 60fc4b9:	e8 f2 64 c2 01       	call   7d229b0 <pthread_mutex_lock@plt>
 60fc505:	e9 b6 64 c2 01       	jmp    7d229c0 <pthread_mutex_unlock@plt>
 60fc5b1:	e8 fa 63 c2 01       	call   7d229b0 <pthread_mutex_lock@plt>
 60fc61b:	e8 a0 63 c2 01       	call   7d229c0 <pthread_mutex_unlock@plt>
 60fc996:	e8 25 60 c2 01       	call   7d229c0 <pthread_mutex_unlock@plt>
 60fca34:	e8 87 5f c2 01       	call   7d229c0 <pthread_mutex_unlock@plt>
 60fcf8a:	e8 31 5b c2 01       	call   7d22ac0 <pthread_once@plt>
 60fde1b:	e8 90 4b c2 01       	call   7d229b0 <pthread_mutex_lock@plt>
 60fdf05:	e8 b6 4a c2 01       	call   7d229c0 <pthread_mutex_unlock@plt>
 60fe059:	e8 62 49 c2 01       	call   7d229c0 <pthread_mutex_unlock@plt>
 60fe0b1:	e8 fa 48 c2 01       	call   7d229b0 <pthread_mutex_lock@plt>
 60fe22d:	e8 8e 47 c2 01       	call   7d229c0 <pthread_mutex_unlock@plt>
 61021b0:	e8 fb 07 c2 01       	call   7d229b0 <pthread_mutex_lock@plt>
 6102404:	e9 b7 05 c2 01       	jmp    7d229c0 <pthread_mutex_unlock@plt>
 610340d:	e8 9e f5 c1 01       	call   7d229b0 <pthread_mutex_lock@plt>
 6103594:	e8 27 f4 c1 01       	call   7d229c0 <pthread_mutex_unlock@plt>
 610365e:	e8 5d f3 c1 01       	call   7d229c0 <pthread_mutex_unlock@plt>
 61069d8:	e8 e3 bf c1 01       	call   7d229c0 <pthread_mutex_unlock@plt>
 6106cae:	e8 0d bd c1 01       	call   7d229c0 <pthread_mutex_unlock@plt>
 6107be6:	e8 d5 ae c1 01       	call   7d22ac0 <pthread_once@plt>
 610d1ef:	e8 cc 58 c1 01       	call   7d22ac0 <pthread_once@plt>
 610e2b2:	e8 f9 46 c1 01       	call   7d229b0 <pthread_mutex_lock@plt>
 610e317:	e9 a4 46 c1 01       	jmp    7d229c0 <pthread_mutex_unlock@plt>
 610e39a:	e8 11 46 c1 01       	call   7d229b0 <pthread_mutex_lock@plt>
 610e46d:	e8 4e 45 c1 01       	call   7d229c0 <pthread_mutex_unlock@plt>
 610e890:	e8 2b 41 c1 01       	call   7d229c0 <pthread_mutex_unlock@plt>
 610e976:	e8 45 40 c1 01       	call   7d229c0 <pthread_mutex_unlock@plt>
 610efeb:	e8 d0 3a c1 01       	call   7d22ac0 <pthread_once@plt>
 610fb5b:	e8 60 2f c1 01       	call   7d22ac0 <pthread_once@plt>
 61123d6:	e8 e5 06 c1 01       	call   7d22ac0 <pthread_once@plt>
 61124a2:	e8 19 06 c1 01       	call   7d22ac0 <pthread_once@plt>
 611251f:	e8 9c 05 c1 01       	call   7d22ac0 <pthread_once@plt>
 6112d4a:	e8 71 fd c0 01       	call   7d22ac0 <pthread_once@plt>
 61240e9:	e8 d2 e9 bf 01       	call   7d22ac0 <pthread_once@plt>
 6125efa:	e8 c1 cb bf 01       	call   7d22ac0 <pthread_once@plt>
 612a2ee:	e8 cd 87 bf 01       	call   7d22ac0 <pthread_once@plt>
 612ab9c:	e8 0f 7e bf 01       	call   7d229b0 <pthread_mutex_lock@plt>
 612ac65:	e8 56 7d bf 01       	call   7d229c0 <pthread_mutex_unlock@plt>
 612b1bb:	e8 f0 77 bf 01       	call   7d229b0 <pthread_mutex_lock@plt>
 612b276:	e8 45 77 bf 01       	call   7d229c0 <pthread_mutex_unlock@plt>
 612b31d:	e8 9e 76 bf 01       	call   7d229c0 <pthread_mutex_unlock@plt>
 612b808:	e8 a3 71 bf 01       	call   7d229b0 <pthread_mutex_lock@plt>
 612ba0a:	e8 b1 6f bf 01       	call   7d229c0 <pthread_mutex_unlock@plt>
 612c1e5:	e8 c6 67 bf 01       	call   7d229b0 <pthread_mutex_lock@plt>
 612c33d:	e8 7e 66 bf 01       	call   7d229c0 <pthread_mutex_unlock@plt>
 612ca1a:	e8 a1 5f bf 01       	call   7d229c0 <pthread_mutex_unlock@plt>
 612ca32:	e8 89 5f bf 01       	call   7d229c0 <pthread_mutex_unlock@plt>
 612cc91:	e8 2a 5d bf 01       	call   7d229c0 <pthread_mutex_unlock@plt>
 612d307:	e8 b4 57 bf 01       	call   7d22ac0 <pthread_once@plt>
 612e3fa:	e8 c1 46 bf 01       	call   7d22ac0 <pthread_once@plt>
 612f387:	e8 24 36 bf 01       	call   7d229b0 <pthread_mutex_lock@plt>
 612f556:	e8 65 34 bf 01       	call   7d229c0 <pthread_mutex_unlock@plt>
 61306a9:	e8 02 23 bf 01       	call   7d229b0 <pthread_mutex_lock@plt>
 6130a5a:	e8 61 1f bf 01       	call   7d229c0 <pthread_mutex_unlock@plt>
 6131655:	e8 66 14 bf 01       	call   7d22ac0 <pthread_once@plt>
 61316d5:	e8 e6 13 bf 01       	call   7d22ac0 <pthread_once@plt>
 6131c66:	e8 55 0d bf 01       	call   7d229c0 <pthread_mutex_unlock@plt>
 6131d6d:	e8 4e 0c bf 01       	call   7d229c0 <pthread_mutex_unlock@plt>
 6133377:	e8 44 f7 be 01       	call   7d22ac0 <pthread_once@plt>
 61344fb:	e8 c0 e5 be 01       	call   7d22ac0 <pthread_once@plt>
 613473a:	e8 71 e2 be 01       	call   7d229b0 <pthread_mutex_lock@plt>
 613478a:	e8 31 e2 be 01       	call   7d229c0 <pthread_mutex_unlock@plt>
 61392db:	e8 e0 97 be 01       	call   7d22ac0 <pthread_once@plt>
 613b73a:	e8 81 73 be 01       	call   7d22ac0 <pthread_once@plt>
 613c7b6:	e8 05 63 be 01       	call   7d22ac0 <pthread_once@plt>
 613e14e:	e8 5d 48 be 01       	call   7d229b0 <pthread_mutex_lock@plt>
 613e208:	e9 b3 47 be 01       	jmp    7d229c0 <pthread_mutex_unlock@plt>
 613e2c1:	e8 ea 46 be 01       	call   7d229b0 <pthread_mutex_lock@plt>
 613e2db:	e8 e0 46 be 01       	call   7d229c0 <pthread_mutex_unlock@plt>
 613e7d8:	e8 d3 41 be 01       	call   7d229b0 <pthread_mutex_lock@plt>
 613e847:	e9 74 41 be 01       	jmp    7d229c0 <pthread_mutex_unlock@plt>
 613f1eb:	e8 d0 38 be 01       	call   7d22ac0 <pthread_once@plt>
 614103b:	e8 80 1a be 01       	call   7d22ac0 <pthread_once@plt>
 61432d7:	e8 e4 f7 bd 01       	call   7d22ac0 <pthread_once@plt>
 61441ca:	e8 f1 e8 bd 01       	call   7d22ac0 <pthread_once@plt>
 61450ab:	e8 10 da bd 01       	call   7d22ac0 <pthread_once@plt>
 6145d6a:	e8 51 cd bd 01       	call   7d22ac0 <pthread_once@plt>
 61467fb:	e8 b0 c1 bd 01       	call   7d229b0 <pthread_mutex_lock@plt>
 614680c:	e8 af c1 bd 01       	call   7d229c0 <pthread_mutex_unlock@plt>
 6146841:	e8 6a c1 bd 01       	call   7d229b0 <pthread_mutex_lock@plt>
 6146863:	e8 58 c1 bd 01       	call   7d229c0 <pthread_mutex_unlock@plt>
 61468bb:	e8 f0 c0 bd 01       	call   7d229b0 <pthread_mutex_lock@plt>
 61468cd:	e8 ee c0 bd 01       	call   7d229c0 <pthread_mutex_unlock@plt>
 61468fb:	e8 b0 c0 bd 01       	call   7d229b0 <pthread_mutex_lock@plt>
 614690d:	e8 ae c0 bd 01       	call   7d229c0 <pthread_mutex_unlock@plt>
 614824e:	e8 5d a7 bd 01       	call   7d229b0 <pthread_mutex_lock@plt>
 6148266:	e8 55 a7 bd 01       	call   7d229c0 <pthread_mutex_unlock@plt>
 61482ee:	e8 bd a6 bd 01       	call   7d229b0 <pthread_mutex_lock@plt>
 6148312:	e8 a9 a6 bd 01       	call   7d229c0 <pthread_mutex_unlock@plt>
 6148ee5:	e8 c6 9a bd 01       	call   7d229b0 <pthread_mutex_lock@plt>
 6148f9d:	e8 1e 9a bd 01       	call   7d229c0 <pthread_mutex_unlock@plt>
 614984c:	e8 5f 91 bd 01       	call   7d229b0 <pthread_mutex_lock@plt>
 6149863:	e8 58 91 bd 01       	call   7d229c0 <pthread_mutex_unlock@plt>
 614bd8c:	e8 2f 6c bd 01       	call   7d229c0 <pthread_mutex_unlock@plt>
 614bda0:	e8 1b 6c bd 01       	call   7d229c0 <pthread_mutex_unlock@plt>
 615261a:	e8 91 03 bd 01       	call   7d229b0 <pthread_mutex_lock@plt>
 615283a:	e8 81 01 bd 01       	call   7d229c0 <pthread_mutex_unlock@plt>
 6156623:	e8 88 c3 bc 01       	call   7d229b0 <pthread_mutex_lock@plt>
 615665e:	e8 5d c3 bc 01       	call   7d229c0 <pthread_mutex_unlock@plt>
 6156906:	e8 b5 c0 bc 01       	call   7d229c0 <pthread_mutex_unlock@plt>
 615692f:	e9 8c c0 bc 01       	jmp    7d229c0 <pthread_mutex_unlock@plt>
 6156a86:	e8 25 bf bc 01       	call   7d229b0 <pthread_mutex_lock@plt>
 6156be3:	e8 d8 bd bc 01       	call   7d229c0 <pthread_mutex_unlock@plt>
 61574c7:	e8 e4 b4 bc 01       	call   7d229b0 <pthread_mutex_lock@plt>
 615754b:	e9 70 b4 bc 01       	jmp    7d229c0 <pthread_mutex_unlock@plt>
 61578c4:	e8 f7 b0 bc 01       	call   7d229c0 <pthread_mutex_unlock@plt>
 6157ae6:	e8 c5 ae bc 01       	call   7d229b0 <pthread_mutex_lock@plt>
 6157c3d:	e8 7e ad bc 01       	call   7d229c0 <pthread_mutex_unlock@plt>
 6159d7d:	e8 3e 8c bc 01       	call   7d229c0 <pthread_mutex_unlock@plt>
 615a01a:	e8 a1 89 bc 01       	call   7d229c0 <pthread_mutex_unlock@plt>
 615a675:	e8 36 83 bc 01       	call   7d229b0 <pthread_mutex_lock@plt>
 615a722:	e9 99 82 bc 01       	jmp    7d229c0 <pthread_mutex_unlock@plt>
 615ac82:	e8 39 7d bc 01       	call   7d229c0 <pthread_mutex_unlock@plt>
 615b0af:	e8 0c 79 bc 01       	call   7d229c0 <pthread_mutex_unlock@plt>
 615b452:	e9 69 75 bc 01       	jmp    7d229c0 <pthread_mutex_unlock@plt>
 615c5d9:	e8 e2 63 bc 01       	call   7d229c0 <pthread_mutex_unlock@plt>
 615d603:	e8 a8 53 bc 01       	call   7d229b0 <pthread_mutex_lock@plt>
 615d63b:	e8 80 53 bc 01       	call   7d229c0 <pthread_mutex_unlock@plt>
 6160e51:	e8 6a 1b bc 01       	call   7d229c0 <pthread_mutex_unlock@plt>
 6160e59:	e8 62 1b bc 01       	call   7d229c0 <pthread_mutex_unlock@plt>
 6160e7a:	e8 41 1b bc 01       	call   7d229c0 <pthread_mutex_unlock@plt>
 6161001:	e8 ba 19 bc 01       	call   7d229c0 <pthread_mutex_unlock@plt>
 6161022:	e8 99 19 bc 01       	call   7d229c0 <pthread_mutex_unlock@plt>
 616104c:	e8 6f 19 bc 01       	call   7d229c0 <pthread_mutex_unlock@plt>
 616135d:	e8 5e 16 bc 01       	call   7d229c0 <pthread_mutex_unlock@plt>
 6161380:	e8 3b 16 bc 01       	call   7d229c0 <pthread_mutex_unlock@plt>
 61613d8:	e8 e3 15 bc 01       	call   7d229c0 <pthread_mutex_unlock@plt>
 6161404:	e8 b7 15 bc 01       	call   7d229c0 <pthread_mutex_unlock@plt>
 616142c:	e8 8f 15 bc 01       	call   7d229c0 <pthread_mutex_unlock@plt>
 616146d:	e8 4e 15 bc 01       	call   7d229c0 <pthread_mutex_unlock@plt>
 6169bf3:	e8 c8 8d bb 01       	call   7d229c0 <pthread_mutex_unlock@plt>
 616a09f:	e8 1c 89 bb 01       	call   7d229c0 <pthread_mutex_unlock@plt>
 616ade9:	e8 d2 7b bb 01       	call   7d229c0 <pthread_mutex_unlock@plt>
 616af4f:	e8 6c 7a bb 01       	call   7d229c0 <pthread_mutex_unlock@plt>
 616bc20:	e8 9b 6d bb 01       	call   7d229c0 <pthread_mutex_unlock@plt>
 616c140:	e8 7b 68 bb 01       	call   7d229c0 <pthread_mutex_unlock@plt>
 616deff:	e8 ac 4a bb 01       	call   7d229b0 <pthread_mutex_lock@plt>
 616df48:	e8 73 4a bb 01       	call   7d229c0 <pthread_mutex_unlock@plt>
 616e031:	e8 8a 49 bb 01       	call   7d229c0 <pthread_mutex_unlock@plt>
 616e531:	e8 8a 45 bb 01       	call   7d22ac0 <pthread_once@plt>
 616eeee:	e8 bd 3a bb 01       	call   7d229b0 <pthread_mutex_lock@plt>
 616ef37:	e8 84 3a bb 01       	call   7d229c0 <pthread_mutex_unlock@plt>
 616f023:	e8 98 39 bb 01       	call   7d229c0 <pthread_mutex_unlock@plt>
 616f121:	e8 9a 38 bb 01       	call   7d229c0 <pthread_mutex_unlock@plt>
 616f25c:	e8 5f 37 bb 01       	call   7d229c0 <pthread_mutex_unlock@plt>
 616f7b9:	e8 f2 31 bb 01       	call   7d229b0 <pthread_mutex_lock@plt>
 616f826:	e8 95 31 bb 01       	call   7d229c0 <pthread_mutex_unlock@plt>
 616f99c:	e8 1f 30 bb 01       	call   7d229c0 <pthread_mutex_unlock@plt>
 616f9e1:	e8 ca 2f bb 01       	call   7d229b0 <pthread_mutex_lock@plt>
 616fb17:	e8 a4 2e bb 01       	call   7d229c0 <pthread_mutex_unlock@plt>
 616fc0e:	e8 ad 2d bb 01       	call   7d229c0 <pthread_mutex_unlock@plt>
 616fc4e:	e8 5d 2d bb 01       	call   7d229b0 <pthread_mutex_lock@plt>
 616fc97:	e8 24 2d bb 01       	call   7d229c0 <pthread_mutex_unlock@plt>
 616fd7b:	e8 40 2c bb 01       	call   7d229c0 <pthread_mutex_unlock@plt>
 616fdba:	e8 f1 2b bb 01       	call   7d229b0 <pthread_mutex_lock@plt>
 616fe69:	e8 52 2b bb 01       	call   7d229c0 <pthread_mutex_unlock@plt>
 616ff53:	e8 68 2a bb 01       	call   7d229c0 <pthread_mutex_unlock@plt>
 6170aee:	e8 cd 1e bb 01       	call   7d229c0 <pthread_mutex_unlock@plt>
 6170c64:	e8 57 1d bb 01       	call   7d229c0 <pthread_mutex_unlock@plt>
 617119e:	e8 1d 18 bb 01       	call   7d229c0 <pthread_mutex_unlock@plt>
 6171314:	e8 a7 16 bb 01       	call   7d229c0 <pthread_mutex_unlock@plt>
 617184e:	e8 6d 11 bb 01       	call   7d229c0 <pthread_mutex_unlock@plt>
 61719c4:	e8 f7 0f bb 01       	call   7d229c0 <pthread_mutex_unlock@plt>
 6171c0f:	e8 9c 0d bb 01       	call   7d229b0 <pthread_mutex_lock@plt>
 6171cef:	e9 cc 0c bb 01       	jmp    7d229c0 <pthread_mutex_unlock@plt>
 6171e77:	e8 44 0b bb 01       	call   7d229c0 <pthread_mutex_unlock@plt>
 617264c:	e9 6f 03 bb 01       	jmp    7d229c0 <pthread_mutex_unlock@plt>
 6172693:	e8 28 03 bb 01       	call   7d229c0 <pthread_mutex_unlock@plt>
 6172ef4:	e8 b7 fa ba 01       	call   7d229b0 <pthread_mutex_lock@plt>
 617335c:	e9 5f f6 ba 01       	jmp    7d229c0 <pthread_mutex_unlock@plt>
 61733a3:	e8 18 f6 ba 01       	call   7d229c0 <pthread_mutex_unlock@plt>
 617355f:	e8 4c f4 ba 01       	call   7d229b0 <pthread_mutex_lock@plt>
 6173602:	e9 b9 f3 ba 01       	jmp    7d229c0 <pthread_mutex_unlock@plt>
 61736b4:	e8 07 f3 ba 01       	call   7d229c0 <pthread_mutex_unlock@plt>
 6173ed4:	e8 d7 ea ba 01       	call   7d229b0 <pthread_mutex_lock@plt>
 617433c:	e9 7f e6 ba 01       	jmp    7d229c0 <pthread_mutex_unlock@plt>
 6174383:	e8 38 e6 ba 01       	call   7d229c0 <pthread_mutex_unlock@plt>
 617b260:	e8 5b 77 ba 01       	call   7d229c0 <pthread_mutex_unlock@plt>
 617b4d1:	e8 ea 74 ba 01       	call   7d229c0 <pthread_mutex_unlock@plt>
 618502e:	e8 8d d9 b9 01       	call   7d229c0 <pthread_mutex_unlock@plt>
 6185839:	e8 82 d1 b9 01       	call   7d229c0 <pthread_mutex_unlock@plt>
 61870d3:	e8 d8 b8 b9 01       	call   7d229b0 <pthread_mutex_lock@plt>
 618902a:	e8 91 9a b9 01       	call   7d22ac0 <pthread_once@plt>
 618a43a:	e8 81 86 b9 01       	call   7d22ac0 <pthread_once@plt>
 618ab1a:	e8 91 7e b9 01       	call   7d229b0 <pthread_mutex_lock@plt>
 618ac9a:	e8 21 7d b9 01       	call   7d229c0 <pthread_mutex_unlock@plt>
 618b943:	e8 68 70 b9 01       	call   7d229b0 <pthread_mutex_lock@plt>
 618bb8b:	e9 30 6e b9 01       	jmp    7d229c0 <pthread_mutex_unlock@plt>
 6191952:	e8 59 10 b9 01       	call   7d229b0 <pthread_mutex_lock@plt>
 6191dbd:	e8 ee 0b b9 01       	call   7d229b0 <pthread_mutex_lock@plt>
 6191ded:	e8 ce 0b b9 01       	call   7d229c0 <pthread_mutex_unlock@plt>
 619208a:	e8 21 09 b9 01       	call   7d229b0 <pthread_mutex_lock@plt>
 61920ff:	e9 bc 08 b9 01       	jmp    7d229c0 <pthread_mutex_unlock@plt>
 6192600:	e8 ab 03 b9 01       	call   7d229b0 <pthread_mutex_lock@plt>
 61926a6:	e8 15 03 b9 01       	call   7d229c0 <pthread_mutex_unlock@plt>
 61929b3:	e8 f8 ff b8 01       	call   7d229b0 <pthread_mutex_lock@plt>
 61929ef:	e8 cc ff b8 01       	call   7d229c0 <pthread_mutex_unlock@plt>
 6192a2d:	e8 8e ff b8 01       	call   7d229c0 <pthread_mutex_unlock@plt>
 6194735:	e8 76 e2 b8 01       	call   7d229b0 <pthread_mutex_lock@plt>
 6194780:	e9 3b e2 b8 01       	jmp    7d229c0 <pthread_mutex_unlock@plt>
 6196f53:	e8 58 ba b8 01       	call   7d229b0 <pthread_mutex_lock@plt>
 6196f7c:	e8 3f ba b8 01       	call   7d229c0 <pthread_mutex_unlock@plt>
 6197124:	e8 87 b8 b8 01       	call   7d229b0 <pthread_mutex_lock@plt>
 6197204:	e8 b7 b7 b8 01       	call   7d229c0 <pthread_mutex_unlock@plt>
 619831e:	e8 9d a6 b8 01       	call   7d229c0 <pthread_mutex_unlock@plt>
 619833d:	e8 7e a6 b8 01       	call   7d229c0 <pthread_mutex_unlock@plt>
 6199664:	e8 57 93 b8 01       	call   7d229c0 <pthread_mutex_unlock@plt>
 6199681:	e8 3a 93 b8 01       	call   7d229c0 <pthread_mutex_unlock@plt>
 619a484:	e8 37 85 b8 01       	call   7d229c0 <pthread_mutex_unlock@plt>
 619a9de:	e8 cd 7f b8 01       	call   7d229b0 <pthread_mutex_lock@plt>
 619aa15:	e8 a6 7f b8 01       	call   7d229c0 <pthread_mutex_unlock@plt>
 619aa5e:	e9 5d 7f b8 01       	jmp    7d229c0 <pthread_mutex_unlock@plt>
 619c3a0:	e8 1b 66 b8 01       	call   7d229c0 <pthread_mutex_unlock@plt>
 619d3f5:	e8 c6 55 b8 01       	call   7d229c0 <pthread_mutex_unlock@plt>
 619d492:	e8 29 55 b8 01       	call   7d229c0 <pthread_mutex_unlock@plt>
 619d5aa:	e8 11 54 b8 01       	call   7d229c0 <pthread_mutex_unlock@plt>
 619d899:	e8 22 51 b8 01       	call   7d229c0 <pthread_mutex_unlock@plt>
 619dd4e:	e8 6d 4c b8 01       	call   7d229c0 <pthread_mutex_unlock@plt>
 619e16c:	e8 4f 48 b8 01       	call   7d229c0 <pthread_mutex_unlock@plt>
 619e344:	e8 77 46 b8 01       	call   7d229c0 <pthread_mutex_unlock@plt>
 619e5b4:	e8 07 44 b8 01       	call   7d229c0 <pthread_mutex_unlock@plt>
 619e668:	e8 53 43 b8 01       	call   7d229c0 <pthread_mutex_unlock@plt>
 61a456a:	e8 41 e4 b7 01       	call   7d229b0 <pthread_mutex_lock@plt>
 61a4a1f:	e8 8c df b7 01       	call   7d229b0 <pthread_mutex_lock@plt>
 61a4a68:	e8 53 df b7 01       	call   7d229c0 <pthread_mutex_unlock@plt>
 61a5069:	e8 42 d9 b7 01       	call   7d229b0 <pthread_mutex_lock@plt>
 61a514f:	e8 6c d8 b7 01       	call   7d229c0 <pthread_mutex_unlock@plt>
 61a5408:	e8 b3 d5 b7 01       	call   7d229c0 <pthread_mutex_unlock@plt>
 61aa873:	e8 38 81 b7 01       	call   7d229b0 <pthread_mutex_lock@plt>
 61aafb6:	e8 f5 79 b7 01       	call   7d229b0 <pthread_mutex_lock@plt>
 61ab7ed:	e8 be 71 b7 01       	call   7d229b0 <pthread_mutex_lock@plt>
 61ac4b8:	e8 f3 64 b7 01       	call   7d229b0 <pthread_mutex_lock@plt>
 61ac6a3:	e8 18 63 b7 01       	call   7d229c0 <pthread_mutex_unlock@plt>
 61aec03:	e8 a8 3d b7 01       	call   7d229b0 <pthread_mutex_lock@plt>
 61b0c1f:	e8 9c 1e b7 01       	call   7d22ac0 <pthread_once@plt>
 61b18a8:	e8 03 11 b7 01       	call   7d229b0 <pthread_mutex_lock@plt>
 61b1902:	e8 b9 10 b7 01       	call   7d229c0 <pthread_mutex_unlock@plt>
 61b1959:	e8 52 10 b7 01       	call   7d229b0 <pthread_mutex_lock@plt>
 61b19e7:	e9 d4 0f b7 01       	jmp    7d229c0 <pthread_mutex_unlock@plt>
 61b1ec5:	e8 f6 0a b7 01       	call   7d229c0 <pthread_mutex_unlock@plt>
 61b26cb:	e8 f0 03 b7 01       	call   7d22ac0 <pthread_once@plt>
 61b3377:	e8 34 f6 b6 01       	call   7d229b0 <pthread_mutex_lock@plt>
 61b3387:	e8 34 f6 b6 01       	call   7d229c0 <pthread_mutex_unlock@plt>
 61b33d2:	e8 d9 f5 b6 01       	call   7d229b0 <pthread_mutex_lock@plt>
 61b3506:	e8 b5 f4 b6 01       	call   7d229c0 <pthread_mutex_unlock@plt>
 61b4c03:	e8 a8 dd b6 01       	call   7d229b0 <pthread_mutex_lock@plt>
 61b4c3a:	e8 81 dd b6 01       	call   7d229c0 <pthread_mutex_unlock@plt>
 61b521e:	e8 9d d7 b6 01       	call   7d229c0 <pthread_mutex_unlock@plt>
 61b530d:	e8 9e d6 b6 01       	call   7d229b0 <pthread_mutex_lock@plt>
 61b540a:	e9 b1 d5 b6 01       	jmp    7d229c0 <pthread_mutex_unlock@plt>
 61b57b4:	e8 f7 d1 b6 01       	call   7d229b0 <pthread_mutex_lock@plt>
 61b592f:	e8 7c d0 b6 01       	call   7d229b0 <pthread_mutex_lock@plt>
 61b5b8f:	e8 2c ce b6 01       	call   7d229c0 <pthread_mutex_unlock@plt>
 61b60fb:	e8 b0 c8 b6 01       	call   7d229b0 <pthread_mutex_lock@plt>
 61b6239:	e8 82 c7 b6 01       	call   7d229c0 <pthread_mutex_unlock@plt>
 61b63c6:	e8 e5 c5 b6 01       	call   7d229b0 <pthread_mutex_lock@plt>
 61b66f2:	e8 c9 c2 b6 01       	call   7d229c0 <pthread_mutex_unlock@plt>
 61b6803:	e8 b8 c1 b6 01       	call   7d229c0 <pthread_mutex_unlock@plt>
 61b68ad:	e8 fe c0 b6 01       	call   7d229b0 <pthread_mutex_lock@plt>
 61b68bd:	e8 fe c0 b6 01       	call   7d229c0 <pthread_mutex_unlock@plt>
 61b69ba:	e8 f1 bf b6 01       	call   7d229b0 <pthread_mutex_lock@plt>
 61b69d0:	e8 eb bf b6 01       	call   7d229c0 <pthread_mutex_unlock@plt>
 61b6d33:	e8 78 bc b6 01       	call   7d229b0 <pthread_mutex_lock@plt>
 61b72c4:	e8 e7 b6 b6 01       	call   7d229b0 <pthread_mutex_lock@plt>
 61b73f9:	e9 c2 b5 b6 01       	jmp    7d229c0 <pthread_mutex_unlock@plt>
 61b762e:	e8 7d b3 b6 01       	call   7d229b0 <pthread_mutex_lock@plt>
 61b7947:	e8 74 b0 b6 01       	call   7d229c0 <pthread_mutex_unlock@plt>
 61b8a39:	e8 82 9f b6 01       	call   7d229c0 <pthread_mutex_unlock@plt>
 61b8bbe:	e8 fd 9d b6 01       	call   7d229c0 <pthread_mutex_unlock@plt>
 61b8e9b:	e8 20 9b b6 01       	call   7d229c0 <pthread_mutex_unlock@plt>
 61b9072:	e8 49 99 b6 01       	call   7d229c0 <pthread_mutex_unlock@plt>
 61b93ff:	e8 bc 95 b6 01       	call   7d229c0 <pthread_mutex_unlock@plt>
 61b9454:	e8 67 95 b6 01       	call   7d229c0 <pthread_mutex_unlock@plt>
 61ba054:	e8 67 8a b6 01       	call   7d22ac0 <pthread_once@plt>
 61bfea9:	e8 12 2c b6 01       	call   7d22ac0 <pthread_once@plt>
 61c3af0:	e8 cb ee b5 01       	call   7d229c0 <pthread_mutex_unlock@plt>
 61c43a1:	e8 1a e6 b5 01       	call   7d229c0 <pthread_mutex_unlock@plt>
 61c48cb:	e8 f0 e1 b5 01       	call   7d22ac0 <pthread_once@plt>
 61c4c5a:	e8 51 dd b5 01       	call   7d229b0 <pthread_mutex_lock@plt>
 61c4caa:	e8 11 dd b5 01       	call   7d229c0 <pthread_mutex_unlock@plt>
 61c5f6d:	e8 3e ca b5 01       	call   7d229b0 <pthread_mutex_lock@plt>
 61c5f86:	e8 35 ca b5 01       	call   7d229c0 <pthread_mutex_unlock@plt>
 61c5fa7:	e8 04 ca b5 01       	call   7d229b0 <pthread_mutex_lock@plt>
 61c5fc4:	e8 f7 c9 b5 01       	call   7d229c0 <pthread_mutex_unlock@plt>
 61c5fed:	e8 be c9 b5 01       	call   7d229b0 <pthread_mutex_lock@plt>
 61c600a:	e8 b1 c9 b5 01       	call   7d229c0 <pthread_mutex_unlock@plt>
 61c612b:	e8 80 c8 b5 01       	call   7d229b0 <pthread_mutex_lock@plt>
 61c618f:	e8 2c c8 b5 01       	call   7d229c0 <pthread_mutex_unlock@plt>
 61c61a3:	e8 18 c8 b5 01       	call   7d229c0 <pthread_mutex_unlock@plt>
 61c61bb:	e8 f0 c7 b5 01       	call   7d229b0 <pthread_mutex_lock@plt>
 61c6238:	e8 83 c7 b5 01       	call   7d229c0 <pthread_mutex_unlock@plt>
 61c62c9:	e8 e2 c6 b5 01       	call   7d229b0 <pthread_mutex_lock@plt>
 61c63e3:	e8 c8 c5 b5 01       	call   7d229b0 <pthread_mutex_lock@plt>
 61c63ff:	e8 bc c5 b5 01       	call   7d229c0 <pthread_mutex_unlock@plt>
 61c6763:	e8 48 c2 b5 01       	call   7d229b0 <pthread_mutex_lock@plt>
 61c67c2:	e8 f9 c1 b5 01       	call   7d229c0 <pthread_mutex_unlock@plt>
 61c67cf:	e8 ec c1 b5 01       	call   7d229c0 <pthread_mutex_unlock@plt>
 61c67e9:	e8 d2 c1 b5 01       	call   7d229c0 <pthread_mutex_unlock@plt>
 61c7649:	e8 72 b3 b5 01       	call   7d229c0 <pthread_mutex_unlock@plt>
 61c7f74:	e8 37 aa b5 01       	call   7d229b0 <pthread_mutex_lock@plt>
 61c84ed:	e8 be a4 b5 01       	call   7d229b0 <pthread_mutex_lock@plt>
 61c8506:	e8 b5 a4 b5 01       	call   7d229c0 <pthread_mutex_unlock@plt>
 61c8a04:	e8 a7 9f b5 01       	call   7d229b0 <pthread_mutex_lock@plt>
 61c8a7e:	e8 3d 9f b5 01       	call   7d229c0 <pthread_mutex_unlock@plt>
 61c9206:	e8 a5 97 b5 01       	call   7d229b0 <pthread_mutex_lock@plt>
 61c9297:	e8 14 97 b5 01       	call   7d229b0 <pthread_mutex_lock@plt>
 61c92cb:	e8 f0 96 b5 01       	call   7d229c0 <pthread_mutex_unlock@plt>
 61c932b:	e8 80 96 b5 01       	call   7d229b0 <pthread_mutex_lock@plt>
 61c938d:	e8 2e 96 b5 01       	call   7d229c0 <pthread_mutex_unlock@plt>
 61c93a9:	e8 02 96 b5 01       	call   7d229b0 <pthread_mutex_lock@plt>
 61c94a0:	e8 0b 95 b5 01       	call   7d229b0 <pthread_mutex_lock@plt>
 61c94c5:	e8 f6 94 b5 01       	call   7d229c0 <pthread_mutex_unlock@plt>
 61c9550:	e8 6b 94 b5 01       	call   7d229c0 <pthread_mutex_unlock@plt>
 61cbcf6:	e8 c5 6d b5 01       	call   7d22ac0 <pthread_once@plt>
 61d7513:	e8 a8 b5 b4 01       	call   7d22ac0 <pthread_once@plt>
 61de572:	e8 49 45 b4 01       	call   7d22ac0 <pthread_once@plt>
 61e17fb:	e8 c0 12 b4 01       	call   7d22ac0 <pthread_once@plt>
 61e25d6:	e8 e5 04 b4 01       	call   7d22ac0 <pthread_once@plt>
 61ea03d:	e8 7e 8a b3 01       	call   7d22ac0 <pthread_once@plt>
 61f1d87:	e8 34 0d b3 01       	call   7d22ac0 <pthread_once@plt>
 61f5e8d:	e8 2e cc b2 01       	call   7d22ac0 <pthread_once@plt>
 61f9a6a:	e8 51 90 b2 01       	call   7d22ac0 <pthread_once@plt>
 61fde6a:	e8 51 4c b2 01       	call   7d22ac0 <pthread_once@plt>
 620f1a2:	e8 19 39 b1 01       	call   7d22ac0 <pthread_once@plt>
 62123eb:	e8 d0 06 b1 01       	call   7d22ac0 <pthread_once@plt>
 6212fdb:	e8 e0 fa b0 01       	call   7d22ac0 <pthread_once@plt>
 621359a:	e8 11 f4 b0 01       	call   7d229b0 <pthread_mutex_lock@plt>
 62135b6:	e8 05 f4 b0 01       	call   7d229c0 <pthread_mutex_unlock@plt>
 621364b:	e8 60 f3 b0 01       	call   7d229b0 <pthread_mutex_lock@plt>
 6213691:	e8 1a f3 b0 01       	call   7d229b0 <pthread_mutex_lock@plt>
 62136ad:	e8 0e f3 b0 01       	call   7d229c0 <pthread_mutex_unlock@plt>
 62136c3:	e9 f8 f2 b0 01       	jmp    7d229c0 <pthread_mutex_unlock@plt>
 62136de:	e8 cd f2 b0 01       	call   7d229b0 <pthread_mutex_lock@plt>
 6213751:	e8 6a f2 b0 01       	call   7d229c0 <pthread_mutex_unlock@plt>
 62137d0:	e8 db f1 b0 01       	call   7d229b0 <pthread_mutex_lock@plt>
 6213bfd:	e8 be ed b0 01       	call   7d229c0 <pthread_mutex_unlock@plt>
 6213e29:	e8 82 eb b0 01       	call   7d229b0 <pthread_mutex_lock@plt>
 6213e6b:	e8 50 eb b0 01       	call   7d229c0 <pthread_mutex_unlock@plt>
 6213f57:	e8 64 ea b0 01       	call   7d229c0 <pthread_mutex_unlock@plt>
 6214091:	e8 1a e9 b0 01       	call   7d229b0 <pthread_mutex_lock@plt>
 62140d6:	e8 d5 e8 b0 01       	call   7d229b0 <pthread_mutex_lock@plt>
 6214161:	e8 4a e8 b0 01       	call   7d229b0 <pthread_mutex_lock@plt>
 6214187:	e8 34 e8 b0 01       	call   7d229c0 <pthread_mutex_unlock@plt>
 62141de:	e8 cd e7 b0 01       	call   7d229b0 <pthread_mutex_lock@plt>
 6214201:	e8 ba e7 b0 01       	call   7d229c0 <pthread_mutex_unlock@plt>
 62142f9:	e9 c2 e6 b0 01       	jmp    7d229c0 <pthread_mutex_unlock@plt>
 62146be:	e8 ed e2 b0 01       	call   7d229b0 <pthread_mutex_lock@plt>
 62146fd:	e8 be e2 b0 01       	call   7d229c0 <pthread_mutex_unlock@plt>
 6214819:	e8 92 e1 b0 01       	call   7d229b0 <pthread_mutex_lock@plt>
 6214831:	e8 8a e1 b0 01       	call   7d229c0 <pthread_mutex_unlock@plt>
 6214866:	e8 45 e1 b0 01       	call   7d229b0 <pthread_mutex_lock@plt>
 6214894:	e8 27 e1 b0 01       	call   7d229c0 <pthread_mutex_unlock@plt>
 62157e4:	e8 d7 d1 b0 01       	call   7d229c0 <pthread_mutex_unlock@plt>
 6215931:	e8 8a d0 b0 01       	call   7d229c0 <pthread_mutex_unlock@plt>
 62159dd:	e8 de cf b0 01       	call   7d229c0 <pthread_mutex_unlock@plt>
 621688a:	e8 31 c2 b0 01       	call   7d22ac0 <pthread_once@plt>
 62178da:	e8 e1 b1 b0 01       	call   7d22ac0 <pthread_once@plt>
 6218569:	e8 52 a5 b0 01       	call   7d22ac0 <pthread_once@plt>
 621c14b:	e8 70 69 b0 01       	call   7d22ac0 <pthread_once@plt>
 621deea:	e8 d1 4b b0 01       	call   7d22ac0 <pthread_once@plt>
 624af8b:	e8 30 7b ad 01       	call   7d22ac0 <pthread_once@plt>
 624b6eb:	e8 c0 72 ad 01       	call   7d229b0 <pthread_mutex_lock@plt>
 624b6fc:	e8 bf 72 ad 01       	call   7d229c0 <pthread_mutex_unlock@plt>
 624b72d:	e8 7e 72 ad 01       	call   7d229b0 <pthread_mutex_lock@plt>
 624b75b:	e9 60 72 ad 01       	jmp    7d229c0 <pthread_mutex_unlock@plt>
 624bd1b:	e8 a0 6d ad 01       	call   7d22ac0 <pthread_once@plt>
 624c93a:	e8 81 61 ad 01       	call   7d22ac0 <pthread_once@plt>
 6258709:	e8 b2 a3 ac 01       	call   7d22ac0 <pthread_once@plt>
 625897b:	e8 40 a1 ac 01       	call   7d22ac0 <pthread_once@plt>
 6258bff:	e8 bc 9e ac 01       	call   7d22ac0 <pthread_once@plt>
 6259c3a:	e8 81 8e ac 01       	call   7d22ac0 <pthread_once@plt>
 625aeb2:	e8 09 7c ac 01       	call   7d22ac0 <pthread_once@plt>
 625c51b:	e8 a0 65 ac 01       	call   7d22ac0 <pthread_once@plt>
 6262950:	e8 6b 01 ac 01       	call   7d22ac0 <pthread_once@plt>
 626b4f4:	e8 c7 75 ab 01       	call   7d22ac0 <pthread_once@plt>
 626c42a:	e8 81 65 ab 01       	call   7d229b0 <pthread_mutex_lock@plt>
 626c47a:	e8 41 65 ab 01       	call   7d229c0 <pthread_mutex_unlock@plt>
 6271763:	e8 58 13 ab 01       	call   7d22ac0 <pthread_once@plt>
 62765ed:	e8 ce c4 aa 01       	call   7d22ac0 <pthread_once@plt>
 627faa7:	e8 14 30 aa 01       	call   7d22ac0 <pthread_once@plt>
 62810db:	e8 e0 19 aa 01       	call   7d22ac0 <pthread_once@plt>
 6281e5b:	e8 60 0c aa 01       	call   7d22ac0 <pthread_once@plt>
 62833ca:	e8 e1 f5 a9 01       	call   7d229b0 <pthread_mutex_lock@plt>
 628341a:	e8 a1 f5 a9 01       	call   7d229c0 <pthread_mutex_unlock@plt>
 628bbe0:	e8 cb 6d a9 01       	call   7d229b0 <pthread_mutex_lock@plt>
 62b791a:	e8 a1 b1 a6 01       	call   7d22ac0 <pthread_once@plt>
 62c2efa:	e8 b1 fa a5 01       	call   7d229b0 <pthread_mutex_lock@plt>
 62c2f4a:	e8 71 fa a5 01       	call   7d229c0 <pthread_mutex_unlock@plt>
 62c4400:	e8 ab e5 a5 01       	call   7d229b0 <pthread_mutex_lock@plt>
 62c83b0:	e8 fb a5 a5 01       	call   7d229b0 <pthread_mutex_lock@plt>
 62c83ce:	e8 ed a5 a5 01       	call   7d229c0 <pthread_mutex_unlock@plt>
 62c8501:	e8 aa a4 a5 01       	call   7d229b0 <pthread_mutex_lock@plt>
 62ca34e:	e8 6d 87 a5 01       	call   7d22ac0 <pthread_once@plt>
 62cc346:	e8 75 67 a5 01       	call   7d22ac0 <pthread_once@plt>
 62d0574:	e8 47 25 a5 01       	call   7d22ac0 <pthread_once@plt>
 62d349a:	e8 21 f6 a4 01       	call   7d22ac0 <pthread_once@plt>
 62d526a:	e8 51 d8 a4 01       	call   7d22ac0 <pthread_once@plt>
 62d5f5f:	e8 5c cb a4 01       	call   7d22ac0 <pthread_once@plt>
 62d910a:	e8 b1 99 a4 01       	call   7d22ac0 <pthread_once@plt>
 62ded0a:	e8 b1 3d a4 01       	call   7d22ac0 <pthread_once@plt>
 62e09ba:	e8 01 21 a4 01       	call   7d22ac0 <pthread_once@plt>
 62e592b:	e8 90 d1 a3 01       	call   7d22ac0 <pthread_once@plt>
 62f0147:	e8 74 29 a3 01       	call   7d22ac0 <pthread_once@plt>
 62f3fc1:	e8 fa ea a2 01       	call   7d22ac0 <pthread_once@plt>
 62fac4b:	e8 70 7e a2 01       	call   7d22ac0 <pthread_once@plt>
 62fdc45:	e8 76 4e a2 01       	call   7d22ac0 <pthread_once@plt>
 6305847:	e8 74 d2 a1 01       	call   7d22ac0 <pthread_once@plt>
 631b663:	e8 58 74 a0 01       	call   7d22ac0 <pthread_once@plt>
 631ccb7:	e8 f4 5c a0 01       	call   7d229b0 <pthread_mutex_lock@plt>
 631cccb:	e8 f0 5c a0 01       	call   7d229c0 <pthread_mutex_unlock@plt>
 631cd0b:	e8 a0 5c a0 01       	call   7d229b0 <pthread_mutex_lock@plt>
 631cd2f:	e8 7c 5c a0 01       	call   7d229b0 <pthread_mutex_lock@plt>
 631cd8c:	e8 2f 5c a0 01       	call   7d229c0 <pthread_mutex_unlock@plt>
 631cd9b:	e8 20 5c a0 01       	call   7d229c0 <pthread_mutex_unlock@plt>
 631cda7:	e8 04 5c a0 01       	call   7d229b0 <pthread_mutex_lock@plt>
 631cdbc:	e8 ff 5b a0 01       	call   7d229c0 <pthread_mutex_unlock@plt>
 631cdd2:	e9 e9 5b a0 01       	jmp    7d229c0 <pthread_mutex_unlock@plt>
 631ce0e:	e8 9d 5b a0 01       	call   7d229b0 <pthread_mutex_lock@plt>
 631ce33:	e8 88 5b a0 01       	call   7d229c0 <pthread_mutex_unlock@plt>
 631cf14:	e8 97 5a a0 01       	call   7d229b0 <pthread_mutex_lock@plt>
 631cf53:	e9 68 5a a0 01       	jmp    7d229c0 <pthread_mutex_unlock@plt>
 631d016:	e8 95 59 a0 01       	call   7d229b0 <pthread_mutex_lock@plt>
 631d033:	e9 88 59 a0 01       	jmp    7d229c0 <pthread_mutex_unlock@plt>
 631d062:	e8 49 59 a0 01       	call   7d229b0 <pthread_mutex_lock@plt>
 631d0c9:	e9 f2 58 a0 01       	jmp    7d229c0 <pthread_mutex_unlock@plt>
 631d0d3:	e8 e8 58 a0 01       	call   7d229c0 <pthread_mutex_unlock@plt>
 631d0df:	e8 cc 58 a0 01       	call   7d229b0 <pthread_mutex_lock@plt>
 631d0fc:	e9 bf 58 a0 01       	jmp    7d229c0 <pthread_mutex_unlock@plt>
 631d134:	e8 77 58 a0 01       	call   7d229b0 <pthread_mutex_lock@plt>
 631d1a0:	e9 1b 58 a0 01       	jmp    7d229c0 <pthread_mutex_unlock@plt>
 631d689:	e8 22 53 a0 01       	call   7d229b0 <pthread_mutex_lock@plt>
 631d6fe:	e9 bd 52 a0 01       	jmp    7d229c0 <pthread_mutex_unlock@plt>
 631d8ae:	e8 fd 50 a0 01       	call   7d229b0 <pthread_mutex_lock@plt>
 631d8ca:	e8 e1 50 a0 01       	call   7d229b0 <pthread_mutex_lock@plt>
 631daa3:	e8 18 4f a0 01       	call   7d229c0 <pthread_mutex_unlock@plt>
 631dac8:	e9 f3 4e a0 01       	jmp    7d229c0 <pthread_mutex_unlock@plt>
 631db81:	e8 2a 4e a0 01       	call   7d229b0 <pthread_mutex_lock@plt>
 631dc16:	e9 a5 4d a0 01       	jmp    7d229c0 <pthread_mutex_unlock@plt>
 631ddd7:	e8 d4 4b a0 01       	call   7d229b0 <pthread_mutex_lock@plt>
 631de1f:	e8 9c 4b a0 01       	call   7d229c0 <pthread_mutex_unlock@plt>
 631de6f:	e8 dc 4e a0 01       	call   7d22d50 <pthread_cond_clockwait@plt>
 631de7c:	e8 3f 4b a0 01       	call   7d229c0 <pthread_mutex_unlock@plt>
 631de98:	e8 13 4b a0 01       	call   7d229b0 <pthread_mutex_lock@plt>
 631def7:	e8 b4 4a a0 01       	call   7d229b0 <pthread_mutex_lock@plt>
 631df1b:	e8 a0 4a a0 01       	call   7d229c0 <pthread_mutex_unlock@plt>
 631df88:	e8 23 4a a0 01       	call   7d229b0 <pthread_mutex_lock@plt>
 631e017:	e8 34 4d a0 01       	call   7d22d50 <pthread_cond_clockwait@plt>
 631e024:	e8 97 49 a0 01       	call   7d229c0 <pthread_mutex_unlock@plt>
 631e043:	e8 68 49 a0 01       	call   7d229b0 <pthread_mutex_lock@plt>
 631e0ec:	e9 cf 48 a0 01       	jmp    7d229c0 <pthread_mutex_unlock@plt>
 631e256:	e8 65 47 a0 01       	call   7d229c0 <pthread_mutex_unlock@plt>
 631ea85:	e8 a6 43 a0 01       	call   7d22e30 <pthread_mutex_trylock@plt>
 631eaa7:	e8 84 43 a0 01       	call   7d22e30 <pthread_mutex_trylock@plt>
 631eca2:	e8 09 3d a0 01       	call   7d229b0 <pthread_mutex_lock@plt>
 631ed05:	e8 b6 3c a0 01       	call   7d229c0 <pthread_mutex_unlock@plt>
 631ed8a:	e9 31 3c a0 01       	jmp    7d229c0 <pthread_mutex_unlock@plt>
 631ee1c:	e8 9f 3b a0 01       	call   7d229c0 <pthread_mutex_unlock@plt>
 631ee33:	e8 88 3b a0 01       	call   7d229c0 <pthread_mutex_unlock@plt>
 631ee3f:	e8 6c 3b a0 01       	call   7d229b0 <pthread_mutex_lock@plt>
 631ee54:	e8 67 3b a0 01       	call   7d229c0 <pthread_mutex_unlock@plt>
 631ee9c:	e8 1f 3b a0 01       	call   7d229c0 <pthread_mutex_unlock@plt>
 631f112:	e8 19 3d a0 01       	call   7d22e30 <pthread_mutex_trylock@plt>
 631f134:	e8 f7 3c a0 01       	call   7d22e30 <pthread_mutex_trylock@plt>
 631f156:	e8 d5 3c a0 01       	call   7d22e30 <pthread_mutex_trylock@plt>
 631f25e:	e9 5d 37 a0 01       	jmp    7d229c0 <pthread_mutex_unlock@plt>
 631f2f4:	e8 c7 36 a0 01       	call   7d229c0 <pthread_mutex_unlock@plt>
 631f330:	e8 8b 36 a0 01       	call   7d229c0 <pthread_mutex_unlock@plt>
 631f350:	e8 6b 36 a0 01       	call   7d229c0 <pthread_mutex_unlock@plt>
 631f3c9:	e8 f2 35 a0 01       	call   7d229c0 <pthread_mutex_unlock@plt>
 631f593:	e8 18 34 a0 01       	call   7d229b0 <pthread_mutex_lock@plt>
 631f5f2:	e8 c9 33 a0 01       	call   7d229c0 <pthread_mutex_unlock@plt>
 631f603:	e8 b8 33 a0 01       	call   7d229c0 <pthread_mutex_unlock@plt>
 631f60f:	e8 9c 33 a0 01       	call   7d229b0 <pthread_mutex_lock@plt>
 631f624:	e8 97 33 a0 01       	call   7d229c0 <pthread_mutex_unlock@plt>
 63230ec:	e8 bf f8 9f 01       	call   7d229b0 <pthread_mutex_lock@plt>
 63233a3:	e9 18 f6 9f 01       	jmp    7d229c0 <pthread_mutex_unlock@plt>
 632345a:	e8 61 f5 9f 01       	call   7d229c0 <pthread_mutex_unlock@plt>
 63234da:	e8 e1 f4 9f 01       	call   7d229c0 <pthread_mutex_unlock@plt>
 63235e8:	e8 d3 f3 9f 01       	call   7d229c0 <pthread_mutex_unlock@plt>
 6324905:	e8 b6 e1 9f 01       	call   7d22ac0 <pthread_once@plt>
 632721d:	e8 9e b8 9f 01       	call   7d22ac0 <pthread_once@plt>
 63291cd:	e8 ee 98 9f 01       	call   7d22ac0 <pthread_once@plt>
 632b9cd:	e8 ee 70 9f 01       	call   7d22ac0 <pthread_once@plt>
 632bb5a:	e8 51 6e 9f 01       	call   7d229b0 <pthread_mutex_lock@plt>
 632bbaa:	e8 11 6e 9f 01       	call   7d229c0 <pthread_mutex_unlock@plt>
 632c4a3:	e8 08 65 9f 01       	call   7d229b0 <pthread_mutex_lock@plt>
 632c4cc:	e8 df 64 9f 01       	call   7d229b0 <pthread_mutex_lock@plt>
 632c4e4:	e8 d7 64 9f 01       	call   7d229c0 <pthread_mutex_unlock@plt>
 632c4fa:	e9 c1 64 9f 01       	jmp    7d229c0 <pthread_mutex_unlock@plt>
 632c513:	e8 98 64 9f 01       	call   7d229b0 <pthread_mutex_lock@plt>
 632c580:	e8 3b 64 9f 01       	call   7d229c0 <pthread_mutex_unlock@plt>
 632c72e:	e8 7d 62 9f 01       	call   7d229b0 <pthread_mutex_lock@plt>
 632c75b:	e8 50 62 9f 01       	call   7d229b0 <pthread_mutex_lock@plt>
 632c773:	e8 48 62 9f 01       	call   7d229c0 <pthread_mutex_unlock@plt>
 632c789:	e9 32 62 9f 01       	jmp    7d229c0 <pthread_mutex_unlock@plt>
 632c79c:	e8 0f 62 9f 01       	call   7d229b0 <pthread_mutex_lock@plt>
 632c807:	e8 b4 61 9f 01       	call   7d229c0 <pthread_mutex_unlock@plt>
 632c84a:	e8 61 61 9f 01       	call   7d229b0 <pthread_mutex_lock@plt>
 632c85d:	e8 5e 61 9f 01       	call   7d229c0 <pthread_mutex_unlock@plt>
 632c89e:	e8 0d 61 9f 01       	call   7d229b0 <pthread_mutex_lock@plt>
 632c8c7:	e8 e4 60 9f 01       	call   7d229b0 <pthread_mutex_lock@plt>
 632c8df:	e8 dc 60 9f 01       	call   7d229c0 <pthread_mutex_unlock@plt>
 632c8f5:	e9 c6 60 9f 01       	jmp    7d229c0 <pthread_mutex_unlock@plt>
 632c90b:	e8 a0 60 9f 01       	call   7d229b0 <pthread_mutex_lock@plt>
 632c978:	e8 43 60 9f 01       	call   7d229c0 <pthread_mutex_unlock@plt>
 632c9ba:	e8 f1 5f 9f 01       	call   7d229b0 <pthread_mutex_lock@plt>
 632c9ce:	e8 ed 5f 9f 01       	call   7d229c0 <pthread_mutex_unlock@plt>
 632d214:	e8 97 57 9f 01       	call   7d229b0 <pthread_mutex_lock@plt>
 632d4d8:	e8 e3 54 9f 01       	call   7d229c0 <pthread_mutex_unlock@plt>
 632deeb:	e8 d0 4b 9f 01       	call   7d22ac0 <pthread_once@plt>
 633133e:	e8 7d 17 9f 01       	call   7d22ac0 <pthread_once@plt>
 6334eda:	e8 e1 db 9e 01       	call   7d22ac0 <pthread_once@plt>
 633846a:	e8 51 a6 9e 01       	call   7d22ac0 <pthread_once@plt>
 633e5aa:	e8 11 45 9e 01       	call   7d22ac0 <pthread_once@plt>
 6343d0d:	e8 ae ed 9d 01       	call   7d22ac0 <pthread_once@plt>
 634a0b1:	e8 0a 8a 9d 01       	call   7d22ac0 <pthread_once@plt>
 634ba2a:	e8 91 70 9d 01       	call   7d22ac0 <pthread_once@plt>
 634d2fa:	e8 c1 57 9d 01       	call   7d22ac0 <pthread_once@plt>
 6354fae:	e8 0d db 9c 01       	call   7d22ac0 <pthread_once@plt>
 635798b:	e8 30 b1 9c 01       	call   7d22ac0 <pthread_once@plt>
 635e75d:	e8 5e 43 9c 01       	call   7d22ac0 <pthread_once@plt>
 6374ca2:	e8 19 de 9a 01       	call   7d22ac0 <pthread_once@plt>
 637713b:	e8 80 b9 9a 01       	call   7d22ac0 <pthread_once@plt>
 637c0b4:	e8 07 6a 9a 01       	call   7d22ac0 <pthread_once@plt>
 6387e7d:	e8 3e ac 99 01       	call   7d22ac0 <pthread_once@plt>
 63d273e:	e8 7d 03 95 01       	call   7d22ac0 <pthread_once@plt>
 63d5f2a:	e8 91 cb 94 01       	call   7d22ac0 <pthread_once@plt>
 63db8bd:	e8 fe 71 94 01       	call   7d22ac0 <pthread_once@plt>
 63e11b5:	e8 06 19 94 01       	call   7d22ac0 <pthread_once@plt>
 63e7f6f:	e8 4c ab 93 01       	call   7d22ac0 <pthread_once@plt>
 63eb75a:	e8 61 73 93 01       	call   7d22ac0 <pthread_once@plt>
 63f1888:	e8 33 12 93 01       	call   7d22ac0 <pthread_once@plt>
 6401f1a:	e8 a1 0b 92 01       	call   7d22ac0 <pthread_once@plt>
 6404a4a:	e8 71 e0 91 01       	call   7d22ac0 <pthread_once@plt>
 640849f:	e8 1c a6 91 01       	call   7d22ac0 <pthread_once@plt>
 640f155:	e8 66 39 91 01       	call   7d22ac0 <pthread_once@plt>
 641448b:	e8 30 e6 90 01       	call   7d22ac0 <pthread_once@plt>
 64188ba:	e8 01 a2 90 01       	call   7d22ac0 <pthread_once@plt>
 641dbc5:	e8 f6 4e 90 01       	call   7d22ac0 <pthread_once@plt>
 64290ec:	e8 cf 99 8f 01       	call   7d22ac0 <pthread_once@plt>
 6433413:	e8 a8 f6 8e 01       	call   7d22ac0 <pthread_once@plt>
 643584b:	e8 70 d2 8e 01       	call   7d22ac0 <pthread_once@plt>
 6456bed:	e8 ce be 8c 01       	call   7d22ac0 <pthread_once@plt>
 645a228:	e8 93 88 8c 01       	call   7d22ac0 <pthread_once@plt>
 645b7cb:	e8 f0 72 8c 01       	call   7d22ac0 <pthread_once@plt>
 6462489:	e8 32 06 8c 01       	call   7d22ac0 <pthread_once@plt>
 646335b:	e8 60 f7 8b 01       	call   7d22ac0 <pthread_once@plt>
 646433b:	e8 80 e7 8b 01       	call   7d22ac0 <pthread_once@plt>
 6465e6a:	e8 51 cc 8b 01       	call   7d22ac0 <pthread_once@plt>
 6467c3a:	e8 81 ae 8b 01       	call   7d22ac0 <pthread_once@plt>
 6468bda:	e8 e1 9e 8b 01       	call   7d22ac0 <pthread_once@plt>
 646dac3:	e8 f8 4f 8b 01       	call   7d22ac0 <pthread_once@plt>
 646f8ba:	e8 01 32 8b 01       	call   7d22ac0 <pthread_once@plt>
 6470b5a:	e8 61 1f 8b 01       	call   7d22ac0 <pthread_once@plt>
 647431c:	e8 9f e7 8a 01       	call   7d22ac0 <pthread_once@plt>
 647889a:	e8 21 a2 8a 01       	call   7d22ac0 <pthread_once@plt>
 647b7cb:	e8 f0 72 8a 01       	call   7d22ac0 <pthread_once@plt>
 647f26d:	e8 4e 38 8a 01       	call   7d22ac0 <pthread_once@plt>
 64858e4:	e8 d7 d1 89 01       	call   7d22ac0 <pthread_once@plt>
 6486fdb:	e8 e0 ba 89 01       	call   7d22ac0 <pthread_once@plt>
 648b3a7:	e8 14 77 89 01       	call   7d22ac0 <pthread_once@plt>
 648dbee:	e8 cd 4e 89 01       	call   7d22ac0 <pthread_once@plt>
 6491117:	e8 a4 19 89 01       	call   7d22ac0 <pthread_once@plt>
 64924cb:	e8 f0 05 89 01       	call   7d22ac0 <pthread_once@plt>
 649370b:	e8 b0 f3 88 01       	call   7d22ac0 <pthread_once@plt>
 64955fe:	e8 bd d4 88 01       	call   7d22ac0 <pthread_once@plt>
 64973f5:	e8 c6 b6 88 01       	call   7d22ac0 <pthread_once@plt>
 649842b:	e8 90 a6 88 01       	call   7d22ac0 <pthread_once@plt>
 649a49b:	e8 20 86 88 01       	call   7d22ac0 <pthread_once@plt>
 649bcdb:	e8 e0 6d 88 01       	call   7d22ac0 <pthread_once@plt>
 64b3094:	e8 27 fa 86 01       	call   7d22ac0 <pthread_once@plt>
 65141fd:	e8 be e8 80 01       	call   7d22ac0 <pthread_once@plt>
 653f015:	e8 a6 3a 7e 01       	call   7d22ac0 <pthread_once@plt>
 654100a:	e8 b1 1a 7e 01       	call   7d22ac0 <pthread_once@plt>
 6544388:	e8 33 e7 7d 01       	call   7d22ac0 <pthread_once@plt>
 6546dfb:	e8 c0 bc 7d 01       	call   7d22ac0 <pthread_once@plt>
 6549c3e:	e8 7d 8e 7d 01       	call   7d22ac0 <pthread_once@plt>
 654b7bb:	e8 00 73 7d 01       	call   7d22ac0 <pthread_once@plt>
 654de69:	e8 52 4c 7d 01       	call   7d22ac0 <pthread_once@plt>
 65521ca:	e8 f1 08 7d 01       	call   7d22ac0 <pthread_once@plt>
 6552e5a:	e8 61 fc 7c 01       	call   7d22ac0 <pthread_once@plt>
 655a699:	e8 22 84 7c 01       	call   7d22ac0 <pthread_once@plt>
 655c9ca:	e8 f1 60 7c 01       	call   7d22ac0 <pthread_once@plt>
 6562784:	e8 37 03 7c 01       	call   7d22ac0 <pthread_once@plt>
 656580a:	e8 b1 d2 7b 01       	call   7d22ac0 <pthread_once@plt>
 656702a:	e8 91 ba 7b 01       	call   7d22ac0 <pthread_once@plt>
 6567a27:	e8 84 af 7b 01       	call   7d229b0 <pthread_mutex_lock@plt>
 6567a52:	e8 69 af 7b 01       	call   7d229c0 <pthread_mutex_unlock@plt>
 6567ad0:	e8 db ae 7b 01       	call   7d229b0 <pthread_mutex_lock@plt>
 6567ae9:	e8 d2 ae 7b 01       	call   7d229c0 <pthread_mutex_unlock@plt>
 6567b5b:	e8 50 ae 7b 01       	call   7d229b0 <pthread_mutex_lock@plt>
 6567bd1:	e8 ea ad 7b 01       	call   7d229c0 <pthread_mutex_unlock@plt>
 6567c76:	e8 35 ad 7b 01       	call   7d229b0 <pthread_mutex_lock@plt>
 6567c91:	e8 2a ad 7b 01       	call   7d229c0 <pthread_mutex_unlock@plt>
 6568399:	e8 12 a6 7b 01       	call   7d229b0 <pthread_mutex_lock@plt>
 6568450:	e8 6b a5 7b 01       	call   7d229c0 <pthread_mutex_unlock@plt>
 6568542:	e8 79 a4 7b 01       	call   7d229c0 <pthread_mutex_unlock@plt>
 6568599:	e8 12 a4 7b 01       	call   7d229b0 <pthread_mutex_lock@plt>
 65685de:	e8 cd a3 7b 01       	call   7d229b0 <pthread_mutex_lock@plt>
 6568662:	e8 49 a3 7b 01       	call   7d229b0 <pthread_mutex_lock@plt>
 6568688:	e8 33 a3 7b 01       	call   7d229c0 <pthread_mutex_unlock@plt>
 65686dc:	e8 cf a2 7b 01       	call   7d229b0 <pthread_mutex_lock@plt>
 65686f9:	e8 c2 a2 7b 01       	call   7d229c0 <pthread_mutex_unlock@plt>
 6568800:	e8 bb a1 7b 01       	call   7d229c0 <pthread_mutex_unlock@plt>
 6568f7a:	e8 41 9b 7b 01       	call   7d22ac0 <pthread_once@plt>
 65698e0:	e8 cb 90 7b 01       	call   7d229b0 <pthread_mutex_lock@plt>
 6569a7c:	e8 3f 8f 7b 01       	call   7d229c0 <pthread_mutex_unlock@plt>
 6569b73:	e8 48 8e 7b 01       	call   7d229c0 <pthread_mutex_unlock@plt>
 656d64a:	e8 71 54 7b 01       	call   7d22ac0 <pthread_once@plt>
 656ed6a:	e8 51 3d 7b 01       	call   7d22ac0 <pthread_once@plt>
 657052a:	e8 91 25 7b 01       	call   7d22ac0 <pthread_once@plt>
 65713ba:	e8 01 17 7b 01       	call   7d22ac0 <pthread_once@plt>
 657230a:	e8 b1 07 7b 01       	call   7d22ac0 <pthread_once@plt>
 65738da:	e8 e1 f1 7a 01       	call   7d22ac0 <pthread_once@plt>
 65749ca:	e8 f1 e0 7a 01       	call   7d22ac0 <pthread_once@plt>
 657576e:	e8 3d d2 7a 01       	call   7d229b0 <pthread_mutex_lock@plt>
 657590b:	e9 b0 d0 7a 01       	jmp    7d229c0 <pthread_mutex_unlock@plt>
 6575a60:	e8 4b cf 7a 01       	call   7d229b0 <pthread_mutex_lock@plt>
 6575bb9:	e9 02 ce 7a 01       	jmp    7d229c0 <pthread_mutex_unlock@plt>
 6576647:	e8 64 c3 7a 01       	call   7d229b0 <pthread_mutex_lock@plt>
 6576703:	e9 b8 c2 7a 01       	jmp    7d229c0 <pthread_mutex_unlock@plt>
 6576753:	e8 58 c2 7a 01       	call   7d229b0 <pthread_mutex_lock@plt>
 65768c1:	e9 fa c0 7a 01       	jmp    7d229c0 <pthread_mutex_unlock@plt>
 6576c0e:	e8 ad bd 7a 01       	call   7d229c0 <pthread_mutex_unlock@plt>
 6576d14:	e8 a7 bc 7a 01       	call   7d229c0 <pthread_mutex_unlock@plt>
 6576d62:	e8 59 bc 7a 01       	call   7d229c0 <pthread_mutex_unlock@plt>
 6576d8e:	e8 2d bc 7a 01       	call   7d229c0 <pthread_mutex_unlock@plt>
 657746b:	e8 40 b5 7a 01       	call   7d229b0 <pthread_mutex_lock@plt>
 657749d:	e8 0e b5 7a 01       	call   7d229b0 <pthread_mutex_lock@plt>
 65774b7:	e8 04 b5 7a 01       	call   7d229c0 <pthread_mutex_unlock@plt>
 65774bf:	e8 fc b4 7a 01       	call   7d229c0 <pthread_mutex_unlock@plt>
 65775bb:	e8 f0 b3 7a 01       	call   7d229b0 <pthread_mutex_lock@plt>
 657761e:	e8 9d b3 7a 01       	call   7d229c0 <pthread_mutex_unlock@plt>
 6577643:	e8 78 b3 7a 01       	call   7d229c0 <pthread_mutex_unlock@plt>
 6577c3a:	e8 81 ae 7a 01       	call   7d22ac0 <pthread_once@plt>
 6578dd3:	e8 d8 9b 7a 01       	call   7d229b0 <pthread_mutex_lock@plt>
 6578f95:	e8 16 9a 7a 01       	call   7d229b0 <pthread_mutex_lock@plt>
 6579018:	e8 a3 99 7a 01       	call   7d229c0 <pthread_mutex_unlock@plt>
 657906f:	e8 dc 9c 7a 01       	call   7d22d50 <pthread_cond_clockwait@plt>
 6579080:	e8 3b 99 7a 01       	call   7d229c0 <pthread_mutex_unlock@plt>
 6579095:	e8 16 99 7a 01       	call   7d229b0 <pthread_mutex_lock@plt>
 65792ab:	e8 00 97 7a 01       	call   7d229b0 <pthread_mutex_lock@plt>
 65792e2:	e8 d9 96 7a 01       	call   7d229c0 <pthread_mutex_unlock@plt>
 6579344:	e8 87 97 7a 01       	call   7d22ad0 <pthread_cond_timedwait@plt>
 6579351:	e8 6a 96 7a 01       	call   7d229c0 <pthread_mutex_unlock@plt>
 657937a:	e8 31 96 7a 01       	call   7d229b0 <pthread_mutex_lock@plt>
 6579481:	e8 2a 95 7a 01       	call   7d229b0 <pthread_mutex_lock@plt>
 65794ad:	e8 0e 95 7a 01       	call   7d229c0 <pthread_mutex_unlock@plt>
 657951c:	e8 8f 94 7a 01       	call   7d229b0 <pthread_mutex_lock@plt>
 6579540:	e8 6b 94 7a 01       	call   7d229b0 <pthread_mutex_lock@plt>
 65795ae:	e8 1d 95 7a 01       	call   7d22ad0 <pthread_cond_timedwait@plt>
 65795bb:	e8 00 94 7a 01       	call   7d229c0 <pthread_mutex_unlock@plt>
 6579643:	e8 68 93 7a 01       	call   7d229b0 <pthread_mutex_lock@plt>
 6579699:	e8 b2 96 7a 01       	call   7d22d50 <pthread_cond_clockwait@plt>
 65796aa:	e8 11 93 7a 01       	call   7d229c0 <pthread_mutex_unlock@plt>
 65796d9:	e8 d2 92 7a 01       	call   7d229b0 <pthread_mutex_lock@plt>
 6579700:	e8 bb 92 7a 01       	call   7d229c0 <pthread_mutex_unlock@plt>
 65797e5:	e9 d6 91 7a 01       	jmp    7d229c0 <pthread_mutex_unlock@plt>
 657b74a:	e8 71 73 7a 01       	call   7d22ac0 <pthread_once@plt>
 657d68a:	e8 31 54 7a 01       	call   7d22ac0 <pthread_once@plt>
 657e321:	e8 ca 4d 7a 01       	call   7d230f0 <pthread_self@plt>
 657e42a:	e8 81 45 7a 01       	call   7d229b0 <pthread_mutex_lock@plt>
 657e442:	e8 79 45 7a 01       	call   7d229c0 <pthread_mutex_unlock@plt>
 657e518:	e8 93 44 7a 01       	call   7d229b0 <pthread_mutex_lock@plt>
 657e62b:	e9 90 43 7a 01       	jmp    7d229c0 <pthread_mutex_unlock@plt>
 6580a9d:	e8 0e 1f 7a 01       	call   7d229b0 <pthread_mutex_lock@plt>
 6580aaa:	e8 41 26 7a 01       	call   7d230f0 <pthread_self@plt>
 6580ad6:	e8 e5 1e 7a 01       	call   7d229c0 <pthread_mutex_unlock@plt>
 6580af5:	e8 b6 1e 7a 01       	call   7d229b0 <pthread_mutex_lock@plt>
 6580b11:	e8 aa 1e 7a 01       	call   7d229c0 <pthread_mutex_unlock@plt>
 6580bd2:	e8 d9 1d 7a 01       	call   7d229b0 <pthread_mutex_lock@plt>
 6580c4b:	e8 70 1d 7a 01       	call   7d229c0 <pthread_mutex_unlock@plt>
 6580d2f:	e8 7c 1c 7a 01       	call   7d229b0 <pthread_mutex_lock@plt>
 6580d56:	e8 65 1c 7a 01       	call   7d229c0 <pthread_mutex_unlock@plt>
 6580e3b:	e8 80 1b 7a 01       	call   7d229c0 <pthread_mutex_unlock@plt>
 6580f07:	e8 a4 1a 7a 01       	call   7d229b0 <pthread_mutex_lock@plt>
 6580f8a:	e8 31 1a 7a 01       	call   7d229c0 <pthread_mutex_unlock@plt>
 6580fd1:	e8 7a 1d 7a 01       	call   7d22d50 <pthread_cond_clockwait@plt>
 6580fe1:	e8 da 19 7a 01       	call   7d229c0 <pthread_mutex_unlock@plt>
 658100a:	e8 a1 19 7a 01       	call   7d229b0 <pthread_mutex_lock@plt>
 65810a3:	e8 08 19 7a 01       	call   7d229b0 <pthread_mutex_lock@plt>
 6581108:	e8 43 1c 7a 01       	call   7d22d50 <pthread_cond_clockwait@plt>
 6581118:	e8 a3 18 7a 01       	call   7d229c0 <pthread_mutex_unlock@plt>
 6581148:	e8 63 18 7a 01       	call   7d229b0 <pthread_mutex_lock@plt>
 6581290:	e9 2b 17 7a 01       	jmp    7d229c0 <pthread_mutex_unlock@plt>
 6582c8c:	e8 1f fd 79 01       	call   7d229b0 <pthread_mutex_lock@plt>
 6582cd2:	e8 e9 fc 79 01       	call   7d229c0 <pthread_mutex_unlock@plt>
 6582d6b:	e8 50 fc 79 01       	call   7d229c0 <pthread_mutex_unlock@plt>
 658682b:	e8 80 c1 79 01       	call   7d229b0 <pthread_mutex_lock@plt>
 6586b7b:	e8 40 be 79 01       	call   7d229c0 <pthread_mutex_unlock@plt>
 6586cb3:	e8 08 bd 79 01       	call   7d229c0 <pthread_mutex_unlock@plt>
 658a318:	e8 a3 86 79 01       	call   7d229c0 <pthread_mutex_unlock@plt>
 65925ba:	e8 01 05 79 01       	call   7d22ac0 <pthread_once@plt>
 659803d:	e8 6e a9 78 01       	call   7d229b0 <pthread_mutex_lock@plt>
 65980f0:	e8 cb a8 78 01       	call   7d229c0 <pthread_mutex_unlock@plt>
 6598175:	e8 36 a8 78 01       	call   7d229b0 <pthread_mutex_lock@plt>
 65981d5:	e8 e6 a7 78 01       	call   7d229c0 <pthread_mutex_unlock@plt>
 65981e3:	e8 d8 a7 78 01       	call   7d229c0 <pthread_mutex_unlock@plt>
 65981f2:	e8 b9 a7 78 01       	call   7d229b0 <pthread_mutex_lock@plt>
 6598207:	e8 b4 a7 78 01       	call   7d229c0 <pthread_mutex_unlock@plt>
 6598291:	e8 2a a7 78 01       	call   7d229c0 <pthread_mutex_unlock@plt>
 659b1fa:	e8 c1 78 78 01       	call   7d22ac0 <pthread_once@plt>
 659c31a:	e8 a1 67 78 01       	call   7d22ac0 <pthread_once@plt>
 659d333:	e8 78 56 78 01       	call   7d229b0 <pthread_mutex_lock@plt>
 659d359:	e8 62 56 78 01       	call   7d229c0 <pthread_mutex_unlock@plt>
 659d3ad:	e8 0e 56 78 01       	call   7d229c0 <pthread_mutex_unlock@plt>
 659d4dc:	e8 cf 54 78 01       	call   7d229b0 <pthread_mutex_lock@plt>
 659d4fa:	e8 c1 54 78 01       	call   7d229c0 <pthread_mutex_unlock@plt>
 659d58a:	e8 21 54 78 01       	call   7d229b0 <pthread_mutex_lock@plt>
 659d5a8:	e8 13 54 78 01       	call   7d229c0 <pthread_mutex_unlock@plt>
 659e220:	e8 8b 47 78 01       	call   7d229b0 <pthread_mutex_lock@plt>
 659e23e:	e8 7d 47 78 01       	call   7d229c0 <pthread_mutex_unlock@plt>
 659ee60:	e8 5b 3c 78 01       	call   7d22ac0 <pthread_once@plt>
 659f675:	e8 36 33 78 01       	call   7d229b0 <pthread_mutex_lock@plt>
 659f71a:	e8 a1 32 78 01       	call   7d229c0 <pthread_mutex_unlock@plt>
 65a1554:	e8 67 15 78 01       	call   7d22ac0 <pthread_once@plt>
 65a3494:	e8 27 f6 77 01       	call   7d22ac0 <pthread_once@plt>
 65a7c3a:	e8 81 ae 77 01       	call   7d22ac0 <pthread_once@plt>
 65b6694:	e8 27 c4 76 01       	call   7d22ac0 <pthread_once@plt>
 65b7b5a:	e8 61 af 76 01       	call   7d22ac0 <pthread_once@plt>
 65b99da:	e8 e1 90 76 01       	call   7d22ac0 <pthread_once@plt>
 65bbbe4:	e8 d7 6e 76 01       	call   7d22ac0 <pthread_once@plt>
 65bde1a:	e8 a1 4c 76 01       	call   7d22ac0 <pthread_once@plt>
 65c2b74:	e8 47 ff 75 01       	call   7d22ac0 <pthread_once@plt>
 65c393a:	e8 81 f1 75 01       	call   7d22ac0 <pthread_once@plt>
 65c809a:	e8 21 aa 75 01       	call   7d22ac0 <pthread_once@plt>
 65cac24:	e8 97 7e 75 01       	call   7d22ac0 <pthread_once@plt>
 65cb67a:	e8 31 73 75 01       	call   7d229b0 <pthread_mutex_lock@plt>
 65cb6ca:	e8 f1 72 75 01       	call   7d229c0 <pthread_mutex_unlock@plt>
 65cbd98:	e8 13 6c 75 01       	call   7d229b0 <pthread_mutex_lock@plt>
 65cbdbc:	e8 ff 6b 75 01       	call   7d229c0 <pthread_mutex_unlock@plt>
 65cbdd7:	e8 d4 6b 75 01       	call   7d229b0 <pthread_mutex_lock@plt>
 65cbe39:	e8 82 6b 75 01       	call   7d229c0 <pthread_mutex_unlock@plt>
 65cbe43:	e8 78 6b 75 01       	call   7d229c0 <pthread_mutex_unlock@plt>
 65cbe52:	e8 59 6b 75 01       	call   7d229b0 <pthread_mutex_lock@plt>
 65cbe6a:	e8 51 6b 75 01       	call   7d229c0 <pthread_mutex_unlock@plt>
 65ccc2e:	e8 7d 5d 75 01       	call   7d229b0 <pthread_mutex_lock@plt>
 65ccc94:	e8 27 5d 75 01       	call   7d229c0 <pthread_mutex_unlock@plt>
 65cccba:	e8 f1 5c 75 01       	call   7d229b0 <pthread_mutex_lock@plt>
 65cccd6:	e8 e5 5c 75 01       	call   7d229c0 <pthread_mutex_unlock@plt>
 65cccf8:	e8 b3 5c 75 01       	call   7d229b0 <pthread_mutex_lock@plt>
 65ccf45:	e8 76 5a 75 01       	call   7d229c0 <pthread_mutex_unlock@plt>
 65ccf9a:	e8 11 5a 75 01       	call   7d229b0 <pthread_mutex_lock@plt>
 65ccffc:	e8 bf 59 75 01       	call   7d229c0 <pthread_mutex_unlock@plt>
 65cd013:	e8 a8 59 75 01       	call   7d229c0 <pthread_mutex_unlock@plt>
 65cd030:	e8 8b 59 75 01       	call   7d229c0 <pthread_mutex_unlock@plt>
 65cd2f2:	e8 f9 5d 75 01       	call   7d230f0 <pthread_self@plt>
 65cd3a9:	e8 42 5d 75 01       	call   7d230f0 <pthread_self@plt>
 65cd48e:	e8 5d 5c 75 01       	call   7d230f0 <pthread_self@plt>
 65cd572:	e8 79 5b 75 01       	call   7d230f0 <pthread_self@plt>
 65cd902:	e8 e9 57 75 01       	call   7d230f0 <pthread_self@plt>
 65cdb92:	e8 59 55 75 01       	call   7d230f0 <pthread_self@plt>
 65cde32:	e8 b9 52 75 01       	call   7d230f0 <pthread_self@plt>
 65ce0d2:	e8 19 50 75 01       	call   7d230f0 <pthread_self@plt>
 65ce192:	e8 59 4f 75 01       	call   7d230f0 <pthread_self@plt>
 65ce252:	e8 99 4e 75 01       	call   7d230f0 <pthread_self@plt>
 65ce328:	e8 c3 4d 75 01       	call   7d230f0 <pthread_self@plt>
 65ce40b:	e8 e0 4c 75 01       	call   7d230f0 <pthread_self@plt>
 65ce5a2:	e8 49 4b 75 01       	call   7d230f0 <pthread_self@plt>
 65ce679:	e8 72 4a 75 01       	call   7d230f0 <pthread_self@plt>
 65ce78a:	e8 61 49 75 01       	call   7d230f0 <pthread_self@plt>
 65ce866:	e8 85 48 75 01       	call   7d230f0 <pthread_self@plt>
 65ce99a:	e8 51 47 75 01       	call   7d230f0 <pthread_self@plt>
 65cea92:	e8 59 46 75 01       	call   7d230f0 <pthread_self@plt>
 65ced27:	e8 c4 43 75 01       	call   7d230f0 <pthread_self@plt>
 65cedfa:	e8 f1 42 75 01       	call   7d230f0 <pthread_self@plt>
 65ceec5:	e8 26 42 75 01       	call   7d230f0 <pthread_self@plt>
 65cef9a:	e8 51 41 75 01       	call   7d230f0 <pthread_self@plt>
 65cf068:	e8 83 40 75 01       	call   7d230f0 <pthread_self@plt>
 65cf136:	e8 b5 3f 75 01       	call   7d230f0 <pthread_self@plt>
 65cf202:	e8 e9 3e 75 01       	call   7d230f0 <pthread_self@plt>
 65cf2c6:	e8 25 3e 75 01       	call   7d230f0 <pthread_self@plt>
 65cf3ae:	e8 3d 3d 75 01       	call   7d230f0 <pthread_self@plt>
 65cf4e1:	e8 0a 3c 75 01       	call   7d230f0 <pthread_self@plt>
 65cf5fa:	e8 f1 3a 75 01       	call   7d230f0 <pthread_self@plt>
 65cf6c2:	e8 29 3a 75 01       	call   7d230f0 <pthread_self@plt>
 65cfa1b:	e8 d0 36 75 01       	call   7d230f0 <pthread_self@plt>
 65cfc07:	e8 a4 2d 75 01       	call   7d229b0 <pthread_mutex_lock@plt>
 65cfc73:	e8 48 2d 75 01       	call   7d229c0 <pthread_mutex_unlock@plt>
 65cfca8:	e8 03 2d 75 01       	call   7d229b0 <pthread_mutex_lock@plt>
 65cfcbf:	e8 fc 2c 75 01       	call   7d229c0 <pthread_mutex_unlock@plt>
 65cfce6:	e8 c5 2c 75 01       	call   7d229b0 <pthread_mutex_lock@plt>
 65cfd5d:	e8 5e 2c 75 01       	call   7d229c0 <pthread_mutex_unlock@plt>
 65cfd79:	e8 42 2c 75 01       	call   7d229c0 <pthread_mutex_unlock@plt>
 65cfd8b:	e8 30 2c 75 01       	call   7d229c0 <pthread_mutex_unlock@plt>
 65cfd9a:	e8 11 2c 75 01       	call   7d229b0 <pthread_mutex_lock@plt>
 65cfdb6:	e8 05 2c 75 01       	call   7d229c0 <pthread_mutex_unlock@plt>
 65cfe2b:	e8 90 2b 75 01       	call   7d229c0 <pthread_mutex_unlock@plt>
 65d0b1f:	e8 8c 1e 75 01       	call   7d229b0 <pthread_mutex_lock@plt>
 65d15ba:	e8 01 15 75 01       	call   7d22ac0 <pthread_once@plt>
 65d2b94:	e8 27 ff 74 01       	call   7d22ac0 <pthread_once@plt>
 65d7514:	e8 a7 b5 74 01       	call   7d22ac0 <pthread_once@plt>
 65d9b1a:	e8 a1 8f 74 01       	call   7d22ac0 <pthread_once@plt>
 65dbf84:	e8 37 6b 74 01       	call   7d22ac0 <pthread_once@plt>
 65dfa0a:	e8 b1 30 74 01       	call   7d22ac0 <pthread_once@plt>
 65e3b8a:	e8 31 ef 73 01       	call   7d22ac0 <pthread_once@plt>
 65e87bd:	e8 fe a2 73 01       	call   7d22ac0 <pthread_once@plt>
 65e9496:	e8 25 96 73 01       	call   7d22ac0 <pthread_once@plt>
 65eb286:	e8 35 78 73 01       	call   7d22ac0 <pthread_once@plt>
 66d1405:	e8 f6 1b 65 01       	call   7d23000 <pthread_condattr_init@plt>
 66d141a:	e8 f1 1b 65 01       	call   7d23010 <pthread_condattr_setclock@plt>
 66d142d:	e8 fe 1b 65 01       	call   7d23030 <pthread_cond_init@plt>
 66d143d:	e8 de 1b 65 01       	call   7d23020 <pthread_condattr_destroy@plt>
 66d1474:	e8 f7 1b 65 01       	call   7d23070 <pthread_cond_destroy@plt>
 66d1494:	e8 97 1f 65 01       	call   7d23430 <pthread_cond_signal@plt>
 66d14b4:	e8 a7 1b 65 01       	call   7d23060 <pthread_cond_broadcast@plt>
 66d14eb:	e8 60 1b 65 01       	call   7d23050 <pthread_cond_wait@plt>
 66d1653:	e8 78 14 65 01       	call   7d22ad0 <pthread_cond_timedwait@plt>
 66d169b:	e8 b0 19 65 01       	call   7d23050 <pthread_cond_wait@plt>
 66d1826:	e8 15 1c 65 01       	call   7d23440 <pthread_mutexattr_init@plt>
 66d1837:	e8 14 1c 65 01       	call   7d23450 <pthread_mutexattr_settype@plt>
 66d184c:	e8 cf 11 65 01       	call   7d22a20 <pthread_mutex_init@plt>
 66d185a:	e8 01 1c 65 01       	call   7d23460 <pthread_mutexattr_destroy@plt>
 66d1919:	e8 f2 14 65 01       	call   7d22e10 <pthread_mutex_destroy@plt>
 66d1959:	e8 d2 14 65 01       	call   7d22e30 <pthread_mutex_trylock@plt>
 66d19b9:	e8 72 14 65 01       	call   7d22e30 <pthread_mutex_trylock@plt>
 66d1a19:	e8 92 0f 65 01       	call   7d229b0 <pthread_mutex_lock@plt>
 66d1a59:	e8 62 0f 65 01       	call   7d229c0 <pthread_mutex_unlock@plt>
 66d1eb0:	e8 1b 12 65 01       	call   7d230d0 <pthread_create@plt>
 66d1ec3:	e8 18 12 65 01       	call   7d230e0 <pthread_join@plt>
 673d8fe:	e8 3d 5c 5e 01       	call   7d23540 <pthread_attr_init@plt>
 673d913:	e8 38 5c 5e 01       	call   7d23550 <pthread_attr_setstacksize@plt>
 673d92c:	e8 9f 57 5e 01       	call   7d230d0 <pthread_create@plt>
 673d98b:	e8 50 57 5e 01       	call   7d230e0 <pthread_join@plt>
 673d9c9:	e8 92 5b 5e 01       	call   7d23560 <pthread_detach@plt>
 673d9e4:	e8 07 57 5e 01       	call   7d230f0 <pthread_self@plt>
 673da2a:	e8 c1 56 5e 01       	call   7d230f0 <pthread_self@plt>
 673da35:	e8 36 5b 5e 01       	call   7d23570 <pthread_setname_np@plt>
 673da77:	e8 74 56 5e 01       	call   7d230f0 <pthread_self@plt>
 673da85:	e8 f6 5a 5e 01       	call   7d23580 <pthread_getname_np@plt>
 673f002:	e8 e9 40 5e 01       	call   7d230f0 <pthread_self@plt>
 673f011:	e8 2a 45 5e 01       	call   7d23540 <pthread_attr_init@plt>
 673f01c:	e8 6f 45 5e 01       	call   7d23590 <pthread_getattr_np@plt>
 673f03c:	e8 5f 45 5e 01       	call   7d235a0 <pthread_attr_getstack@plt>
 673f057:	e8 54 45 5e 01       	call   7d235b0 <pthread_attr_destroy@plt>
 6ed6d76:	e8 45 bd e4 00       	call   7d22ac0 <pthread_once@plt>
 6ed7d2a:	e8 91 ad e4 00       	call   7d22ac0 <pthread_once@plt>
 6ed92aa:	e8 01 97 e4 00       	call   7d229b0 <pthread_mutex_lock@plt>
 6ed9356:	e8 65 96 e4 00       	call   7d229c0 <pthread_mutex_unlock@plt>
 6ed9bda:	e8 d1 8d e4 00       	call   7d229b0 <pthread_mutex_lock@plt>
 6ed9cd0:	e9 eb 8c e4 00       	jmp    7d229c0 <pthread_mutex_unlock@plt>
 6ede1f8:	e8 c3 47 e4 00       	call   7d229c0 <pthread_mutex_unlock@plt>
 6edef8f:	e8 1c 3a e4 00       	call   7d229b0 <pthread_mutex_lock@plt>
 6edf012:	e8 a9 39 e4 00       	call   7d229c0 <pthread_mutex_unlock@plt>
 6edf1b4:	e8 07 38 e4 00       	call   7d229c0 <pthread_mutex_unlock@plt>
 6edf89e:	e8 1d 31 e4 00       	call   7d229c0 <pthread_mutex_unlock@plt>
 6ee0194:	e8 27 29 e4 00       	call   7d22ac0 <pthread_once@plt>
 6eea512:	e8 99 84 e3 00       	call   7d229b0 <pthread_mutex_lock@plt>
 6eea71c:	e8 9f 82 e3 00       	call   7d229c0 <pthread_mutex_unlock@plt>
 6eeaeb4:	e8 07 7b e3 00       	call   7d229c0 <pthread_mutex_unlock@plt>
 6eebeca:	e8 f1 6b e3 00       	call   7d22ac0 <pthread_once@plt>
 6eed25a:	e8 61 58 e3 00       	call   7d22ac0 <pthread_once@plt>
 6eedc68:	e8 43 4d e3 00       	call   7d229b0 <pthread_mutex_lock@plt>
 6eedcd2:	e9 e9 4c e3 00       	jmp    7d229c0 <pthread_mutex_unlock@plt>
 6eedce3:	e8 d8 4c e3 00       	call   7d229c0 <pthread_mutex_unlock@plt>
 6eedcf2:	e8 b9 4c e3 00       	call   7d229b0 <pthread_mutex_lock@plt>
 6eedd12:	e9 a9 4c e3 00       	jmp    7d229c0 <pthread_mutex_unlock@plt>
 6eedd65:	e8 46 4c e3 00       	call   7d229b0 <pthread_mutex_lock@plt>
 6eedd8f:	e9 2c 4c e3 00       	jmp    7d229c0 <pthread_mutex_unlock@plt>
 6eedda9:	e8 02 4c e3 00       	call   7d229b0 <pthread_mutex_lock@plt>
 6eede1b:	e8 a0 4b e3 00       	call   7d229c0 <pthread_mutex_unlock@plt>
 6eede6f:	e8 3c 4b e3 00       	call   7d229b0 <pthread_mutex_lock@plt>
 6eedea2:	e8 09 4b e3 00       	call   7d229b0 <pthread_mutex_lock@plt>
 6eedebe:	e8 fd 4a e3 00       	call   7d229c0 <pthread_mutex_unlock@plt>
 6eedf01:	e8 aa 4a e3 00       	call   7d229b0 <pthread_mutex_lock@plt>
 6eedf7a:	e8 41 4a e3 00       	call   7d229c0 <pthread_mutex_unlock@plt>
 6eedf9a:	e9 21 4a e3 00       	jmp    7d229c0 <pthread_mutex_unlock@plt>
 6eee4a8:	e8 03 45 e3 00       	call   7d229b0 <pthread_mutex_lock@plt>
 6eee4d1:	e8 ea 44 e3 00       	call   7d229c0 <pthread_mutex_unlock@plt>
 6eee51d:	e8 2e 48 e3 00       	call   7d22d50 <pthread_cond_clockwait@plt>
 6eee531:	e8 8a 44 e3 00       	call   7d229c0 <pthread_mutex_unlock@plt>
 6eee558:	e8 53 44 e3 00       	call   7d229b0 <pthread_mutex_lock@plt>
 6eee5cd:	e8 de 43 e3 00       	call   7d229b0 <pthread_mutex_lock@plt>
 6eee655:	e8 56 43 e3 00       	call   7d229b0 <pthread_mutex_lock@plt>
 6eee6d8:	e8 d3 42 e3 00       	call   7d229b0 <pthread_mutex_lock@plt>
 6eee701:	e8 ba 42 e3 00       	call   7d229c0 <pthread_mutex_unlock@plt>
 6eee761:	e8 4a 42 e3 00       	call   7d229b0 <pthread_mutex_lock@plt>
 6eee781:	e8 3a 42 e3 00       	call   7d229c0 <pthread_mutex_unlock@plt>
 6eeee9b:	e8 10 3b e3 00       	call   7d229b0 <pthread_mutex_lock@plt>
 6eef2c0:	e9 fb 36 e3 00       	jmp    7d229c0 <pthread_mutex_unlock@plt>
 6eef78f:	e8 1c 32 e3 00       	call   7d229b0 <pthread_mutex_lock@plt>
 6eef816:	e8 a5 31 e3 00       	call   7d229c0 <pthread_mutex_unlock@plt>
 6eef8d2:	e8 d9 30 e3 00       	call   7d229b0 <pthread_mutex_lock@plt>
 6eef9c1:	e8 fa 2f e3 00       	call   7d229c0 <pthread_mutex_unlock@plt>
 6eefaa2:	e8 09 2f e3 00       	call   7d229b0 <pthread_mutex_lock@plt>
 6eefb47:	e8 74 2e e3 00       	call   7d229c0 <pthread_mutex_unlock@plt>
 6ef01db:	e8 d0 27 e3 00       	call   7d229b0 <pthread_mutex_lock@plt>
 6ef025e:	e8 5d 27 e3 00       	call   7d229c0 <pthread_mutex_unlock@plt>
 6ef03c6:	e9 f5 25 e3 00       	jmp    7d229c0 <pthread_mutex_unlock@plt>
 6ef0cf1:	e8 ba 1c e3 00       	call   7d229b0 <pthread_mutex_lock@plt>
 6ef0d27:	e8 94 1c e3 00       	call   7d229c0 <pthread_mutex_unlock@plt>
 6ef0e17:	e8 94 1b e3 00       	call   7d229b0 <pthread_mutex_lock@plt>
 6ef0e57:	e9 64 1b e3 00       	jmp    7d229c0 <pthread_mutex_unlock@plt>
 6ef0e99:	e8 12 1b e3 00       	call   7d229b0 <pthread_mutex_lock@plt>
 6ef0f5d:	e9 5e 1a e3 00       	jmp    7d229c0 <pthread_mutex_unlock@plt>
 6ef1057:	e8 54 19 e3 00       	call   7d229b0 <pthread_mutex_lock@plt>
 6ef1173:	e9 48 18 e3 00       	jmp    7d229c0 <pthread_mutex_unlock@plt>
 6ef1b97:	e8 14 0e e3 00       	call   7d229b0 <pthread_mutex_lock@plt>
 6ef1c8e:	e8 2d 0d e3 00       	call   7d229c0 <pthread_mutex_unlock@plt>
 6ef1e12:	e8 99 0b e3 00       	call   7d229b0 <pthread_mutex_lock@plt>
 6ef1ee0:	e8 db 0a e3 00       	call   7d229c0 <pthread_mutex_unlock@plt>
 6ef1fe2:	e8 c9 09 e3 00       	call   7d229b0 <pthread_mutex_lock@plt>
 6ef2129:	e8 92 08 e3 00       	call   7d229c0 <pthread_mutex_unlock@plt>
 6ef2577:	e8 34 04 e3 00       	call   7d229b0 <pthread_mutex_lock@plt>
 6ef266a:	e8 51 03 e3 00       	call   7d229c0 <pthread_mutex_unlock@plt>
 6ef2692:	e8 19 03 e3 00       	call   7d229b0 <pthread_mutex_lock@plt>
 6ef2715:	e9 a6 02 e3 00       	jmp    7d229c0 <pthread_mutex_unlock@plt>
 6ef2733:	e8 88 02 e3 00       	call   7d229c0 <pthread_mutex_unlock@plt>
 6ef2742:	e8 69 02 e3 00       	call   7d229b0 <pthread_mutex_lock@plt>
 6ef2920:	e8 8b 00 e3 00       	call   7d229b0 <pthread_mutex_lock@plt>
 6ef2a19:	e9 a2 ff e2 00       	jmp    7d229c0 <pthread_mutex_unlock@plt>
 6ef2e10:	e8 9b fb e2 00       	call   7d229b0 <pthread_mutex_lock@plt>
 6ef2efd:	e8 be fa e2 00       	call   7d229c0 <pthread_mutex_unlock@plt>
 6ef2f40:	e8 7b fa e2 00       	call   7d229c0 <pthread_mutex_unlock@plt>
 6ef30d0:	e8 db f8 e2 00       	call   7d229b0 <pthread_mutex_lock@plt>
 6ef3340:	e8 7b f6 e2 00       	call   7d229c0 <pthread_mutex_unlock@plt>
 6ef3419:	e8 a2 f5 e2 00       	call   7d229c0 <pthread_mutex_unlock@plt>
 6ef3cb0:	e8 fb ec e2 00       	call   7d229b0 <pthread_mutex_lock@plt>
 6ef3f0a:	e8 b1 ea e2 00       	call   7d229c0 <pthread_mutex_unlock@plt>
 6ef3fe7:	e8 d4 e9 e2 00       	call   7d229c0 <pthread_mutex_unlock@plt>
 6ef4470:	e8 3b e5 e2 00       	call   7d229b0 <pthread_mutex_lock@plt>
 6ef46ca:	e8 f1 e2 e2 00       	call   7d229c0 <pthread_mutex_unlock@plt>
 6ef47a3:	e8 18 e2 e2 00       	call   7d229c0 <pthread_mutex_unlock@plt>
 6ef4fb2:	e8 09 da e2 00       	call   7d229c0 <pthread_mutex_unlock@plt>
 6ef4fc6:	e8 f5 d9 e2 00       	call   7d229c0 <pthread_mutex_unlock@plt>
 6ef4fda:	e8 e1 d9 e2 00       	call   7d229c0 <pthread_mutex_unlock@plt>
 6ef4fee:	e8 cd d9 e2 00       	call   7d229c0 <pthread_mutex_unlock@plt>
 6ef50c8:	e8 f3 d8 e2 00       	call   7d229c0 <pthread_mutex_unlock@plt>
 6ef5218:	e8 a3 d7 e2 00       	call   7d229c0 <pthread_mutex_unlock@plt>
 6ef5238:	e8 83 d7 e2 00       	call   7d229c0 <pthread_mutex_unlock@plt>
 6ef525c:	e8 5f d7 e2 00       	call   7d229c0 <pthread_mutex_unlock@plt>
 6ef53e3:	e8 d8 d5 e2 00       	call   7d229c0 <pthread_mutex_unlock@plt>
 6ef5436:	e8 85 d5 e2 00       	call   7d229c0 <pthread_mutex_unlock@plt>
 6ef54ae:	e8 0d d5 e2 00       	call   7d229c0 <pthread_mutex_unlock@plt>
 6ef54dc:	e8 df d4 e2 00       	call   7d229c0 <pthread_mutex_unlock@plt>
 6ef54f8:	e8 c3 d4 e2 00       	call   7d229c0 <pthread_mutex_unlock@plt>
 6ef5528:	e8 93 d4 e2 00       	call   7d229c0 <pthread_mutex_unlock@plt>
 6ef6bc6:	e8 f5 be e2 00       	call   7d22ac0 <pthread_once@plt>
 6ef728a:	e8 21 b7 e2 00       	call   7d229b0 <pthread_mutex_lock@plt>
 6ef72da:	e8 e1 b6 e2 00       	call   7d229c0 <pthread_mutex_unlock@plt>
 6ef75ea:	e8 c1 b3 e2 00       	call   7d229b0 <pthread_mutex_lock@plt>
 6ef761d:	e9 9e b3 e2 00       	jmp    7d229c0 <pthread_mutex_unlock@plt>
 6ef765a:	e8 51 b3 e2 00       	call   7d229b0 <pthread_mutex_lock@plt>
 6ef7695:	e9 26 b3 e2 00       	jmp    7d229c0 <pthread_mutex_unlock@plt>
 6ef7882:	e8 29 b1 e2 00       	call   7d229b0 <pthread_mutex_lock@plt>
 6ef78ab:	e8 10 b1 e2 00       	call   7d229c0 <pthread_mutex_unlock@plt>
 6efb033:	e8 78 79 e2 00       	call   7d229b0 <pthread_mutex_lock@plt>
 6efb0a4:	e8 17 79 e2 00       	call   7d229c0 <pthread_mutex_unlock@plt>
 6efb596:	e8 25 74 e2 00       	call   7d229c0 <pthread_mutex_unlock@plt>
 6efd30c:	e8 af 56 e2 00       	call   7d229c0 <pthread_mutex_unlock@plt>
 6efd320:	e8 9b 56 e2 00       	call   7d229c0 <pthread_mutex_unlock@plt>
 6efe1e0:	e8 db 47 e2 00       	call   7d229c0 <pthread_mutex_unlock@plt>
 6eff4a0:	e8 1b 36 e2 00       	call   7d22ac0 <pthread_once@plt>
 6efff4a:	e8 61 2a e2 00       	call   7d229b0 <pthread_mutex_lock@plt>
 6efff9a:	e8 21 2a e2 00       	call   7d229c0 <pthread_mutex_unlock@plt>
 6f0ac74:	e8 47 7e e1 00       	call   7d22ac0 <pthread_once@plt>
 6f0bcbb:	e8 00 6e e1 00       	call   7d22ac0 <pthread_once@plt>
 6f0cbd6:	e8 e5 5e e1 00       	call   7d22ac0 <pthread_once@plt>
 6f0d62c:	e8 7f 53 e1 00       	call   7d229b0 <pthread_mutex_lock@plt>
 6f0d735:	e8 86 52 e1 00       	call   7d229c0 <pthread_mutex_unlock@plt>
 6f0d7e2:	e8 c9 51 e1 00       	call   7d229b0 <pthread_mutex_lock@plt>
 6f0d854:	e9 67 51 e1 00       	jmp    7d229c0 <pthread_mutex_unlock@plt>
 6f0d964:	e8 47 50 e1 00       	call   7d229b0 <pthread_mutex_lock@plt>
 6f0dce3:	e8 d8 4c e1 00       	call   7d229c0 <pthread_mutex_unlock@plt>
 6f0de4e:	e9 6d 4b e1 00       	jmp    7d229c0 <pthread_mutex_unlock@plt>
 6f0dff2:	e8 c9 49 e1 00       	call   7d229c0 <pthread_mutex_unlock@plt>
 6f0e0bf:	e8 ec 48 e1 00       	call   7d229b0 <pthread_mutex_lock@plt>
 6f0e4c3:	e8 f8 44 e1 00       	call   7d229c0 <pthread_mutex_unlock@plt>
 6f0e79a:	e8 21 42 e1 00       	call   7d229c0 <pthread_mutex_unlock@plt>
 6f0eb9d:	e8 1e 3e e1 00       	call   7d229c0 <pthread_mutex_unlock@plt>
 6f0ece4:	e8 c7 3c e1 00       	call   7d229b0 <pthread_mutex_lock@plt>
 6f0ef83:	e8 38 3a e1 00       	call   7d229c0 <pthread_mutex_unlock@plt>
 6f0f14b:	e9 70 38 e1 00       	jmp    7d229c0 <pthread_mutex_unlock@plt>
 6f0f20a:	e8 b1 37 e1 00       	call   7d229c0 <pthread_mutex_unlock@plt>
 6f0f2d9:	e8 d2 36 e1 00       	call   7d229b0 <pthread_mutex_lock@plt>
 6f0f7a3:	e8 18 32 e1 00       	call   7d229c0 <pthread_mutex_unlock@plt>
 6f0fa7a:	e8 41 2f e1 00       	call   7d229c0 <pthread_mutex_unlock@plt>
 6f0fdf8:	e8 c3 2b e1 00       	call   7d229c0 <pthread_mutex_unlock@plt>
 6f0fef2:	e8 c9 2a e1 00       	call   7d229c0 <pthread_mutex_unlock@plt>
 6f0ff30:	e8 8b 2a e1 00       	call   7d229c0 <pthread_mutex_unlock@plt>
 6f10f5a:	e8 61 1b e1 00       	call   7d22ac0 <pthread_once@plt>
 6f135ca:	e8 f1 f4 e0 00       	call   7d22ac0 <pthread_once@plt>
 6f141cb:	e8 e0 e7 e0 00       	call   7d229b0 <pthread_mutex_lock@plt>
 6f141df:	e8 dc e7 e0 00       	call   7d229c0 <pthread_mutex_unlock@plt>
 6f14211:	e8 9a e7 e0 00       	call   7d229b0 <pthread_mutex_lock@plt>
 6f14241:	e8 7a e7 e0 00       	call   7d229c0 <pthread_mutex_unlock@plt>
 6f142bb:	e8 f0 e6 e0 00       	call   7d229b0 <pthread_mutex_lock@plt>
 6f142d0:	e8 eb e6 e0 00       	call   7d229c0 <pthread_mutex_unlock@plt>
 6f14322:	e8 89 e6 e0 00       	call   7d229b0 <pthread_mutex_lock@plt>
 6f1449d:	e8 1e e5 e0 00       	call   7d229c0 <pthread_mutex_unlock@plt>
 6f145e2:	e8 c9 e3 e0 00       	call   7d229b0 <pthread_mutex_lock@plt>
 6f14624:	e8 97 e3 e0 00       	call   7d229c0 <pthread_mutex_unlock@plt>
 6f146a6:	e8 05 e3 e0 00       	call   7d229b0 <pthread_mutex_lock@plt>
 6f14810:	e8 ab e1 e0 00       	call   7d229c0 <pthread_mutex_unlock@plt>
 6f14a50:	e8 5b df e0 00       	call   7d229b0 <pthread_mutex_lock@plt>
 6f14c18:	e8 a3 dd e0 00       	call   7d229c0 <pthread_mutex_unlock@plt>
 6f14eab:	e8 10 db e0 00       	call   7d229c0 <pthread_mutex_unlock@plt>
 6f15075:	e8 36 d9 e0 00       	call   7d229b0 <pthread_mutex_lock@plt>
 6f1508f:	e9 2c d9 e0 00       	jmp    7d229c0 <pthread_mutex_unlock@plt>
 6f15434:	e8 77 d5 e0 00       	call   7d229b0 <pthread_mutex_lock@plt>
 6f15717:	e8 a4 d2 e0 00       	call   7d229c0 <pthread_mutex_unlock@plt>
 6f158fc:	e8 af d0 e0 00       	call   7d229b0 <pthread_mutex_lock@plt>
 6f15ceb:	e9 d0 cc e0 00       	jmp    7d229c0 <pthread_mutex_unlock@plt>
 6f15e54:	e8 57 cb e0 00       	call   7d229b0 <pthread_mutex_lock@plt>
 6f15fb3:	e8 08 ca e0 00       	call   7d229c0 <pthread_mutex_unlock@plt>
 6f16904:	e8 a7 c0 e0 00       	call   7d229b0 <pthread_mutex_lock@plt>
 6f16a93:	e8 28 bf e0 00       	call   7d229c0 <pthread_mutex_unlock@plt>
 6f16c79:	e8 32 bd e0 00       	call   7d229b0 <pthread_mutex_lock@plt>
 6f16e29:	e9 92 bb e0 00       	jmp    7d229c0 <pthread_mutex_unlock@plt>
 6f175e3:	e8 c8 b3 e0 00       	call   7d229b0 <pthread_mutex_lock@plt>
 6f177c5:	e8 f6 b1 e0 00       	call   7d229c0 <pthread_mutex_unlock@plt>
 6f18795:	e8 26 a2 e0 00       	call   7d229c0 <pthread_mutex_unlock@plt>
 6f187e8:	e8 d3 a1 e0 00       	call   7d229c0 <pthread_mutex_unlock@plt>
 6f1880b:	e8 b0 a1 e0 00       	call   7d229c0 <pthread_mutex_unlock@plt>
 6f18890:	e8 2b a1 e0 00       	call   7d229c0 <pthread_mutex_unlock@plt>
 6f188c1:	e8 fa a0 e0 00       	call   7d229c0 <pthread_mutex_unlock@plt>
 6f18909:	e8 b2 a0 e0 00       	call   7d229c0 <pthread_mutex_unlock@plt>
 6f19178:	e8 43 98 e0 00       	call   7d229c0 <pthread_mutex_unlock@plt>
 6f19197:	e8 24 98 e0 00       	call   7d229c0 <pthread_mutex_unlock@plt>
 6f19350:	e8 6b 96 e0 00       	call   7d229c0 <pthread_mutex_unlock@plt>
 6f1aa25:	e8 96 80 e0 00       	call   7d22ac0 <pthread_once@plt>
 6f1b9b7:	e8 f4 6f e0 00       	call   7d229b0 <pthread_mutex_lock@plt>
 6f1b9e5:	e8 d6 6f e0 00       	call   7d229c0 <pthread_mutex_unlock@plt>
 6f1bb3b:	e8 70 6e e0 00       	call   7d229b0 <pthread_mutex_lock@plt>
 6f1bb66:	e8 55 6e e0 00       	call   7d229c0 <pthread_mutex_unlock@plt>
 6f1bd99:	e8 12 6c e0 00       	call   7d229b0 <pthread_mutex_lock@plt>
 6f1bdf6:	e9 c5 6b e0 00       	jmp    7d229c0 <pthread_mutex_unlock@plt>
 6f1be59:	e8 52 6b e0 00       	call   7d229b0 <pthread_mutex_lock@plt>
 6f1bec8:	e9 f3 6a e0 00       	jmp    7d229c0 <pthread_mutex_unlock@plt>
 6f1c059:	e8 62 69 e0 00       	call   7d229c0 <pthread_mutex_unlock@plt>
 6f1c06e:	e8 4d 69 e0 00       	call   7d229c0 <pthread_mutex_unlock@plt>
 6f1c0ce:	e8 ed 68 e0 00       	call   7d229c0 <pthread_mutex_unlock@plt>
 6f1c0e2:	e8 d9 68 e0 00       	call   7d229c0 <pthread_mutex_unlock@plt>
 6f1c34a:	e8 61 66 e0 00       	call   7d229b0 <pthread_mutex_lock@plt>
 6f1c39a:	e8 21 66 e0 00       	call   7d229c0 <pthread_mutex_unlock@plt>
 6f1ca1e:	e8 8d 5f e0 00       	call   7d229b0 <pthread_mutex_lock@plt>
 6f1ca58:	e8 63 5f e0 00       	call   7d229c0 <pthread_mutex_unlock@plt>
 6f1cab3:	e9 08 5f e0 00       	jmp    7d229c0 <pthread_mutex_unlock@plt>
 6f222ad:	e8 fe 06 e0 00       	call   7d229b0 <pthread_mutex_lock@plt>
 6f223d3:	e8 e8 05 e0 00       	call   7d229c0 <pthread_mutex_unlock@plt>
 6f22500:	e8 ab 04 e0 00       	call   7d229b0 <pthread_mutex_lock@plt>
 6f22653:	e9 68 03 e0 00       	jmp    7d229c0 <pthread_mutex_unlock@plt>
 6f22fca:	e8 e1 f9 df 00       	call   7d229b0 <pthread_mutex_lock@plt>
 6f23091:	e9 2a f9 df 00       	jmp    7d229c0 <pthread_mutex_unlock@plt>
 6f23487:	e8 24 f5 df 00       	call   7d229b0 <pthread_mutex_lock@plt>
 6f23ab7:	e9 04 ef df 00       	jmp    7d229c0 <pthread_mutex_unlock@plt>
 6f24709:	e8 a2 e2 df 00       	call   7d229b0 <pthread_mutex_lock@plt>
 6f2476c:	e8 4f e2 df 00       	call   7d229c0 <pthread_mutex_unlock@plt>
 6f25ea0:	e8 0b cb df 00       	call   7d229b0 <pthread_mutex_lock@plt>
 6f25ef3:	e9 c8 ca df 00       	jmp    7d229c0 <pthread_mutex_unlock@plt>
 6f26262:	e8 49 c7 df 00       	call   7d229b0 <pthread_mutex_lock@plt>
 6f2745e:	e8 5d b5 df 00       	call   7d229c0 <pthread_mutex_unlock@plt>
 6f28208:	e8 b3 a7 df 00       	call   7d229c0 <pthread_mutex_unlock@plt>
 6f28248:	e8 73 a7 df 00       	call   7d229c0 <pthread_mutex_unlock@plt>
 6f28355:	e8 66 a6 df 00       	call   7d229c0 <pthread_mutex_unlock@plt>
 6f2839a:	e8 21 a6 df 00       	call   7d229c0 <pthread_mutex_unlock@plt>
 6f289ca:	e8 f1 9f df 00       	call   7d229c0 <pthread_mutex_unlock@plt>
 6f28bc3:	e8 f8 9d df 00       	call   7d229c0 <pthread_mutex_unlock@plt>
 6f2ba8e:	e8 2d 70 df 00       	call   7d22ac0 <pthread_once@plt>
 6f2c1e1:	e8 ca 67 df 00       	call   7d229b0 <pthread_mutex_lock@plt>
 6f2c1f5:	e9 c6 67 df 00       	jmp    7d229c0 <pthread_mutex_unlock@plt>
 6f2c23e:	e8 6d 67 df 00       	call   7d229b0 <pthread_mutex_lock@plt>
 6f2c258:	e8 63 67 df 00       	call   7d229c0 <pthread_mutex_unlock@plt>
 6f2c385:	e9 36 66 df 00       	jmp    7d229c0 <pthread_mutex_unlock@plt>
 6f2cb37:	e8 84 5f df 00       	call   7d22ac0 <pthread_once@plt>
 6f2e50e:	e8 9d 44 df 00       	call   7d229b0 <pthread_mutex_lock@plt>
 6f2e5d5:	e8 e6 43 df 00       	call   7d229c0 <pthread_mutex_unlock@plt>
 6f2e65e:	e8 4d 43 df 00       	call   7d229b0 <pthread_mutex_lock@plt>
 6f2e7c0:	e9 fb 41 df 00       	jmp    7d229c0 <pthread_mutex_unlock@plt>
 6f2e85e:	e8 4d 41 df 00       	call   7d229b0 <pthread_mutex_lock@plt>
 6f2e931:	e9 8a 40 df 00       	jmp    7d229c0 <pthread_mutex_unlock@plt>
 6f2f20e:	e8 ad 37 df 00       	call   7d229c0 <pthread_mutex_unlock@plt>
 6f2f222:	e8 99 37 df 00       	call   7d229c0 <pthread_mutex_unlock@plt>
 6f2f3a2:	e8 19 36 df 00       	call   7d229c0 <pthread_mutex_unlock@plt>
 6f2fed7:	e8 e4 2b df 00       	call   7d22ac0 <pthread_once@plt>
 6f30dd1:	e8 da 1b df 00       	call   7d229b0 <pthread_mutex_lock@plt>
 6f30de8:	e9 d3 1b df 00       	jmp    7d229c0 <pthread_mutex_unlock@plt>
 6f30e73:	e8 38 1b df 00       	call   7d229b0 <pthread_mutex_lock@plt>
 6f30e8b:	e8 30 1b df 00       	call   7d229c0 <pthread_mutex_unlock@plt>
 6f30f05:	e8 a6 1a df 00       	call   7d229b0 <pthread_mutex_lock@plt>
 6f30f35:	e9 86 1a df 00       	jmp    7d229c0 <pthread_mutex_unlock@plt>
 6f328cb:	e8 e0 00 df 00       	call   7d229b0 <pthread_mutex_lock@plt>
 6f32a92:	e9 29 ff de 00       	jmp    7d229c0 <pthread_mutex_unlock@plt>
 6f32b87:	e8 24 fe de 00       	call   7d229b0 <pthread_mutex_lock@plt>
 6f32c63:	e9 58 fd de 00       	jmp    7d229c0 <pthread_mutex_unlock@plt>
 6f33365:	e8 46 f6 de 00       	call   7d229b0 <pthread_mutex_lock@plt>
 6f333a0:	e9 1b f6 de 00       	jmp    7d229c0 <pthread_mutex_unlock@plt>
 6f333ea:	e8 c1 f5 de 00       	call   7d229b0 <pthread_mutex_lock@plt>
 6f334c8:	e9 f3 f4 de 00       	jmp    7d229c0 <pthread_mutex_unlock@plt>
 6f33601:	e8 aa f3 de 00       	call   7d229b0 <pthread_mutex_lock@plt>
 6f33702:	e8 b9 f2 de 00       	call   7d229c0 <pthread_mutex_unlock@plt>
 6f3397b:	e9 40 f0 de 00       	jmp    7d229c0 <pthread_mutex_unlock@plt>
 6f33c51:	e8 5a ed de 00       	call   7d229b0 <pthread_mutex_lock@plt>
 6f33d67:	e9 54 ec de 00       	jmp    7d229c0 <pthread_mutex_unlock@plt>
 6f33e01:	e8 ba eb de 00       	call   7d229c0 <pthread_mutex_unlock@plt>
 6f3438a:	e8 21 e6 de 00       	call   7d229b0 <pthread_mutex_lock@plt>
 6f34445:	e8 76 e5 de 00       	call   7d229c0 <pthread_mutex_unlock@plt>
 6f346e7:	e8 c4 e2 de 00       	call   7d229b0 <pthread_mutex_lock@plt>
 6f347b3:	e9 08 e2 de 00       	jmp    7d229c0 <pthread_mutex_unlock@plt>
 6f3480f:	e8 9c e1 de 00       	call   7d229b0 <pthread_mutex_lock@plt>
 6f34b76:	e9 45 de de 00       	jmp    7d229c0 <pthread_mutex_unlock@plt>
 6f35e18:	e8 a3 cb de 00       	call   7d229c0 <pthread_mutex_unlock@plt>
 6f36224:	e8 97 c7 de 00       	call   7d229c0 <pthread_mutex_unlock@plt>
 6f36254:	e8 67 c7 de 00       	call   7d229c0 <pthread_mutex_unlock@plt>
 6f363ce:	e8 ed c5 de 00       	call   7d229c0 <pthread_mutex_unlock@plt>
 6f36434:	e8 87 c5 de 00       	call   7d229c0 <pthread_mutex_unlock@plt>
 6f36485:	e8 36 c5 de 00       	call   7d229c0 <pthread_mutex_unlock@plt>
 6f364e5:	e8 d6 c4 de 00       	call   7d229c0 <pthread_mutex_unlock@plt>
 6f36566:	e8 55 c4 de 00       	call   7d229c0 <pthread_mutex_unlock@plt>
 6f3658a:	e8 31 c4 de 00       	call   7d229c0 <pthread_mutex_unlock@plt>
 6f366f4:	e8 c7 c2 de 00       	call   7d229c0 <pthread_mutex_unlock@plt>
 6f37272:	e8 49 b8 de 00       	call   7d22ac0 <pthread_once@plt>
 6f385b9:	e8 f2 a3 de 00       	call   7d229b0 <pthread_mutex_lock@plt>
 6f38666:	e9 55 a3 de 00       	jmp    7d229c0 <pthread_mutex_unlock@plt>
 6f389fa:	e8 b1 9f de 00       	call   7d229b0 <pthread_mutex_lock@plt>
 6f38bbb:	e8 00 9e de 00       	call   7d229c0 <pthread_mutex_unlock@plt>
 6f38c93:	e8 28 9d de 00       	call   7d229c0 <pthread_mutex_unlock@plt>
 6f394bb:	e8 f0 94 de 00       	call   7d229b0 <pthread_mutex_lock@plt>
 6f39543:	e8 78 94 de 00       	call   7d229c0 <pthread_mutex_unlock@plt>
 6f3a5ec:	e8 bf 83 de 00       	call   7d229b0 <pthread_mutex_lock@plt>
 6f3a632:	e9 89 83 de 00       	jmp    7d229c0 <pthread_mutex_unlock@plt>
 6f3a92b:	e8 80 80 de 00       	call   7d229b0 <pthread_mutex_lock@plt>
 6f3a9c4:	e8 f7 7f de 00       	call   7d229c0 <pthread_mutex_unlock@plt>
 6f3aaa4:	e8 17 7f de 00       	call   7d229c0 <pthread_mutex_unlock@plt>
 6f3b253:	e8 58 77 de 00       	call   7d229b0 <pthread_mutex_lock@plt>
 6f3b290:	e9 2b 77 de 00       	jmp    7d229c0 <pthread_mutex_unlock@plt>
 6f3b7fe:	e8 ad 71 de 00       	call   7d229b0 <pthread_mutex_lock@plt>
 6f3bdad:	e9 0e 6c de 00       	jmp    7d229c0 <pthread_mutex_unlock@plt>
 6f3bfea:	e8 d1 69 de 00       	call   7d229c0 <pthread_mutex_unlock@plt>
 6f3c1b7:	e8 04 68 de 00       	call   7d229c0 <pthread_mutex_unlock@plt>
 6f3c3e0:	e8 db 65 de 00       	call   7d229c0 <pthread_mutex_unlock@plt>
 6f3c422:	e8 99 65 de 00       	call   7d229c0 <pthread_mutex_unlock@plt>
 6f3c6d0:	e8 eb 62 de 00       	call   7d229c0 <pthread_mutex_unlock@plt>
 6f3c734:	e8 87 62 de 00       	call   7d229c0 <pthread_mutex_unlock@plt>
 6f3d394:	e8 27 57 de 00       	call   7d22ac0 <pthread_once@plt>
 6f3e1d2:	e8 d9 47 de 00       	call   7d229b0 <pthread_mutex_lock@plt>
 6f3e220:	e8 9b 47 de 00       	call   7d229c0 <pthread_mutex_unlock@plt>
 6f3e314:	e8 97 46 de 00       	call   7d229b0 <pthread_mutex_lock@plt>
 6f3e5cd:	e8 ee 43 de 00       	call   7d229c0 <pthread_mutex_unlock@plt>
 6f3f196:	e8 25 38 de 00       	call   7d229c0 <pthread_mutex_unlock@plt>
 6f3f1c7:	e8 f4 37 de 00       	call   7d229c0 <pthread_mutex_unlock@plt>
 6f3f777:	e8 44 33 de 00       	call   7d22ac0 <pthread_once@plt>
 6f3fc87:	e8 24 2d de 00       	call   7d229b0 <pthread_mutex_lock@plt>
 6f3fc9e:	e8 1d 2d de 00       	call   7d229c0 <pthread_mutex_unlock@plt>
 6f3ffaa:	e8 11 2a de 00       	call   7d229c0 <pthread_mutex_unlock@plt>
 6f3ffe7:	e8 c4 29 de 00       	call   7d229b0 <pthread_mutex_lock@plt>
 6f40003:	e8 b8 29 de 00       	call   7d229c0 <pthread_mutex_unlock@plt>
 6f4006a:	e8 41 29 de 00       	call   7d229b0 <pthread_mutex_lock@plt>
 6f404c1:	e8 ea 24 de 00       	call   7d229b0 <pthread_mutex_lock@plt>
 6f40505:	e9 b6 24 de 00       	jmp    7d229c0 <pthread_mutex_unlock@plt>
 6f41ff6:	e8 b5 09 de 00       	call   7d229b0 <pthread_mutex_lock@plt>
 6f42057:	e8 54 09 de 00       	call   7d229b0 <pthread_mutex_lock@plt>
 6f4207d:	e8 3e 09 de 00       	call   7d229c0 <pthread_mutex_unlock@plt>
 6f42288:	e8 23 07 de 00       	call   7d229b0 <pthread_mutex_lock@plt>
 6f422d1:	e8 ea 06 de 00       	call   7d229c0 <pthread_mutex_unlock@plt>
 6f42308:	e8 a3 06 de 00       	call   7d229b0 <pthread_mutex_lock@plt>
 6f42370:	e8 4b 06 de 00       	call   7d229c0 <pthread_mutex_unlock@plt>
 6f42491:	e8 1a 05 de 00       	call   7d229b0 <pthread_mutex_lock@plt>
 6f424ae:	e8 0d 05 de 00       	call   7d229c0 <pthread_mutex_unlock@plt>
 6f427a3:	e8 08 02 de 00       	call   7d229b0 <pthread_mutex_lock@plt>
 6f427bb:	e8 00 02 de 00       	call   7d229c0 <pthread_mutex_unlock@plt>
 6f42e9b:	e8 10 fb dd 00       	call   7d229b0 <pthread_mutex_lock@plt>
 6f433a0:	e8 0b f6 dd 00       	call   7d229b0 <pthread_mutex_lock@plt>
 6f435dc:	e8 cf f3 dd 00       	call   7d229b0 <pthread_mutex_lock@plt>
 6f43690:	e8 1b f3 dd 00       	call   7d229b0 <pthread_mutex_lock@plt>
 6f43d31:	e8 8a ec dd 00       	call   7d229c0 <pthread_mutex_unlock@plt>
 6f44825:	e8 86 e1 dd 00       	call   7d229b0 <pthread_mutex_lock@plt>
 6f4485d:	e8 5e e1 dd 00       	call   7d229c0 <pthread_mutex_unlock@plt>
 6f44a91:	e8 1a df dd 00       	call   7d229b0 <pthread_mutex_lock@plt>
 6f44aad:	e8 0e df dd 00       	call   7d229c0 <pthread_mutex_unlock@plt>
 6f44dd3:	e8 d8 db dd 00       	call   7d229b0 <pthread_mutex_lock@plt>
 6f44deb:	e8 d0 db dd 00       	call   7d229c0 <pthread_mutex_unlock@plt>
 6f457e5:	e8 c6 d1 dd 00       	call   7d229b0 <pthread_mutex_lock@plt>
 6f4586e:	e8 4d d1 dd 00       	call   7d229c0 <pthread_mutex_unlock@plt>
 6f47cb0:	e8 0b ad dd 00       	call   7d229c0 <pthread_mutex_unlock@plt>
 6f483bf:	e8 fc a5 dd 00       	call   7d229c0 <pthread_mutex_unlock@plt>
 6f48859:	e8 62 a1 dd 00       	call   7d229c0 <pthread_mutex_unlock@plt>
 6f49f6e:	e8 4d 8b dd 00       	call   7d22ac0 <pthread_once@plt>
 6f4a2c1:	e8 ea 86 dd 00       	call   7d229b0 <pthread_mutex_lock@plt>
 6f4a2d4:	e8 e7 86 dd 00       	call   7d229c0 <pthread_mutex_unlock@plt>
 6f4a8a7:	e8 14 81 dd 00       	call   7d229c0 <pthread_mutex_unlock@plt>
 6f4a946:	e8 65 80 dd 00       	call   7d229b0 <pthread_mutex_lock@plt>
 6f4a9fb:	e8 b0 7f dd 00       	call   7d229b0 <pthread_mutex_lock@plt>
 6f4aa5c:	e8 5f 7f dd 00       	call   7d229c0 <pthread_mutex_unlock@plt>
 6f4aa69:	e8 52 7f dd 00       	call   7d229c0 <pthread_mutex_unlock@plt>
 6f4aa75:	e8 36 7f dd 00       	call   7d229b0 <pthread_mutex_lock@plt>
 6f4aa8a:	e8 31 7f dd 00       	call   7d229c0 <pthread_mutex_unlock@plt>
 6f4ab64:	e8 57 7e dd 00       	call   7d229c0 <pthread_mutex_unlock@plt>
 6f4ac4d:	e9 6e 7d dd 00       	jmp    7d229c0 <pthread_mutex_unlock@plt>
 6f4acb4:	e8 f7 7c dd 00       	call   7d229b0 <pthread_mutex_lock@plt>
 6f4ad13:	e8 a8 7c dd 00       	call   7d229c0 <pthread_mutex_unlock@plt>
 6f4ad29:	e8 92 7c dd 00       	call   7d229c0 <pthread_mutex_unlock@plt>
 6f4ada0:	e8 0b 7c dd 00       	call   7d229b0 <pthread_mutex_lock@plt>
 6f4ae1a:	e9 a1 7b dd 00       	jmp    7d229c0 <pthread_mutex_unlock@plt>
 6f4aef0:	e8 bb 7a dd 00       	call   7d229b0 <pthread_mutex_lock@plt>
 6f4af9c:	e9 1f 7a dd 00       	jmp    7d229c0 <pthread_mutex_unlock@plt>
 6f4aff0:	e8 bb 79 dd 00       	call   7d229b0 <pthread_mutex_lock@plt>
 6f4b030:	e8 8b 79 dd 00       	call   7d229c0 <pthread_mutex_unlock@plt>
 6f4b049:	e8 62 79 dd 00       	call   7d229b0 <pthread_mutex_lock@plt>
 6f4b122:	e9 99 78 dd 00       	jmp    7d229c0 <pthread_mutex_unlock@plt>
 6f4b151:	e8 5a 78 dd 00       	call   7d229b0 <pthread_mutex_lock@plt>
 6f4b174:	e8 47 78 dd 00       	call   7d229c0 <pthread_mutex_unlock@plt>
 6f4b1a7:	e9 14 78 dd 00       	jmp    7d229c0 <pthread_mutex_unlock@plt>
 6f4b413:	e8 a8 75 dd 00       	call   7d229c0 <pthread_mutex_unlock@plt>
 6f4c42a:	e8 91 66 dd 00       	call   7d22ac0 <pthread_once@plt>
 6f4d8ea:	e8 d1 51 dd 00       	call   7d22ac0 <pthread_once@plt>
 6f4e8eb:	e8 c0 40 dd 00       	call   7d229b0 <pthread_mutex_lock@plt>
 6f4ea1f:	e9 9c 3f dd 00       	jmp    7d229c0 <pthread_mutex_unlock@plt>
 6f55217:	e8 94 d7 dc 00       	call   7d229b0 <pthread_mutex_lock@plt>
 6f55389:	e9 32 d6 dc 00       	jmp    7d229c0 <pthread_mutex_unlock@plt>
 6f5743d:	e8 6e b5 dc 00       	call   7d229b0 <pthread_mutex_lock@plt>
 6f574ed:	e9 ce b4 dc 00       	jmp    7d229c0 <pthread_mutex_unlock@plt>
 6f5970c:	e8 af 92 dc 00       	call   7d229c0 <pthread_mutex_unlock@plt>
 6f59b9a:	e8 21 8e dc 00       	call   7d229c0 <pthread_mutex_unlock@plt>
 6f5e3c4:	e8 f7 46 dc 00       	call   7d22ac0 <pthread_once@plt>
 6f5ebef:	e8 bc 3d dc 00       	call   7d229b0 <pthread_mutex_lock@plt>
 6f5f07b:	e8 40 39 dc 00       	call   7d229c0 <pthread_mutex_unlock@plt>
 6f5f588:	e8 33 34 dc 00       	call   7d229c0 <pthread_mutex_unlock@plt>
 6f5fcfa:	e8 b1 2c dc 00       	call   7d229b0 <pthread_mutex_lock@plt>
 6f5fd16:	e8 a5 2c dc 00       	call   7d229c0 <pthread_mutex_unlock@plt>
 6f5fd48:	e8 63 2c dc 00       	call   7d229b0 <pthread_mutex_lock@plt>
 6f5fd5b:	e8 60 2c dc 00       	call   7d229c0 <pthread_mutex_unlock@plt>
 6f5fdaa:	e8 01 2c dc 00       	call   7d229b0 <pthread_mutex_lock@plt>
 6f5fdfe:	e8 ad 2b dc 00       	call   7d229b0 <pthread_mutex_lock@plt>
 6f5fe30:	e8 8b 2b dc 00       	call   7d229c0 <pthread_mutex_unlock@plt>
 6f6003a:	e8 81 29 dc 00       	call   7d229c0 <pthread_mutex_unlock@plt>
 6f60328:	e8 83 26 dc 00       	call   7d229b0 <pthread_mutex_lock@plt>
 6f603f3:	e8 b8 25 dc 00       	call   7d229b0 <pthread_mutex_lock@plt>
 6f60417:	e8 a4 25 dc 00       	call   7d229c0 <pthread_mutex_unlock@plt>
 6f6043a:	e9 81 25 dc 00       	jmp    7d229c0 <pthread_mutex_unlock@plt>
 6f604db:	e8 d0 24 dc 00       	call   7d229b0 <pthread_mutex_lock@plt>
 6f60502:	e9 b9 24 dc 00       	jmp    7d229c0 <pthread_mutex_unlock@plt>
 6f60531:	e8 7a 24 dc 00       	call   7d229b0 <pthread_mutex_lock@plt>
 6f60591:	e8 2a 24 dc 00       	call   7d229c0 <pthread_mutex_unlock@plt>
 6f605a3:	e8 18 24 dc 00       	call   7d229c0 <pthread_mutex_unlock@plt>
 6f605b2:	e8 f9 23 dc 00       	call   7d229b0 <pthread_mutex_lock@plt>
 6f605ca:	e8 f1 23 dc 00       	call   7d229c0 <pthread_mutex_unlock@plt>
 6f60f28:	e8 83 1a dc 00       	call   7d229b0 <pthread_mutex_lock@plt>
 6f60f42:	e8 79 1a dc 00       	call   7d229c0 <pthread_mutex_unlock@plt>
 6f62a00:	e8 ab ff db 00       	call   7d229b0 <pthread_mutex_lock@plt>
 6f62b0b:	e8 b0 fe db 00       	call   7d229c0 <pthread_mutex_unlock@plt>
 6f632ff:	e8 ac f6 db 00       	call   7d229b0 <pthread_mutex_lock@plt>
 6f6336a:	e8 51 f6 db 00       	call   7d229c0 <pthread_mutex_unlock@plt>
 6f633a3:	e8 28 f7 db 00       	call   7d22ad0 <pthread_cond_timedwait@plt>
 6f633b3:	e8 08 f6 db 00       	call   7d229c0 <pthread_mutex_unlock@plt>
 6f633d9:	e8 d2 f5 db 00       	call   7d229b0 <pthread_mutex_lock@plt>
 6f6344c:	e8 5f f5 db 00       	call   7d229b0 <pthread_mutex_lock@plt>
 6f634a3:	e8 28 f6 db 00       	call   7d22ad0 <pthread_cond_timedwait@plt>
 6f634b3:	e8 08 f5 db 00       	call   7d229c0 <pthread_mutex_unlock@plt>
 6f634dd:	e8 ce f4 db 00       	call   7d229b0 <pthread_mutex_lock@plt>
 6f63ff1:	e8 ba e9 db 00       	call   7d229b0 <pthread_mutex_lock@plt>
 6f651cb:	e8 e0 d7 db 00       	call   7d229b0 <pthread_mutex_lock@plt>
 6f65216:	e8 95 d7 db 00       	call   7d229b0 <pthread_mutex_lock@plt>
 6f6527e:	e8 2d d7 db 00       	call   7d229b0 <pthread_mutex_lock@plt>
 6f652a5:	e8 16 d7 db 00       	call   7d229c0 <pthread_mutex_unlock@plt>
 6f652fb:	e8 b0 d6 db 00       	call   7d229b0 <pthread_mutex_lock@plt>
 6f65319:	e8 a2 d6 db 00       	call   7d229c0 <pthread_mutex_unlock@plt>
 6f67a40:	e8 6b af db 00       	call   7d229b0 <pthread_mutex_lock@plt>
 6f67b3e:	e8 7d ae db 00       	call   7d229c0 <pthread_mutex_unlock@plt>
 6f6a4f6:	e8 c5 84 db 00       	call   7d229c0 <pthread_mutex_unlock@plt>
 6f6acc0:	e8 fb 7c db 00       	call   7d229c0 <pthread_mutex_unlock@plt>
 6f6d855:	e9 66 51 db 00       	jmp    7d229c0 <pthread_mutex_unlock@plt>
 6f6d94d:	e8 6e 50 db 00       	call   7d229c0 <pthread_mutex_unlock@plt>
 6f6dafd:	e8 be 4e db 00       	call   7d229c0 <pthread_mutex_unlock@plt>
 6f6dddf:	e8 cc 4b db 00       	call   7d229b0 <pthread_mutex_lock@plt>
 6f6de10:	e8 9b 4b db 00       	call   7d229b0 <pthread_mutex_lock@plt>
 6f6de6e:	e8 3d 4b db 00       	call   7d229b0 <pthread_mutex_lock@plt>
 6f6de8c:	e8 2f 4b db 00       	call   7d229c0 <pthread_mutex_unlock@plt>
 6f6decb:	e8 e0 4a db 00       	call   7d229b0 <pthread_mutex_lock@plt>
 6f6e1ae:	e8 fd 47 db 00       	call   7d229b0 <pthread_mutex_lock@plt>
 6f6e2d4:	e8 e7 46 db 00       	call   7d229c0 <pthread_mutex_unlock@plt>
 6f6e4f3:	e9 c8 44 db 00       	jmp    7d229c0 <pthread_mutex_unlock@plt>
 6f6e557:	e8 54 44 db 00       	call   7d229b0 <pthread_mutex_lock@plt>
 6f7128d:	e8 2e 17 db 00       	call   7d229c0 <pthread_mutex_unlock@plt>
 6f725e0:	e9 db 03 db 00       	jmp    7d229c0 <pthread_mutex_unlock@plt>
 6f72b41:	e8 7a fe da 00       	call   7d229c0 <pthread_mutex_unlock@plt>
 6f72d48:	e8 73 fc da 00       	call   7d229c0 <pthread_mutex_unlock@plt>
 6f72e03:	e8 b8 fb da 00       	call   7d229c0 <pthread_mutex_unlock@plt>
 6f732c1:	e8 fa f6 da 00       	call   7d229c0 <pthread_mutex_unlock@plt>
 6f73af5:	e8 b6 ee da 00       	call   7d229b0 <pthread_mutex_lock@plt>
 6f74e14:	e8 a7 db da 00       	call   7d229c0 <pthread_mutex_unlock@plt>
 6f74f5a:	e8 61 da da 00       	call   7d229c0 <pthread_mutex_unlock@plt>
 6f75839:	e8 82 d1 da 00       	call   7d229c0 <pthread_mutex_unlock@plt>
 6f79e7e:	e8 2d 8b da 00       	call   7d229b0 <pthread_mutex_lock@plt>
 6f79f76:	e8 45 8a da 00       	call   7d229c0 <pthread_mutex_unlock@plt>
 6f7a2f3:	e9 c8 86 da 00       	jmp    7d229c0 <pthread_mutex_unlock@plt>
 6f7a44f:	e8 6c 85 da 00       	call   7d229c0 <pthread_mutex_unlock@plt>
 6f7a5cd:	e8 ee 83 da 00       	call   7d229c0 <pthread_mutex_unlock@plt>
 6f7a650:	e8 6b 83 da 00       	call   7d229c0 <pthread_mutex_unlock@plt>
 6f7b181:	e8 3a 78 da 00       	call   7d229c0 <pthread_mutex_unlock@plt>
 6f7c2bd:	e8 fe 66 da 00       	call   7d229c0 <pthread_mutex_unlock@plt>
 6f7c2c8:	e8 f3 66 da 00       	call   7d229c0 <pthread_mutex_unlock@plt>
 6f7c640:	e8 7b 63 da 00       	call   7d229c0 <pthread_mutex_unlock@plt>
 6f7da81:	e8 3a 4f da 00       	call   7d229c0 <pthread_mutex_unlock@plt>
 6f7dab4:	e8 f7 4e da 00       	call   7d229b0 <pthread_mutex_lock@plt>
 6f7dae5:	e8 c6 4e da 00       	call   7d229b0 <pthread_mutex_lock@plt>
 6f7db0b:	e8 b0 4e da 00       	call   7d229c0 <pthread_mutex_unlock@plt>
 6f7db1a:	e8 91 4e da 00       	call   7d229b0 <pthread_mutex_lock@plt>
 6f7db39:	e8 82 4e da 00       	call   7d229c0 <pthread_mutex_unlock@plt>
 6f7db91:	e8 2a 4e da 00       	call   7d229c0 <pthread_mutex_unlock@plt>
 6f7dc38:	e8 83 4d da 00       	call   7d229c0 <pthread_mutex_unlock@plt>
 6f7f216:	e8 a5 37 da 00       	call   7d229c0 <pthread_mutex_unlock@plt>
 6f7f3ec:	e8 cf 35 da 00       	call   7d229c0 <pthread_mutex_unlock@plt>
 6f7fa6f:	e8 4c 2f da 00       	call   7d229c0 <pthread_mutex_unlock@plt>
 6f7facd:	e8 ee 2e da 00       	call   7d229c0 <pthread_mutex_unlock@plt>
 6f7fd27:	e8 94 2c da 00       	call   7d229c0 <pthread_mutex_unlock@plt>
 6f85db3:	e8 08 cd d9 00       	call   7d22ac0 <pthread_once@plt>
 6f879d6:	e8 e5 b0 d9 00       	call   7d22ac0 <pthread_once@plt>
 6f87ec7:	e8 e4 aa d9 00       	call   7d229b0 <pthread_mutex_lock@plt>
 6f87eff:	e9 bc aa d9 00       	jmp    7d229c0 <pthread_mutex_unlock@plt>
 6f87f38:	e8 73 aa d9 00       	call   7d229b0 <pthread_mutex_lock@plt>
 6f87f70:	e9 4b aa d9 00       	jmp    7d229c0 <pthread_mutex_unlock@plt>
 6f87fa8:	e8 03 aa d9 00       	call   7d229b0 <pthread_mutex_lock@plt>
 6f87fe0:	e9 db a9 d9 00       	jmp    7d229c0 <pthread_mutex_unlock@plt>
 6f88913:	e8 98 a0 d9 00       	call   7d229b0 <pthread_mutex_lock@plt>
 6f8893b:	e8 80 a0 d9 00       	call   7d229c0 <pthread_mutex_unlock@plt>
 6f89000:	e8 bb 99 d9 00       	call   7d229c0 <pthread_mutex_unlock@plt>
 6f89014:	e8 a7 99 d9 00       	call   7d229c0 <pthread_mutex_unlock@plt>
 6f89028:	e8 93 99 d9 00       	call   7d229c0 <pthread_mutex_unlock@plt>
 6f89208:	e8 b3 97 d9 00       	call   7d229c0 <pthread_mutex_unlock@plt>
 6f8943e:	e8 6d 95 d9 00       	call   7d229b0 <pthread_mutex_lock@plt>
 6f8946a:	e8 51 95 d9 00       	call   7d229c0 <pthread_mutex_unlock@plt>
 6f894bd:	e8 fe 94 d9 00       	call   7d229c0 <pthread_mutex_unlock@plt>
 6f89e0a:	e8 b1 8c d9 00       	call   7d22ac0 <pthread_once@plt>
 6f8a157:	e8 54 88 d9 00       	call   7d229b0 <pthread_mutex_lock@plt>
 6f8a16c:	e8 4f 88 d9 00       	call   7d229c0 <pthread_mutex_unlock@plt>
 6f8a43a:	e8 71 85 d9 00       	call   7d229b0 <pthread_mutex_lock@plt>
 6f8a65a:	e8 61 83 d9 00       	call   7d229c0 <pthread_mutex_unlock@plt>
 6f8a928:	e8 83 80 d9 00       	call   7d229b0 <pthread_mutex_lock@plt>
 6f8a9b8:	e8 f3 7f d9 00       	call   7d229b0 <pthread_mutex_lock@plt>
 6f8aa0e:	e8 ad 7f d9 00       	call   7d229c0 <pthread_mutex_unlock@plt>
 6f8ac02:	e8 b9 7d d9 00       	call   7d229c0 <pthread_mutex_unlock@plt>
 6f8ac94:	e9 27 7d d9 00       	jmp    7d229c0 <pthread_mutex_unlock@plt>
 6f8b0d4:	e8 e7 78 d9 00       	call   7d229c0 <pthread_mutex_unlock@plt>
 6f8b32f:	e8 8c 76 d9 00       	call   7d229c0 <pthread_mutex_unlock@plt>
 6f8b437:	e8 74 75 d9 00       	call   7d229b0 <pthread_mutex_lock@plt>
 6f8b5a4:	e8 17 74 d9 00       	call   7d229c0 <pthread_mutex_unlock@plt>
 6f8b5ed:	e8 be 73 d9 00       	call   7d229b0 <pthread_mutex_lock@plt>
 6f8b622:	e8 99 73 d9 00       	call   7d229c0 <pthread_mutex_unlock@plt>
 6f8b991:	e8 2a 70 d9 00       	call   7d229c0 <pthread_mutex_unlock@plt>
 6f8ba6c:	e8 3f 6f d9 00       	call   7d229b0 <pthread_mutex_lock@plt>
 6f8bc1e:	e8 8d 6d d9 00       	call   7d229b0 <pthread_mutex_lock@plt>
 6f8c09c:	e8 0f 69 d9 00       	call   7d229b0 <pthread_mutex_lock@plt>
 6f8c43a:	e8 71 65 d9 00       	call   7d229b0 <pthread_mutex_lock@plt>
 6f8c574:	e8 47 64 d9 00       	call   7d229c0 <pthread_mutex_unlock@plt>
 6f8c5c9:	e8 e2 63 d9 00       	call   7d229b0 <pthread_mutex_lock@plt>
 6f8c70c:	e8 af 62 d9 00       	call   7d229c0 <pthread_mutex_unlock@plt>
 6f8c981:	e8 2a 60 d9 00       	call   7d229b0 <pthread_mutex_lock@plt>
 6f8c9fd:	e9 be 5f d9 00       	jmp    7d229c0 <pthread_mutex_unlock@plt>
 6f8dc54:	e8 57 4d d9 00       	call   7d229b0 <pthread_mutex_lock@plt>
 6f8dc84:	e8 37 4d d9 00       	call   7d229c0 <pthread_mutex_unlock@plt>
 6f8e1f4:	e9 c7 47 d9 00       	jmp    7d229c0 <pthread_mutex_unlock@plt>
 6f8e3e4:	e9 d7 45 d9 00       	jmp    7d229c0 <pthread_mutex_unlock@plt>
 6f8e52a:	e9 91 44 d9 00       	jmp    7d229c0 <pthread_mutex_unlock@plt>
 6f90afa:	e8 c1 1f d9 00       	call   7d22ac0 <pthread_once@plt>
 6f920fa:	e8 b1 08 d9 00       	call   7d229b0 <pthread_mutex_lock@plt>
 6f9214a:	e8 71 08 d9 00       	call   7d229c0 <pthread_mutex_unlock@plt>
 6f99668:	e8 43 93 d8 00       	call   7d229b0 <pthread_mutex_lock@plt>
 6f99744:	e9 77 92 d8 00       	jmp    7d229c0 <pthread_mutex_unlock@plt>
 6f999cc:	e8 df 8f d8 00       	call   7d229b0 <pthread_mutex_lock@plt>
 6f999fc:	e8 bf 8f d8 00       	call   7d229c0 <pthread_mutex_unlock@plt>
 6f9a5cd:	e8 de 83 d8 00       	call   7d229b0 <pthread_mutex_lock@plt>
 6fa4f8a:	e8 31 da d7 00       	call   7d229c0 <pthread_mutex_unlock@plt>
 6fa6d94:	e8 17 bc d7 00       	call   7d229b0 <pthread_mutex_lock@plt>
 6fac3ca:	e8 f1 66 d7 00       	call   7d22ac0 <pthread_once@plt>
 6faf0df:	e8 cc 38 d7 00       	call   7d229b0 <pthread_mutex_lock@plt>
 6faf378:	e8 43 36 d7 00       	call   7d229c0 <pthread_mutex_unlock@plt>
 6fafab3:	e8 08 2f d7 00       	call   7d229c0 <pthread_mutex_unlock@plt>
 6fb1c14:	e8 97 0d d7 00       	call   7d229b0 <pthread_mutex_lock@plt>
 6fb1ea6:	e8 15 0b d7 00       	call   7d229c0 <pthread_mutex_unlock@plt>
 6fb2640:	e8 7b 03 d7 00       	call   7d229c0 <pthread_mutex_unlock@plt>
 6fb2e60:	e9 5b fb d6 00       	jmp    7d229c0 <pthread_mutex_unlock@plt>
 6fb2e76:	e8 35 fb d6 00       	call   7d229b0 <pthread_mutex_lock@plt>
 6fb2fea:	e8 d1 f9 d6 00       	call   7d229c0 <pthread_mutex_unlock@plt>
 6fb3df4:	e8 b7 eb d6 00       	call   7d229b0 <pthread_mutex_lock@plt>
 6fb4086:	e8 35 e9 d6 00       	call   7d229c0 <pthread_mutex_unlock@plt>
 6fb4820:	e8 9b e1 d6 00       	call   7d229c0 <pthread_mutex_unlock@plt>
 6fb61f5:	e8 b6 c7 d6 00       	call   7d229b0 <pthread_mutex_lock@plt>
 6fb648f:	e8 2c c5 d6 00       	call   7d229c0 <pthread_mutex_unlock@plt>
 6fb6c87:	e8 34 bd d6 00       	call   7d229c0 <pthread_mutex_unlock@plt>
 6fbb713:	e8 a8 72 d6 00       	call   7d229c0 <pthread_mutex_unlock@plt>
 6fbbf09:	e8 b2 6a d6 00       	call   7d229c0 <pthread_mutex_unlock@plt>
 6fbd5b4:	e8 f7 53 d6 00       	call   7d229b0 <pthread_mutex_lock@plt>
 6fbd795:	e8 26 52 d6 00       	call   7d229c0 <pthread_mutex_unlock@plt>
 6fbdf9f:	e8 1c 4a d6 00       	call   7d229c0 <pthread_mutex_unlock@plt>
 6fc00a3:	e8 18 29 d6 00       	call   7d229c0 <pthread_mutex_unlock@plt>
 6fc08a9:	e8 12 21 d6 00       	call   7d229c0 <pthread_mutex_unlock@plt>
 6fc11ba:	e8 f1 17 d6 00       	call   7d229b0 <pthread_mutex_lock@plt>
 6fc120a:	e8 b1 17 d6 00       	call   7d229c0 <pthread_mutex_unlock@plt>
 6fc1cf7:	e8 b4 0c d6 00       	call   7d229b0 <pthread_mutex_lock@plt>
 6fc1d45:	e9 76 0c d6 00       	jmp    7d229c0 <pthread_mutex_unlock@plt>
 6fc1da8:	e8 03 0c d6 00       	call   7d229b0 <pthread_mutex_lock@plt>
 6fc1df3:	e8 c8 0b d6 00       	call   7d229c0 <pthread_mutex_unlock@plt>
 6fc1e0b:	e8 a0 0b d6 00       	call   7d229b0 <pthread_mutex_lock@plt>
 6fc1e4b:	e8 70 0b d6 00       	call   7d229c0 <pthread_mutex_unlock@plt>
 6fc1e67:	e8 44 0b d6 00       	call   7d229b0 <pthread_mutex_lock@plt>
 6fc41b6:	e8 f5 e7 d5 00       	call   7d229b0 <pthread_mutex_lock@plt>
 6fc427a:	e9 41 e7 d5 00       	jmp    7d229c0 <pthread_mutex_unlock@plt>
 6fc4c97:	e8 14 dd d5 00       	call   7d229b0 <pthread_mutex_lock@plt>
 6fc4cd1:	e8 ea dc d5 00       	call   7d229c0 <pthread_mutex_unlock@plt>
 6fc5221:	e8 8a d7 d5 00       	call   7d229b0 <pthread_mutex_lock@plt>
 6fc54db:	e8 e0 d4 d5 00       	call   7d229c0 <pthread_mutex_unlock@plt>
 6fc6b84:	e8 27 be d5 00       	call   7d229b0 <pthread_mutex_lock@plt>
 6fc8c2a:	e8 81 9d d5 00       	call   7d229b0 <pthread_mutex_lock@plt>
 6fc8c54:	e8 67 9d d5 00       	call   7d229c0 <pthread_mutex_unlock@plt>
 6fc9b84:	e8 27 8e d5 00       	call   7d229b0 <pthread_mutex_lock@plt>
 6fc9ba5:	e8 16 8e d5 00       	call   7d229c0 <pthread_mutex_unlock@plt>
 6fca1a0:	e8 1b 88 d5 00       	call   7d229c0 <pthread_mutex_unlock@plt>
 6fcb4eb:	e8 c0 74 d5 00       	call   7d229b0 <pthread_mutex_lock@plt>
 6fcb67c:	e8 3f 73 d5 00       	call   7d229c0 <pthread_mutex_unlock@plt>
 6fd22a4:	e8 17 07 d5 00       	call   7d229c0 <pthread_mutex_unlock@plt>
 6fd27b8:	e8 03 02 d5 00       	call   7d229c0 <pthread_mutex_unlock@plt>
 6fd2e4d:	e8 5e fb d4 00       	call   7d229b0 <pthread_mutex_lock@plt>
 6fd2e99:	e8 22 fb d4 00       	call   7d229c0 <pthread_mutex_unlock@plt>
 6fd2f02:	e8 b9 fa d4 00       	call   7d229c0 <pthread_mutex_unlock@plt>
 6fd3cd9:	e8 e2 ec d4 00       	call   7d229c0 <pthread_mutex_unlock@plt>
 6fd6cba:	e8 f1 bc d4 00       	call   7d229b0 <pthread_mutex_lock@plt>
 6fd6cef:	e8 cc bc d4 00       	call   7d229c0 <pthread_mutex_unlock@plt>
 6fd6fc1:	e8 ea b9 d4 00       	call   7d229b0 <pthread_mutex_lock@plt>
 6fd6fda:	e8 e1 b9 d4 00       	call   7d229c0 <pthread_mutex_unlock@plt>
 6fd7082:	e8 29 b9 d4 00       	call   7d229b0 <pthread_mutex_lock@plt>
 6fd70f7:	e8 c4 b8 d4 00       	call   7d229c0 <pthread_mutex_unlock@plt>
 6fd8a8f:	e8 1c 9f d4 00       	call   7d229b0 <pthread_mutex_lock@plt>
 6fd8ac0:	e8 fb 9e d4 00       	call   7d229c0 <pthread_mutex_unlock@plt>
 6fd8bf1:	e8 ba 9d d4 00       	call   7d229b0 <pthread_mutex_lock@plt>
 6fd8c0a:	e8 b1 9d d4 00       	call   7d229c0 <pthread_mutex_unlock@plt>
 6fd8c2e:	e8 7d 9d d4 00       	call   7d229b0 <pthread_mutex_lock@plt>
 6fd8ca5:	e8 16 9d d4 00       	call   7d229c0 <pthread_mutex_unlock@plt>
 6fd8d6f:	e8 3c 9c d4 00       	call   7d229b0 <pthread_mutex_lock@plt>
 6fd8da0:	e8 1b 9c d4 00       	call   7d229c0 <pthread_mutex_unlock@plt>
 6fd8ee1:	e8 ca 9a d4 00       	call   7d229b0 <pthread_mutex_lock@plt>
 6fd8efa:	e8 c1 9a d4 00       	call   7d229c0 <pthread_mutex_unlock@plt>
 6fd8f1e:	e8 8d 9a d4 00       	call   7d229b0 <pthread_mutex_lock@plt>
 6fd8f95:	e8 26 9a d4 00       	call   7d229c0 <pthread_mutex_unlock@plt>
 6fe016d:	e8 4e 29 d4 00       	call   7d22ac0 <pthread_once@plt>
 6fe0ddd:	e8 de 1b d4 00       	call   7d229c0 <pthread_mutex_unlock@plt>
 6fe0e14:	e8 97 1b d4 00       	call   7d229b0 <pthread_mutex_lock@plt>
 6fe10d4:	e8 e7 18 d4 00       	call   7d229c0 <pthread_mutex_unlock@plt>
 6fe10e4:	e8 c7 18 d4 00       	call   7d229b0 <pthread_mutex_lock@plt>
 6fe11bf:	e8 ec 17 d4 00       	call   7d229b0 <pthread_mutex_lock@plt>
 6fe122c:	e9 8f 17 d4 00       	jmp    7d229c0 <pthread_mutex_unlock@plt>
 6fe1add:	e8 de 0e d4 00       	call   7d229c0 <pthread_mutex_unlock@plt>
 6fe1b14:	e8 97 0e d4 00       	call   7d229b0 <pthread_mutex_lock@plt>
 6fe3400:	e9 bb f5 d3 00       	jmp    7d229c0 <pthread_mutex_unlock@plt>
 6fe3416:	e8 95 f5 d3 00       	call   7d229b0 <pthread_mutex_lock@plt>
 6fe358a:	e8 31 f4 d3 00       	call   7d229c0 <pthread_mutex_unlock@plt>
 6fe361a:	e8 91 f3 d3 00       	call   7d229b0 <pthread_mutex_lock@plt>
 6fe3681:	e8 3a f3 d3 00       	call   7d229c0 <pthread_mutex_unlock@plt>
 6fe369c:	e8 0f f3 d3 00       	call   7d229b0 <pthread_mutex_lock@plt>
 6fe38b8:	e8 03 f1 d3 00       	call   7d229c0 <pthread_mutex_unlock@plt>
 6fe58e4:	e8 c7 d0 d3 00       	call   7d229b0 <pthread_mutex_lock@plt>
 6fe5914:	e8 a7 d0 d3 00       	call   7d229c0 <pthread_mutex_unlock@plt>
 6feb666:	e8 55 74 d3 00       	call   7d22ac0 <pthread_once@plt>
 6fee2ab:	e8 10 48 d3 00       	call   7d22ac0 <pthread_once@plt>
 6feef8a:	e8 31 3b d3 00       	call   7d22ac0 <pthread_once@plt>
 6ff0da6:	e8 15 1d d3 00       	call   7d22ac0 <pthread_once@plt>
 6ff129a:	e8 11 17 d3 00       	call   7d229b0 <pthread_mutex_lock@plt>
 6ff12ea:	e8 d1 16 d3 00       	call   7d229c0 <pthread_mutex_unlock@plt>
 6ff70ee:	e8 bd b8 d2 00       	call   7d229b0 <pthread_mutex_lock@plt>
 6ff7116:	e8 a5 b8 d2 00       	call   7d229c0 <pthread_mutex_unlock@plt>
 6ffa29b:	e8 10 87 d2 00       	call   7d229b0 <pthread_mutex_lock@plt>
 6ffc139:	e8 82 68 d2 00       	call   7d229c0 <pthread_mutex_unlock@plt>
 6ffdd94:	e8 27 4d d2 00       	call   7d22ac0 <pthread_once@plt>
 6fff97b:	e8 40 31 d2 00       	call   7d22ac0 <pthread_once@plt>
 7000912:	e8 99 20 d2 00       	call   7d229b0 <pthread_mutex_lock@plt>
 7000f48:	e9 73 1a d2 00       	jmp    7d229c0 <pthread_mutex_unlock@plt>
 7002191:	e8 1a 08 d2 00       	call   7d229b0 <pthread_mutex_lock@plt>
 700227c:	e8 3f 07 d2 00       	call   7d229c0 <pthread_mutex_unlock@plt>
 7002323:	e8 88 06 d2 00       	call   7d229b0 <pthread_mutex_lock@plt>
 7002466:	e9 55 05 d2 00       	jmp    7d229c0 <pthread_mutex_unlock@plt>
 7002794:	e8 17 02 d2 00       	call   7d229b0 <pthread_mutex_lock@plt>
 7002848:	e9 73 01 d2 00       	jmp    7d229c0 <pthread_mutex_unlock@plt>
 700387b:	e8 30 f1 d1 00       	call   7d229b0 <pthread_mutex_lock@plt>
 7003936:	e8 85 f0 d1 00       	call   7d229c0 <pthread_mutex_unlock@plt>
 7005ed7:	e8 d4 ca d1 00       	call   7d229b0 <pthread_mutex_lock@plt>
 7005f35:	e9 86 ca d1 00       	jmp    7d229c0 <pthread_mutex_unlock@plt>
 7005f97:	e8 14 ca d1 00       	call   7d229b0 <pthread_mutex_lock@plt>
 7005ff5:	e9 c6 c9 d1 00       	jmp    7d229c0 <pthread_mutex_unlock@plt>
 70069f7:	e8 b4 bf d1 00       	call   7d229b0 <pthread_mutex_lock@plt>
 7006a5e:	e9 5d bf d1 00       	jmp    7d229c0 <pthread_mutex_unlock@plt>
 7006aeb:	e8 d0 bf d1 00       	call   7d22ac0 <pthread_once@plt>
 7006e81:	e8 2a bb d1 00       	call   7d229b0 <pthread_mutex_lock@plt>
 7006ea8:	e9 13 bb d1 00       	jmp    7d229c0 <pthread_mutex_unlock@plt>
 7007357:	e8 54 b6 d1 00       	call   7d229b0 <pthread_mutex_lock@plt>
 7007381:	e8 3a b6 d1 00       	call   7d229c0 <pthread_mutex_unlock@plt>
 70073da:	e8 d1 b5 d1 00       	call   7d229b0 <pthread_mutex_lock@plt>
 70076d0:	e8 db b2 d1 00       	call   7d229b0 <pthread_mutex_lock@plt>
 70077cf:	e9 ec b1 d1 00       	jmp    7d229c0 <pthread_mutex_unlock@plt>
 7007830:	e8 7b b1 d1 00       	call   7d229b0 <pthread_mutex_lock@plt>
 7007914:	e9 a7 b0 d1 00       	jmp    7d229c0 <pthread_mutex_unlock@plt>
 7008b25:	e8 86 9e d1 00       	call   7d229b0 <pthread_mutex_lock@plt>
 7008b49:	e9 72 9e d1 00       	jmp    7d229c0 <pthread_mutex_unlock@plt>
 7009093:	e8 28 99 d1 00       	call   7d229c0 <pthread_mutex_unlock@plt>
 70094a0:	e8 1b 95 d1 00       	call   7d229c0 <pthread_mutex_unlock@plt>
 70094c1:	e8 fa 94 d1 00       	call   7d229c0 <pthread_mutex_unlock@plt>
 700962a:	e8 91 93 d1 00       	call   7d229c0 <pthread_mutex_unlock@plt>
 7009b65:	e8 56 8e d1 00       	call   7d229c0 <pthread_mutex_unlock@plt>
 700a0e6:	e8 d5 88 d1 00       	call   7d229c0 <pthread_mutex_unlock@plt>
 700a10c:	e8 af 88 d1 00       	call   7d229c0 <pthread_mutex_unlock@plt>
 700a2c9:	e8 f2 86 d1 00       	call   7d229c0 <pthread_mutex_unlock@plt>
 700a316:	e8 a5 86 d1 00       	call   7d229c0 <pthread_mutex_unlock@plt>
 700a3a7:	e8 14 86 d1 00       	call   7d229c0 <pthread_mutex_unlock@plt>
 700a3d9:	e8 e2 85 d1 00       	call   7d229c0 <pthread_mutex_unlock@plt>
 700a3fd:	e8 be 85 d1 00       	call   7d229c0 <pthread_mutex_unlock@plt>
 700a48e:	e9 2d 85 d1 00       	jmp    7d229c0 <pthread_mutex_unlock@plt>
 700a4b2:	e8 09 85 d1 00       	call   7d229c0 <pthread_mutex_unlock@plt>
 700a50d:	e8 ae 84 d1 00       	call   7d229c0 <pthread_mutex_unlock@plt>
 700a8aa:	e8 11 81 d1 00       	call   7d229c0 <pthread_mutex_unlock@plt>
 700ac6d:	e8 3e 7d d1 00       	call   7d229b0 <pthread_mutex_lock@plt>
 700ac92:	e8 29 7d d1 00       	call   7d229c0 <pthread_mutex_unlock@plt>
 700aeee:	e8 bd 7a d1 00       	call   7d229b0 <pthread_mutex_lock@plt>
 700b017:	e9 a4 79 d1 00       	jmp    7d229c0 <pthread_mutex_unlock@plt>
 700b5f8:	e8 b3 73 d1 00       	call   7d229b0 <pthread_mutex_lock@plt>
 700b754:	e8 67 72 d1 00       	call   7d229c0 <pthread_mutex_unlock@plt>
 700b8bf:	e8 fc 70 d1 00       	call   7d229c0 <pthread_mutex_unlock@plt>
 700e474:	e8 47 46 d1 00       	call   7d22ac0 <pthread_once@plt>
 701035b:	e8 50 26 d1 00       	call   7d229b0 <pthread_mutex_lock@plt>
 7010447:	e8 74 25 d1 00       	call   7d229c0 <pthread_mutex_unlock@plt>
 7010528:	e8 93 24 d1 00       	call   7d229c0 <pthread_mutex_unlock@plt>
 7010853:	e8 58 21 d1 00       	call   7d229b0 <pthread_mutex_lock@plt>
 701096f:	e9 4c 20 d1 00       	jmp    7d229c0 <pthread_mutex_unlock@plt>
 70109f1:	e8 ba 1f d1 00       	call   7d229b0 <pthread_mutex_lock@plt>
 7010aa9:	e9 12 1f d1 00       	jmp    7d229c0 <pthread_mutex_unlock@plt>
 7010ad1:	e8 da 1e d1 00       	call   7d229b0 <pthread_mutex_lock@plt>
 7010b89:	e9 32 1e d1 00       	jmp    7d229c0 <pthread_mutex_unlock@plt>
 7010bba:	e8 f1 1d d1 00       	call   7d229b0 <pthread_mutex_lock@plt>
 7010c7f:	e9 3c 1d d1 00       	jmp    7d229c0 <pthread_mutex_unlock@plt>
 7010cb3:	e8 f8 1c d1 00       	call   7d229b0 <pthread_mutex_lock@plt>
 7010d5b:	e9 60 1c d1 00       	jmp    7d229c0 <pthread_mutex_unlock@plt>
 7010e48:	e8 73 1b d1 00       	call   7d229c0 <pthread_mutex_unlock@plt>
 7010e5c:	e8 5f 1b d1 00       	call   7d229c0 <pthread_mutex_unlock@plt>
 7010e70:	e8 4b 1b d1 00       	call   7d229c0 <pthread_mutex_unlock@plt>
 7010e84:	e8 37 1b d1 00       	call   7d229c0 <pthread_mutex_unlock@plt>
 701243a:	e8 81 06 d1 00       	call   7d22ac0 <pthread_once@plt>
 70169da:	e8 e1 c0 d0 00       	call   7d22ac0 <pthread_once@plt>
 702a03d:	e8 7e 8a cf 00       	call   7d22ac0 <pthread_once@plt>
 702aa0e:	e8 9d 7f cf 00       	call   7d229b0 <pthread_mutex_lock@plt>
 702aaa2:	e9 19 7f cf 00       	jmp    7d229c0 <pthread_mutex_unlock@plt>
 702b04a:	e8 61 79 cf 00       	call   7d229b0 <pthread_mutex_lock@plt>
 702b1d9:	e8 e2 77 cf 00       	call   7d229c0 <pthread_mutex_unlock@plt>
 702b207:	e8 a4 77 cf 00       	call   7d229b0 <pthread_mutex_lock@plt>
 702b7a3:	e8 18 72 cf 00       	call   7d229c0 <pthread_mutex_unlock@plt>
 702b9af:	e8 0c 70 cf 00       	call   7d229c0 <pthread_mutex_unlock@plt>
 702bd54:	e9 67 6c cf 00       	jmp    7d229c0 <pthread_mutex_unlock@plt>
 702c229:	e8 82 67 cf 00       	call   7d229b0 <pthread_mutex_lock@plt>
 702c531:	e8 8a 64 cf 00       	call   7d229c0 <pthread_mutex_unlock@plt>
 702cdb6:	e8 f5 5b cf 00       	call   7d229b0 <pthread_mutex_lock@plt>
 702cfd4:	e8 e7 59 cf 00       	call   7d229c0 <pthread_mutex_unlock@plt>
 702d8a0:	e8 0b 51 cf 00       	call   7d229b0 <pthread_mutex_lock@plt>
 702dad9:	e8 e2 4e cf 00       	call   7d229c0 <pthread_mutex_unlock@plt>
 702dd05:	e8 a6 4c cf 00       	call   7d229b0 <pthread_mutex_lock@plt>
 702def9:	e8 c2 4a cf 00       	call   7d229c0 <pthread_mutex_unlock@plt>
 702e025:	e8 86 49 cf 00       	call   7d229b0 <pthread_mutex_lock@plt>
 702e241:	e8 7a 47 cf 00       	call   7d229c0 <pthread_mutex_unlock@plt>
 702e371:	e8 3a 46 cf 00       	call   7d229b0 <pthread_mutex_lock@plt>
 702e561:	e8 5a 44 cf 00       	call   7d229c0 <pthread_mutex_unlock@plt>
 702e685:	e8 26 43 cf 00       	call   7d229b0 <pthread_mutex_lock@plt>
 702e8a1:	e8 1a 41 cf 00       	call   7d229c0 <pthread_mutex_unlock@plt>
 702e9d1:	e8 da 3f cf 00       	call   7d229b0 <pthread_mutex_lock@plt>
 702ebb9:	e8 02 3e cf 00       	call   7d229c0 <pthread_mutex_unlock@plt>
 702ece1:	e8 ca 3c cf 00       	call   7d229b0 <pthread_mutex_lock@plt>
 702ee99:	e8 22 3b cf 00       	call   7d229c0 <pthread_mutex_unlock@plt>
 702f060:	e8 5b 39 cf 00       	call   7d229c0 <pthread_mutex_unlock@plt>
 702f0d6:	e8 e5 38 cf 00       	call   7d229c0 <pthread_mutex_unlock@plt>
 702f2c4:	e8 f7 36 cf 00       	call   7d229c0 <pthread_mutex_unlock@plt>
 702f302:	e8 b9 36 cf 00       	call   7d229c0 <pthread_mutex_unlock@plt>
 702f33c:	e8 7f 36 cf 00       	call   7d229c0 <pthread_mutex_unlock@plt>
 702f37a:	e8 41 36 cf 00       	call   7d229c0 <pthread_mutex_unlock@plt>
 702f3b4:	e8 07 36 cf 00       	call   7d229c0 <pthread_mutex_unlock@plt>
 702f3f2:	e8 c9 35 cf 00       	call   7d229c0 <pthread_mutex_unlock@plt>
 702f42c:	e8 8f 35 cf 00       	call   7d229c0 <pthread_mutex_unlock@plt>
 703096a:	e8 51 21 cf 00       	call   7d22ac0 <pthread_once@plt>
 7038248:	e8 73 a8 ce 00       	call   7d22ac0 <pthread_once@plt>
 703842e:	e8 7d a5 ce 00       	call   7d229b0 <pthread_mutex_lock@plt>
 7038454:	e8 67 a5 ce 00       	call   7d229c0 <pthread_mutex_unlock@plt>
 70384ba:	e8 f1 a4 ce 00       	call   7d229b0 <pthread_mutex_lock@plt>
 70384ef:	e8 cc a4 ce 00       	call   7d229c0 <pthread_mutex_unlock@plt>
 7039110:	e8 9b 98 ce 00       	call   7d229b0 <pthread_mutex_lock@plt>
 70394f2:	e8 c9 94 ce 00       	call   7d229c0 <pthread_mutex_unlock@plt>
 7039f07:	e8 a4 8a ce 00       	call   7d229b0 <pthread_mutex_lock@plt>
 7039fbf:	e8 fc 89 ce 00       	call   7d229c0 <pthread_mutex_unlock@plt>
 703a39f:	e9 1c 86 ce 00       	jmp    7d229c0 <pthread_mutex_unlock@plt>
 703a6aa:	e8 11 83 ce 00       	call   7d229c0 <pthread_mutex_unlock@plt>
 703aa73:	e8 48 7f ce 00       	call   7d229c0 <pthread_mutex_unlock@plt>
 703aaf8:	e8 c3 7e ce 00       	call   7d229c0 <pthread_mutex_unlock@plt>
 703b60a:	e8 b1 74 ce 00       	call   7d22ac0 <pthread_once@plt>
 70435ba:	e8 01 f5 cd 00       	call   7d22ac0 <pthread_once@plt>
 7043a3a:	e8 71 ef cd 00       	call   7d229b0 <pthread_mutex_lock@plt>
 7043a8a:	e8 31 ef cd 00       	call   7d229c0 <pthread_mutex_unlock@plt>
 704bf83:	e8 38 6b cd 00       	call   7d22ac0 <pthread_once@plt>
 704c974:	e8 47 61 cd 00       	call   7d22ac0 <pthread_once@plt>
 704cf76:	e8 45 5b cd 00       	call   7d22ac0 <pthread_once@plt>
 704e766:	e8 55 43 cd 00       	call   7d22ac0 <pthread_once@plt>
 705398b:	e8 30 f1 cc 00       	call   7d22ac0 <pthread_once@plt>
 7077f2f:	e8 8c ab ca 00       	call   7d22ac0 <pthread_once@plt>
 7078c25:	e8 96 9e ca 00       	call   7d22ac0 <pthread_once@plt>
 70b5fc8:	e8 f3 ca c6 00       	call   7d22ac0 <pthread_once@plt>
 70ee4d1:	e8 ea 45 c3 00       	call   7d22ac0 <pthread_once@plt>
 70f1c76:	e8 45 0e c3 00       	call   7d22ac0 <pthread_once@plt>
 70f3096:	e8 15 f9 c2 00       	call   7d229b0 <pthread_mutex_lock@plt>
 70f31b2:	e8 09 f8 c2 00       	call   7d229c0 <pthread_mutex_unlock@plt>
 70f35f9:	e8 b2 f3 c2 00       	call   7d229b0 <pthread_mutex_lock@plt>
 70f375c:	e8 5f f2 c2 00       	call   7d229c0 <pthread_mutex_unlock@plt>
 70f3b99:	e8 22 ee c2 00       	call   7d229c0 <pthread_mutex_unlock@plt>
 70f5448:	e8 73 d6 c2 00       	call   7d22ac0 <pthread_once@plt>
 70f5f1c:	e8 8f ca c2 00       	call   7d229b0 <pthread_mutex_lock@plt>
 70f609c:	e8 1f c9 c2 00       	call   7d229c0 <pthread_mutex_unlock@plt>
 70f734d:	e8 6e b7 c2 00       	call   7d22ac0 <pthread_once@plt>
 70fc1bb:	e8 00 69 c2 00       	call   7d22ac0 <pthread_once@plt>
 70fd4e6:	e8 d5 55 c2 00       	call   7d22ac0 <pthread_once@plt>
 71038de:	e8 dd f1 c1 00       	call   7d22ac0 <pthread_once@plt>
 71086ca:	e8 e1 a2 c1 00       	call   7d229b0 <pthread_mutex_lock@plt>
 710871a:	e8 a1 a2 c1 00       	call   7d229c0 <pthread_mutex_unlock@plt>
 7109f22:	e8 99 8b c1 00       	call   7d22ac0 <pthread_once@plt>
 710b776:	e8 45 73 c1 00       	call   7d22ac0 <pthread_once@plt>
 710c873:	e8 38 61 c1 00       	call   7d229b0 <pthread_mutex_lock@plt>
 710c8af:	e8 0c 61 c1 00       	call   7d229c0 <pthread_mutex_unlock@plt>
 710cafa:	e8 b1 5e c1 00       	call   7d229b0 <pthread_mutex_lock@plt>
 710cc60:	e8 5b 5d c1 00       	call   7d229c0 <pthread_mutex_unlock@plt>
 710d762:	e8 49 52 c1 00       	call   7d229b0 <pthread_mutex_lock@plt>
 710d7cc:	e8 ef 51 c1 00       	call   7d229c0 <pthread_mutex_unlock@plt>
 710da4f:	e8 bc 53 c1 00       	call   7d22e10 <pthread_mutex_destroy@plt>
 710ef67:	e8 a4 3e c1 00       	call   7d22e10 <pthread_mutex_destroy@plt>
 710f049:	e8 72 39 c1 00       	call   7d229c0 <pthread_mutex_unlock@plt>
 710f98e:	e8 2d 31 c1 00       	call   7d22ac0 <pthread_once@plt>
 7113924:	e8 97 f1 c0 00       	call   7d22ac0 <pthread_once@plt>
 711780d:	e8 ae b2 c0 00       	call   7d22ac0 <pthread_once@plt>
 7117c61:	e8 ba ad c0 00       	call   7d22a20 <pthread_mutex_init@plt>
 7117cf5:	e8 b6 ac c0 00       	call   7d229b0 <pthread_mutex_lock@plt>
 7117d59:	e8 62 ac c0 00       	call   7d229c0 <pthread_mutex_unlock@plt>
 7117da5:	e8 06 ac c0 00       	call   7d229b0 <pthread_mutex_lock@plt>
 7117e41:	e8 7a ab c0 00       	call   7d229c0 <pthread_mutex_unlock@plt>
 7117f1a:	e8 a1 aa c0 00       	call   7d229c0 <pthread_mutex_unlock@plt>
 7117fa5:	e8 06 aa c0 00       	call   7d229b0 <pthread_mutex_lock@plt>
 7117fda:	e8 e1 a9 c0 00       	call   7d229c0 <pthread_mutex_unlock@plt>
 711801a:	e8 91 a9 c0 00       	call   7d229b0 <pthread_mutex_lock@plt>
 711807f:	e9 3c a9 c0 00       	jmp    7d229c0 <pthread_mutex_unlock@plt>
 7118c5b:	e8 60 9e c0 00       	call   7d22ac0 <pthread_once@plt>
 711905a:	e8 51 99 c0 00       	call   7d229b0 <pthread_mutex_lock@plt>
 711919a:	e8 21 98 c0 00       	call   7d229c0 <pthread_mutex_unlock@plt>
 711a69a:	e8 21 84 c0 00       	call   7d22ac0 <pthread_once@plt>
 712104a:	e8 71 1a c0 00       	call   7d22ac0 <pthread_once@plt>
 712114e:	e8 6d 19 c0 00       	call   7d22ac0 <pthread_once@plt>
 7121231:	e8 8a 18 c0 00       	call   7d22ac0 <pthread_once@plt>
 71272df:	e8 dc b7 bf 00       	call   7d22ac0 <pthread_once@plt>
 7134dfa:	e8 b1 db be 00       	call   7d229b0 <pthread_mutex_lock@plt>
 7134e4e:	e8 6d db be 00       	call   7d229c0 <pthread_mutex_unlock@plt>
 7141934:	e8 87 10 be 00       	call   7d229c0 <pthread_mutex_unlock@plt>
 714362e:	e8 8d f4 bd 00       	call   7d22ac0 <pthread_once@plt>
 7148d4a:	e8 71 9d bd 00       	call   7d22ac0 <pthread_once@plt>
 714b9ca:	e8 f1 70 bd 00       	call   7d22ac0 <pthread_once@plt>
 714eb3a:	e8 81 3f bd 00       	call   7d22ac0 <pthread_once@plt>
 7157279:	e8 42 b8 bc 00       	call   7d22ac0 <pthread_once@plt>
 7161701:	e8 ba 13 bc 00       	call   7d22ac0 <pthread_once@plt>
 7162ba5:	e8 06 fe bb 00       	call   7d229b0 <pthread_mutex_lock@plt>
 7162bee:	e8 cd fd bb 00       	call   7d229c0 <pthread_mutex_unlock@plt>
 7162e30:	e8 7b fb bb 00       	call   7d229b0 <pthread_mutex_lock@plt>
 7162e79:	e8 42 fb bb 00       	call   7d229c0 <pthread_mutex_unlock@plt>
 7164257:	e8 54 e7 bb 00       	call   7d229b0 <pthread_mutex_lock@plt>
 716429c:	e8 1f e7 bb 00       	call   7d229c0 <pthread_mutex_unlock@plt>
 7164756:	e8 65 e2 bb 00       	call   7d229c0 <pthread_mutex_unlock@plt>
 71648a1:	e8 1a e1 bb 00       	call   7d229c0 <pthread_mutex_unlock@plt>
 7164d8b:	e8 30 dd bb 00       	call   7d22ac0 <pthread_once@plt>
 7165212:	e8 99 d7 bb 00       	call   7d229b0 <pthread_mutex_lock@plt>
 7165231:	e8 8a d7 bb 00       	call   7d229c0 <pthread_mutex_unlock@plt>
 716529f:	e8 0c d7 bb 00       	call   7d229b0 <pthread_mutex_lock@plt>
 71652c9:	e9 f2 d6 bb 00       	jmp    7d229c0 <pthread_mutex_unlock@plt>
 71652ec:	e9 cf d6 bb 00       	jmp    7d229c0 <pthread_mutex_unlock@plt>
 7165348:	e8 63 d6 bb 00       	call   7d229b0 <pthread_mutex_lock@plt>
 7165376:	e9 45 d6 bb 00       	jmp    7d229c0 <pthread_mutex_unlock@plt>
 7165700:	e8 ab d2 bb 00       	call   7d229b0 <pthread_mutex_lock@plt>
 716574e:	e9 6d d2 bb 00       	jmp    7d229c0 <pthread_mutex_unlock@plt>
 71658ed:	e8 be d0 bb 00       	call   7d229b0 <pthread_mutex_lock@plt>
 716591f:	e8 9c d0 bb 00       	call   7d229c0 <pthread_mutex_unlock@plt>
 7166a4a:	e8 61 bf bb 00       	call   7d229b0 <pthread_mutex_lock@plt>
 7166cda:	e8 e1 bc bb 00       	call   7d229c0 <pthread_mutex_unlock@plt>
 7167245:	e8 66 b7 bb 00       	call   7d229b0 <pthread_mutex_lock@plt>
 716725b:	e8 60 b7 bb 00       	call   7d229c0 <pthread_mutex_unlock@plt>
 7167288:	e8 33 b7 bb 00       	call   7d229c0 <pthread_mutex_unlock@plt>
 7167ae8:	e8 c3 ae bb 00       	call   7d229b0 <pthread_mutex_lock@plt>
 7167bae:	e8 0d ae bb 00       	call   7d229c0 <pthread_mutex_unlock@plt>
 7167c95:	e9 26 ad bb 00       	jmp    7d229c0 <pthread_mutex_unlock@plt>
 7167ed6:	e8 d5 aa bb 00       	call   7d229b0 <pthread_mutex_lock@plt>
 7167f84:	e8 37 aa bb 00       	call   7d229c0 <pthread_mutex_unlock@plt>
 71683e9:	e9 d2 a5 bb 00       	jmp    7d229c0 <pthread_mutex_unlock@plt>
 7168953:	e8 58 a0 bb 00       	call   7d229b0 <pthread_mutex_lock@plt>
 71689db:	e8 d0 9f bb 00       	call   7d229b0 <pthread_mutex_lock@plt>
 71689fe:	e8 bd 9f bb 00       	call   7d229c0 <pthread_mutex_unlock@plt>
 7168a34:	e8 17 a3 bb 00       	call   7d22d50 <pthread_cond_clockwait@plt>
 7168a44:	e8 77 9f bb 00       	call   7d229c0 <pthread_mutex_unlock@plt>
 7168a6c:	e8 3f 9f bb 00       	call   7d229b0 <pthread_mutex_lock@plt>
 7168acf:	e8 dc 9e bb 00       	call   7d229b0 <pthread_mutex_lock@plt>
 7168af2:	e8 c9 9e bb 00       	call   7d229c0 <pthread_mutex_unlock@plt>
 7168b49:	e8 62 9e bb 00       	call   7d229b0 <pthread_mutex_lock@plt>
 7168c13:	e8 98 9d bb 00       	call   7d229b0 <pthread_mutex_lock@plt>
 7168c3d:	e8 7e 9d bb 00       	call   7d229c0 <pthread_mutex_unlock@plt>
 71695d6:	e8 d5 93 bb 00       	call   7d229b0 <pthread_mutex_lock@plt>
 7169638:	e8 83 93 bb 00       	call   7d229c0 <pthread_mutex_unlock@plt>
 7169643:	e8 78 93 bb 00       	call   7d229c0 <pthread_mutex_unlock@plt>
 7169652:	e8 59 93 bb 00       	call   7d229b0 <pthread_mutex_lock@plt>
 716966b:	e8 50 93 bb 00       	call   7d229c0 <pthread_mutex_unlock@plt>
 7169a12:	e8 99 8f bb 00       	call   7d229b0 <pthread_mutex_lock@plt>
 7169a3f:	e9 7c 8f bb 00       	jmp    7d229c0 <pthread_mutex_unlock@plt>
 7169b85:	e8 26 8e bb 00       	call   7d229b0 <pthread_mutex_lock@plt>
 7169dd0:	e8 eb 8b bb 00       	call   7d229c0 <pthread_mutex_unlock@plt>
 716a31f:	e8 8c 86 bb 00       	call   7d229b0 <pthread_mutex_lock@plt>
 716a688:	e8 33 83 bb 00       	call   7d229c0 <pthread_mutex_unlock@plt>
 716af80:	e8 2b 7a bb 00       	call   7d229b0 <pthread_mutex_lock@plt>
 716afad:	e8 0e 7a bb 00       	call   7d229c0 <pthread_mutex_unlock@plt>
 716b2bb:	e8 00 77 bb 00       	call   7d229c0 <pthread_mutex_unlock@plt>
 716b3b9:	e8 f2 75 bb 00       	call   7d229b0 <pthread_mutex_lock@plt>
 716b3dd:	e8 de 75 bb 00       	call   7d229c0 <pthread_mutex_unlock@plt>
 716b75e:	e8 5d 72 bb 00       	call   7d229c0 <pthread_mutex_unlock@plt>
 716bbcb:	e8 f0 6d bb 00       	call   7d229c0 <pthread_mutex_unlock@plt>
 716bc01:	e8 aa 6d bb 00       	call   7d229b0 <pthread_mutex_lock@plt>
 716bc17:	e8 a4 6d bb 00       	call   7d229c0 <pthread_mutex_unlock@plt>
 716bc34:	e8 87 6d bb 00       	call   7d229c0 <pthread_mutex_unlock@plt>
 716bff6:	e8 c5 69 bb 00       	call   7d229c0 <pthread_mutex_unlock@plt>
 716c05d:	e8 5e 69 bb 00       	call   7d229c0 <pthread_mutex_unlock@plt>
 716c64a:	e8 71 64 bb 00       	call   7d22ac0 <pthread_once@plt>
 716d371:	e8 3a 56 bb 00       	call   7d229b0 <pthread_mutex_lock@plt>
 716d3a3:	e8 18 56 bb 00       	call   7d229c0 <pthread_mutex_unlock@plt>
 716e267:	e8 44 47 bb 00       	call   7d229b0 <pthread_mutex_lock@plt>
 716e296:	e8 15 47 bb 00       	call   7d229b0 <pthread_mutex_lock@plt>
 716e2f5:	e8 c6 46 bb 00       	call   7d229c0 <pthread_mutex_unlock@plt>
 716e303:	e8 b8 46 bb 00       	call   7d229c0 <pthread_mutex_unlock@plt>
 716e30f:	e8 9c 46 bb 00       	call   7d229b0 <pthread_mutex_lock@plt>
 716e328:	e8 93 46 bb 00       	call   7d229c0 <pthread_mutex_unlock@plt>
 716e34d:	e9 6e 46 bb 00       	jmp    7d229c0 <pthread_mutex_unlock@plt>
 716e707:	e8 a4 42 bb 00       	call   7d229b0 <pthread_mutex_lock@plt>
 716e736:	e8 75 42 bb 00       	call   7d229b0 <pthread_mutex_lock@plt>
 716e74f:	e8 6c 42 bb 00       	call   7d229c0 <pthread_mutex_unlock@plt>
 716e7d2:	e8 e9 41 bb 00       	call   7d229c0 <pthread_mutex_unlock@plt>
 716e81e:	e8 2d 45 bb 00       	call   7d22d50 <pthread_cond_clockwait@plt>
 716e82e:	e8 8d 41 bb 00       	call   7d229c0 <pthread_mutex_unlock@plt>
 716e857:	e8 54 41 bb 00       	call   7d229b0 <pthread_mutex_lock@plt>
 716e8f9:	e8 b2 40 bb 00       	call   7d229b0 <pthread_mutex_lock@plt>
 716e966:	e8 e5 43 bb 00       	call   7d22d50 <pthread_cond_clockwait@plt>
 716e976:	e8 45 40 bb 00       	call   7d229c0 <pthread_mutex_unlock@plt>
 716e9a8:	e8 03 40 bb 00       	call   7d229b0 <pthread_mutex_lock@plt>
 716eaaa:	e8 01 3f bb 00       	call   7d229b0 <pthread_mutex_lock@plt>
 716eb26:	e8 95 3e bb 00       	call   7d229c0 <pthread_mutex_unlock@plt>
 716ebb0:	e8 0b 3e bb 00       	call   7d229c0 <pthread_mutex_unlock@plt>
 716eebb:	e8 f0 3a bb 00       	call   7d229b0 <pthread_mutex_lock@plt>
 716eee1:	e8 da 3a bb 00       	call   7d229c0 <pthread_mutex_unlock@plt>
 716efad:	e8 fe 39 bb 00       	call   7d229b0 <pthread_mutex_lock@plt>
 716f111:	e8 aa 38 bb 00       	call   7d229c0 <pthread_mutex_unlock@plt>
 716f56d:	e8 3e 34 bb 00       	call   7d229b0 <pthread_mutex_lock@plt>
 716f663:	e8 48 33 bb 00       	call   7d229b0 <pthread_mutex_lock@plt>
 716f6d2:	e8 e9 32 bb 00       	call   7d229c0 <pthread_mutex_unlock@plt>
 716f72e:	e8 7d 32 bb 00       	call   7d229b0 <pthread_mutex_lock@plt>
 716f75e:	e8 5d 32 bb 00       	call   7d229c0 <pthread_mutex_unlock@plt>
 716f7cc:	e8 df 31 bb 00       	call   7d229b0 <pthread_mutex_lock@plt>
 716f869:	e8 42 31 bb 00       	call   7d229b0 <pthread_mutex_lock@plt>
 716f890:	e8 2b 31 bb 00       	call   7d229c0 <pthread_mutex_unlock@plt>
 716f9c3:	e8 f8 2f bb 00       	call   7d229c0 <pthread_mutex_unlock@plt>
 716f9d9:	e8 d2 2f bb 00       	call   7d229b0 <pthread_mutex_lock@plt>
 716f9fc:	e8 bf 2f bb 00       	call   7d229c0 <pthread_mutex_unlock@plt>
 716fb03:	e9 b8 2e bb 00       	jmp    7d229c0 <pthread_mutex_unlock@plt>
 716fe75:	e8 46 2b bb 00       	call   7d229c0 <pthread_mutex_unlock@plt>
 71701dd:	e8 ce 27 bb 00       	call   7d229b0 <pthread_mutex_lock@plt>
 717023d:	e8 7e 27 bb 00       	call   7d229c0 <pthread_mutex_unlock@plt>
 7170253:	e8 58 27 bb 00       	call   7d229b0 <pthread_mutex_lock@plt>
 7170274:	e8 47 27 bb 00       	call   7d229c0 <pthread_mutex_unlock@plt>
 71702e2:	e8 d9 26 bb 00       	call   7d229c0 <pthread_mutex_unlock@plt>
 7171408:	e8 a3 15 bb 00       	call   7d229b0 <pthread_mutex_lock@plt>
 717141b:	e8 a0 15 bb 00       	call   7d229c0 <pthread_mutex_unlock@plt>
 7171aff:	e8 ac 0e bb 00       	call   7d229b0 <pthread_mutex_lock@plt>
 7171b1b:	e8 a0 0e bb 00       	call   7d229c0 <pthread_mutex_unlock@plt>
 7171c23:	e8 88 0d bb 00       	call   7d229b0 <pthread_mutex_lock@plt>
 7171c5e:	e9 5d 0d bb 00       	jmp    7d229c0 <pthread_mutex_unlock@plt>
 7171c8c:	e8 1f 0d bb 00       	call   7d229b0 <pthread_mutex_lock@plt>
 7171ca5:	e8 16 0d bb 00       	call   7d229c0 <pthread_mutex_unlock@plt>
 7171cbe:	e8 ed 0c bb 00       	call   7d229b0 <pthread_mutex_lock@plt>
 7171d31:	e8 8a 0c bb 00       	call   7d229c0 <pthread_mutex_unlock@plt>
 71725a6:	e8 05 04 bb 00       	call   7d229b0 <pthread_mutex_lock@plt>
 7172738:	e8 83 02 bb 00       	call   7d229c0 <pthread_mutex_unlock@plt>
 7173034:	e8 77 f9 ba 00       	call   7d229b0 <pthread_mutex_lock@plt>
 717306a:	e8 41 f9 ba 00       	call   7d229b0 <pthread_mutex_lock@plt>
 7173095:	e8 26 f9 ba 00       	call   7d229c0 <pthread_mutex_unlock@plt>
 71730a1:	e8 0a f9 ba 00       	call   7d229b0 <pthread_mutex_lock@plt>
 71730b8:	e8 03 f9 ba 00       	call   7d229c0 <pthread_mutex_unlock@plt>
 71730c0:	e8 fb f8 ba 00       	call   7d229c0 <pthread_mutex_unlock@plt>
 71737fb:	e8 b0 f1 ba 00       	call   7d229b0 <pthread_mutex_lock@plt>
 7173886:	e8 25 f1 ba 00       	call   7d229b0 <pthread_mutex_lock@plt>
 71738aa:	e8 11 f1 ba 00       	call   7d229c0 <pthread_mutex_unlock@plt>
 71738e8:	e8 63 f4 ba 00       	call   7d22d50 <pthread_cond_clockwait@plt>
 71738f8:	e8 c3 f0 ba 00       	call   7d229c0 <pthread_mutex_unlock@plt>
 7173921:	e8 8a f0 ba 00       	call   7d229b0 <pthread_mutex_lock@plt>
 7175233:	e8 08 e3 ba 00       	call   7d23540 <pthread_attr_init@plt>
 7175240:	e8 3b e6 ba 00       	call   7d23880 <pthread_attr_setdetachstate@plt>
 7175283:	e8 c8 e2 ba 00       	call   7d23550 <pthread_attr_setstacksize@plt>
 71753ae:	e8 1d dd ba 00       	call   7d230d0 <pthread_create@plt>
 71753c6:	e8 e5 e1 ba 00       	call   7d235b0 <pthread_attr_destroy@plt>
 7175ad6:	e8 d5 da ba 00       	call   7d235b0 <pthread_attr_destroy@plt>
 71772b6:	e8 05 b8 ba 00       	call   7d22ac0 <pthread_once@plt>
 717aa87:	e8 34 80 ba 00       	call   7d22ac0 <pthread_once@plt>
 717ab19:	e8 a2 7f ba 00       	call   7d22ac0 <pthread_once@plt>
 717abab:	e8 10 7f ba 00       	call   7d22ac0 <pthread_once@plt>
 717ad41:	e8 6a 7c ba 00       	call   7d229b0 <pthread_mutex_lock@plt>
 717adca:	e8 f1 7b ba 00       	call   7d229c0 <pthread_mutex_unlock@plt>
 717adfb:	e8 b0 7b ba 00       	call   7d229b0 <pthread_mutex_lock@plt>
 717ae0c:	e8 af 7b ba 00       	call   7d229c0 <pthread_mutex_unlock@plt>
 717ae41:	e8 6a 7b ba 00       	call   7d229b0 <pthread_mutex_lock@plt>
 717aecf:	e8 ec 7a ba 00       	call   7d229c0 <pthread_mutex_unlock@plt>
 717aefb:	e8 b0 7a ba 00       	call   7d229b0 <pthread_mutex_lock@plt>
 717af0c:	e8 af 7a ba 00       	call   7d229c0 <pthread_mutex_unlock@plt>
 717af3b:	e8 70 7a ba 00       	call   7d229b0 <pthread_mutex_lock@plt>
 717af55:	e8 66 7a ba 00       	call   7d229c0 <pthread_mutex_unlock@plt>
 717b23b:	e8 70 77 ba 00       	call   7d229b0 <pthread_mutex_lock@plt>
 717b24f:	e8 6c 77 ba 00       	call   7d229c0 <pthread_mutex_unlock@plt>
 717b2d4:	e8 d7 76 ba 00       	call   7d229b0 <pthread_mutex_lock@plt>
 717b2e8:	e8 d3 76 ba 00       	call   7d229c0 <pthread_mutex_unlock@plt>
 717c2a2:	e8 19 68 ba 00       	call   7d22ac0 <pthread_once@plt>
 717c52d:	e8 7e 64 ba 00       	call   7d229b0 <pthread_mutex_lock@plt>
 717c7d7:	e8 e4 61 ba 00       	call   7d229c0 <pthread_mutex_unlock@plt>
 717cf78:	e8 43 5a ba 00       	call   7d229c0 <pthread_mutex_unlock@plt>
 717d158:	e8 63 58 ba 00       	call   7d229c0 <pthread_mutex_unlock@plt>
 717df6d:	e8 4e 4b ba 00       	call   7d22ac0 <pthread_once@plt>
 717f056:	e8 65 3a ba 00       	call   7d22ac0 <pthread_once@plt>
 717febb:	e8 00 2c ba 00       	call   7d22ac0 <pthread_once@plt>
 718300b:	e8 b0 fa b9 00       	call   7d22ac0 <pthread_once@plt>
 718427a:	e8 41 e8 b9 00       	call   7d22ac0 <pthread_once@plt>
 7184a5f:	e8 4c df b9 00       	call   7d229b0 <pthread_mutex_lock@plt>
 7184ab7:	e8 04 df b9 00       	call   7d229c0 <pthread_mutex_unlock@plt>
 718576a:	e8 41 d2 b9 00       	call   7d229b0 <pthread_mutex_lock@plt>
 7185803:	e8 b8 d1 b9 00       	call   7d229c0 <pthread_mutex_unlock@plt>
 7185a2c:	e8 8f cf b9 00       	call   7d229c0 <pthread_mutex_unlock@plt>
 7185cc6:	e8 f5 cc b9 00       	call   7d229c0 <pthread_mutex_unlock@plt>
 7185f7f:	e8 3c cb b9 00       	call   7d22ac0 <pthread_once@plt>
 7186967:	e8 44 c0 b9 00       	call   7d229b0 <pthread_mutex_lock@plt>
 7186ba3:	e8 18 be b9 00       	call   7d229c0 <pthread_mutex_unlock@plt>
 7186e05:	e8 16 bc b9 00       	call   7d22a20 <pthread_mutex_init@plt>
 7186e75:	e8 a6 bb b9 00       	call   7d22a20 <pthread_mutex_init@plt>
 7186f3d:	e8 6e ba b9 00       	call   7d229b0 <pthread_mutex_lock@plt>
 718705a:	e8 61 b9 b9 00       	call   7d229c0 <pthread_mutex_unlock@plt>
 71873d2:	e8 d9 b5 b9 00       	call   7d229b0 <pthread_mutex_lock@plt>
 71873ed:	e8 ce b5 b9 00       	call   7d229c0 <pthread_mutex_unlock@plt>
 71874d2:	e8 39 b9 b9 00       	call   7d22e10 <pthread_mutex_destroy@plt>
 718757a:	e8 91 b8 b9 00       	call   7d22e10 <pthread_mutex_destroy@plt>
 71879e9:	e8 c2 af b9 00       	call   7d229b0 <pthread_mutex_lock@plt>
 7187a6c:	e8 4f af b9 00       	call   7d229c0 <pthread_mutex_unlock@plt>
 7187b25:	e8 86 ae b9 00       	call   7d229b0 <pthread_mutex_lock@plt>
 7187bc2:	e8 f9 ad b9 00       	call   7d229c0 <pthread_mutex_unlock@plt>
 7187c16:	e8 95 ad b9 00       	call   7d229b0 <pthread_mutex_lock@plt>
 7187cb6:	e8 05 ad b9 00       	call   7d229c0 <pthread_mutex_unlock@plt>
 7187ed3:	e8 e8 aa b9 00       	call   7d229c0 <pthread_mutex_unlock@plt>
 7188021:	e8 8a a9 b9 00       	call   7d229b0 <pthread_mutex_lock@plt>
 7188046:	e8 75 a9 b9 00       	call   7d229c0 <pthread_mutex_unlock@plt>
 7188876:	e8 35 a1 b9 00       	call   7d229b0 <pthread_mutex_lock@plt>
 718a074:	e8 47 89 b9 00       	call   7d229c0 <pthread_mutex_unlock@plt>
 718af6b:	e8 50 7a b9 00       	call   7d229c0 <pthread_mutex_unlock@plt>
 718b7d9:	e8 d2 71 b9 00       	call   7d229b0 <pthread_mutex_lock@plt>
 718b877:	e8 44 71 b9 00       	call   7d229c0 <pthread_mutex_unlock@plt>
 718b893:	e8 28 71 b9 00       	call   7d229c0 <pthread_mutex_unlock@plt>
 718b8b8:	e8 f3 70 b9 00       	call   7d229b0 <pthread_mutex_lock@plt>
 718b922:	e8 99 70 b9 00       	call   7d229c0 <pthread_mutex_unlock@plt>
 718b998:	e8 13 70 b9 00       	call   7d229b0 <pthread_mutex_lock@plt>
 718ba44:	e8 77 6f b9 00       	call   7d229c0 <pthread_mutex_unlock@plt>
 718c4e3:	e8 d8 64 b9 00       	call   7d229c0 <pthread_mutex_unlock@plt>
 718e587:	e8 34 45 b9 00       	call   7d22ac0 <pthread_once@plt>
 718ea9c:	e8 4f 46 b9 00       	call   7d230f0 <pthread_self@plt>
 718f2aa:	e8 11 37 b9 00       	call   7d229c0 <pthread_mutex_unlock@plt>
 718f2ea:	e8 c1 36 b9 00       	call   7d229b0 <pthread_mutex_lock@plt>
 718f52e:	e8 7d 34 b9 00       	call   7d229b0 <pthread_mutex_lock@plt>
 718f563:	e8 48 34 b9 00       	call   7d229b0 <pthread_mutex_lock@plt>
 718f57c:	e8 3f 34 b9 00       	call   7d229c0 <pthread_mutex_unlock@plt>
 718f592:	e9 29 34 b9 00       	jmp    7d229c0 <pthread_mutex_unlock@plt>
 718f5ab:	e8 00 34 b9 00       	call   7d229b0 <pthread_mutex_lock@plt>
 718f621:	e8 9a 33 b9 00       	call   7d229c0 <pthread_mutex_unlock@plt>
 7191b92:	e8 19 0e b9 00       	call   7d229b0 <pthread_mutex_lock@plt>
 7191d2b:	e8 90 0c b9 00       	call   7d229c0 <pthread_mutex_unlock@plt>
 7192604:	e8 a7 03 b9 00       	call   7d229b0 <pthread_mutex_lock@plt>
 7192682:	e8 39 03 b9 00       	call   7d229c0 <pthread_mutex_unlock@plt>
 71926bf:	e8 8c 06 b9 00       	call   7d22d50 <pthread_cond_clockwait@plt>
 71926cf:	e8 ec 02 b9 00       	call   7d229c0 <pthread_mutex_unlock@plt>
 71926f8:	e8 b3 02 b9 00       	call   7d229b0 <pthread_mutex_lock@plt>
 7192773:	e8 38 02 b9 00       	call   7d229b0 <pthread_mutex_lock@plt>
 71927ce:	e8 7d 05 b9 00       	call   7d22d50 <pthread_cond_clockwait@plt>
 71927de:	e8 dd 01 b9 00       	call   7d229c0 <pthread_mutex_unlock@plt>
 7192810:	e8 9b 01 b9 00       	call   7d229b0 <pthread_mutex_lock@plt>
 7193967:	e8 84 f7 b8 00       	call   7d230f0 <pthread_self@plt>
 7198ca7:	e8 14 9e b8 00       	call   7d22ac0 <pthread_once@plt>
 719bc07:	e8 b4 6e b8 00       	call   7d22ac0 <pthread_once@plt>
 719c7b7:	e8 04 63 b8 00       	call   7d22ac0 <pthread_once@plt>
 719cf1d:	e8 8e 5a b8 00       	call   7d229b0 <pthread_mutex_lock@plt>
 719d346:	e9 75 56 b8 00       	jmp    7d229c0 <pthread_mutex_unlock@plt>
 719d49e:	e8 0d 55 b8 00       	call   7d229b0 <pthread_mutex_lock@plt>
 719d5c0:	e9 fb 53 b8 00       	jmp    7d229c0 <pthread_mutex_unlock@plt>
 719d6d1:	e9 ea 52 b8 00       	jmp    7d229c0 <pthread_mutex_unlock@plt>
 719d70e:	e8 9d 52 b8 00       	call   7d229b0 <pthread_mutex_lock@plt>
 719d7b1:	e8 0a 52 b8 00       	call   7d229c0 <pthread_mutex_unlock@plt>
 719db0a:	e8 a1 4e b8 00       	call   7d229b0 <pthread_mutex_lock@plt>
 719dbc4:	e9 f7 4d b8 00       	jmp    7d229c0 <pthread_mutex_unlock@plt>
 719de88:	e8 33 4b b8 00       	call   7d229c0 <pthread_mutex_unlock@plt>
 719deb4:	e8 07 4b b8 00       	call   7d229c0 <pthread_mutex_unlock@plt>
 719df32:	e8 89 4a b8 00       	call   7d229c0 <pthread_mutex_unlock@plt>
 71a0b9b:	e8 20 1f b8 00       	call   7d22ac0 <pthread_once@plt>
 71a2126:	e8 95 09 b8 00       	call   7d22ac0 <pthread_once@plt>
 71a4270:	e8 4b e8 b7 00       	call   7d22ac0 <pthread_once@plt>
 71a4f1b:	e8 a0 db b7 00       	call   7d22ac0 <pthread_once@plt>
 71a60a6:	e8 15 ca b7 00       	call   7d22ac0 <pthread_once@plt>
 71a8a30:	e8 8b a0 b7 00       	call   7d22ac0 <pthread_once@plt>
 71a9b3b:	e8 80 8f b7 00       	call   7d22ac0 <pthread_once@plt>
 71a9d4d:	e8 5e 8c b7 00       	call   7d229b0 <pthread_mutex_lock@plt>
 71a9e46:	e8 75 8b b7 00       	call   7d229c0 <pthread_mutex_unlock@plt>
 71a9f88:	e8 23 8a b7 00       	call   7d229b0 <pthread_mutex_lock@plt>
 71aa0cd:	e8 ee 88 b7 00       	call   7d229c0 <pthread_mutex_unlock@plt>
 71aa149:	e8 72 88 b7 00       	call   7d229c0 <pthread_mutex_unlock@plt>
 71aa9f4:	e8 c7 7f b7 00       	call   7d229c0 <pthread_mutex_unlock@plt>
 71aaa4c:	e8 6f 7f b7 00       	call   7d229c0 <pthread_mutex_unlock@plt>
 71aac27:	e8 84 7d b7 00       	call   7d229b0 <pthread_mutex_lock@plt>
 71aac5f:	e9 5c 7d b7 00       	jmp    7d229c0 <pthread_mutex_unlock@plt>
 71aac9a:	e8 11 7d b7 00       	call   7d229b0 <pthread_mutex_lock@plt>
 71aacea:	e8 d1 7c b7 00       	call   7d229c0 <pthread_mutex_unlock@plt>
 71ac493:	e8 18 65 b7 00       	call   7d229b0 <pthread_mutex_lock@plt>
 71ac8c0:	e8 fb 60 b7 00       	call   7d229c0 <pthread_mutex_unlock@plt>
 71ad20a:	e8 b1 58 b7 00       	call   7d22ac0 <pthread_once@plt>
 71adeb9:	e8 02 4c b7 00       	call   7d22ac0 <pthread_once@plt>
 71af566:	e8 55 35 b7 00       	call   7d22ac0 <pthread_once@plt>
 71afdea:	e8 c1 2b b7 00       	call   7d229b0 <pthread_mutex_lock@plt>
 71afe3a:	e8 81 2b b7 00       	call   7d229c0 <pthread_mutex_unlock@plt>
 71b0e8a:	e8 21 1b b7 00       	call   7d229b0 <pthread_mutex_lock@plt>
 71b0eb6:	e8 f5 1a b7 00       	call   7d229b0 <pthread_mutex_lock@plt>
 71b0ecf:	e8 ec 1a b7 00       	call   7d229c0 <pthread_mutex_unlock@plt>
 71b0efb:	e9 c0 1a b7 00       	jmp    7d229c0 <pthread_mutex_unlock@plt>
 71b0fbe:	e8 ed 19 b7 00       	call   7d229b0 <pthread_mutex_lock@plt>
 71b103a:	e8 81 19 b7 00       	call   7d229c0 <pthread_mutex_unlock@plt>
 71b10c8:	e8 e3 18 b7 00       	call   7d229b0 <pthread_mutex_lock@plt>
 71b11ff:	e8 ac 17 b7 00       	call   7d229b0 <pthread_mutex_lock@plt>
 71b1218:	e8 a3 17 b7 00       	call   7d229c0 <pthread_mutex_unlock@plt>
 71b1244:	e9 77 17 b7 00       	jmp    7d229c0 <pthread_mutex_unlock@plt>
 71b12f6:	e8 b5 16 b7 00       	call   7d229b0 <pthread_mutex_lock@plt>
 71b137a:	e8 41 16 b7 00       	call   7d229c0 <pthread_mutex_unlock@plt>
 71b1426:	e8 85 15 b7 00       	call   7d229b0 <pthread_mutex_lock@plt>
 71b1456:	e8 65 15 b7 00       	call   7d229c0 <pthread_mutex_unlock@plt>
 71b1e6a:	e8 51 0b b7 00       	call   7d229c0 <pthread_mutex_unlock@plt>
 71b255b:	e8 60 05 b7 00       	call   7d22ac0 <pthread_once@plt>
 71bc952:	e8 69 61 b6 00       	call   7d22ac0 <pthread_once@plt>
 71be918:	e8 93 40 b6 00       	call   7d229b0 <pthread_mutex_lock@plt>
 71bea08:	e9 b3 3f b6 00       	jmp    7d229c0 <pthread_mutex_unlock@plt>
 71bea7d:	e8 2e 3f b6 00       	call   7d229b0 <pthread_mutex_lock@plt>
 71bebfb:	e9 c0 3d b6 00       	jmp    7d229c0 <pthread_mutex_unlock@plt>
 71bed17:	e8 94 3c b6 00       	call   7d229b0 <pthread_mutex_lock@plt>
 71bed2f:	e8 8c 3c b6 00       	call   7d229c0 <pthread_mutex_unlock@plt>
 71bedce:	e8 dd 3b b6 00       	call   7d229b0 <pthread_mutex_lock@plt>
 71bee67:	e9 54 3b b6 00       	jmp    7d229c0 <pthread_mutex_unlock@plt>
 71beff8:	e8 c3 39 b6 00       	call   7d229c0 <pthread_mutex_unlock@plt>
 71bf00c:	e8 af 39 b6 00       	call   7d229c0 <pthread_mutex_unlock@plt>
 71bf055:	e8 66 39 b6 00       	call   7d229c0 <pthread_mutex_unlock@plt>
 71cb9bb:	e8 00 71 b5 00       	call   7d22ac0 <pthread_once@plt>
 71cc9fb:	e8 c0 60 b5 00       	call   7d22ac0 <pthread_once@plt>
 71cfc2b:	e8 90 2e b5 00       	call   7d22ac0 <pthread_once@plt>
 71d474b:	e8 70 e3 b4 00       	call   7d22ac0 <pthread_once@plt>
 71d70bb:	e8 00 ba b4 00       	call   7d22ac0 <pthread_once@plt>
 71d7f6b:	e8 50 ab b4 00       	call   7d22ac0 <pthread_once@plt>
 71d8b9b:	e8 20 9f b4 00       	call   7d22ac0 <pthread_once@plt>
 71da3db:	e8 e0 86 b4 00       	call   7d22ac0 <pthread_once@plt>
 71da6ea:	e8 c1 82 b4 00       	call   7d229b0 <pthread_mutex_lock@plt>
 71da73a:	e8 81 82 b4 00       	call   7d229c0 <pthread_mutex_unlock@plt>
 71e72f1:	e8 ca b7 b3 00       	call   7d22ac0 <pthread_once@plt>
 71edbc4:	e8 f7 4e b3 00       	call   7d22ac0 <pthread_once@plt>
 71f33fa:	e8 c1 f6 b2 00       	call   7d22ac0 <pthread_once@plt>
 71fcb8b:	e8 30 5f b2 00       	call   7d22ac0 <pthread_once@plt>
 7203824:	e8 97 f2 b1 00       	call   7d22ac0 <pthread_once@plt>
 7206f1b:	e8 a0 bb b1 00       	call   7d22ac0 <pthread_once@plt>
 7209a24:	e8 97 90 b1 00       	call   7d22ac0 <pthread_once@plt>
 720ae3b:	e8 80 7c b1 00       	call   7d22ac0 <pthread_once@plt>
 720d2cb:	e8 f0 57 b1 00       	call   7d22ac0 <pthread_once@plt>
 721186b:	e8 50 12 b1 00       	call   7d22ac0 <pthread_once@plt>
 7214b58:	e8 63 df b0 00       	call   7d22ac0 <pthread_once@plt>
 721b549:	e8 72 75 b0 00       	call   7d22ac0 <pthread_once@plt>
 721c6da:	e8 e1 63 b0 00       	call   7d22ac0 <pthread_once@plt>
 7223908:	e8 b3 f1 af 00       	call   7d22ac0 <pthread_once@plt>
 722a4e2:	e8 d9 85 af 00       	call   7d22ac0 <pthread_once@plt>
 722c0ea:	e8 d1 69 af 00       	call   7d22ac0 <pthread_once@plt>
 722d1da:	e8 e1 58 af 00       	call   7d22ac0 <pthread_once@plt>
 72308db:	e8 e0 21 af 00       	call   7d22ac0 <pthread_once@plt>
 7232e86:	e8 35 fc ae 00       	call   7d22ac0 <pthread_once@plt>
 723729b:	e8 20 b8 ae 00       	call   7d22ac0 <pthread_once@plt>
 7237ed6:	e8 e5 ab ae 00       	call   7d22ac0 <pthread_once@plt>
 723cf2e:	e8 8d 5b ae 00       	call   7d22ac0 <pthread_once@plt>
 7246411:	e8 aa c6 ad 00       	call   7d22ac0 <pthread_once@plt>
 724a7fb:	e8 c0 82 ad 00       	call   7d22ac0 <pthread_once@plt>
 724ea65:	e8 56 40 ad 00       	call   7d22ac0 <pthread_once@plt>
 72504cb:	e8 f0 25 ad 00       	call   7d22ac0 <pthread_once@plt>
 7253ed4:	e8 e7 eb ac 00       	call   7d22ac0 <pthread_once@plt>
 725fda4:	e8 17 2d ac 00       	call   7d22ac0 <pthread_once@plt>
 72666e4:	e8 d7 c3 ab 00       	call   7d22ac0 <pthread_once@plt>
 7285789:	e8 32 d3 a9 00       	call   7d22ac0 <pthread_once@plt>
 72876db:	e8 e0 b3 a9 00       	call   7d22ac0 <pthread_once@plt>
 7293b92:	e8 29 ef a8 00       	call   7d22ac0 <pthread_once@plt>
 729bd6b:	e8 50 6d a8 00       	call   7d22ac0 <pthread_once@plt>
 729e70b:	e8 b0 43 a8 00       	call   7d22ac0 <pthread_once@plt>
 72a1b5b:	e8 60 0f a8 00       	call   7d22ac0 <pthread_once@plt>
 72a4dfe:	e8 bd dc a7 00       	call   7d22ac0 <pthread_once@plt>
 72a6e0b:	e8 b0 bc a7 00       	call   7d22ac0 <pthread_once@plt>
 72a835b:	e8 60 a7 a7 00       	call   7d22ac0 <pthread_once@plt>
 72aae1b:	e8 a0 7c a7 00       	call   7d22ac0 <pthread_once@plt>
 72ae3cb:	e8 f0 46 a7 00       	call   7d22ac0 <pthread_once@plt>
 72b10bb:	e8 00 1a a7 00       	call   7d22ac0 <pthread_once@plt>
 72b1d2b:	e8 90 0d a7 00       	call   7d22ac0 <pthread_once@plt>
 72b5374:	e8 47 d7 a6 00       	call   7d22ac0 <pthread_once@plt>
 72b7b6b:	e8 50 af a6 00       	call   7d22ac0 <pthread_once@plt>
 72ba26b:	e8 50 88 a6 00       	call   7d22ac0 <pthread_once@plt>
 72bbd8b:	e8 30 6d a6 00       	call   7d22ac0 <pthread_once@plt>
 72bd68e:	e8 2d 54 a6 00       	call   7d22ac0 <pthread_once@plt>
 72bf31a:	e8 a1 37 a6 00       	call   7d22ac0 <pthread_once@plt>
 72c13ca:	e8 f1 16 a6 00       	call   7d22ac0 <pthread_once@plt>
 72c4ceb:	e8 d0 dd a5 00       	call   7d22ac0 <pthread_once@plt>
 72c56fb:	e8 c0 d3 a5 00       	call   7d22ac0 <pthread_once@plt>
 72c99dc:	e8 df 90 a5 00       	call   7d22ac0 <pthread_once@plt>
 72cbf9b:	e8 20 6b a5 00       	call   7d22ac0 <pthread_once@plt>
 72dc7bf:	e8 fc 62 a4 00       	call   7d22ac0 <pthread_once@plt>
 72e156e:	e8 4d 15 a4 00       	call   7d22ac0 <pthread_once@plt>
 72ec5f7:	e8 c4 64 a3 00       	call   7d22ac0 <pthread_once@plt>
 72ee07b:	e8 40 4a a3 00       	call   7d22ac0 <pthread_once@plt>
 72eee97:	e8 24 3c a3 00       	call   7d22ac0 <pthread_once@plt>
 72f2f0e:	e8 ad fb a2 00       	call   7d22ac0 <pthread_once@plt>
 72f4476:	e8 45 e6 a2 00       	call   7d22ac0 <pthread_once@plt>
 72f695b:	e8 60 c1 a2 00       	call   7d22ac0 <pthread_once@plt>
 72ffec9:	e8 f2 2b a2 00       	call   7d22ac0 <pthread_once@plt>
 7304f26:	e8 95 db a1 00       	call   7d22ac0 <pthread_once@plt>
 7308bdb:	e8 e0 9e a1 00       	call   7d22ac0 <pthread_once@plt>
 73104a6:	e8 15 26 a1 00       	call   7d22ac0 <pthread_once@plt>
 73148d2:	e8 e9 e1 a0 00       	call   7d22ac0 <pthread_once@plt>
 73238a0:	e8 1b f2 9f 00       	call   7d22ac0 <pthread_once@plt>
 73280fb:	e8 c0 a9 9f 00       	call   7d22ac0 <pthread_once@plt>
 732dad2:	e8 e9 4f 9f 00       	call   7d22ac0 <pthread_once@plt>
 733067b:	e8 40 24 9f 00       	call   7d22ac0 <pthread_once@plt>
 733339b:	e8 20 f7 9e 00       	call   7d22ac0 <pthread_once@plt>
 7334bc6:	e8 f5 de 9e 00       	call   7d22ac0 <pthread_once@plt>
 73397d2:	e8 e9 92 9e 00       	call   7d22ac0 <pthread_once@plt>
 73409aa:	e8 11 21 9e 00       	call   7d22ac0 <pthread_once@plt>
 7343b5a:	e8 61 ef 9d 00       	call   7d22ac0 <pthread_once@plt>
 734a74b:	e8 70 83 9d 00       	call   7d22ac0 <pthread_once@plt>
 735052a:	e8 91 25 9d 00       	call   7d22ac0 <pthread_once@plt>
 7359375:	e8 46 97 9c 00       	call   7d22ac0 <pthread_once@plt>
 735d2fa:	e8 c1 57 9c 00       	call   7d22ac0 <pthread_once@plt>
 7363ac2:	e8 f9 ef 9b 00       	call   7d22ac0 <pthread_once@plt>
 736ca55:	e8 66 60 9b 00       	call   7d22ac0 <pthread_once@plt>
 737350b:	e8 b0 f5 9a 00       	call   7d22ac0 <pthread_once@plt>
 7379dba:	e8 01 8d 9a 00       	call   7d22ac0 <pthread_once@plt>
 737e1ce:	e8 ed 48 9a 00       	call   7d22ac0 <pthread_once@plt>
 738362a:	e8 91 f4 99 00       	call   7d22ac0 <pthread_once@plt>
 738723a:	e8 81 b8 99 00       	call   7d22ac0 <pthread_once@plt>
 738cf3a:	e8 81 5b 99 00       	call   7d22ac0 <pthread_once@plt>
 738fdfa:	e8 c1 2c 99 00       	call   7d22ac0 <pthread_once@plt>
 7398782:	e8 39 a3 98 00       	call   7d22ac0 <pthread_once@plt>
 73a3e46:	e8 75 ec 97 00       	call   7d22ac0 <pthread_once@plt>
 73b001e:	e8 9d 2a 97 00       	call   7d22ac0 <pthread_once@plt>
 73bb082:	e8 39 7a 96 00       	call   7d22ac0 <pthread_once@plt>
 73c2f23:	e8 98 fb 95 00       	call   7d22ac0 <pthread_once@plt>
 73cec62:	e8 59 3e 95 00       	call   7d22ac0 <pthread_once@plt>
 73d22ea:	e8 d1 07 95 00       	call   7d22ac0 <pthread_once@plt>
 73d84ed:	e8 ce a5 94 00       	call   7d22ac0 <pthread_once@plt>
 74162c1:	e8 fa c7 90 00       	call   7d22ac0 <pthread_once@plt>
 741b97a:	e8 41 71 90 00       	call   7d22ac0 <pthread_once@plt>
 741feea:	e8 d1 2b 90 00       	call   7d22ac0 <pthread_once@plt>
 742452a:	e8 91 e5 8f 00       	call   7d22ac0 <pthread_once@plt>
 742a292:	e8 29 88 8f 00       	call   7d22ac0 <pthread_once@plt>
 7433d79:	e8 42 ed 8e 00       	call   7d22ac0 <pthread_once@plt>
 7434c21:	e8 9a de 8e 00       	call   7d22ac0 <pthread_once@plt>
 7435999:	e8 22 d1 8e 00       	call   7d22ac0 <pthread_once@plt>
 7436f1b:	e8 a0 bb 8e 00       	call   7d22ac0 <pthread_once@plt>
 743dd7e:	e8 3d 4d 8e 00       	call   7d22ac0 <pthread_once@plt>
 74471eb:	e8 d0 b8 8d 00       	call   7d22ac0 <pthread_once@plt>
 744843b:	e8 80 a6 8d 00       	call   7d22ac0 <pthread_once@plt>
 74495c9:	e8 f2 94 8d 00       	call   7d22ac0 <pthread_once@plt>
 744cdfe:	e8 bd 5c 8d 00       	call   7d22ac0 <pthread_once@plt>
 744f92b:	e8 90 31 8d 00       	call   7d22ac0 <pthread_once@plt>
 7455f6b:	e8 50 cb 8c 00       	call   7d22ac0 <pthread_once@plt>
 745d45e:	e8 5d 56 8c 00       	call   7d22ac0 <pthread_once@plt>
 745df89:	e8 32 4b 8c 00       	call   7d22ac0 <pthread_once@plt>
 7460178:	e8 43 29 8c 00       	call   7d22ac0 <pthread_once@plt>
 74613ba:	e8 01 17 8c 00       	call   7d22ac0 <pthread_once@plt>
 7461f29:	e8 82 0a 8c 00       	call   7d229b0 <pthread_mutex_lock@plt>
 7461fa7:	e8 14 0a 8c 00       	call   7d229c0 <pthread_mutex_unlock@plt>
 7462046:	e8 65 09 8c 00       	call   7d229b0 <pthread_mutex_lock@plt>
 746208e:	e8 2d 09 8c 00       	call   7d229c0 <pthread_mutex_unlock@plt>
 7462523:	e8 88 04 8c 00       	call   7d229b0 <pthread_mutex_lock@plt>
 74625ab:	e9 10 04 8c 00       	jmp    7d229c0 <pthread_mutex_unlock@plt>
 7462673:	e8 38 03 8c 00       	call   7d229b0 <pthread_mutex_lock@plt>
 74626fb:	e9 c0 02 8c 00       	jmp    7d229c0 <pthread_mutex_unlock@plt>
 74627b9:	e8 f2 01 8c 00       	call   7d229b0 <pthread_mutex_lock@plt>
 7462cdb:	e9 e0 fc 8b 00       	jmp    7d229c0 <pthread_mutex_unlock@plt>
 7462df6:	e8 b5 fb 8b 00       	call   7d229b0 <pthread_mutex_lock@plt>
 7462eb0:	e9 0b fb 8b 00       	jmp    7d229c0 <pthread_mutex_unlock@plt>
 7463053:	e8 68 f9 8b 00       	call   7d229c0 <pthread_mutex_unlock@plt>
 74630bc:	e8 ff f8 8b 00       	call   7d229c0 <pthread_mutex_unlock@plt>
 74630d0:	e8 eb f8 8b 00       	call   7d229c0 <pthread_mutex_unlock@plt>
 74630fc:	e8 bf f8 8b 00       	call   7d229c0 <pthread_mutex_unlock@plt>
 7463154:	e8 67 f8 8b 00       	call   7d229c0 <pthread_mutex_unlock@plt>
 74642fb:	e8 c0 e7 8b 00       	call   7d22ac0 <pthread_once@plt>
 747354b:	e8 70 f5 8a 00       	call   7d22ac0 <pthread_once@plt>
 747c6d9:	e8 e2 63 8a 00       	call   7d22ac0 <pthread_once@plt>
 74849b9:	e8 02 e1 89 00       	call   7d22ac0 <pthread_once@plt>
 748565b:	e8 60 d4 89 00       	call   7d22ac0 <pthread_once@plt>
 7491fd1:	e8 ea 0a 89 00       	call   7d22ac0 <pthread_once@plt>
 7499b55:	e8 66 8f 88 00       	call   7d22ac0 <pthread_once@plt>
 749b3f9:	e8 c2 76 88 00       	call   7d22ac0 <pthread_once@plt>
 749f63b:	e8 80 34 88 00       	call   7d22ac0 <pthread_once@plt>
 74a2146:	e8 75 09 88 00       	call   7d22ac0 <pthread_once@plt>
 74a5885:	e8 36 d2 87 00       	call   7d22ac0 <pthread_once@plt>
 74ae949:	e8 72 41 87 00       	call   7d22ac0 <pthread_once@plt>
 74b47d2:	e8 e9 e2 86 00       	call   7d22ac0 <pthread_once@plt>
 74bc4ca:	e8 f1 65 86 00       	call   7d22ac0 <pthread_once@plt>
 74bf850:	e8 6b 32 86 00       	call   7d22ac0 <pthread_once@plt>
 74c097f:	e8 3c 21 86 00       	call   7d22ac0 <pthread_once@plt>
 74c442b:	e8 90 e6 85 00       	call   7d22ac0 <pthread_once@plt>
 74c697a:	e8 41 c1 85 00       	call   7d22ac0 <pthread_once@plt>
 74c910d:	e8 ae 99 85 00       	call   7d22ac0 <pthread_once@plt>
 74cafcb:	e8 f0 7a 85 00       	call   7d22ac0 <pthread_once@plt>
 74d14cb:	e8 f0 15 85 00       	call   7d22ac0 <pthread_once@plt>
 74d2b2e:	e8 8d ff 84 00       	call   7d22ac0 <pthread_once@plt>
 7519984:	e8 37 91 80 00       	call   7d22ac0 <pthread_once@plt>
 751a682:	e8 39 84 80 00       	call   7d22ac0 <pthread_once@plt>
 751b66d:	e8 4e 74 80 00       	call   7d22ac0 <pthread_once@plt>
 751ba1e:	e8 8d 6f 80 00       	call   7d229b0 <pthread_mutex_lock@plt>
 751ba33:	e8 88 6f 80 00       	call   7d229c0 <pthread_mutex_unlock@plt>
 751bfdc:	e8 cf 69 80 00       	call   7d229b0 <pthread_mutex_lock@plt>
 751bfec:	e8 cf 69 80 00       	call   7d229c0 <pthread_mutex_unlock@plt>
 751c6bd:	e8 fe 63 80 00       	call   7d22ac0 <pthread_once@plt>
 751d9f9:	e8 c2 50 80 00       	call   7d22ac0 <pthread_once@plt>
 7523b44:	e8 67 ee 7f 00       	call   7d229b0 <pthread_mutex_lock@plt>
 7523b64:	e8 57 ee 7f 00       	call   7d229c0 <pthread_mutex_unlock@plt>
 7523d2c:	e8 8f ec 7f 00       	call   7d229c0 <pthread_mutex_unlock@plt>
 7524a67:	e8 44 df 7f 00       	call   7d229b0 <pthread_mutex_lock@plt>
 7524a84:	e8 37 df 7f 00       	call   7d229c0 <pthread_mutex_unlock@plt>
 7524aa5:	e8 06 df 7f 00       	call   7d229b0 <pthread_mutex_lock@plt>
 7524ac1:	e8 fa de 7f 00       	call   7d229c0 <pthread_mutex_unlock@plt>
 7524b6a:	e8 51 de 7f 00       	call   7d229c0 <pthread_mutex_unlock@plt>
 7524d3d:	e8 7e dc 7f 00       	call   7d229c0 <pthread_mutex_unlock@plt>
 7524da1:	e8 1a dc 7f 00       	call   7d229c0 <pthread_mutex_unlock@plt>
 75250fe:	e8 bd d9 7f 00       	call   7d22ac0 <pthread_once@plt>
 7525fee:	e8 bd c9 7f 00       	call   7d229b0 <pthread_mutex_lock@plt>
 75260fe:	e8 bd c8 7f 00       	call   7d229c0 <pthread_mutex_unlock@plt>
 7526243:	e8 78 c7 7f 00       	call   7d229c0 <pthread_mutex_unlock@plt>
 7526ec6:	e8 f5 ba 7f 00       	call   7d229c0 <pthread_mutex_unlock@plt>
 7526f1a:	e8 a1 ba 7f 00       	call   7d229c0 <pthread_mutex_unlock@plt>
 7527206:	e8 a5 b7 7f 00       	call   7d229b0 <pthread_mutex_lock@plt>
 7527322:	e8 99 b6 7f 00       	call   7d229c0 <pthread_mutex_unlock@plt>
 7527749:	e8 62 b2 7f 00       	call   7d229b0 <pthread_mutex_lock@plt>
 752788f:	e8 2c b1 7f 00       	call   7d229c0 <pthread_mutex_unlock@plt>
 7527ab8:	e8 03 af 7f 00       	call   7d229c0 <pthread_mutex_unlock@plt>
 752876a:	e8 51 a3 7f 00       	call   7d22ac0 <pthread_once@plt>
 75349d4:	e8 e7 e0 7e 00       	call   7d22ac0 <pthread_once@plt>
 75356be:	e8 ed d2 7e 00       	call   7d229b0 <pthread_mutex_lock@plt>
 75356ee:	e8 cd d2 7e 00       	call   7d229c0 <pthread_mutex_unlock@plt>
 7535a53:	e8 58 cf 7e 00       	call   7d229b0 <pthread_mutex_lock@plt>
 7535a83:	e8 38 cf 7e 00       	call   7d229c0 <pthread_mutex_unlock@plt>
 7537616:	e8 a5 b4 7e 00       	call   7d22ac0 <pthread_once@plt>
 7537f21:	e8 8a aa 7e 00       	call   7d229b0 <pthread_mutex_lock@plt>
 753800f:	e8 ac a9 7e 00       	call   7d229c0 <pthread_mutex_unlock@plt>
 75380c2:	e8 f9 a8 7e 00       	call   7d229c0 <pthread_mutex_unlock@plt>
 75380f1:	e8 ba a8 7e 00       	call   7d229b0 <pthread_mutex_lock@plt>
 75381df:	e8 dc a7 7e 00       	call   7d229c0 <pthread_mutex_unlock@plt>
 7538292:	e8 29 a7 7e 00       	call   7d229c0 <pthread_mutex_unlock@plt>
 7538b3f:	e8 6c 9e 7e 00       	call   7d229b0 <pthread_mutex_lock@plt>
 7538c94:	e9 27 9d 7e 00       	jmp    7d229c0 <pthread_mutex_unlock@plt>
 7538e40:	e8 7b 9b 7e 00       	call   7d229c0 <pthread_mutex_unlock@plt>
 753a37f:	e8 2c 86 7e 00       	call   7d229b0 <pthread_mutex_lock@plt>
 753a4d4:	e9 e7 84 7e 00       	jmp    7d229c0 <pthread_mutex_unlock@plt>
 753a680:	e8 3b 83 7e 00       	call   7d229c0 <pthread_mutex_unlock@plt>
 753c24a:	e8 71 68 7e 00       	call   7d22ac0 <pthread_once@plt>
 753cdc5:	e8 f6 5c 7e 00       	call   7d22ac0 <pthread_once@plt>
 753d433:	e8 88 56 7e 00       	call   7d22ac0 <pthread_once@plt>
 75411d2:	e8 e9 18 7e 00       	call   7d22ac0 <pthread_once@plt>
 7546c1a:	e8 a1 be 7d 00       	call   7d22ac0 <pthread_once@plt>
 75499ab:	e8 10 91 7d 00       	call   7d22ac0 <pthread_once@plt>
 75513d0:	e8 eb 16 7d 00       	call   7d22ac0 <pthread_once@plt>
 75514a5:	e8 16 16 7d 00       	call   7d22ac0 <pthread_once@plt>
 7552139:	e8 72 08 7d 00       	call   7d229b0 <pthread_mutex_lock@plt>
 7552156:	e8 65 08 7d 00       	call   7d229c0 <pthread_mutex_unlock@plt>
 755216e:	e8 3d 08 7d 00       	call   7d229b0 <pthread_mutex_lock@plt>
 75521d0:	e8 eb 07 7d 00       	call   7d229c0 <pthread_mutex_unlock@plt>
 7552336:	e8 85 06 7d 00       	call   7d229c0 <pthread_mutex_unlock@plt>
 75526e7:	e8 d4 03 7d 00       	call   7d22ac0 <pthread_once@plt>
 755317d:	e8 2e f8 7c 00       	call   7d229b0 <pthread_mutex_lock@plt>
 7553212:	e8 a9 f7 7c 00       	call   7d229c0 <pthread_mutex_unlock@plt>
 755327d:	e8 2e f7 7c 00       	call   7d229b0 <pthread_mutex_lock@plt>
 7553323:	e8 98 f6 7c 00       	call   7d229c0 <pthread_mutex_unlock@plt>
 75533ac:	e8 ff f5 7c 00       	call   7d229b0 <pthread_mutex_lock@plt>
 755344f:	e8 6c f5 7c 00       	call   7d229c0 <pthread_mutex_unlock@plt>
 755348d:	e8 1e f5 7c 00       	call   7d229b0 <pthread_mutex_lock@plt>
 7553521:	e8 9a f4 7c 00       	call   7d229c0 <pthread_mutex_unlock@plt>
 755359d:	e8 0e f4 7c 00       	call   7d229b0 <pthread_mutex_lock@plt>
 755366a:	e9 51 f3 7c 00       	jmp    7d229c0 <pthread_mutex_unlock@plt>
 755470b:	e8 a0 e2 7c 00       	call   7d229b0 <pthread_mutex_lock@plt>
 75547c9:	e9 f2 e1 7c 00       	jmp    7d229c0 <pthread_mutex_unlock@plt>
 755480b:	e8 a0 e1 7c 00       	call   7d229b0 <pthread_mutex_lock@plt>
 75548c9:	e9 f2 e0 7c 00       	jmp    7d229c0 <pthread_mutex_unlock@plt>
 75550eb:	e8 c0 d8 7c 00       	call   7d229b0 <pthread_mutex_lock@plt>
 7555139:	e8 82 d8 7c 00       	call   7d229c0 <pthread_mutex_unlock@plt>
 7557096:	e8 e5 c0 7c 00       	call   7d23180 <pthread_sigmask@plt>
 75570b0:	e8 cb c0 7c 00       	call   7d23180 <pthread_sigmask@plt>
 75572ed:	e8 be b6 7c 00       	call   7d229b0 <pthread_mutex_lock@plt>
 75577a5:	e9 16 b2 7c 00       	jmp    7d229c0 <pthread_mutex_unlock@plt>
 7557f21:	e8 8a aa 7c 00       	call   7d229b0 <pthread_mutex_lock@plt>
 7558325:	e8 96 a6 7c 00       	call   7d229c0 <pthread_mutex_unlock@plt>
 755850e:	e8 9d a4 7c 00       	call   7d229b0 <pthread_mutex_lock@plt>
 7558628:	e9 93 a3 7c 00       	jmp    7d229c0 <pthread_mutex_unlock@plt>
 7558696:	e9 25 a3 7c 00       	jmp    7d229c0 <pthread_mutex_unlock@plt>
 75586e4:	e8 c7 a2 7c 00       	call   7d229b0 <pthread_mutex_lock@plt>
 755878e:	e9 2d a2 7c 00       	jmp    7d229c0 <pthread_mutex_unlock@plt>
 7558846:	e8 65 a1 7c 00       	call   7d229b0 <pthread_mutex_lock@plt>
 7558904:	e8 b7 a0 7c 00       	call   7d229c0 <pthread_mutex_unlock@plt>
 7558937:	e8 84 a0 7c 00       	call   7d229c0 <pthread_mutex_unlock@plt>
 7558a9c:	e8 0f 9f 7c 00       	call   7d229b0 <pthread_mutex_lock@plt>
 7558b93:	e8 28 9e 7c 00       	call   7d229c0 <pthread_mutex_unlock@plt>
 7558c70:	e8 3b 9d 7c 00       	call   7d229b0 <pthread_mutex_lock@plt>
 7558cf2:	e8 c9 9c 7c 00       	call   7d229c0 <pthread_mutex_unlock@plt>
 75594fa:	e8 c1 94 7c 00       	call   7d229c0 <pthread_mutex_unlock@plt>
 7559516:	e8 a5 94 7c 00       	call   7d229c0 <pthread_mutex_unlock@plt>
 755976c:	e8 4f 92 7c 00       	call   7d229c0 <pthread_mutex_unlock@plt>
 7559780:	e8 3b 92 7c 00       	call   7d229c0 <pthread_mutex_unlock@plt>
 7559914:	e8 a7 90 7c 00       	call   7d229c0 <pthread_mutex_unlock@plt>
 7559ec8:	e8 b3 92 7c 00       	call   7d23180 <pthread_sigmask@plt>
 7559f03:	e8 b8 8a 7c 00       	call   7d229c0 <pthread_mutex_unlock@plt>
 755a06e:	e8 4d 89 7c 00       	call   7d229c0 <pthread_mutex_unlock@plt>
 755a0b2:	e8 09 89 7c 00       	call   7d229c0 <pthread_mutex_unlock@plt>
 755a0c6:	e8 f5 88 7c 00       	call   7d229c0 <pthread_mutex_unlock@plt>
 755a0f2:	e8 c9 88 7c 00       	call   7d229c0 <pthread_mutex_unlock@plt>
 755a248:	e8 73 87 7c 00       	call   7d229c0 <pthread_mutex_unlock@plt>
 755a284:	e8 37 87 7c 00       	call   7d229c0 <pthread_mutex_unlock@plt>
 7562cfb:	e8 c0 fd 7b 00       	call   7d22ac0 <pthread_once@plt>
 75661d4:	e8 e7 c8 7b 00       	call   7d22ac0 <pthread_once@plt>
 756a639:	e8 82 84 7b 00       	call   7d22ac0 <pthread_once@plt>
 756d10b:	e8 b0 59 7b 00       	call   7d22ac0 <pthread_once@plt>
 756f6cb:	e8 f0 33 7b 00       	call   7d22ac0 <pthread_once@plt>
 757236e:	e8 4d 07 7b 00       	call   7d22ac0 <pthread_once@plt>
 7573b1b:	e8 a0 ef 7a 00       	call   7d22ac0 <pthread_once@plt>
 75746c6:	e8 e5 e2 7a 00       	call   7d229b0 <pthread_mutex_lock@plt>
 75746ea:	e8 d1 e2 7a 00       	call   7d229c0 <pthread_mutex_unlock@plt>
 7575a5a:	e8 51 cf 7a 00       	call   7d229b0 <pthread_mutex_lock@plt>
 7575a70:	e8 4b cf 7a 00       	call   7d229c0 <pthread_mutex_unlock@plt>
 7575dee:	e8 cd cb 7a 00       	call   7d229c0 <pthread_mutex_unlock@plt>
 75769bb:	e8 00 c1 7a 00       	call   7d22ac0 <pthread_once@plt>
 757998b:	e8 30 91 7a 00       	call   7d22ac0 <pthread_once@plt>
 7582386:	e8 35 07 7a 00       	call   7d22ac0 <pthread_once@plt>
 758dec3:	e8 f8 4b 79 00       	call   7d22ac0 <pthread_once@plt>
 758df65:	e8 56 4b 79 00       	call   7d22ac0 <pthread_once@plt>
 758e007:	e8 b4 4a 79 00       	call   7d22ac0 <pthread_once@plt>
 7599444:	e8 77 96 78 00       	call   7d22ac0 <pthread_once@plt>
 7599f6b:	e8 50 8b 78 00       	call   7d22ac0 <pthread_once@plt>
 762ff6b:	e8 50 2b 6f 00       	call   7d22ac0 <pthread_once@plt>
 76316ab:	e8 10 14 6f 00       	call   7d22ac0 <pthread_once@plt>
 7632207:	e8 a4 07 6f 00       	call   7d229b0 <pthread_mutex_lock@plt>
 7632273:	e9 48 07 6f 00       	jmp    7d229c0 <pthread_mutex_unlock@plt>
 76322c1:	e8 ea 06 6f 00       	call   7d229b0 <pthread_mutex_lock@plt>
 7632559:	e8 62 04 6f 00       	call   7d229c0 <pthread_mutex_unlock@plt>
 7632983:	e8 28 00 6f 00       	call   7d229b0 <pthread_mutex_lock@plt>
 7632bee:	e8 cd fd 6e 00       	call   7d229c0 <pthread_mutex_unlock@plt>
 7632e19:	e8 92 fb 6e 00       	call   7d229b0 <pthread_mutex_lock@plt>
 7632e66:	e8 55 fb 6e 00       	call   7d229c0 <pthread_mutex_unlock@plt>
 7632eb6:	e8 f5 fa 6e 00       	call   7d229b0 <pthread_mutex_lock@plt>
 7633323:	e8 98 f6 6e 00       	call   7d229c0 <pthread_mutex_unlock@plt>
 76337a7:	e8 04 f2 6e 00       	call   7d229b0 <pthread_mutex_lock@plt>
 76337c6:	e8 f5 f1 6e 00       	call   7d229c0 <pthread_mutex_unlock@plt>
 76338df:	e8 cc f0 6e 00       	call   7d229b0 <pthread_mutex_lock@plt>
 7633912:	e8 a9 f0 6e 00       	call   7d229c0 <pthread_mutex_unlock@plt>
 7633c79:	e8 32 ed 6e 00       	call   7d229b0 <pthread_mutex_lock@plt>
 7633cbd:	e9 fe ec 6e 00       	jmp    7d229c0 <pthread_mutex_unlock@plt>
 7633d29:	e8 82 ec 6e 00       	call   7d229b0 <pthread_mutex_lock@plt>
 7634424:	e8 97 e5 6e 00       	call   7d229c0 <pthread_mutex_unlock@plt>
 76349de:	e8 dd df 6e 00       	call   7d229c0 <pthread_mutex_unlock@plt>
 7634a78:	e8 43 df 6e 00       	call   7d229c0 <pthread_mutex_unlock@plt>
 7634ada:	e8 e1 de 6e 00       	call   7d229c0 <pthread_mutex_unlock@plt>
 7634c40:	e8 7b dd 6e 00       	call   7d229c0 <pthread_mutex_unlock@plt>
 7634cab:	e8 10 dd 6e 00       	call   7d229c0 <pthread_mutex_unlock@plt>
 763630a:	e8 b1 c7 6e 00       	call   7d22ac0 <pthread_once@plt>
 763672a:	e8 81 c2 6e 00       	call   7d229b0 <pthread_mutex_lock@plt>
 763677a:	e8 41 c2 6e 00       	call   7d229c0 <pthread_mutex_unlock@plt>
 763726e:	e8 3d b7 6e 00       	call   7d229b0 <pthread_mutex_lock@plt>
 76372ad:	e8 fe b6 6e 00       	call   7d229b0 <pthread_mutex_lock@plt>
 76372c9:	e8 f2 b6 6e 00       	call   7d229c0 <pthread_mutex_unlock@plt>
 76372d1:	e8 ea b6 6e 00       	call   7d229c0 <pthread_mutex_unlock@plt>
 76372fe:	e8 ad b6 6e 00       	call   7d229b0 <pthread_mutex_lock@plt>
 7637371:	e8 4a b6 6e 00       	call   7d229c0 <pthread_mutex_unlock@plt>
 7637391:	e9 2a b6 6e 00       	jmp    7d229c0 <pthread_mutex_unlock@plt>
 7637401:	e8 aa b5 6e 00       	call   7d229b0 <pthread_mutex_lock@plt>
 763741a:	e8 a1 b5 6e 00       	call   7d229c0 <pthread_mutex_unlock@plt>
 763769a:	e8 11 b3 6e 00       	call   7d229b0 <pthread_mutex_lock@plt>
 763796c:	e9 4f b0 6e 00       	jmp    7d229c0 <pthread_mutex_unlock@plt>
 7637b5b:	e8 50 ae 6e 00       	call   7d229b0 <pthread_mutex_lock@plt>
 7637b97:	e8 14 ae 6e 00       	call   7d229b0 <pthread_mutex_lock@plt>
 7637bb0:	e8 0b ae 6e 00       	call   7d229c0 <pthread_mutex_unlock@plt>
 7637bb8:	e8 03 ae 6e 00       	call   7d229c0 <pthread_mutex_unlock@plt>
 7637bee:	e8 bd ad 6e 00       	call   7d229b0 <pthread_mutex_lock@plt>
 7637c61:	e8 5a ad 6e 00       	call   7d229c0 <pthread_mutex_unlock@plt>
 7637c81:	e9 3a ad 6e 00       	jmp    7d229c0 <pthread_mutex_unlock@plt>
 7637cc7:	e8 e4 ac 6e 00       	call   7d229b0 <pthread_mutex_lock@plt>
 7637cdb:	e8 e0 ac 6e 00       	call   7d229c0 <pthread_mutex_unlock@plt>
 7638a0d:	e8 9e 9f 6e 00       	call   7d229b0 <pthread_mutex_lock@plt>
 7638af4:	e8 b7 9e 6e 00       	call   7d229b0 <pthread_mutex_lock@plt>
 7638b0d:	e8 ae 9e 6e 00       	call   7d229c0 <pthread_mutex_unlock@plt>
 7638b36:	e9 85 9e 6e 00       	jmp    7d229c0 <pthread_mutex_unlock@plt>
 7638b4e:	e8 5d 9e 6e 00       	call   7d229b0 <pthread_mutex_lock@plt>
 7638bc1:	e8 fa 9d 6e 00       	call   7d229c0 <pthread_mutex_unlock@plt>
 76394f0:	e8 bb 94 6e 00       	call   7d229b0 <pthread_mutex_lock@plt>
 7639533:	e8 78 94 6e 00       	call   7d229b0 <pthread_mutex_lock@plt>
 763954c:	e8 6f 94 6e 00       	call   7d229c0 <pthread_mutex_unlock@plt>
 7639573:	e8 48 94 6e 00       	call   7d229c0 <pthread_mutex_unlock@plt>
 763958c:	e8 1f 94 6e 00       	call   7d229b0 <pthread_mutex_lock@plt>
 7639661:	e8 4a 93 6e 00       	call   7d229b0 <pthread_mutex_lock@plt>
 76396ee:	e8 cd 92 6e 00       	call   7d229c0 <pthread_mutex_unlock@plt>
 763970d:	e8 ae 92 6e 00       	call   7d229c0 <pthread_mutex_unlock@plt>
 763ae07:	e8 a4 7b 6e 00       	call   7d229b0 <pthread_mutex_lock@plt>
 763ae7c:	e8 3f 7b 6e 00       	call   7d229c0 <pthread_mutex_unlock@plt>
 763b053:	e8 58 79 6e 00       	call   7d229b0 <pthread_mutex_lock@plt>
 763b0a4:	e8 07 79 6e 00       	call   7d229b0 <pthread_mutex_lock@plt>
 763b0c0:	e8 fb 78 6e 00       	call   7d229c0 <pthread_mutex_unlock@plt>
 763b0c8:	e8 f3 78 6e 00       	call   7d229c0 <pthread_mutex_unlock@plt>
 763b13e:	e8 6d 78 6e 00       	call   7d229b0 <pthread_mutex_lock@plt>
 763b5e0:	e8 db 73 6e 00       	call   7d229c0 <pthread_mutex_unlock@plt>
 763b65f:	e8 4c 73 6e 00       	call   7d229b0 <pthread_mutex_lock@plt>
 763b6e4:	e8 d7 72 6e 00       	call   7d229c0 <pthread_mutex_unlock@plt>
 763ba07:	e8 b4 6f 6e 00       	call   7d229c0 <pthread_mutex_unlock@plt>
 763bad9:	e8 e2 6e 6e 00       	call   7d229c0 <pthread_mutex_unlock@plt>
 763c39c:	e8 1f 66 6e 00       	call   7d229c0 <pthread_mutex_unlock@plt>
 763c5d2:	e8 e9 63 6e 00       	call   7d229c0 <pthread_mutex_unlock@plt>
 763c7fb:	e8 c0 61 6e 00       	call   7d229c0 <pthread_mutex_unlock@plt>
 763e16a:	e8 51 49 6e 00       	call   7d22ac0 <pthread_once@plt>
 763eda6:	e8 15 3d 6e 00       	call   7d22ac0 <pthread_once@plt>
 763f48d:	e8 1e 35 6e 00       	call   7d229b0 <pthread_mutex_lock@plt>
 763f4c6:	e8 f5 34 6e 00       	call   7d229c0 <pthread_mutex_unlock@plt>
 763f608:	e8 a3 33 6e 00       	call   7d229b0 <pthread_mutex_lock@plt>
 763f74c:	e8 6f 32 6e 00       	call   7d229c0 <pthread_mutex_unlock@plt>
 7640ad1:	e8 da 1e 6e 00       	call   7d229b0 <pthread_mutex_lock@plt>
 7640b80:	e9 3b 1e 6e 00       	jmp    7d229c0 <pthread_mutex_unlock@plt>
 7640db2:	e8 f9 1b 6e 00       	call   7d229b0 <pthread_mutex_lock@plt>
 7640e07:	e8 b4 1b 6e 00       	call   7d229c0 <pthread_mutex_unlock@plt>
 7640e55:	e8 66 1b 6e 00       	call   7d229c0 <pthread_mutex_unlock@plt>
 764141d:	e8 8e 15 6e 00       	call   7d229b0 <pthread_mutex_lock@plt>
 7641493:	e9 28 15 6e 00       	jmp    7d229c0 <pthread_mutex_unlock@plt>
 764181b:	e8 90 11 6e 00       	call   7d229b0 <pthread_mutex_lock@plt>
 764188d:	e9 2e 11 6e 00       	jmp    7d229c0 <pthread_mutex_unlock@plt>
 7641a34:	e8 87 0f 6e 00       	call   7d229c0 <pthread_mutex_unlock@plt>
 7641cb8:	e8 03 0d 6e 00       	call   7d229c0 <pthread_mutex_unlock@plt>
 7641da7:	e8 14 0c 6e 00       	call   7d229c0 <pthread_mutex_unlock@plt>
 7641e57:	e8 64 0b 6e 00       	call   7d229c0 <pthread_mutex_unlock@plt>
 7641e99:	e8 22 0b 6e 00       	call   7d229c0 <pthread_mutex_unlock@plt>
 7642949:	e8 72 01 6e 00       	call   7d22ac0 <pthread_once@plt>
 7643102:	e8 a9 f8 6d 00       	call   7d229b0 <pthread_mutex_lock@plt>
 764322f:	e8 8c f7 6d 00       	call   7d229c0 <pthread_mutex_unlock@plt>
 76432ad:	e8 fe f6 6d 00       	call   7d229b0 <pthread_mutex_lock@plt>
 76432cc:	e9 ef f6 6d 00       	jmp    7d229c0 <pthread_mutex_unlock@plt>
 7643370:	e8 4b f6 6d 00       	call   7d229c0 <pthread_mutex_unlock@plt>
 7643c5a:	e8 51 ed 6d 00       	call   7d229b0 <pthread_mutex_lock@plt>
 7643c80:	e8 3b ed 6d 00       	call   7d229c0 <pthread_mutex_unlock@plt>
 7643ea7:	e8 04 eb 6d 00       	call   7d229b0 <pthread_mutex_lock@plt>
 7643eb8:	e8 03 eb 6d 00       	call   7d229c0 <pthread_mutex_unlock@plt>
 7643ef1:	e8 ba ea 6d 00       	call   7d229b0 <pthread_mutex_lock@plt>
 7643f05:	e9 b6 ea 6d 00       	jmp    7d229c0 <pthread_mutex_unlock@plt>
 7643f31:	e8 7a ea 6d 00       	call   7d229b0 <pthread_mutex_lock@plt>
 7643f58:	e9 63 ea 6d 00       	jmp    7d229c0 <pthread_mutex_unlock@plt>
 76440b3:	e8 f8 e8 6d 00       	call   7d229b0 <pthread_mutex_lock@plt>
 7644107:	e9 b4 e8 6d 00       	jmp    7d229c0 <pthread_mutex_unlock@plt>
 76441cd:	e8 de e7 6d 00       	call   7d229b0 <pthread_mutex_lock@plt>
 76441e2:	e8 d9 e7 6d 00       	call   7d229c0 <pthread_mutex_unlock@plt>
 7644596:	e8 15 e4 6d 00       	call   7d229b0 <pthread_mutex_lock@plt>
 76445ab:	e8 10 e4 6d 00       	call   7d229c0 <pthread_mutex_unlock@plt>
 76446c8:	e8 e3 e2 6d 00       	call   7d229b0 <pthread_mutex_lock@plt>
 76446f3:	e8 c8 e2 6d 00       	call   7d229c0 <pthread_mutex_unlock@plt>
 76470bd:	e8 fe b9 6d 00       	call   7d22ac0 <pthread_once@plt>
 76480d6:	e8 e5 a9 6d 00       	call   7d22ac0 <pthread_once@plt>
 7649c2b:	e8 90 8e 6d 00       	call   7d22ac0 <pthread_once@plt>
 764ac2b:	e8 90 7e 6d 00       	call   7d22ac0 <pthread_once@plt>
 764bb4a:	e8 71 6f 6d 00       	call   7d22ac0 <pthread_once@plt>
 764c664:	e8 57 64 6d 00       	call   7d22ac0 <pthread_once@plt>
 765253a:	e8 71 04 6d 00       	call   7d229b0 <pthread_mutex_lock@plt>
 7652554:	e9 67 04 6d 00       	jmp    7d229c0 <pthread_mutex_unlock@plt>
 76525f0:	e8 bb 03 6d 00       	call   7d229b0 <pthread_mutex_lock@plt>
 76528b6:	e9 05 01 6d 00       	jmp    7d229c0 <pthread_mutex_unlock@plt>
 7652973:	e8 38 00 6d 00       	call   7d229b0 <pthread_mutex_lock@plt>
 7652ac5:	e9 f6 fe 6c 00       	jmp    7d229c0 <pthread_mutex_unlock@plt>
 7652e0f:	e8 ac fb 6c 00       	call   7d229c0 <pthread_mutex_unlock@plt>
 7652e98:	e8 23 fb 6c 00       	call   7d229c0 <pthread_mutex_unlock@plt>
 765412a:	e8 81 e8 6c 00       	call   7d229b0 <pthread_mutex_lock@plt>
 7654159:	e8 62 e8 6c 00       	call   7d229c0 <pthread_mutex_unlock@plt>
 7657e65:	e8 46 ab 6c 00       	call   7d229b0 <pthread_mutex_lock@plt>
 7657e91:	e8 2a ab 6c 00       	call   7d229c0 <pthread_mutex_unlock@plt>
 7657ff6:	e8 b5 a9 6c 00       	call   7d229b0 <pthread_mutex_lock@plt>
 7658892:	e8 19 a1 6c 00       	call   7d229b0 <pthread_mutex_lock@plt>
 76588b0:	e8 0b a1 6c 00       	call   7d229c0 <pthread_mutex_unlock@plt>
 7658956:	e8 55 a0 6c 00       	call   7d229b0 <pthread_mutex_lock@plt>
 765897a:	e8 41 a0 6c 00       	call   7d229c0 <pthread_mutex_unlock@plt>
 76589c7:	e8 f4 9f 6c 00       	call   7d229c0 <pthread_mutex_unlock@plt>
 765a076:	e8 35 89 6c 00       	call   7d229b0 <pthread_mutex_lock@plt>
 765a1ea:	e8 c1 87 6c 00       	call   7d229b0 <pthread_mutex_lock@plt>
 765a242:	e8 69 87 6c 00       	call   7d229b0 <pthread_mutex_lock@plt>
 765a29a:	e8 21 87 6c 00       	call   7d229c0 <pthread_mutex_unlock@plt>
 765a354:	e8 57 86 6c 00       	call   7d229b0 <pthread_mutex_lock@plt>
 765a39b:	e8 20 86 6c 00       	call   7d229c0 <pthread_mutex_unlock@plt>
 765a3ce:	e8 ed 85 6c 00       	call   7d229c0 <pthread_mutex_unlock@plt>
 765a536:	e8 75 84 6c 00       	call   7d229b0 <pthread_mutex_lock@plt>
 765a607:	e9 b4 83 6c 00       	jmp    7d229c0 <pthread_mutex_unlock@plt>
 765cda6:	e8 15 5c 6c 00       	call   7d229c0 <pthread_mutex_unlock@plt>
 7660f79:	e8 42 1b 6c 00       	call   7d22ac0 <pthread_once@plt>
 7662370:	e8 4b 07 6c 00       	call   7d22ac0 <pthread_once@plt>
 7664dd0:	e8 eb dc 6b 00       	call   7d22ac0 <pthread_once@plt>
 766853a:	e8 71 a4 6b 00       	call   7d229b0 <pthread_mutex_lock@plt>
 76685c5:	e8 e6 a3 6b 00       	call   7d229b0 <pthread_mutex_lock@plt>
 76685f2:	e9 c9 a3 6b 00       	jmp    7d229c0 <pthread_mutex_unlock@plt>
 7668618:	e9 a3 a3 6b 00       	jmp    7d229c0 <pthread_mutex_unlock@plt>
 7668a9a:	e8 21 9f 6b 00       	call   7d229c0 <pthread_mutex_unlock@plt>
 7669c5d:	e8 4e 8d 6b 00       	call   7d229b0 <pthread_mutex_lock@plt>
 7669cbc:	e9 ff 8c 6b 00       	jmp    7d229c0 <pthread_mutex_unlock@plt>
 766be61:	e8 4a 6b 6b 00       	call   7d229b0 <pthread_mutex_lock@plt>
 766be9e:	e8 1d 6b 6b 00       	call   7d229c0 <pthread_mutex_unlock@plt>
 766bf10:	e8 ab 6a 6b 00       	call   7d229c0 <pthread_mutex_unlock@plt>
 766d835:	e8 76 51 6b 00       	call   7d229b0 <pthread_mutex_lock@plt>
 766d866:	e8 55 51 6b 00       	call   7d229c0 <pthread_mutex_unlock@plt>
 766d999:	e8 12 50 6b 00       	call   7d229b0 <pthread_mutex_lock@plt>
 766d9b2:	e8 09 50 6b 00       	call   7d229c0 <pthread_mutex_unlock@plt>
 766d9de:	e8 cd 4f 6b 00       	call   7d229b0 <pthread_mutex_lock@plt>
 766da5d:	e8 5e 4f 6b 00       	call   7d229c0 <pthread_mutex_unlock@plt>
 766e067:	e8 44 49 6b 00       	call   7d229b0 <pthread_mutex_lock@plt>
 766e0ab:	e8 10 49 6b 00       	call   7d229c0 <pthread_mutex_unlock@plt>
 766e158:	e8 53 48 6b 00       	call   7d229b0 <pthread_mutex_lock@plt>
 766e1d4:	e8 e7 47 6b 00       	call   7d229c0 <pthread_mutex_unlock@plt>
 766e303:	e8 b8 46 6b 00       	call   7d229c0 <pthread_mutex_unlock@plt>
 766e752:	e8 59 42 6b 00       	call   7d229b0 <pthread_mutex_lock@plt>
 766e783:	e8 38 42 6b 00       	call   7d229c0 <pthread_mutex_unlock@plt>
 7671a8c:	e8 1f 0f 6b 00       	call   7d229b0 <pthread_mutex_lock@plt>
 7671bb3:	e8 08 0e 6b 00       	call   7d229c0 <pthread_mutex_unlock@plt>
 7671d7f:	e8 2c 0c 6b 00       	call   7d229b0 <pthread_mutex_lock@plt>
 7671ff4:	e8 b7 09 6b 00       	call   7d229b0 <pthread_mutex_lock@plt>
 7672529:	e8 82 04 6b 00       	call   7d229b0 <pthread_mutex_lock@plt>
 76729e7:	e8 c4 ff 6a 00       	call   7d229b0 <pthread_mutex_lock@plt>
 7672aba:	e8 01 ff 6a 00       	call   7d229c0 <pthread_mutex_unlock@plt>
 767340e:	e8 9d f5 6a 00       	call   7d229b0 <pthread_mutex_lock@plt>
 767345f:	e8 5c f5 6a 00       	call   7d229c0 <pthread_mutex_unlock@plt>
 767374e:	e8 6d f2 6a 00       	call   7d229c0 <pthread_mutex_unlock@plt>
 76737c7:	e8 f4 f1 6a 00       	call   7d229c0 <pthread_mutex_unlock@plt>
 767466c:	e8 3f e3 6a 00       	call   7d229b0 <pthread_mutex_lock@plt>
 767481d:	e8 9e e1 6a 00       	call   7d229c0 <pthread_mutex_unlock@plt>
 7674bcf:	e8 ec dd 6a 00       	call   7d229c0 <pthread_mutex_unlock@plt>
 7674c2c:	e8 8f dd 6a 00       	call   7d229c0 <pthread_mutex_unlock@plt>
 7674d7f:	e8 3c dc 6a 00       	call   7d229c0 <pthread_mutex_unlock@plt>
 7675c2c:	e8 7f cd 6a 00       	call   7d229b0 <pthread_mutex_lock@plt>
 76762c9:	e8 e2 c6 6a 00       	call   7d229b0 <pthread_mutex_lock@plt>
 76763e5:	e8 d6 c5 6a 00       	call   7d229c0 <pthread_mutex_unlock@plt>
 7676610:	e8 ab c3 6a 00       	call   7d229c0 <pthread_mutex_unlock@plt>
 767877e:	e8 2d a2 6a 00       	call   7d229b0 <pthread_mutex_lock@plt>
 767ae8a:	e8 21 7b 6a 00       	call   7d229b0 <pthread_mutex_lock@plt>
 767aeaa:	e8 11 7b 6a 00       	call   7d229c0 <pthread_mutex_unlock@plt>
 767b3d0:	e8 db 75 6a 00       	call   7d229b0 <pthread_mutex_lock@plt>
 767b3f3:	e8 c8 75 6a 00       	call   7d229c0 <pthread_mutex_unlock@plt>
 767b5f2:	e8 b9 73 6a 00       	call   7d229b0 <pthread_mutex_lock@plt>
 767b6ca:	e8 f1 72 6a 00       	call   7d229c0 <pthread_mutex_unlock@plt>
 767c096:	e8 15 69 6a 00       	call   7d229b0 <pthread_mutex_lock@plt>
 767c0e6:	e8 d5 68 6a 00       	call   7d229c0 <pthread_mutex_unlock@plt>
 7685455:	e8 56 d5 69 00       	call   7d229b0 <pthread_mutex_lock@plt>
 768b16e:	e8 4d 78 69 00       	call   7d229c0 <pthread_mutex_unlock@plt>
 768b247:	e8 74 77 69 00       	call   7d229c0 <pthread_mutex_unlock@plt>
 768bb28:	e8 93 6e 69 00       	call   7d229c0 <pthread_mutex_unlock@plt>
 768bb8a:	e8 31 6e 69 00       	call   7d229c0 <pthread_mutex_unlock@plt>
 768c73e:	e8 7d 62 69 00       	call   7d229c0 <pthread_mutex_unlock@plt>
 768c7e2:	e8 d9 61 69 00       	call   7d229c0 <pthread_mutex_unlock@plt>
 768c9d8:	e8 e3 5f 69 00       	call   7d229c0 <pthread_mutex_unlock@plt>
 768cec2:	e8 f9 5a 69 00       	call   7d229c0 <pthread_mutex_unlock@plt>
 768d710:	e8 ab 52 69 00       	call   7d229c0 <pthread_mutex_unlock@plt>
 768e7da:	e8 e1 41 69 00       	call   7d229c0 <pthread_mutex_unlock@plt>
 768e847:	e8 74 41 69 00       	call   7d229c0 <pthread_mutex_unlock@plt>
 768e85b:	e8 60 41 69 00       	call   7d229c0 <pthread_mutex_unlock@plt>
 768eb28:	e8 93 3e 69 00       	call   7d229c0 <pthread_mutex_unlock@plt>
 769206d:	e8 3e 09 69 00       	call   7d229b0 <pthread_mutex_lock@plt>
 769209e:	e8 1d 09 69 00       	call   7d229c0 <pthread_mutex_unlock@plt>
 7692191:	e8 1a 08 69 00       	call   7d229b0 <pthread_mutex_lock@plt>
 76921aa:	e8 11 08 69 00       	call   7d229c0 <pthread_mutex_unlock@plt>
 76921de:	e8 cd 07 69 00       	call   7d229b0 <pthread_mutex_lock@plt>
 7692255:	e8 66 07 69 00       	call   7d229c0 <pthread_mutex_unlock@plt>
 76929a5:	e8 06 00 69 00       	call   7d229b0 <pthread_mutex_lock@plt>
 76929d6:	e8 e5 ff 68 00       	call   7d229c0 <pthread_mutex_unlock@plt>
 7692b19:	e8 92 fe 68 00       	call   7d229b0 <pthread_mutex_lock@plt>
 7692b32:	e8 89 fe 68 00       	call   7d229c0 <pthread_mutex_unlock@plt>
 7692b5e:	e8 4d fe 68 00       	call   7d229b0 <pthread_mutex_lock@plt>
 7692bd5:	e8 e6 fd 68 00       	call   7d229c0 <pthread_mutex_unlock@plt>
 7696e9a:	e8 11 bb 68 00       	call   7d229b0 <pthread_mutex_lock@plt>
 7696ece:	e8 ed ba 68 00       	call   7d229c0 <pthread_mutex_unlock@plt>
 76970b0:	e8 fb b8 68 00       	call   7d229b0 <pthread_mutex_lock@plt>
 76970ca:	e8 f1 b8 68 00       	call   7d229c0 <pthread_mutex_unlock@plt>
 769717f:	e8 2c b8 68 00       	call   7d229b0 <pthread_mutex_lock@plt>
 76971ff:	e8 bc b7 68 00       	call   7d229c0 <pthread_mutex_unlock@plt>
 7697744:	e8 77 b3 68 00       	call   7d22ac0 <pthread_once@plt>
 76a26cf:	e8 ec 03 68 00       	call   7d22ac0 <pthread_once@plt>
 76a730a:	e8 b1 b7 67 00       	call   7d22ac0 <pthread_once@plt>
 76a7867:	e8 44 b1 67 00       	call   7d229b0 <pthread_mutex_lock@plt>
 76a7880:	e8 3b b1 67 00       	call   7d229c0 <pthread_mutex_unlock@plt>
 76a7a3a:	e8 d1 b3 67 00       	call   7d22e10 <pthread_mutex_destroy@plt>
 76a7aee:	e8 1d b3 67 00       	call   7d22e10 <pthread_mutex_destroy@plt>
 76a7b14:	e8 f7 b2 67 00       	call   7d22e10 <pthread_mutex_destroy@plt>
 76a7b59:	e9 b2 b2 67 00       	jmp    7d22e10 <pthread_mutex_destroy@plt>
 76a7bd6:	e8 d5 ad 67 00       	call   7d229b0 <pthread_mutex_lock@plt>
 76a7c58:	e8 63 ad 67 00       	call   7d229c0 <pthread_mutex_unlock@plt>
 76a7ce8:	e8 c3 ac 67 00       	call   7d229b0 <pthread_mutex_lock@plt>
 76a7d49:	e8 72 ac 67 00       	call   7d229c0 <pthread_mutex_unlock@plt>
 76a7d5a:	e8 51 ac 67 00       	call   7d229b0 <pthread_mutex_lock@plt>
 76a7d8b:	e8 30 ac 67 00       	call   7d229c0 <pthread_mutex_unlock@plt>
 76a7e0e:	e9 ad ab 67 00       	jmp    7d229c0 <pthread_mutex_unlock@plt>
 76a8055:	e8 b6 ad 67 00       	call   7d22e10 <pthread_mutex_destroy@plt>
 76a82e7:	e8 c4 a6 67 00       	call   7d229b0 <pthread_mutex_lock@plt>
 76a82f7:	e8 c4 a6 67 00       	call   7d229c0 <pthread_mutex_unlock@plt>
 76a8337:	e8 74 a6 67 00       	call   7d229b0 <pthread_mutex_lock@plt>
 76a834a:	e9 71 a6 67 00       	jmp    7d229c0 <pthread_mutex_unlock@plt>
 76a8c07:	e8 a4 9d 67 00       	call   7d229b0 <pthread_mutex_lock@plt>
 76a8c17:	e8 a4 9d 67 00       	call   7d229c0 <pthread_mutex_unlock@plt>
 76a9ad0:	e8 db 8e 67 00       	call   7d229b0 <pthread_mutex_lock@plt>
 76a9bd9:	e9 e2 8d 67 00       	jmp    7d229c0 <pthread_mutex_unlock@plt>
 76a9bef:	e8 cc 8d 67 00       	call   7d229c0 <pthread_mutex_unlock@plt>
 76a9d47:	e8 64 8c 67 00       	call   7d229b0 <pthread_mutex_lock@plt>
 76a9d7c:	e9 3f 8c 67 00       	jmp    7d229c0 <pthread_mutex_unlock@plt>
 76a9df7:	e8 b4 8b 67 00       	call   7d229b0 <pthread_mutex_lock@plt>
 76a9e16:	e9 a5 8b 67 00       	jmp    7d229c0 <pthread_mutex_unlock@plt>
 76a9e87:	e8 24 8b 67 00       	call   7d229b0 <pthread_mutex_lock@plt>
 76a9ebe:	e9 fd 8a 67 00       	jmp    7d229c0 <pthread_mutex_unlock@plt>
 76aa2de:	e8 dd 86 67 00       	call   7d229c0 <pthread_mutex_unlock@plt>
 76aa315:	e8 a6 86 67 00       	call   7d229c0 <pthread_mutex_unlock@plt>
 76aa32b:	e8 80 86 67 00       	call   7d229b0 <pthread_mutex_lock@plt>
 76aa351:	e8 5a 86 67 00       	call   7d229b0 <pthread_mutex_lock@plt>
 76aa663:	e9 f8 8e 67 00       	jmp    7d23560 <pthread_detach@plt>
 76aa691:	e8 4a 8a 67 00       	call   7d230e0 <pthread_join@plt>
 76aacc4:	e8 e7 7c 67 00       	call   7d229b0 <pthread_mutex_lock@plt>
 76aace2:	e8 79 83 67 00       	call   7d23060 <pthread_cond_broadcast@plt>
 76aad4a:	e9 71 7c 67 00       	jmp    7d229c0 <pthread_mutex_unlock@plt>
 76aae2e:	e8 ad 82 67 00       	call   7d230e0 <pthread_join@plt>
 76aae52:	e8 09 87 67 00       	call   7d23560 <pthread_detach@plt>
 76aaec5:	e8 16 82 67 00       	call   7d230e0 <pthread_join@plt>
 76aaee4:	e8 77 86 67 00       	call   7d23560 <pthread_detach@plt>
 76aaf55:	e8 86 81 67 00       	call   7d230e0 <pthread_join@plt>
 76aaf74:	e8 e7 85 67 00       	call   7d23560 <pthread_detach@plt>
 76aafed:	e8 ee 80 67 00       	call   7d230e0 <pthread_join@plt>
 76ab014:	e8 47 85 67 00       	call   7d23560 <pthread_detach@plt>
 76ab09d:	e8 3e 80 67 00       	call   7d230e0 <pthread_join@plt>
 76ab0c4:	e8 97 84 67 00       	call   7d23560 <pthread_detach@plt>
 76ab139:	e9 d2 7c 67 00       	jmp    7d22e10 <pthread_mutex_destroy@plt>
 76ab144:	e8 17 84 67 00       	call   7d23560 <pthread_detach@plt>
 76ab1a7:	e8 04 78 67 00       	call   7d229b0 <pthread_mutex_lock@plt>
 76ab1b7:	e8 04 78 67 00       	call   7d229c0 <pthread_mutex_unlock@plt>
 76ab1f7:	e8 b4 77 67 00       	call   7d229b0 <pthread_mutex_lock@plt>
 76ab20a:	e9 b1 77 67 00       	jmp    7d229c0 <pthread_mutex_unlock@plt>
 76ab36c:	e8 ef 7c 67 00       	call   7d23060 <pthread_cond_broadcast@plt>
 76ab474:	e9 b7 7f 67 00       	jmp    7d23430 <pthread_cond_signal@plt>
 76ab484:	e8 37 75 67 00       	call   7d229c0 <pthread_mutex_unlock@plt>
 76ab494:	e8 27 75 67 00       	call   7d229c0 <pthread_mutex_unlock@plt>
 76ab595:	e8 16 74 67 00       	call   7d229b0 <pthread_mutex_lock@plt>
 76ab5d9:	e9 e2 73 67 00       	jmp    7d229c0 <pthread_mutex_unlock@plt>
 76ab6d7:	e8 d4 72 67 00       	call   7d229b0 <pthread_mutex_lock@plt>
 76ab72a:	e9 91 72 67 00       	jmp    7d229c0 <pthread_mutex_unlock@plt>
 76ab8cd:	e8 ee 70 67 00       	call   7d229c0 <pthread_mutex_unlock@plt>
 76aba58:	e8 53 6f 67 00       	call   7d229b0 <pthread_mutex_lock@plt>
 76abaa5:	e8 16 6f 67 00       	call   7d229c0 <pthread_mutex_unlock@plt>
 76abc29:	e9 92 6d 67 00       	jmp    7d229c0 <pthread_mutex_unlock@plt>
 76abc35:	e8 76 6d 67 00       	call   7d229b0 <pthread_mutex_lock@plt>
 76abd04:	e8 a7 6c 67 00       	call   7d229b0 <pthread_mutex_lock@plt>
 76abd31:	e9 8a 6c 67 00       	jmp    7d229c0 <pthread_mutex_unlock@plt>
 76abe71:	e9 4a 6b 67 00       	jmp    7d229c0 <pthread_mutex_unlock@plt>
 76abe85:	e8 26 6b 67 00       	call   7d229b0 <pthread_mutex_lock@plt>
 76ac0a4:	e8 07 69 67 00       	call   7d229b0 <pthread_mutex_lock@plt>
 76ac0dd:	e9 de 68 67 00       	jmp    7d229c0 <pthread_mutex_unlock@plt>
 76ac0e6:	e8 d5 68 67 00       	call   7d229c0 <pthread_mutex_unlock@plt>
 76ac3f7:	e8 b4 65 67 00       	call   7d229b0 <pthread_mutex_lock@plt>
 76ac433:	e9 88 65 67 00       	jmp    7d229c0 <pthread_mutex_unlock@plt>
 76ac43f:	e8 7c 65 67 00       	call   7d229c0 <pthread_mutex_unlock@plt>
 76ac942:	e8 79 60 67 00       	call   7d229c0 <pthread_mutex_unlock@plt>
 76ac954:	e8 57 60 67 00       	call   7d229b0 <pthread_mutex_lock@plt>
 76ac9bc:	e8 ff 5f 67 00       	call   7d229c0 <pthread_mutex_unlock@plt>
 76ac9ca:	e8 f1 5f 67 00       	call   7d229c0 <pthread_mutex_unlock@plt>
 76acc26:	e8 25 64 67 00       	call   7d23050 <pthread_cond_wait@plt>
 76acd44:	e8 e7 66 67 00       	call   7d23430 <pthread_cond_signal@plt>
 76acd80:	e8 2b 5c 67 00       	call   7d229b0 <pthread_mutex_lock@plt>
 76acda0:	e8 1b 5c 67 00       	call   7d229c0 <pthread_mutex_unlock@plt>
 76ace99:	e8 12 5b 67 00       	call   7d229b0 <pthread_mutex_lock@plt>
 76aced0:	e8 eb 5a 67 00       	call   7d229c0 <pthread_mutex_unlock@plt>
 76acefe:	e8 bd 5a 67 00       	call   7d229c0 <pthread_mutex_unlock@plt>
 76ad210:	e8 9b 57 67 00       	call   7d229b0 <pthread_mutex_lock@plt>
 76ad3ab:	e8 80 60 67 00       	call   7d23430 <pthread_cond_signal@plt>
 76ad3e0:	e8 db 55 67 00       	call   7d229c0 <pthread_mutex_unlock@plt>
 76ad4c7:	e8 64 5f 67 00       	call   7d23430 <pthread_cond_signal@plt>
 76ad50c:	e8 9f 54 67 00       	call   7d229b0 <pthread_mutex_lock@plt>
 76ad530:	e8 8b 54 67 00       	call   7d229c0 <pthread_mutex_unlock@plt>
 76ad5a7:	e8 24 55 67 00       	call   7d22ad0 <pthread_cond_timedwait@plt>
 76ad5bd:	e8 fe 53 67 00       	call   7d229c0 <pthread_mutex_unlock@plt>
 76ad5f4:	e8 c7 53 67 00       	call   7d229c0 <pthread_mutex_unlock@plt>
 76ad60a:	e8 b1 53 67 00       	call   7d229c0 <pthread_mutex_unlock@plt>
 76ad8cf:	e8 5c 5b 67 00       	call   7d23430 <pthread_cond_signal@plt>
 76ad930:	e8 7b 50 67 00       	call   7d229b0 <pthread_mutex_lock@plt>
 76ad970:	e8 4b 50 67 00       	call   7d229c0 <pthread_mutex_unlock@plt>
 76ada2c:	e8 8f 4f 67 00       	call   7d229c0 <pthread_mutex_unlock@plt>
 76ada50:	e8 5b 4f 67 00       	call   7d229b0 <pthread_mutex_lock@plt>
 76ada6e:	e8 4d 4f 67 00       	call   7d229c0 <pthread_mutex_unlock@plt>
 76ada94:	e9 77 53 67 00       	jmp    7d22e10 <pthread_mutex_destroy@plt>
 76adbd5:	e8 d6 4d 67 00       	call   7d229b0 <pthread_mutex_lock@plt>
 76adc30:	e8 8b 4d 67 00       	call   7d229c0 <pthread_mutex_unlock@plt>
 76adc5d:	e8 5e 4d 67 00       	call   7d229c0 <pthread_mutex_unlock@plt>
 76adc7b:	e8 30 4d 67 00       	call   7d229b0 <pthread_mutex_lock@plt>
 76addcf:	e8 dc 4b 67 00       	call   7d229b0 <pthread_mutex_lock@plt>
 76ade15:	e9 a6 4b 67 00       	jmp    7d229c0 <pthread_mutex_unlock@plt>
 76ae05c:	e8 4f 49 67 00       	call   7d229b0 <pthread_mutex_lock@plt>
 76ae112:	e9 a9 48 67 00       	jmp    7d229c0 <pthread_mutex_unlock@plt>
 76ae1b8:	e8 f3 47 67 00       	call   7d229b0 <pthread_mutex_lock@plt>
 76ae225:	e8 96 47 67 00       	call   7d229c0 <pthread_mutex_unlock@plt>
 76ae2fd:	e8 ae 46 67 00       	call   7d229b0 <pthread_mutex_lock@plt>
 76ae3db:	e8 e0 45 67 00       	call   7d229c0 <pthread_mutex_unlock@plt>
 76ae52c:	e8 7f 44 67 00       	call   7d229b0 <pthread_mutex_lock@plt>
 76ae580:	e8 3b 44 67 00       	call   7d229c0 <pthread_mutex_unlock@plt>
 76ae6a1:	e8 0a 43 67 00       	call   7d229b0 <pthread_mutex_lock@plt>
 76ae780:	e8 3b 42 67 00       	call   7d229c0 <pthread_mutex_unlock@plt>
 76ae824:	e8 87 41 67 00       	call   7d229b0 <pthread_mutex_lock@plt>
 76ae8a4:	e8 17 41 67 00       	call   7d229c0 <pthread_mutex_unlock@plt>
 76aea2d:	e8 7e 3f 67 00       	call   7d229b0 <pthread_mutex_lock@plt>
 76aebf3:	e9 c8 3d 67 00       	jmp    7d229c0 <pthread_mutex_unlock@plt>
 76aec3a:	e8 71 3d 67 00       	call   7d229b0 <pthread_mutex_lock@plt>
 76aec57:	e8 64 3d 67 00       	call   7d229c0 <pthread_mutex_unlock@plt>
 76aec89:	e8 22 3d 67 00       	call   7d229b0 <pthread_mutex_lock@plt>
 76aecf6:	e9 c5 3c 67 00       	jmp    7d229c0 <pthread_mutex_unlock@plt>
 76aef2b:	e8 80 3a 67 00       	call   7d229b0 <pthread_mutex_lock@plt>
 76aef78:	e9 43 3a 67 00       	jmp    7d229c0 <pthread_mutex_unlock@plt>
 76aefa3:	e9 18 3a 67 00       	jmp    7d229c0 <pthread_mutex_unlock@plt>
 76aefc2:	e9 f9 39 67 00       	jmp    7d229c0 <pthread_mutex_unlock@plt>
 76b2318:	e8 93 06 67 00       	call   7d229b0 <pthread_mutex_lock@plt>
 76b2353:	e8 68 06 67 00       	call   7d229c0 <pthread_mutex_unlock@plt>
 76b2486:	e8 25 05 67 00       	call   7d229b0 <pthread_mutex_lock@plt>
 76b24c4:	e8 f7 04 67 00       	call   7d229c0 <pthread_mutex_unlock@plt>
 76b24fa:	e8 c1 04 67 00       	call   7d229c0 <pthread_mutex_unlock@plt>
 76b252e:	e8 8d 04 67 00       	call   7d229c0 <pthread_mutex_unlock@plt>
 76b2659:	e8 52 03 67 00       	call   7d229b0 <pthread_mutex_lock@plt>
 76b2696:	e8 25 03 67 00       	call   7d229c0 <pthread_mutex_unlock@plt>
 76b26b7:	e8 f4 02 67 00       	call   7d229b0 <pthread_mutex_lock@plt>
 76b26d4:	e8 e7 02 67 00       	call   7d229c0 <pthread_mutex_unlock@plt>
 76b2741:	e8 7a 02 67 00       	call   7d229c0 <pthread_mutex_unlock@plt>
 76b277e:	e8 2d 02 67 00       	call   7d229b0 <pthread_mutex_lock@plt>
 76b27b3:	e9 08 02 67 00       	jmp    7d229c0 <pthread_mutex_unlock@plt>
 76b27db:	e8 e0 01 67 00       	call   7d229c0 <pthread_mutex_unlock@plt>
 76b5247:	e8 64 d7 66 00       	call   7d229b0 <pthread_mutex_lock@plt>
 76b5260:	e8 5b d7 66 00       	call   7d229c0 <pthread_mutex_unlock@plt>
 76b538c:	e8 1f d6 66 00       	call   7d229b0 <pthread_mutex_lock@plt>
 76b5463:	e8 58 d5 66 00       	call   7d229c0 <pthread_mutex_unlock@plt>
 76b5474:	e8 37 d5 66 00       	call   7d229b0 <pthread_mutex_lock@plt>
 76b563b:	e8 80 d3 66 00       	call   7d229c0 <pthread_mutex_unlock@plt>
 76b5652:	e8 59 d3 66 00       	call   7d229b0 <pthread_mutex_lock@plt>
 76b581b:	e8 a0 d1 66 00       	call   7d229c0 <pthread_mutex_unlock@plt>
 76b5839:	e8 72 d1 66 00       	call   7d229b0 <pthread_mutex_lock@plt>
 76b598c:	e8 1f d0 66 00       	call   7d229b0 <pthread_mutex_lock@plt>
 76b5adc:	e8 cf ce 66 00       	call   7d229b0 <pthread_mutex_lock@plt>
 76b5afb:	e8 c0 ce 66 00       	call   7d229c0 <pthread_mutex_unlock@plt>
 76b5d4a:	e8 61 cc 66 00       	call   7d229b0 <pthread_mutex_lock@plt>
 76b5d6b:	e8 50 cc 66 00       	call   7d229c0 <pthread_mutex_unlock@plt>
 76b7755:	e8 56 b2 66 00       	call   7d229b0 <pthread_mutex_lock@plt>
 76b77cb:	e8 f0 b1 66 00       	call   7d229c0 <pthread_mutex_unlock@plt>
 76b7888:	e9 33 b1 66 00       	jmp    7d229c0 <pthread_mutex_unlock@plt>
 76b88fa:	e8 c1 a0 66 00       	call   7d229c0 <pthread_mutex_unlock@plt>
 76b895c:	e8 4f a0 66 00       	call   7d229b0 <pthread_mutex_lock@plt>
 76b89be:	e8 3d a6 66 00       	call   7d23000 <pthread_condattr_init@plt>
 76b89cb:	e8 40 a6 66 00       	call   7d23010 <pthread_condattr_setclock@plt>
 76b89fe:	e8 2d a6 66 00       	call   7d23030 <pthread_cond_init@plt>
 76b8a5a:	e8 c1 9f 66 00       	call   7d22a20 <pthread_mutex_init@plt>
 76b8ac9:	e8 02 a6 66 00       	call   7d230d0 <pthread_create@plt>
 76b8bec:	e8 6f a9 66 00       	call   7d23560 <pthread_detach@plt>
 76b8c00:	e8 ab 9d 66 00       	call   7d229b0 <pthread_mutex_lock@plt>
 76b8c11:	e8 aa 9d 66 00       	call   7d229c0 <pthread_mutex_unlock@plt>
 76b8c25:	e8 b6 a4 66 00       	call   7d230e0 <pthread_join@plt>
 76b8c65:	e8 46 9d 66 00       	call   7d229b0 <pthread_mutex_lock@plt>
 76b8c7c:	e9 3f 9d 66 00       	jmp    7d229c0 <pthread_mutex_unlock@plt>
 76b8cec:	e9 cf 9c 66 00       	jmp    7d229c0 <pthread_mutex_unlock@plt>
 76b8cfb:	e8 60 a8 66 00       	call   7d23560 <pthread_detach@plt>
 76b8daa:	e8 21 b9 66 00       	call   7d246d0 <pthread_key_create@plt>
 76b8ee8:	e8 33 9b 66 00       	call   7d22a20 <pthread_mutex_init@plt>
 76b8f82:	e8 99 9a 66 00       	call   7d22a20 <pthread_mutex_init@plt>
 76b9042:	e8 d9 99 66 00       	call   7d22a20 <pthread_mutex_init@plt>
 76b90fa:	e8 21 99 66 00       	call   7d22a20 <pthread_mutex_init@plt>
 76b91e2:	e8 39 98 66 00       	call   7d22a20 <pthread_mutex_init@plt>
 76b92fc:	e8 1f 97 66 00       	call   7d22a20 <pthread_mutex_init@plt>
 76b9407:	e8 14 96 66 00       	call   7d22a20 <pthread_mutex_init@plt>
 76b94dd:	e8 3e 95 66 00       	call   7d22a20 <pthread_mutex_init@plt>
 76b95b4:	e8 67 94 66 00       	call   7d22a20 <pthread_mutex_init@plt>
 76b9625:	e8 f6 93 66 00       	call   7d22a20 <pthread_mutex_init@plt>
 76b977a:	e8 a1 92 66 00       	call   7d22a20 <pthread_mutex_init@plt>
 76b98d6:	e8 45 91 66 00       	call   7d22a20 <pthread_mutex_init@plt>
 76b9a56:	e8 c5 8f 66 00       	call   7d22a20 <pthread_mutex_init@plt>
 76b9c37:	e8 e4 8d 66 00       	call   7d22a20 <pthread_mutex_init@plt>
 76b9c97:	e8 84 8d 66 00       	call   7d22a20 <pthread_mutex_init@plt>
 76b9dcd:	e8 de 8b 66 00       	call   7d229b0 <pthread_mutex_lock@plt>
 76b9e69:	e9 52 8b 66 00       	jmp    7d229c0 <pthread_mutex_unlock@plt>
 76b9ea0:	e8 7b 8b 66 00       	call   7d22a20 <pthread_mutex_init@plt>
 76b9f6c:	e8 9f 8e 66 00       	call   7d22e10 <pthread_mutex_destroy@plt>
 76ba0dd:	e8 ce 88 66 00       	call   7d229b0 <pthread_mutex_lock@plt>
 76ba0f7:	e8 c4 88 66 00       	call   7d229c0 <pthread_mutex_unlock@plt>
 76ba130:	e8 eb 88 66 00       	call   7d22a20 <pthread_mutex_init@plt>
 76ba29f:	e8 0c 87 66 00       	call   7d229b0 <pthread_mutex_lock@plt>
 76ba2dd:	e8 de 86 66 00       	call   7d229c0 <pthread_mutex_unlock@plt>
 76ba947:	e8 74 80 66 00       	call   7d229c0 <pthread_mutex_unlock@plt>
 76ba95c:	e8 4f 80 66 00       	call   7d229b0 <pthread_mutex_lock@plt>
 76ba9c2:	e8 e9 7f 66 00       	call   7d229b0 <pthread_mutex_lock@plt>
 76baa04:	e9 b7 7f 66 00       	jmp    7d229c0 <pthread_mutex_unlock@plt>
 76baa2a:	e8 91 7f 66 00       	call   7d229c0 <pthread_mutex_unlock@plt>
 76baad1:	e8 ea 7e 66 00       	call   7d229c0 <pthread_mutex_unlock@plt>
 76bab42:	e8 39 86 66 00       	call   7d23180 <pthread_sigmask@plt>
 76bab97:	e8 24 7e 66 00       	call   7d229c0 <pthread_mutex_unlock@plt>
 76bac22:	e8 59 85 66 00       	call   7d23180 <pthread_sigmask@plt>
 76bacbb:	e8 f0 7c 66 00       	call   7d229b0 <pthread_mutex_lock@plt>
 76bad32:	e8 89 7c 66 00       	call   7d229c0 <pthread_mutex_unlock@plt>
 76bafc2:	e8 e9 79 66 00       	call   7d229b0 <pthread_mutex_lock@plt>
 76bb079:	e8 42 79 66 00       	call   7d229c0 <pthread_mutex_unlock@plt>
 76bb0b2:	e8 69 79 66 00       	call   7d22a20 <pthread_mutex_init@plt>
 76bb0da:	e8 31 7d 66 00       	call   7d22e10 <pthread_mutex_destroy@plt>
 76bb493:	e8 78 79 66 00       	call   7d22e10 <pthread_mutex_destroy@plt>
 76bb4ba:	e9 51 79 66 00       	jmp    7d22e10 <pthread_mutex_destroy@plt>
 76bb59b:	e8 20 74 66 00       	call   7d229c0 <pthread_mutex_unlock@plt>
 76bb5b5:	e8 06 74 66 00       	call   7d229c0 <pthread_mutex_unlock@plt>
 76bb602:	e8 b9 73 66 00       	call   7d229c0 <pthread_mutex_unlock@plt>
 76bb61f:	e8 8c 73 66 00       	call   7d229b0 <pthread_mutex_lock@plt>
 76bb668:	e8 53 73 66 00       	call   7d229c0 <pthread_mutex_unlock@plt>
 76bb6b5:	e8 06 73 66 00       	call   7d229c0 <pthread_mutex_unlock@plt>
 76bb756:	e8 65 72 66 00       	call   7d229c0 <pthread_mutex_unlock@plt>
 76bb80c:	e8 af 71 66 00       	call   7d229c0 <pthread_mutex_unlock@plt>
 76bb85a:	e8 61 71 66 00       	call   7d229c0 <pthread_mutex_unlock@plt>
 76bb86e:	e8 4d 71 66 00       	call   7d229c0 <pthread_mutex_unlock@plt>
 76bbacd:	e8 ee 6e 66 00       	call   7d229c0 <pthread_mutex_unlock@plt>
 76bbb15:	e8 a6 6e 66 00       	call   7d229c0 <pthread_mutex_unlock@plt>
 76bbb5d:	e8 5e 6e 66 00       	call   7d229c0 <pthread_mutex_unlock@plt>
 76bbba5:	e8 16 6e 66 00       	call   7d229c0 <pthread_mutex_unlock@plt>
 76bbbed:	e8 ce 6d 66 00       	call   7d229c0 <pthread_mutex_unlock@plt>
 76bbd5e:	e8 5d 6c 66 00       	call   7d229c0 <pthread_mutex_unlock@plt>
 76bbef9:	e8 c2 6a 66 00       	call   7d229c0 <pthread_mutex_unlock@plt>
 76bbf3a:	e8 81 6a 66 00       	call   7d229c0 <pthread_mutex_unlock@plt>
 76bbf66:	e8 a5 6e 66 00       	call   7d22e10 <pthread_mutex_destroy@plt>
 76bbfc6:	e8 45 6e 66 00       	call   7d22e10 <pthread_mutex_destroy@plt>
 76bbff2:	e8 19 6e 66 00       	call   7d22e10 <pthread_mutex_destroy@plt>
 76bc0ec:	e8 1f 6d 66 00       	call   7d22e10 <pthread_mutex_destroy@plt>
 76bc0fc:	e8 0f 6d 66 00       	call   7d22e10 <pthread_mutex_destroy@plt>
 76bc120:	e8 9b 68 66 00       	call   7d229c0 <pthread_mutex_unlock@plt>
 76bc14a:	e8 71 68 66 00       	call   7d229c0 <pthread_mutex_unlock@plt>
 76bc1a8:	e8 d3 6f 66 00       	call   7d23180 <pthread_sigmask@plt>
 76bc1b5:	e8 06 68 66 00       	call   7d229c0 <pthread_mutex_unlock@plt>
 76bc20e:	e8 ad 67 66 00       	call   7d229c0 <pthread_mutex_unlock@plt>
 76bc232:	e8 89 67 66 00       	call   7d229c0 <pthread_mutex_unlock@plt>
 76bc363:	e8 a8 6a 66 00       	call   7d22e10 <pthread_mutex_destroy@plt>
 76bc382:	e8 89 6a 66 00       	call   7d22e10 <pthread_mutex_destroy@plt>
 76bc454:	e8 b7 69 66 00       	call   7d22e10 <pthread_mutex_destroy@plt>
 76bc49c:	e9 6f 69 66 00       	jmp    7d22e10 <pthread_mutex_destroy@plt>
 76bc5d5:	e8 36 68 66 00       	call   7d22e10 <pthread_mutex_destroy@plt>
 76bc5fc:	e8 0f 68 66 00       	call   7d22e10 <pthread_mutex_destroy@plt>
 76bc744:	e8 27 69 66 00       	call   7d23070 <pthread_cond_destroy@plt>
 76bc766:	e9 a5 66 66 00       	jmp    7d22e10 <pthread_mutex_destroy@plt>
 76bc935:	e8 36 67 66 00       	call   7d23070 <pthread_cond_destroy@plt>
 76bc93f:	e8 cc 64 66 00       	call   7d22e10 <pthread_mutex_destroy@plt>
 76bcc1b:	e8 c0 64 66 00       	call   7d230e0 <pthread_join@plt>
 76bcc3d:	e8 1e 69 66 00       	call   7d23560 <pthread_detach@plt>
 76bcd3c:	e8 6f 5c 66 00       	call   7d229b0 <pthread_mutex_lock@plt>
 76bcdec:	e8 bf 5b 66 00       	call   7d229b0 <pthread_mutex_lock@plt>
 76bd11e:	e8 ed 5c 66 00       	call   7d22e10 <pthread_mutex_destroy@plt>
 76bd1ce:	e8 3d 5c 66 00       	call   7d22e10 <pthread_mutex_destroy@plt>
 76bd643:	e8 d8 53 66 00       	call   7d22a20 <pthread_mutex_init@plt>
 76bd724:	e8 e7 56 66 00       	call   7d22e10 <pthread_mutex_destroy@plt>
 778d79e:	e9 0d 52 59 00       	jmp    7d229b0 <pthread_mutex_lock@plt>
 778d7be:	e9 fd 51 59 00       	jmp    7d229c0 <pthread_mutex_unlock@plt>
 778d7de:	e9 6d 58 59 00       	jmp    7d23050 <pthread_cond_wait@plt>
 778d7f0:	e9 6b 58 59 00       	jmp    7d23060 <pthread_cond_broadcast@plt>
 778d800:	e9 2b 5c 59 00       	jmp    7d23430 <pthread_cond_signal@plt>
 778d82a:	e8 81 51 59 00       	call   7d229b0 <pthread_mutex_lock@plt>
 778d84e:	e8 fd 57 59 00       	call   7d23050 <pthread_cond_wait@plt>
 778d85b:	e8 60 51 59 00       	call   7d229c0 <pthread_mutex_unlock@plt>
 778d87f:	e8 3c 51 59 00       	call   7d229c0 <pthread_mutex_unlock@plt>
 778d8b4:	e8 f7 50 59 00       	call   7d229b0 <pthread_mutex_lock@plt>
 778d8cc:	e8 8f 57 59 00       	call   7d23060 <pthread_cond_broadcast@plt>
 778d8d8:	e9 e3 50 59 00       	jmp    7d229c0 <pthread_mutex_unlock@plt>
 77cc895:	e8 16 61 55 00       	call   7d229b0 <pthread_mutex_lock@plt>
 77cc8c5:	e8 f6 60 55 00       	call   7d229c0 <pthread_mutex_unlock@plt>
 77cc914:	e8 97 60 55 00       	call   7d229b0 <pthread_mutex_lock@plt>
 77cc92c:	e8 8f 60 55 00       	call   7d229c0 <pthread_mutex_unlock@plt>
 77ccc3b:	e8 70 5d 55 00       	call   7d229b0 <pthread_mutex_lock@plt>
 77ccd46:	e8 65 5c 55 00       	call   7d229b0 <pthread_mutex_lock@plt>
 77ccd63:	e8 58 5c 55 00       	call   7d229c0 <pthread_mutex_unlock@plt>
 77cce66:	e9 55 5b 55 00       	jmp    7d229c0 <pthread_mutex_unlock@plt>
 77cce84:	e8 37 5b 55 00       	call   7d229c0 <pthread_mutex_unlock@plt>
 77cd3ab:	e8 10 57 55 00       	call   7d22ac0 <pthread_once@plt>
 77cd5a7:	e8 74 54 55 00       	call   7d22a20 <pthread_mutex_init@plt>
 77cde3c:	e8 6f 4b 55 00       	call   7d229b0 <pthread_mutex_lock@plt>
 77cde53:	e8 68 4b 55 00       	call   7d229c0 <pthread_mutex_unlock@plt>
 77cde9c:	e8 0f 4b 55 00       	call   7d229b0 <pthread_mutex_lock@plt>
 77cdeb7:	e8 04 4b 55 00       	call   7d229c0 <pthread_mutex_unlock@plt>
 77cdf0c:	e8 9f 4a 55 00       	call   7d229b0 <pthread_mutex_lock@plt>
 77cdf35:	e8 76 4a 55 00       	call   7d229b0 <pthread_mutex_lock@plt>
 77cdf7c:	e8 3f 4a 55 00       	call   7d229c0 <pthread_mutex_unlock@plt>
 77cdf89:	e8 32 4a 55 00       	call   7d229c0 <pthread_mutex_unlock@plt>
 77cdfa3:	e8 18 4a 55 00       	call   7d229c0 <pthread_mutex_unlock@plt>
 77ce057:	e8 54 49 55 00       	call   7d229b0 <pthread_mutex_lock@plt>
 77ce08b:	e8 30 49 55 00       	call   7d229c0 <pthread_mutex_unlock@plt>
 77ce0da:	e8 d1 48 55 00       	call   7d229b0 <pthread_mutex_lock@plt>
 77ce0f3:	e8 c8 48 55 00       	call   7d229c0 <pthread_mutex_unlock@plt>
 77ce11e:	e8 8d 48 55 00       	call   7d229b0 <pthread_mutex_lock@plt>
 77ce19a:	e8 21 48 55 00       	call   7d229c0 <pthread_mutex_unlock@plt>
 77ce20a:	e8 a1 47 55 00       	call   7d229b0 <pthread_mutex_lock@plt>
 77ce350:	e9 6b 46 55 00       	jmp    7d229c0 <pthread_mutex_unlock@plt>
 77ce3dc:	e8 cf 45 55 00       	call   7d229b0 <pthread_mutex_lock@plt>
 77ce412:	e8 a9 45 55 00       	call   7d229c0 <pthread_mutex_unlock@plt>
 77ce563:	e8 58 44 55 00       	call   7d229c0 <pthread_mutex_unlock@plt>
 77ce5dd:	e8 ce 43 55 00       	call   7d229b0 <pthread_mutex_lock@plt>
 77ce613:	e8 98 43 55 00       	call   7d229b0 <pthread_mutex_lock@plt>
 77ce645:	e8 76 43 55 00       	call   7d229c0 <pthread_mutex_unlock@plt>
 77ce652:	e8 69 43 55 00       	call   7d229c0 <pthread_mutex_unlock@plt>
 77ce7c3:	e8 f8 41 55 00       	call   7d229c0 <pthread_mutex_unlock@plt>
 77ce88f:	e8 1c 41 55 00       	call   7d229b0 <pthread_mutex_lock@plt>
 77ce909:	e8 a2 40 55 00       	call   7d229b0 <pthread_mutex_lock@plt>
 77ce940:	e8 7b 40 55 00       	call   7d229c0 <pthread_mutex_unlock@plt>
 77ce990:	e8 3b 41 55 00       	call   7d22ad0 <pthread_cond_timedwait@plt>
 77ce9a0:	e8 1b 40 55 00       	call   7d229c0 <pthread_mutex_unlock@plt>
 77ce9c6:	e8 e5 3f 55 00       	call   7d229b0 <pthread_mutex_lock@plt>
 77cea5e:	e8 4d 3f 55 00       	call   7d229b0 <pthread_mutex_lock@plt>
 77cea84:	e8 37 3f 55 00       	call   7d229c0 <pthread_mutex_unlock@plt>
 77ceadb:	e8 d0 3e 55 00       	call   7d229b0 <pthread_mutex_lock@plt>
 77cebb8:	e8 f3 3d 55 00       	call   7d229b0 <pthread_mutex_lock@plt>
 77cebdd:	e8 ce 3d 55 00       	call   7d229b0 <pthread_mutex_lock@plt>
 77cec3f:	e8 8c 3e 55 00       	call   7d22ad0 <pthread_cond_timedwait@plt>
 77cec4f:	e8 6c 3d 55 00       	call   7d229c0 <pthread_mutex_unlock@plt>
 77cec7d:	e8 3e 3d 55 00       	call   7d229c0 <pthread_mutex_unlock@plt>
 77ced58:	e8 63 3c 55 00       	call   7d229c0 <pthread_mutex_unlock@plt>
 77cee8a:	e8 21 3b 55 00       	call   7d229b0 <pthread_mutex_lock@plt>
 77ceeab:	e8 10 3b 55 00       	call   7d229c0 <pthread_mutex_unlock@plt>
 77cef1e:	e8 8d 3a 55 00       	call   7d229b0 <pthread_mutex_lock@plt>
 77cef51:	e8 5a 3a 55 00       	call   7d229b0 <pthread_mutex_lock@plt>
 77cefdb:	e8 e0 39 55 00       	call   7d229c0 <pthread_mutex_unlock@plt>
 77cefeb:	e8 c0 39 55 00       	call   7d229b0 <pthread_mutex_lock@plt>
 77cf010:	e8 ab 39 55 00       	call   7d229c0 <pthread_mutex_unlock@plt>
 77cf018:	e8 a3 39 55 00       	call   7d229c0 <pthread_mutex_unlock@plt>
 77cf61e:	e8 8d 33 55 00       	call   7d229b0 <pthread_mutex_lock@plt>
 77cf6b4:	e8 f7 32 55 00       	call   7d229b0 <pthread_mutex_lock@plt>
 77cf6e6:	e8 d5 32 55 00       	call   7d229c0 <pthread_mutex_unlock@plt>
 77cf73b:	e8 10 36 55 00       	call   7d22d50 <pthread_cond_clockwait@plt>
 77cf74b:	e8 70 32 55 00       	call   7d229c0 <pthread_mutex_unlock@plt>
 77cf771:	e8 3a 32 55 00       	call   7d229b0 <pthread_mutex_lock@plt>
 77cf844:	e8 67 31 55 00       	call   7d229b0 <pthread_mutex_lock@plt>
 77cf8ac:	e8 9f 34 55 00       	call   7d22d50 <pthread_cond_clockwait@plt>
 77cf8bc:	e8 ff 30 55 00       	call   7d229c0 <pthread_mutex_unlock@plt>
 77cf97a:	e9 41 30 55 00       	jmp    7d229c0 <pthread_mutex_unlock@plt>
 77cfd17:	e8 94 2c 55 00       	call   7d229b0 <pthread_mutex_lock@plt>
 77cfd50:	e8 5b 2c 55 00       	call   7d229b0 <pthread_mutex_lock@plt>
 77cfd69:	e8 52 2c 55 00       	call   7d229c0 <pthread_mutex_unlock@plt>
 77cfd71:	e8 4a 2c 55 00       	call   7d229c0 <pthread_mutex_unlock@plt>
 77cfe6e:	e8 3d 2b 55 00       	call   7d229b0 <pthread_mutex_lock@plt>
 77cfef6:	e8 c5 2a 55 00       	call   7d229c0 <pthread_mutex_unlock@plt>
 77d04a6:	e8 15 25 55 00       	call   7d229c0 <pthread_mutex_unlock@plt>
 77d0d6f:	e8 3c 1c 55 00       	call   7d229b0 <pthread_mutex_lock@plt>
 77d0db6:	e8 f5 1b 55 00       	call   7d229b0 <pthread_mutex_lock@plt>
 77d0dd9:	e8 e2 1b 55 00       	call   7d229c0 <pthread_mutex_unlock@plt>
 77d0df8:	e8 b3 1b 55 00       	call   7d229b0 <pthread_mutex_lock@plt>
 77d0e14:	e8 a7 1b 55 00       	call   7d229c0 <pthread_mutex_unlock@plt>
 77d0e3d:	e9 7e 1b 55 00       	jmp    7d229c0 <pthread_mutex_unlock@plt>
 77d0e56:	e8 55 1b 55 00       	call   7d229b0 <pthread_mutex_lock@plt>
 77d0ed1:	e8 ea 1a 55 00       	call   7d229c0 <pthread_mutex_unlock@plt>
 77d0eee:	e8 bd 1a 55 00       	call   7d229b0 <pthread_mutex_lock@plt>
 77d0f61:	e8 5a 1a 55 00       	call   7d229c0 <pthread_mutex_unlock@plt>
 77d0fbe:	e8 ed 19 55 00       	call   7d229b0 <pthread_mutex_lock@plt>
 77d1005:	e8 a6 19 55 00       	call   7d229b0 <pthread_mutex_lock@plt>
 77d1028:	e8 93 19 55 00       	call   7d229c0 <pthread_mutex_unlock@plt>
 77d1047:	e8 64 19 55 00       	call   7d229b0 <pthread_mutex_lock@plt>
 77d1063:	e8 58 19 55 00       	call   7d229c0 <pthread_mutex_unlock@plt>
 77d108d:	e9 2e 19 55 00       	jmp    7d229c0 <pthread_mutex_unlock@plt>
 77d10a6:	e8 05 19 55 00       	call   7d229b0 <pthread_mutex_lock@plt>
 77d1121:	e8 9a 18 55 00       	call   7d229c0 <pthread_mutex_unlock@plt>
 77d113e:	e8 6d 18 55 00       	call   7d229b0 <pthread_mutex_lock@plt>
 77d11b1:	e8 0a 18 55 00       	call   7d229c0 <pthread_mutex_unlock@plt>
 77d123e:	e8 6d 17 55 00       	call   7d229b0 <pthread_mutex_lock@plt>
 77d1261:	e8 5a 17 55 00       	call   7d229c0 <pthread_mutex_unlock@plt>
 77d1280:	e8 2b 17 55 00       	call   7d229b0 <pthread_mutex_lock@plt>
 77d12aa:	e9 11 17 55 00       	jmp    7d229c0 <pthread_mutex_unlock@plt>
 77d12da:	e8 d1 16 55 00       	call   7d229b0 <pthread_mutex_lock@plt>
 77d1353:	e8 68 16 55 00       	call   7d229c0 <pthread_mutex_unlock@plt>
 77d136a:	e8 41 16 55 00       	call   7d229b0 <pthread_mutex_lock@plt>
 77d13e3:	e8 d8 15 55 00       	call   7d229c0 <pthread_mutex_unlock@plt>
 77d14e3:	e8 c8 14 55 00       	call   7d229b0 <pthread_mutex_lock@plt>
 77d150d:	e9 ae 14 55 00       	jmp    7d229c0 <pthread_mutex_unlock@plt>
 77d1522:	e8 89 14 55 00       	call   7d229b0 <pthread_mutex_lock@plt>
 77d1593:	e8 28 14 55 00       	call   7d229c0 <pthread_mutex_unlock@plt>
 77d15da:	e8 d1 13 55 00       	call   7d229b0 <pthread_mutex_lock@plt>
 77d167a:	e9 41 13 55 00       	jmp    7d229c0 <pthread_mutex_unlock@plt>
 77d16de:	e8 cd 12 55 00       	call   7d229b0 <pthread_mutex_lock@plt>
 77d195c:	e8 5f 10 55 00       	call   7d229c0 <pthread_mutex_unlock@plt>
 77d23b4:	e8 f7 05 55 00       	call   7d229b0 <pthread_mutex_lock@plt>
 77d24a0:	e8 0b 05 55 00       	call   7d229b0 <pthread_mutex_lock@plt>
 77d2506:	e8 b5 04 55 00       	call   7d229c0 <pthread_mutex_unlock@plt>
 77d2539:	e9 82 04 55 00       	jmp    7d229c0 <pthread_mutex_unlock@plt>
 77d258b:	e8 30 04 55 00       	call   7d229c0 <pthread_mutex_unlock@plt>
 77d259a:	e8 11 04 55 00       	call   7d229b0 <pthread_mutex_lock@plt>
 77d25b6:	e8 05 04 55 00       	call   7d229c0 <pthread_mutex_unlock@plt>
 77d2a9c:	e8 1f ff 54 00       	call   7d229c0 <pthread_mutex_unlock@plt>
 77d2b06:	e8 a5 fe 54 00       	call   7d229b0 <pthread_mutex_lock@plt>
 77d2c6a:	e8 41 fd 54 00       	call   7d229b0 <pthread_mutex_lock@plt>
 77d2caa:	e9 11 fd 54 00       	jmp    7d229c0 <pthread_mutex_unlock@plt>
 77d2cca:	e8 e1 fc 54 00       	call   7d229b0 <pthread_mutex_lock@plt>
 77d2d49:	e8 72 fc 54 00       	call   7d229c0 <pthread_mutex_unlock@plt>
 77d302e:	e8 7d f9 54 00       	call   7d229b0 <pthread_mutex_lock@plt>
 77d31d0:	e8 eb f7 54 00       	call   7d229c0 <pthread_mutex_unlock@plt>
 77d3391:	e8 1a f6 54 00       	call   7d229b0 <pthread_mutex_lock@plt>
 77d33a9:	e8 12 f6 54 00       	call   7d229c0 <pthread_mutex_unlock@plt>
 77d33e3:	e8 d8 f5 54 00       	call   7d229c0 <pthread_mutex_unlock@plt>
 77d340c:	e8 9f f5 54 00       	call   7d229b0 <pthread_mutex_lock@plt>
 77d3514:	e8 a7 f4 54 00       	call   7d229c0 <pthread_mutex_unlock@plt>
 77d355a:	e8 51 f4 54 00       	call   7d229b0 <pthread_mutex_lock@plt>
 77d359d:	e8 0e f4 54 00       	call   7d229b0 <pthread_mutex_lock@plt>
 77d35b5:	e8 06 f4 54 00       	call   7d229c0 <pthread_mutex_unlock@plt>
 77d3629:	e8 82 f3 54 00       	call   7d229b0 <pthread_mutex_lock@plt>
 77d36b0:	e8 0b f3 54 00       	call   7d229c0 <pthread_mutex_unlock@plt>
 77d36f1:	e8 ba f2 54 00       	call   7d229b0 <pthread_mutex_lock@plt>
 77d3779:	e8 42 f2 54 00       	call   7d229c0 <pthread_mutex_unlock@plt>
 77d3909:	e8 a2 f0 54 00       	call   7d229b0 <pthread_mutex_lock@plt>
 77d3969:	e9 52 f0 54 00       	jmp    7d229c0 <pthread_mutex_unlock@plt>
 77d39d4:	e8 d7 ef 54 00       	call   7d229b0 <pthread_mutex_lock@plt>
 77d3e61:	e8 4a eb 54 00       	call   7d229b0 <pthread_mutex_lock@plt>
 77d3e86:	e8 35 eb 54 00       	call   7d229c0 <pthread_mutex_unlock@plt>
 77d3ea7:	e8 04 eb 54 00       	call   7d229b0 <pthread_mutex_lock@plt>
 77d3ec4:	e8 f7 ea 54 00       	call   7d229c0 <pthread_mutex_unlock@plt>
 77d3fc5:	e8 f6 e9 54 00       	call   7d229c0 <pthread_mutex_unlock@plt>
 77d40bf:	e8 ec e8 54 00       	call   7d229b0 <pthread_mutex_lock@plt>
 77d4136:	e8 85 e8 54 00       	call   7d229c0 <pthread_mutex_unlock@plt>
 77d4152:	e8 59 e8 54 00       	call   7d229b0 <pthread_mutex_lock@plt>
 77d41ce:	e8 ed e7 54 00       	call   7d229c0 <pthread_mutex_unlock@plt>
 77d4310:	e8 9b e6 54 00       	call   7d229b0 <pthread_mutex_lock@plt>
 77d4356:	e8 55 e6 54 00       	call   7d229b0 <pthread_mutex_lock@plt>
 77d4372:	e8 49 e6 54 00       	call   7d229c0 <pthread_mutex_unlock@plt>
 77d4430:	e9 8b e5 54 00       	jmp    7d229c0 <pthread_mutex_unlock@plt>
 77d4446:	e8 65 e5 54 00       	call   7d229b0 <pthread_mutex_lock@plt>
 77d44c2:	e8 f9 e4 54 00       	call   7d229c0 <pthread_mutex_unlock@plt>
 77d5174:	e8 37 d8 54 00       	call   7d229b0 <pthread_mutex_lock@plt>
 77d5407:	e8 e4 dc 54 00       	call   7d230f0 <pthread_self@plt>
 77d59a4:	e9 17 d0 54 00       	jmp    7d229c0 <pthread_mutex_unlock@plt>
 77d5aa5:	e8 06 cf 54 00       	call   7d229b0 <pthread_mutex_lock@plt>
 77d5af2:	e8 c9 ce 54 00       	call   7d229c0 <pthread_mutex_unlock@plt>
 77d5b4a:	e8 81 cf 54 00       	call   7d22ad0 <pthread_cond_timedwait@plt>
 77d5b62:	e8 59 ce 54 00       	call   7d229c0 <pthread_mutex_unlock@plt>
 77d5b8b:	e8 20 ce 54 00       	call   7d229b0 <pthread_mutex_lock@plt>
 77d5ca8:	e8 23 ce 54 00       	call   7d22ad0 <pthread_cond_timedwait@plt>
 77d5cc0:	e8 fb cc 54 00       	call   7d229c0 <pthread_mutex_unlock@plt>
 77d5cf0:	e8 bb cc 54 00       	call   7d229b0 <pthread_mutex_lock@plt>
 77d6b06:	e8 b5 be 54 00       	call   7d229c0 <pthread_mutex_unlock@plt>
 77d70e5:	e8 d6 b8 54 00       	call   7d229c0 <pthread_mutex_unlock@plt>
 77d8141:	e8 6a a8 54 00       	call   7d229b0 <pthread_mutex_lock@plt>
 77d817a:	e8 41 a8 54 00       	call   7d229c0 <pthread_mutex_unlock@plt>
 77d9a76:	e8 35 8f 54 00       	call   7d229b0 <pthread_mutex_lock@plt>
 77d9b57:	e8 64 8e 54 00       	call   7d229c0 <pthread_mutex_unlock@plt>
 77da5a4:	e8 17 84 54 00       	call   7d229c0 <pthread_mutex_unlock@plt>
 77db717:	e8 94 72 54 00       	call   7d229b0 <pthread_mutex_lock@plt>
 77db731:	e8 8a 72 54 00       	call   7d229c0 <pthread_mutex_unlock@plt>
 77db74e:	e8 5d 72 54 00       	call   7d229b0 <pthread_mutex_lock@plt>
 77db762:	e8 59 72 54 00       	call   7d229c0 <pthread_mutex_unlock@plt>
 77dba9c:	e8 0f 6f 54 00       	call   7d229b0 <pthread_mutex_lock@plt>
 77dbab4:	e8 07 6f 54 00       	call   7d229c0 <pthread_mutex_unlock@plt>
 77dbd91:	e8 1a 6c 54 00       	call   7d229b0 <pthread_mutex_lock@plt>
 77dbdb2:	e8 09 6c 54 00       	call   7d229c0 <pthread_mutex_unlock@plt>
 77dc236:	e8 85 68 54 00       	call   7d22ac0 <pthread_once@plt>
 77dcace:	e8 dd 5e 54 00       	call   7d229b0 <pthread_mutex_lock@plt>
 77dcae4:	e8 d7 5e 54 00       	call   7d229c0 <pthread_mutex_unlock@plt>
 77dd5db:	e8 e0 54 54 00       	call   7d22ac0 <pthread_once@plt>
 77de86a:	e8 51 42 54 00       	call   7d22ac0 <pthread_once@plt>
 77df3c2:	e8 f9 36 54 00       	call   7d22ac0 <pthread_once@plt>
 77dfcba:	e8 01 2e 54 00       	call   7d22ac0 <pthread_once@plt>
 77e17fa:	e8 c1 12 54 00       	call   7d22ac0 <pthread_once@plt>
 77e1ec6:	e8 e5 0a 54 00       	call   7d229b0 <pthread_mutex_lock@plt>
 77e21cd:	e9 ee 07 54 00       	jmp    7d229c0 <pthread_mutex_unlock@plt>
 77e233f:	e8 6c 06 54 00       	call   7d229b0 <pthread_mutex_lock@plt>
 77e23c8:	e8 f3 05 54 00       	call   7d229c0 <pthread_mutex_unlock@plt>
 77e24ac:	e8 ff 04 54 00       	call   7d229b0 <pthread_mutex_lock@plt>
 77e2735:	e8 86 02 54 00       	call   7d229c0 <pthread_mutex_unlock@plt>
 77e2887:	e8 24 01 54 00       	call   7d229b0 <pthread_mutex_lock@plt>
 77e290f:	e8 ac 00 54 00       	call   7d229c0 <pthread_mutex_unlock@plt>
 77e2a19:	e8 92 ff 53 00       	call   7d229b0 <pthread_mutex_lock@plt>
 77e2df3:	e8 c8 fb 53 00       	call   7d229c0 <pthread_mutex_unlock@plt>
 77e2fe3:	e8 d8 f9 53 00       	call   7d229c0 <pthread_mutex_unlock@plt>
 77e3014:	e8 a7 f9 53 00       	call   7d229c0 <pthread_mutex_unlock@plt>
 77e3069:	e8 52 f9 53 00       	call   7d229c0 <pthread_mutex_unlock@plt>
 77e309a:	e8 21 f9 53 00       	call   7d229c0 <pthread_mutex_unlock@plt>
 77e30d7:	e8 e4 f8 53 00       	call   7d229c0 <pthread_mutex_unlock@plt>
 77e441b:	e8 a0 e6 53 00       	call   7d22ac0 <pthread_once@plt>
 77e4d6a:	e8 41 dc 53 00       	call   7d229b0 <pthread_mutex_lock@plt>
 77e52b7:	e8 04 d7 53 00       	call   7d229c0 <pthread_mutex_unlock@plt>
 77e64f0:	e8 bb c4 53 00       	call   7d229b0 <pthread_mutex_lock@plt>
 77e6690:	e8 2b c3 53 00       	call   7d229c0 <pthread_mutex_unlock@plt>
 77e6953:	e8 58 c0 53 00       	call   7d229b0 <pthread_mutex_lock@plt>
 77e6ac6:	e8 f5 be 53 00       	call   7d229c0 <pthread_mutex_unlock@plt>
 77e6db8:	e8 f3 bb 53 00       	call   7d229b0 <pthread_mutex_lock@plt>
 77e7000:	e8 ab b9 53 00       	call   7d229b0 <pthread_mutex_lock@plt>
 77e7334:	e9 87 b6 53 00       	jmp    7d229c0 <pthread_mutex_unlock@plt>
 77e7807:	e8 b4 b1 53 00       	call   7d229c0 <pthread_mutex_unlock@plt>
 77e78a7:	e8 14 b1 53 00       	call   7d229c0 <pthread_mutex_unlock@plt>
 77e790c:	e8 af b0 53 00       	call   7d229c0 <pthread_mutex_unlock@plt>
 77e799b:	e8 20 b0 53 00       	call   7d229c0 <pthread_mutex_unlock@plt>
 77e920b:	e8 b0 98 53 00       	call   7d22ac0 <pthread_once@plt>
 77eca7a:	e8 41 60 53 00       	call   7d22ac0 <pthread_once@plt>
 77ed71b:	e8 a0 53 53 00       	call   7d22ac0 <pthread_once@plt>
 77efb5b:	e8 60 2f 53 00       	call   7d22ac0 <pthread_once@plt>
 77f0746:	e8 75 23 53 00       	call   7d22ac0 <pthread_once@plt>
 77f1369:	e8 42 16 53 00       	call   7d229b0 <pthread_mutex_lock@plt>
 77f1383:	e8 38 16 53 00       	call   7d229c0 <pthread_mutex_unlock@plt>
 77f1641:	e8 6a 13 53 00       	call   7d229b0 <pthread_mutex_lock@plt>
 77f175c:	e8 5f 12 53 00       	call   7d229c0 <pthread_mutex_unlock@plt>
 77f1881:	e8 2a 11 53 00       	call   7d229b0 <pthread_mutex_lock@plt>
 77f19a6:	e8 15 10 53 00       	call   7d229c0 <pthread_mutex_unlock@plt>
 77f1ad1:	e8 da 0e 53 00       	call   7d229b0 <pthread_mutex_lock@plt>
 77f1b21:	e8 9a 0e 53 00       	call   7d229c0 <pthread_mutex_unlock@plt>
 77f1d8e:	e8 2d 0c 53 00       	call   7d229c0 <pthread_mutex_unlock@plt>
 77f1dd5:	e8 e6 0b 53 00       	call   7d229c0 <pthread_mutex_unlock@plt>
 77f1e4d:	e8 6e 0b 53 00       	call   7d229c0 <pthread_mutex_unlock@plt>
 77f1e7d:	e8 3e 0b 53 00       	call   7d229c0 <pthread_mutex_unlock@plt>
 77f25ea:	e8 d1 04 53 00       	call   7d22ac0 <pthread_once@plt>
 77f358a:	e8 31 f5 52 00       	call   7d22ac0 <pthread_once@plt>
 77f5eeb:	e8 d0 cb 52 00       	call   7d22ac0 <pthread_once@plt>
 77f85fa:	e8 c1 a4 52 00       	call   7d22ac0 <pthread_once@plt>
 77f9fdb:	e8 e0 8a 52 00       	call   7d22ac0 <pthread_once@plt>
 77fa269:	e8 52 88 52 00       	call   7d22ac0 <pthread_once@plt>
 77facea:	e8 d1 7d 52 00       	call   7d22ac0 <pthread_once@plt>
 77fba8a:	e8 31 70 52 00       	call   7d22ac0 <pthread_once@plt>
 77ff91e:	e8 9d 31 52 00       	call   7d22ac0 <pthread_once@plt>
 7800b81:	e8 2a 1e 52 00       	call   7d229b0 <pthread_mutex_lock@plt>
 7800c24:	e8 97 1d 52 00       	call   7d229c0 <pthread_mutex_unlock@plt>
 7800f3a:	e8 81 1a 52 00       	call   7d229c0 <pthread_mutex_unlock@plt>
 78016ba:	e8 01 14 52 00       	call   7d22ac0 <pthread_once@plt>
 780252b:	e8 90 05 52 00       	call   7d22ac0 <pthread_once@plt>
 78051fc:	e8 bf d8 51 00       	call   7d22ac0 <pthread_once@plt>
 78067db:	e8 e0 c2 51 00       	call   7d22ac0 <pthread_once@plt>
 780c3dd:	e8 de 66 51 00       	call   7d22ac0 <pthread_once@plt>
 780c8b0:	e8 fb 60 51 00       	call   7d229b0 <pthread_mutex_lock@plt>
 780c8ee:	e9 cd 60 51 00       	jmp    7d229c0 <pthread_mutex_unlock@plt>
 780c932:	e8 79 60 51 00       	call   7d229b0 <pthread_mutex_lock@plt>
 780c960:	e9 5b 60 51 00       	jmp    7d229c0 <pthread_mutex_unlock@plt>
 780c9a3:	e8 08 60 51 00       	call   7d229b0 <pthread_mutex_lock@plt>
 780c9c8:	e8 f3 5f 51 00       	call   7d229c0 <pthread_mutex_unlock@plt>
 780ca33:	e8 78 5f 51 00       	call   7d229b0 <pthread_mutex_lock@plt>
 780ca5e:	e9 5d 5f 51 00       	jmp    7d229c0 <pthread_mutex_unlock@plt>
 780ca93:	e8 18 5f 51 00       	call   7d229b0 <pthread_mutex_lock@plt>
 780cab7:	e8 04 5f 51 00       	call   7d229c0 <pthread_mutex_unlock@plt>
 780cb59:	e8 62 5e 51 00       	call   7d229c0 <pthread_mutex_unlock@plt>
 780cb61:	e8 5a 5e 51 00       	call   7d229c0 <pthread_mutex_unlock@plt>
 780cb94:	e8 27 5e 51 00       	call   7d229c0 <pthread_mutex_unlock@plt>
 780cba8:	e8 13 5e 51 00       	call   7d229c0 <pthread_mutex_unlock@plt>
 780cbbc:	e8 ff 5d 51 00       	call   7d229c0 <pthread_mutex_unlock@plt>
 780cbd0:	e8 eb 5d 51 00       	call   7d229c0 <pthread_mutex_unlock@plt>
 780cbe4:	e8 d7 5d 51 00       	call   7d229c0 <pthread_mutex_unlock@plt>
 780cbf8:	e8 c3 5d 51 00       	call   7d229c0 <pthread_mutex_unlock@plt>
 780cc00:	e8 bb 5d 51 00       	call   7d229c0 <pthread_mutex_unlock@plt>
 780cc43:	e8 68 5d 51 00       	call   7d229b0 <pthread_mutex_lock@plt>
 780cc4f:	e8 dc 61 51 00       	call   7d22e30 <pthread_mutex_trylock@plt>
 780cc63:	e8 58 5d 51 00       	call   7d229c0 <pthread_mutex_unlock@plt>
 781ef7b:	e8 40 3b 50 00       	call   7d22ac0 <pthread_once@plt>
 783238b:	e8 30 07 4f 00       	call   7d22ac0 <pthread_once@plt>
 7833b1b:	e8 a0 ef 4e 00       	call   7d22ac0 <pthread_once@plt>
 783570b:	e8 b0 d3 4e 00       	call   7d22ac0 <pthread_once@plt>
 7838519:	e8 a2 a5 4e 00       	call   7d22ac0 <pthread_once@plt>
 7839de7:	e8 c4 8b 4e 00       	call   7d229b0 <pthread_mutex_lock@plt>
 7839e01:	e8 ba 8b 4e 00       	call   7d229c0 <pthread_mutex_unlock@plt>
 7839e1e:	e8 8d 8b 4e 00       	call   7d229b0 <pthread_mutex_lock@plt>
 7839e32:	e8 89 8b 4e 00       	call   7d229c0 <pthread_mutex_unlock@plt>
 7839fbc:	e8 ef 89 4e 00       	call   7d229b0 <pthread_mutex_lock@plt>
 7839fd3:	e8 e8 89 4e 00       	call   7d229c0 <pthread_mutex_unlock@plt>
 783a1fc:	e8 af 87 4e 00       	call   7d229b0 <pthread_mutex_lock@plt>
 783a214:	e8 a7 87 4e 00       	call   7d229c0 <pthread_mutex_unlock@plt>
 783a9e7:	e8 c4 7f 4e 00       	call   7d229b0 <pthread_mutex_lock@plt>
 783aa00:	e8 bb 7f 4e 00       	call   7d229c0 <pthread_mutex_unlock@plt>
 783aa1d:	e8 8e 7f 4e 00       	call   7d229b0 <pthread_mutex_lock@plt>
 783aa30:	e8 8b 7f 4e 00       	call   7d229c0 <pthread_mutex_unlock@plt>
 783ac1e:	e8 8d 7d 4e 00       	call   7d229b0 <pthread_mutex_lock@plt>
 783ac37:	e8 84 7d 4e 00       	call   7d229c0 <pthread_mutex_unlock@plt>
 783b1c1:	e8 ea 77 4e 00       	call   7d229b0 <pthread_mutex_lock@plt>
 783b1e2:	e8 d9 77 4e 00       	call   7d229c0 <pthread_mutex_unlock@plt>
 783b656:	e8 65 74 4e 00       	call   7d22ac0 <pthread_once@plt>
 783c58e:	e8 1d 64 4e 00       	call   7d229b0 <pthread_mutex_lock@plt>
 783c69b:	e8 20 63 4e 00       	call   7d229c0 <pthread_mutex_unlock@plt>
 783c90d:	e8 ae 60 4e 00       	call   7d229c0 <pthread_mutex_unlock@plt>
 783d2be:	e8 ed 56 4e 00       	call   7d229b0 <pthread_mutex_lock@plt>
 783d2d4:	e8 e7 56 4e 00       	call   7d229c0 <pthread_mutex_unlock@plt>
 783dabe:	e8 ed 4e 4e 00       	call   7d229b0 <pthread_mutex_lock@plt>
 783dad3:	e8 e8 4e 4e 00       	call   7d229c0 <pthread_mutex_unlock@plt>
 783de56:	e8 55 4b 4e 00       	call   7d229b0 <pthread_mutex_lock@plt>
 783df72:	e8 49 4a 4e 00       	call   7d229c0 <pthread_mutex_unlock@plt>
 783e3b9:	e8 f2 45 4e 00       	call   7d229b0 <pthread_mutex_lock@plt>
 783e50c:	e8 af 44 4e 00       	call   7d229c0 <pthread_mutex_unlock@plt>
 783e949:	e8 72 40 4e 00       	call   7d229c0 <pthread_mutex_unlock@plt>
 783f9a9:	e8 12 31 4e 00       	call   7d22ac0 <pthread_once@plt>
 78447cf:	e8 ec e2 4d 00       	call   7d22ac0 <pthread_once@plt>
 78457de:	e8 cd d1 4d 00       	call   7d229b0 <pthread_mutex_lock@plt>
 78458eb:	e8 d0 d0 4d 00       	call   7d229c0 <pthread_mutex_unlock@plt>
 7845b5d:	e8 5e ce 4d 00       	call   7d229c0 <pthread_mutex_unlock@plt>
 7846e44:	e8 67 bb 4d 00       	call   7d229b0 <pthread_mutex_lock@plt>
 7846fad:	e8 0e ba 4d 00       	call   7d229c0 <pthread_mutex_unlock@plt>
 784722d:	e8 8e b7 4d 00       	call   7d229c0 <pthread_mutex_unlock@plt>
 784725e:	e8 4d b7 4d 00       	call   7d229b0 <pthread_mutex_lock@plt>
 78473b4:	e8 07 b6 4d 00       	call   7d229c0 <pthread_mutex_unlock@plt>
 7847576:	e8 45 b4 4d 00       	call   7d229c0 <pthread_mutex_unlock@plt>
 78482ae:	e8 fd a6 4d 00       	call   7d229b0 <pthread_mutex_lock@plt>
 78483bb:	e8 00 a6 4d 00       	call   7d229c0 <pthread_mutex_unlock@plt>
 784862d:	e8 8e a3 4d 00       	call   7d229c0 <pthread_mutex_unlock@plt>
 7848bc6:	e8 e5 9d 4d 00       	call   7d229b0 <pthread_mutex_lock@plt>
 7848ce2:	e8 d9 9c 4d 00       	call   7d229c0 <pthread_mutex_unlock@plt>
 7848fb6:	e8 f5 99 4d 00       	call   7d229b0 <pthread_mutex_lock@plt>
 78490fa:	e8 c1 98 4d 00       	call   7d229c0 <pthread_mutex_unlock@plt>
 7849416:	e8 95 95 4d 00       	call   7d229b0 <pthread_mutex_lock@plt>
 7849532:	e8 89 94 4d 00       	call   7d229c0 <pthread_mutex_unlock@plt>
 78499de:	e8 cd 8f 4d 00       	call   7d229b0 <pthread_mutex_lock@plt>
 7849c5e:	e8 5d 8d 4d 00       	call   7d229c0 <pthread_mutex_unlock@plt>
 7849d78:	e8 43 8c 4d 00       	call   7d229c0 <pthread_mutex_unlock@plt>
 784a0ce:	e8 dd 88 4d 00       	call   7d229b0 <pthread_mutex_lock@plt>
 784a35c:	e8 5f 86 4d 00       	call   7d229c0 <pthread_mutex_unlock@plt>
 784a46f:	e8 4c 85 4d 00       	call   7d229c0 <pthread_mutex_unlock@plt>
 784a7fe:	e8 ad 81 4d 00       	call   7d229b0 <pthread_mutex_lock@plt>
 784aa7e:	e8 3d 7f 4d 00       	call   7d229c0 <pthread_mutex_unlock@plt>
 784ab98:	e8 23 7e 4d 00       	call   7d229c0 <pthread_mutex_unlock@plt>
 784e86e:	e8 4d 42 4d 00       	call   7d22ac0 <pthread_once@plt>
 784fcbb:	e8 00 2e 4d 00       	call   7d22ac0 <pthread_once@plt>
 785088b:	e8 30 22 4d 00       	call   7d22ac0 <pthread_once@plt>
 785202b:	e8 90 0a 4d 00       	call   7d22ac0 <pthread_once@plt>
 78539a6:	e8 15 f1 4c 00       	call   7d22ac0 <pthread_once@plt>
 78563eb:	e8 d0 c6 4c 00       	call   7d22ac0 <pthread_once@plt>
 785ac9b:	e8 20 7e 4c 00       	call   7d22ac0 <pthread_once@plt>
 785b129:	e8 82 78 4c 00       	call   7d229b0 <pthread_mutex_lock@plt>
 785b1bc:	e8 ff 77 4c 00       	call   7d229c0 <pthread_mutex_unlock@plt>
 785ce8f:	e8 2c 5b 4c 00       	call   7d229c0 <pthread_mutex_unlock@plt>
 78626db:	e8 e0 03 4c 00       	call   7d22ac0 <pthread_once@plt>
 7869ade:	e8 dd 8f 4b 00       	call   7d22ac0 <pthread_once@plt>
 786a5f7:	e8 b4 83 4b 00       	call   7d229b0 <pthread_mutex_lock@plt>
 786a73f:	e9 7c 82 4b 00       	jmp    7d229c0 <pthread_mutex_unlock@plt>
 786a914:	e8 97 80 4b 00       	call   7d229b0 <pthread_mutex_lock@plt>
 786aa0b:	e8 b0 7f 4b 00       	call   7d229c0 <pthread_mutex_unlock@plt>
 786b1f5:	e8 c6 77 4b 00       	call   7d229c0 <pthread_mutex_unlock@plt>
 78765f6:	e8 c5 c4 4a 00       	call   7d22ac0 <pthread_once@plt>
 7891beb:	e8 c0 0d 49 00       	call   7d229b0 <pthread_mutex_lock@plt>
 7891ca6:	e9 15 0d 49 00       	jmp    7d229c0 <pthread_mutex_unlock@plt>
 7891ce2:	e8 c9 0c 49 00       	call   7d229b0 <pthread_mutex_lock@plt>
 7891d11:	e8 aa 0c 49 00       	call   7d229c0 <pthread_mutex_unlock@plt>
 7891d42:	e8 69 0c 49 00       	call   7d229b0 <pthread_mutex_lock@plt>
 7891d56:	e8 65 0c 49 00       	call   7d229c0 <pthread_mutex_unlock@plt>
 78924dd:	e8 ce 04 49 00       	call   7d229b0 <pthread_mutex_lock@plt>
 789253e:	e8 7d 04 49 00       	call   7d229c0 <pthread_mutex_unlock@plt>
 7892799:	e8 12 02 49 00       	call   7d229b0 <pthread_mutex_lock@plt>
 78927c6:	e8 f5 01 49 00       	call   7d229c0 <pthread_mutex_unlock@plt>
 78931fb:	e8 b0 f7 48 00       	call   7d229b0 <pthread_mutex_lock@plt>
 78932ef:	e9 cc f6 48 00       	jmp    7d229c0 <pthread_mutex_unlock@plt>
 789363c:	e8 7f f3 48 00       	call   7d229c0 <pthread_mutex_unlock@plt>
 7893819:	e8 a2 f1 48 00       	call   7d229c0 <pthread_mutex_unlock@plt>
 7893890:	e8 2b f1 48 00       	call   7d229c0 <pthread_mutex_unlock@plt>
 78938b5:	e8 06 f1 48 00       	call   7d229c0 <pthread_mutex_unlock@plt>
 7893d84:	e8 37 ed 48 00       	call   7d22ac0 <pthread_once@plt>
 789b936:	e8 85 71 48 00       	call   7d22ac0 <pthread_once@plt>
 789cf9a:	e8 21 5b 48 00       	call   7d22ac0 <pthread_once@plt>
 789dc7f:	e8 2c 4d 48 00       	call   7d229b0 <pthread_mutex_lock@plt>
 789dc8e:	e8 2d 4d 48 00       	call   7d229c0 <pthread_mutex_unlock@plt>
 789dd05:	e8 a6 4c 48 00       	call   7d229b0 <pthread_mutex_lock@plt>
 789dd30:	e8 8b 4c 48 00       	call   7d229c0 <pthread_mutex_unlock@plt>
 789df1e:	e8 9d 4a 48 00       	call   7d229c0 <pthread_mutex_unlock@plt>
 789e6ca:	e8 f1 43 48 00       	call   7d22ac0 <pthread_once@plt>
 78a0475:	e8 36 25 48 00       	call   7d229b0 <pthread_mutex_lock@plt>
 78a048f:	e8 2c 25 48 00       	call   7d229c0 <pthread_mutex_unlock@plt>
 78a04b7:	e8 f4 24 48 00       	call   7d229b0 <pthread_mutex_lock@plt>
 78a04d3:	e8 e8 24 48 00       	call   7d229c0 <pthread_mutex_unlock@plt>
 78a04f5:	e8 b6 24 48 00       	call   7d229b0 <pthread_mutex_lock@plt>
 78a050d:	e8 ae 24 48 00       	call   7d229c0 <pthread_mutex_unlock@plt>
 78a052b:	e8 80 24 48 00       	call   7d229b0 <pthread_mutex_lock@plt>
 78a053f:	e8 7c 24 48 00       	call   7d229c0 <pthread_mutex_unlock@plt>
 78a0568:	e9 53 24 48 00       	jmp    7d229c0 <pthread_mutex_unlock@plt>
 78a0f7a:	e8 41 1a 48 00       	call   7d229c0 <pthread_mutex_unlock@plt>
 78a1104:	e8 a7 18 48 00       	call   7d229b0 <pthread_mutex_lock@plt>
 78a1181:	e8 3a 18 48 00       	call   7d229c0 <pthread_mutex_unlock@plt>
 78a1208:	e8 a3 17 48 00       	call   7d229b0 <pthread_mutex_lock@plt>
 78a1279:	e8 42 17 48 00       	call   7d229c0 <pthread_mutex_unlock@plt>
 78a155d:	e8 4e 14 48 00       	call   7d229b0 <pthread_mutex_lock@plt>
 78a15d7:	e9 e4 13 48 00       	jmp    7d229c0 <pthread_mutex_unlock@plt>
 78a15e3:	e8 d8 13 48 00       	call   7d229c0 <pthread_mutex_unlock@plt>
 78a1683:	e8 38 13 48 00       	call   7d229c0 <pthread_mutex_unlock@plt>
 78a180e:	e8 ad 11 48 00       	call   7d229c0 <pthread_mutex_unlock@plt>
 78a19aa:	e8 01 10 48 00       	call   7d229b0 <pthread_mutex_lock@plt>
 78a19fa:	e8 c1 0f 48 00       	call   7d229c0 <pthread_mutex_unlock@plt>
 78a302b:	e8 90 fa 47 00       	call   7d22ac0 <pthread_once@plt>
 78a650b:	e8 b0 c5 47 00       	call   7d22ac0 <pthread_once@plt>
 78a7f5a:	e8 51 aa 47 00       	call   7d229b0 <pthread_mutex_lock@plt>
 78a7faa:	e8 11 aa 47 00       	call   7d229c0 <pthread_mutex_unlock@plt>
 78a85ca:	e8 e1 a3 47 00       	call   7d229b0 <pthread_mutex_lock@plt>
 78a8681:	e8 3a a3 47 00       	call   7d229c0 <pthread_mutex_unlock@plt>
 78a87f1:	e8 ba a1 47 00       	call   7d229b0 <pthread_mutex_lock@plt>
 78a8811:	e9 aa a1 47 00       	jmp    7d229c0 <pthread_mutex_unlock@plt>
 78a89e6:	e8 c5 9f 47 00       	call   7d229b0 <pthread_mutex_lock@plt>
 78a8a5d:	e8 5e 9f 47 00       	call   7d229c0 <pthread_mutex_unlock@plt>
 78a8acf:	e8 dc 9e 47 00       	call   7d229b0 <pthread_mutex_lock@plt>
 78a8c23:	e8 98 9d 47 00       	call   7d229c0 <pthread_mutex_unlock@plt>
 78a8cd9:	e8 d2 9c 47 00       	call   7d229b0 <pthread_mutex_lock@plt>
 78a8d48:	e9 73 9c 47 00       	jmp    7d229c0 <pthread_mutex_unlock@plt>
 78a8d73:	e8 48 9c 47 00       	call   7d229c0 <pthread_mutex_unlock@plt>
 78a9384:	e8 37 97 47 00       	call   7d22ac0 <pthread_once@plt>
 78ac7e0:	e8 cb 61 47 00       	call   7d229b0 <pthread_mutex_lock@plt>
 78ac881:	e8 3a 61 47 00       	call   7d229c0 <pthread_mutex_unlock@plt>
 78ac95f:	e8 5c 60 47 00       	call   7d229c0 <pthread_mutex_unlock@plt>
 78acae1:	e8 ca 5e 47 00       	call   7d229b0 <pthread_mutex_lock@plt>
 78acb2d:	e8 8e 5e 47 00       	call   7d229c0 <pthread_mutex_unlock@plt>
 78acb64:	e8 47 5e 47 00       	call   7d229b0 <pthread_mutex_lock@plt>
 78acb85:	e9 36 5e 47 00       	jmp    7d229c0 <pthread_mutex_unlock@plt>
 78acfda:	e8 e1 5a 47 00       	call   7d22ac0 <pthread_once@plt>
 78ad733:	e8 78 52 47 00       	call   7d229b0 <pthread_mutex_lock@plt>
 78ad7bd:	e9 fe 51 47 00       	jmp    7d229c0 <pthread_mutex_unlock@plt>
 78ad7fb:	e8 b0 51 47 00       	call   7d229b0 <pthread_mutex_lock@plt>
 78ad815:	e8 a6 51 47 00       	call   7d229c0 <pthread_mutex_unlock@plt>
 78ad857:	e8 54 51 47 00       	call   7d229b0 <pthread_mutex_lock@plt>
 78ad88f:	e9 2c 51 47 00       	jmp    7d229c0 <pthread_mutex_unlock@plt>
 78ad8c9:	e8 e2 50 47 00       	call   7d229b0 <pthread_mutex_lock@plt>
 78ad919:	e8 a2 50 47 00       	call   7d229c0 <pthread_mutex_unlock@plt>
 78ad9b3:	e8 f8 4f 47 00       	call   7d229b0 <pthread_mutex_lock@plt>
 78ad9eb:	e8 d0 4f 47 00       	call   7d229c0 <pthread_mutex_unlock@plt>
 78adb0f:	e8 ac 4e 47 00       	call   7d229c0 <pthread_mutex_unlock@plt>
 78adb22:	e8 99 4e 47 00       	call   7d229c0 <pthread_mutex_unlock@plt>
 78adb4e:	e8 6d 4e 47 00       	call   7d229c0 <pthread_mutex_unlock@plt>
 78ae23b:	e8 80 48 47 00       	call   7d22ac0 <pthread_once@plt>
 78ae3ca:	e8 e1 45 47 00       	call   7d229b0 <pthread_mutex_lock@plt>
 78ae41a:	e8 a1 45 47 00       	call   7d229c0 <pthread_mutex_unlock@plt>
 78af053:	e8 98 40 47 00       	call   7d230f0 <pthread_self@plt>
 78af0ed:	e8 fe 3f 47 00       	call   7d230f0 <pthread_self@plt>
 78af1a2:	e8 49 3f 47 00       	call   7d230f0 <pthread_self@plt>
 78af1e4:	e8 07 3f 47 00       	call   7d230f0 <pthread_self@plt>
 78af263:	e8 88 3e 47 00       	call   7d230f0 <pthread_self@plt>
 78b05ca:	e8 f1 24 47 00       	call   7d22ac0 <pthread_once@plt>
 78b0828:	e8 83 21 47 00       	call   7d229b0 <pthread_mutex_lock@plt>
 78b0931:	e9 8a 20 47 00       	jmp    7d229c0 <pthread_mutex_unlock@plt>
 78b09c3:	e8 e8 1f 47 00       	call   7d229b0 <pthread_mutex_lock@plt>
 78b0b44:	e8 77 1e 47 00       	call   7d229c0 <pthread_mutex_unlock@plt>
 78b0c32:	e8 89 1d 47 00       	call   7d229c0 <pthread_mutex_unlock@plt>
 78b1156:	e8 55 18 47 00       	call   7d229b0 <pthread_mutex_lock@plt>
 78b12c4:	e8 f7 16 47 00       	call   7d229c0 <pthread_mutex_unlock@plt>
 78b1396:	e8 15 16 47 00       	call   7d229b0 <pthread_mutex_lock@plt>
 78b149c:	e8 1f 15 47 00       	call   7d229c0 <pthread_mutex_unlock@plt>
 78b152b:	e8 80 14 47 00       	call   7d229b0 <pthread_mutex_lock@plt>
 78b153c:	e8 7f 14 47 00       	call   7d229c0 <pthread_mutex_unlock@plt>
 78b16e9:	e8 c2 12 47 00       	call   7d229b0 <pthread_mutex_lock@plt>
 78b188e:	e9 2d 11 47 00       	jmp    7d229c0 <pthread_mutex_unlock@plt>
 78b1a08:	e8 b3 0f 47 00       	call   7d229c0 <pthread_mutex_unlock@plt>
 78b1a1c:	e8 9f 0f 47 00       	call   7d229c0 <pthread_mutex_unlock@plt>
 78b1ab7:	e8 04 0f 47 00       	call   7d229c0 <pthread_mutex_unlock@plt>
 78b26bb:	e8 00 04 47 00       	call   7d22ac0 <pthread_once@plt>
 78b34ce:	e8 dd f4 46 00       	call   7d229b0 <pthread_mutex_lock@plt>
 78b3594:	e8 27 f4 46 00       	call   7d229c0 <pthread_mutex_unlock@plt>
 78b372b:	e8 80 f2 46 00       	call   7d229b0 <pthread_mutex_lock@plt>
 78b3849:	e8 72 f1 46 00       	call   7d229c0 <pthread_mutex_unlock@plt>
 78b38fc:	e9 bf f0 46 00       	jmp    7d229c0 <pthread_mutex_unlock@plt>
 78b3a08:	e8 a3 ef 46 00       	call   7d229b0 <pthread_mutex_lock@plt>
 78b3a9b:	e8 10 ef 46 00       	call   7d229b0 <pthread_mutex_lock@plt>
 78b3ab9:	e8 02 ef 46 00       	call   7d229c0 <pthread_mutex_unlock@plt>
 78b3ad4:	e8 d7 ee 46 00       	call   7d229b0 <pthread_mutex_lock@plt>
 78b3afe:	e9 bd ee 46 00       	jmp    7d229c0 <pthread_mutex_unlock@plt>
 78b3b12:	e8 99 ee 46 00       	call   7d229b0 <pthread_mutex_lock@plt>
 78b3b8b:	e8 30 ee 46 00       	call   7d229c0 <pthread_mutex_unlock@plt>
 78b475e:	e8 4d e2 46 00       	call   7d229b0 <pthread_mutex_lock@plt>
 78b479e:	e8 0d e2 46 00       	call   7d229b0 <pthread_mutex_lock@plt>
 78b4808:	e8 a3 e1 46 00       	call   7d229b0 <pthread_mutex_lock@plt>
 78b482e:	e8 8d e1 46 00       	call   7d229c0 <pthread_mutex_unlock@plt>
 78b4885:	e8 26 e1 46 00       	call   7d229b0 <pthread_mutex_lock@plt>
 78b48a9:	e8 12 e1 46 00       	call   7d229c0 <pthread_mutex_unlock@plt>
 78b4915:	e9 a6 e0 46 00       	jmp    7d229c0 <pthread_mutex_unlock@plt>
 78b4c1c:	e8 8f dd 46 00       	call   7d229b0 <pthread_mutex_lock@plt>
 78b4d3a:	e8 81 dc 46 00       	call   7d229c0 <pthread_mutex_unlock@plt>
 78b4ebb:	e8 f0 da 46 00       	call   7d229b0 <pthread_mutex_lock@plt>
 78b4ee6:	e8 d5 da 46 00       	call   7d229c0 <pthread_mutex_unlock@plt>
 78b537b:	e8 30 d6 46 00       	call   7d229b0 <pthread_mutex_lock@plt>
 78b55d3:	e9 e8 d3 46 00       	jmp    7d229c0 <pthread_mutex_unlock@plt>
 78b56c4:	e8 e7 d2 46 00       	call   7d229b0 <pthread_mutex_lock@plt>
 78b58a0:	e8 1b d1 46 00       	call   7d229c0 <pthread_mutex_unlock@plt>
 78b5ee8:	e8 c3 ca 46 00       	call   7d229b0 <pthread_mutex_lock@plt>
 78b5fcc:	e8 ef c9 46 00       	call   7d229c0 <pthread_mutex_unlock@plt>
 78b62e3:	e8 c8 c6 46 00       	call   7d229b0 <pthread_mutex_lock@plt>
 78b6353:	e8 68 c6 46 00       	call   7d229c0 <pthread_mutex_unlock@plt>
 78b6832:	e8 89 c1 46 00       	call   7d229c0 <pthread_mutex_unlock@plt>
 78b6ae6:	e8 d5 be 46 00       	call   7d229c0 <pthread_mutex_unlock@plt>
 78b6d2e:	e8 8d bc 46 00       	call   7d229c0 <pthread_mutex_unlock@plt>
 78b6ff1:	e8 ca b9 46 00       	call   7d229c0 <pthread_mutex_unlock@plt>
 78b721d:	e8 9e b7 46 00       	call   7d229c0 <pthread_mutex_unlock@plt>
 78b7ea5:	e8 16 ac 46 00       	call   7d22ac0 <pthread_once@plt>
 78b902a:	e8 81 99 46 00       	call   7d229b0 <pthread_mutex_lock@plt>
 78b90e5:	e9 d6 98 46 00       	jmp    7d229c0 <pthread_mutex_unlock@plt>
 78b9198:	e9 23 98 46 00       	jmp    7d229c0 <pthread_mutex_unlock@plt>
 78b91e7:	e8 c4 97 46 00       	call   7d229b0 <pthread_mutex_lock@plt>
 78b92f3:	e8 c8 96 46 00       	call   7d229c0 <pthread_mutex_unlock@plt>
 78b93c1:	e8 ea 95 46 00       	call   7d229b0 <pthread_mutex_lock@plt>
 78b93ea:	e9 d1 95 46 00       	jmp    7d229c0 <pthread_mutex_unlock@plt>
 78b943f:	e9 7c 95 46 00       	jmp    7d229c0 <pthread_mutex_unlock@plt>
 78b9548:	e8 73 94 46 00       	call   7d229c0 <pthread_mutex_unlock@plt>
 78b955c:	e8 5f 94 46 00       	call   7d229c0 <pthread_mutex_unlock@plt>
 78ffaea:	e8 d1 2e 42 00       	call   7d229c0 <pthread_mutex_unlock@plt>
 78ffb2a:	e8 81 2e 42 00       	call   7d229b0 <pthread_mutex_lock@plt>
 78ffb85:	e8 26 2e 42 00       	call   7d229b0 <pthread_mutex_lock@plt>
 78ffbb7:	e8 f4 2d 42 00       	call   7d229b0 <pthread_mutex_lock@plt>
 78ffbd1:	e8 ea 2d 42 00       	call   7d229c0 <pthread_mutex_unlock@plt>
 78ffbd9:	e8 e2 2d 42 00       	call   7d229c0 <pthread_mutex_unlock@plt>
 78ffcbb:	e8 f0 2c 42 00       	call   7d229b0 <pthread_mutex_lock@plt>
 78ffd1e:	e8 9d 2c 42 00       	call   7d229c0 <pthread_mutex_unlock@plt>
 78ffd33:	e8 88 2c 42 00       	call   7d229c0 <pthread_mutex_unlock@plt>
 78ffe52:	e8 59 2b 42 00       	call   7d229b0 <pthread_mutex_lock@plt>
 78ffe93:	e8 18 2b 42 00       	call   7d229b0 <pthread_mutex_lock@plt>
 78ffef5:	e8 c6 2a 42 00       	call   7d229c0 <pthread_mutex_unlock@plt>
 78fff0b:	e9 b0 2a 42 00       	jmp    7d229c0 <pthread_mutex_unlock@plt>
 78fff13:	e8 a8 2a 42 00       	call   7d229c0 <pthread_mutex_unlock@plt>
 78fff22:	e8 89 2a 42 00       	call   7d229b0 <pthread_mutex_lock@plt>
 78fff37:	e8 84 2a 42 00       	call   7d229c0 <pthread_mutex_unlock@plt>
 7900017:	e8 94 29 42 00       	call   7d229b0 <pthread_mutex_lock@plt>
 790002a:	e8 91 29 42 00       	call   7d229c0 <pthread_mutex_unlock@plt>
 790012e:	e8 7d 28 42 00       	call   7d229b0 <pthread_mutex_lock@plt>
 79001da:	e9 e1 27 42 00       	jmp    7d229c0 <pthread_mutex_unlock@plt>
 790056f:	e8 3c 24 42 00       	call   7d229b0 <pthread_mutex_lock@plt>
 79005b3:	e8 f8 23 42 00       	call   7d229b0 <pthread_mutex_lock@plt>
 79005cc:	e8 ef 23 42 00       	call   7d229c0 <pthread_mutex_unlock@plt>
 7900745:	e8 66 22 42 00       	call   7d229b0 <pthread_mutex_lock@plt>
 79007ab:	e8 10 22 42 00       	call   7d229c0 <pthread_mutex_unlock@plt>
 79007fc:	e8 bf 21 42 00       	call   7d229c0 <pthread_mutex_unlock@plt>
 7900816:	e8 a5 21 42 00       	call   7d229c0 <pthread_mutex_unlock@plt>
 790091a:	e8 a1 20 42 00       	call   7d229c0 <pthread_mutex_unlock@plt>
 7900b6b:	e8 40 1e 42 00       	call   7d229b0 <pthread_mutex_lock@plt>
 7900bac:	e8 ff 1d 42 00       	call   7d229b0 <pthread_mutex_lock@plt>
 7900bc4:	e8 f7 1d 42 00       	call   7d229c0 <pthread_mutex_unlock@plt>
 7900bda:	e9 e1 1d 42 00       	jmp    7d229c0 <pthread_mutex_unlock@plt>
 7900beb:	e8 c0 1d 42 00       	call   7d229b0 <pthread_mutex_lock@plt>
 7900c58:	e8 63 1d 42 00       	call   7d229c0 <pthread_mutex_unlock@plt>
 7900f74:	e8 37 1a 42 00       	call   7d229b0 <pthread_mutex_lock@plt>
 7900f8b:	e8 30 1a 42 00       	call   7d229c0 <pthread_mutex_unlock@plt>
 7900ff1:	e8 ba 19 42 00       	call   7d229b0 <pthread_mutex_lock@plt>
 790100d:	e8 ae 19 42 00       	call   7d229c0 <pthread_mutex_unlock@plt>
 7901080:	e8 2b 19 42 00       	call   7d229b0 <pthread_mutex_lock@plt>
 79010cc:	e8 ef 18 42 00       	call   7d229c0 <pthread_mutex_unlock@plt>
 7901106:	e8 a5 18 42 00       	call   7d229b0 <pthread_mutex_lock@plt>
 790111c:	e8 9f 18 42 00       	call   7d229c0 <pthread_mutex_unlock@plt>
 7901330:	e8 7b 16 42 00       	call   7d229b0 <pthread_mutex_lock@plt>
 7901381:	e8 3a 16 42 00       	call   7d229c0 <pthread_mutex_unlock@plt>
 79013cf:	e8 dc 15 42 00       	call   7d229b0 <pthread_mutex_lock@plt>
 79013ed:	e8 ce 15 42 00       	call   7d229c0 <pthread_mutex_unlock@plt>
 7901453:	e8 58 15 42 00       	call   7d229b0 <pthread_mutex_lock@plt>
 79014b8:	e8 13 16 42 00       	call   7d22ad0 <pthread_cond_timedwait@plt>
 79014cd:	e8 ee 14 42 00       	call   7d229c0 <pthread_mutex_unlock@plt>
 790269a:	e8 21 04 42 00       	call   7d22ac0 <pthread_once@plt>
 7904cda:	e8 d1 dc 41 00       	call   7d229b0 <pthread_mutex_lock@plt>
 7904d2a:	e8 91 dc 41 00       	call   7d229c0 <pthread_mutex_unlock@plt>
 79053d3:	e8 d8 d5 41 00       	call   7d229b0 <pthread_mutex_lock@plt>
 790544b:	e8 70 d5 41 00       	call   7d229c0 <pthread_mutex_unlock@plt>
 7905fc6:	e8 e5 c9 41 00       	call   7d229b0 <pthread_mutex_lock@plt>
 7906228:	e8 93 c7 41 00       	call   7d229c0 <pthread_mutex_unlock@plt>
 7907bd0:	e8 eb ad 41 00       	call   7d229c0 <pthread_mutex_unlock@plt>
 7908034:	e8 87 a9 41 00       	call   7d229c0 <pthread_mutex_unlock@plt>
 790a0c9:	e8 f2 89 41 00       	call   7d22ac0 <pthread_once@plt>
 790d06f:	e8 4c 5a 41 00       	call   7d22ac0 <pthread_once@plt>
 791975e:	e8 5d 93 40 00       	call   7d22ac0 <pthread_once@plt>
 791f9bb:	e8 00 31 40 00       	call   7d22ac0 <pthread_once@plt>
 7921cdb:	e8 e0 0d 40 00       	call   7d22ac0 <pthread_once@plt>
 7936136:	e8 85 c9 3e 00       	call   7d22ac0 <pthread_once@plt>
 7954e7c:	e8 3f dc 3c 00       	call   7d22ac0 <pthread_once@plt>
 795602e:	e8 8d ca 3c 00       	call   7d22ac0 <pthread_once@plt>
 795b81a:	e8 a1 72 3c 00       	call   7d22ac0 <pthread_once@plt>
 795d7dd:	e8 de 52 3c 00       	call   7d22ac0 <pthread_once@plt>
 795e062:	e8 49 49 3c 00       	call   7d229b0 <pthread_mutex_lock@plt>
 795e082:	e8 39 49 3c 00       	call   7d229c0 <pthread_mutex_unlock@plt>
 7960406:	e8 b5 25 3c 00       	call   7d229c0 <pthread_mutex_unlock@plt>
 7962336:	e8 85 07 3c 00       	call   7d22ac0 <pthread_once@plt>
 7970f97:	e8 24 1b 3b 00       	call   7d22ac0 <pthread_once@plt>
 79e1936:	e8 85 11 34 00       	call   7d22ac0 <pthread_once@plt>
 79eff6b:	e8 50 2b 33 00       	call   7d22ac0 <pthread_once@plt>
 79f55eb:	e8 d0 d4 32 00       	call   7d22ac0 <pthread_once@plt>
 79f61b9:	e8 02 c9 32 00       	call   7d22ac0 <pthread_once@plt>
 79f841b:	e8 a0 a6 32 00       	call   7d22ac0 <pthread_once@plt>
 79f8eec:	e8 cf 9b 32 00       	call   7d22ac0 <pthread_once@plt>
 79f9280:	e8 3b 98 32 00       	call   7d22ac0 <pthread_once@plt>
 79f9688:	e8 33 94 32 00       	call   7d22ac0 <pthread_once@plt>
 79f9c67:	e8 54 8e 32 00       	call   7d22ac0 <pthread_once@plt>
 7a00396:	e8 25 27 32 00       	call   7d22ac0 <pthread_once@plt>
 7a00969:	e8 52 21 32 00       	call   7d22ac0 <pthread_once@plt>
 7a00b7d:	e8 3e 1f 32 00       	call   7d22ac0 <pthread_once@plt>
 7a00c1c:	e8 9f 1e 32 00       	call   7d22ac0 <pthread_once@plt>
 7a00cc5:	e8 f6 1d 32 00       	call   7d22ac0 <pthread_once@plt>
 7a00d4d:	e8 6e 1d 32 00       	call   7d22ac0 <pthread_once@plt>
 7a00dd5:	e8 e6 1c 32 00       	call   7d22ac0 <pthread_once@plt>
 7a00e5d:	e8 5e 1c 32 00       	call   7d22ac0 <pthread_once@plt>
 7a01832:	e8 89 12 32 00       	call   7d22ac0 <pthread_once@plt>
 7a018b8:	e8 03 12 32 00       	call   7d22ac0 <pthread_once@plt>
 7a0193e:	e8 7d 11 32 00       	call   7d22ac0 <pthread_once@plt>
 7a01afa:	e8 c1 0f 32 00       	call   7d22ac0 <pthread_once@plt>
 7a01c13:	e8 a8 0e 32 00       	call   7d22ac0 <pthread_once@plt>
 7a01d73:	e8 48 0d 32 00       	call   7d22ac0 <pthread_once@plt>
 7a01ef1:	e8 ca 0b 32 00       	call   7d22ac0 <pthread_once@plt>
 7a02001:	e8 ba 0a 32 00       	call   7d22ac0 <pthread_once@plt>
 7a022c9:	e8 f2 07 32 00       	call   7d22ac0 <pthread_once@plt>
 7a02353:	e8 68 07 32 00       	call   7d22ac0 <pthread_once@plt>
 7a023dd:	e8 de 06 32 00       	call   7d22ac0 <pthread_once@plt>
 7a0251c:	e8 9f 05 32 00       	call   7d22ac0 <pthread_once@plt>
 7a025a4:	e8 17 05 32 00       	call   7d22ac0 <pthread_once@plt>
 7a0269c:	e8 1f 04 32 00       	call   7d22ac0 <pthread_once@plt>
 7a0277a:	e8 41 03 32 00       	call   7d22ac0 <pthread_once@plt>
 7a02800:	e8 bb 02 32 00       	call   7d22ac0 <pthread_once@plt>
 7a028f1:	e8 ca 01 32 00       	call   7d22ac0 <pthread_once@plt>
 7a02979:	e8 42 01 32 00       	call   7d22ac0 <pthread_once@plt>
 7a029ff:	e8 bc 00 32 00       	call   7d22ac0 <pthread_once@plt>
 7a02ea2:	e8 19 fc 31 00       	call   7d22ac0 <pthread_once@plt>
 7a03080:	e8 3b fa 31 00       	call   7d22ac0 <pthread_once@plt>
 7a04142:	e8 79 e9 31 00       	call   7d22ac0 <pthread_once@plt>
 7a046b9:	e8 02 e4 31 00       	call   7d22ac0 <pthread_once@plt>
 7a04869:	e8 52 e2 31 00       	call   7d22ac0 <pthread_once@plt>
 7a04ed0:	e8 eb db 31 00       	call   7d22ac0 <pthread_once@plt>
 7a04fab:	e8 10 db 31 00       	call   7d22ac0 <pthread_once@plt>
 7a0511e:	e8 9d d9 31 00       	call   7d22ac0 <pthread_once@plt>
 7a0524e:	e8 6d d8 31 00       	call   7d22ac0 <pthread_once@plt>
 7a05365:	e8 56 d7 31 00       	call   7d22ac0 <pthread_once@plt>
 7a05495:	e8 26 d6 31 00       	call   7d22ac0 <pthread_once@plt>
 7a055c5:	e8 f6 d4 31 00       	call   7d22ac0 <pthread_once@plt>
 7a06490:	e8 2b c6 31 00       	call   7d22ac0 <pthread_once@plt>
 7a067ec:	e8 cf c2 31 00       	call   7d22ac0 <pthread_once@plt>
 7a06ac5:	e8 f6 bf 31 00       	call   7d22ac0 <pthread_once@plt>
 7a06d75:	e8 46 bd 31 00       	call   7d22ac0 <pthread_once@plt>
 7a070b3:	e8 08 ba 31 00       	call   7d22ac0 <pthread_once@plt>
 7a074c0:	e8 fb b5 31 00       	call   7d22ac0 <pthread_once@plt>
 7a093cb:	e8 f0 96 31 00       	call   7d22ac0 <pthread_once@plt>
 7a094a1:	e8 1a 96 31 00       	call   7d22ac0 <pthread_once@plt>
 7a09564:	e8 57 95 31 00       	call   7d22ac0 <pthread_once@plt>
 7a09637:	e8 84 94 31 00       	call   7d22ac0 <pthread_once@plt>
 7a0ec0b:	e8 b0 3e 31 00       	call   7d22ac0 <pthread_once@plt>
 7a163cb:	e8 f0 c6 30 00       	call   7d22ac0 <pthread_once@plt>
 7a1b299:	e8 12 77 30 00       	call   7d229b0 <pthread_mutex_lock@plt>
 7a1b2b8:	e8 03 77 30 00       	call   7d229c0 <pthread_mutex_unlock@plt>
 7a1bb71:	e8 3a 6e 30 00       	call   7d229b0 <pthread_mutex_lock@plt>
 7a1bb90:	e8 2b 6e 30 00       	call   7d229c0 <pthread_mutex_unlock@plt>
 7a1cd6d:	e8 3e 5c 30 00       	call   7d229b0 <pthread_mutex_lock@plt>
 7a1cd93:	e8 28 5c 30 00       	call   7d229c0 <pthread_mutex_unlock@plt>
 7aa4d97:	e8 14 dc 27 00       	call   7d229b0 <pthread_mutex_lock@plt>
 7aa4dbc:	e9 ff db 27 00       	jmp    7d229c0 <pthread_mutex_unlock@plt>
 7aa4de2:	e8 c9 db 27 00       	call   7d229b0 <pthread_mutex_lock@plt>
 7aa4e1e:	e8 9d db 27 00       	call   7d229c0 <pthread_mutex_unlock@plt>
 7aa4e66:	e8 55 db 27 00       	call   7d229c0 <pthread_mutex_unlock@plt>
 7aa4e7a:	e8 41 db 27 00       	call   7d229c0 <pthread_mutex_unlock@plt>
 7aaa51a:	e8 91 84 27 00       	call   7d229b0 <pthread_mutex_lock@plt>
 7aaa5a8:	e8 13 84 27 00       	call   7d229c0 <pthread_mutex_unlock@plt>
 7aaab58:	e8 53 7e 27 00       	call   7d229b0 <pthread_mutex_lock@plt>
 7aaade3:	e8 98 84 27 00       	call   7d23280 <pthread_rwlock_wrlock@plt>
 7aaae38:	e8 33 84 27 00       	call   7d23270 <pthread_rwlock_unlock@plt>
 7aab227:	e8 84 77 27 00       	call   7d229b0 <pthread_mutex_lock@plt>
 7aab323:	e8 98 76 27 00       	call   7d229c0 <pthread_mutex_unlock@plt>
 7aab479:	e8 02 7e 27 00       	call   7d23280 <pthread_rwlock_wrlock@plt>
 7aab4d4:	e8 97 7d 27 00       	call   7d23270 <pthread_rwlock_unlock@plt>
 7aab6f3:	e8 b8 72 27 00       	call   7d229b0 <pthread_mutex_lock@plt>
 7aab80d:	e8 6e 7a 27 00       	call   7d23280 <pthread_rwlock_wrlock@plt>
 7aab86b:	e8 00 7a 27 00       	call   7d23270 <pthread_rwlock_unlock@plt>
 7aabbd0:	e8 ab 76 27 00       	call   7d23280 <pthread_rwlock_wrlock@plt>
 7aabc2b:	e8 40 76 27 00       	call   7d23270 <pthread_rwlock_unlock@plt>
 7aac161:	e8 4a 68 27 00       	call   7d229b0 <pthread_mutex_lock@plt>
 7aac1e6:	e8 d5 67 27 00       	call   7d229c0 <pthread_mutex_unlock@plt>
 7aac23a:	e8 71 67 27 00       	call   7d229b0 <pthread_mutex_lock@plt>
 7aac25b:	e8 60 67 27 00       	call   7d229c0 <pthread_mutex_unlock@plt>
 7aac3d4:	e8 a7 6e 27 00       	call   7d23280 <pthread_rwlock_wrlock@plt>
 7aac43a:	e8 31 6e 27 00       	call   7d23270 <pthread_rwlock_unlock@plt>
 7aacbea:	e8 71 66 27 00       	call   7d23260 <pthread_rwlock_rdlock@plt>
 7aacc01:	e8 6a 66 27 00       	call   7d23270 <pthread_rwlock_unlock@plt>
 7aacc65:	e8 06 66 27 00       	call   7d23270 <pthread_rwlock_unlock@plt>
 7aad5bb:	e8 b0 5c 27 00       	call   7d23270 <pthread_rwlock_unlock@plt>
 7aad677:	e8 f4 5b 27 00       	call   7d23270 <pthread_rwlock_unlock@plt>
 7aad700:	e8 6b 5b 27 00       	call   7d23270 <pthread_rwlock_unlock@plt>
 7aad77b:	e8 f0 5a 27 00       	call   7d23270 <pthread_rwlock_unlock@plt>
 7aada08:	e8 63 58 27 00       	call   7d23270 <pthread_rwlock_unlock@plt>
 7aae194:	e8 17 48 27 00       	call   7d229b0 <pthread_mutex_lock@plt>
 7aae1b0:	e9 0b 48 27 00       	jmp    7d229c0 <pthread_mutex_unlock@plt>
 7aae1d2:	e8 e9 47 27 00       	call   7d229c0 <pthread_mutex_unlock@plt>
 7aae1ff:	e8 5c 50 27 00       	call   7d23260 <pthread_rwlock_rdlock@plt>
 7aae215:	e8 56 50 27 00       	call   7d23270 <pthread_rwlock_unlock@plt>
 7aae24a:	e8 21 50 27 00       	call   7d23270 <pthread_rwlock_unlock@plt>
 7aae27d:	e8 2e 47 27 00       	call   7d229b0 <pthread_mutex_lock@plt>
 7aae299:	e9 22 47 27 00       	jmp    7d229c0 <pthread_mutex_unlock@plt>
 7aae2bb:	e8 00 47 27 00       	call   7d229c0 <pthread_mutex_unlock@plt>
 7aae2e8:	e8 73 4f 27 00       	call   7d23260 <pthread_rwlock_rdlock@plt>
 7aae2fe:	e8 6d 4f 27 00       	call   7d23270 <pthread_rwlock_unlock@plt>
 7aae333:	e8 38 4f 27 00       	call   7d23270 <pthread_rwlock_unlock@plt>
 7aae374:	e8 37 46 27 00       	call   7d229b0 <pthread_mutex_lock@plt>
 7aae390:	e9 2b 46 27 00       	jmp    7d229c0 <pthread_mutex_unlock@plt>
 7aae3b2:	e8 09 46 27 00       	call   7d229c0 <pthread_mutex_unlock@plt>
 7aae3df:	e8 7c 4e 27 00       	call   7d23260 <pthread_rwlock_rdlock@plt>
 7aae3f5:	e8 76 4e 27 00       	call   7d23270 <pthread_rwlock_unlock@plt>
 7aae42a:	e8 41 4e 27 00       	call   7d23270 <pthread_rwlock_unlock@plt>
 7aaf29f:	e9 6c 57 27 00       	jmp    7d24a10 <pthread_rwlock_destroy@plt>
 7aaf33f:	e9 cc 56 27 00       	jmp    7d24a10 <pthread_rwlock_destroy@plt>
 7aaf3df:	e9 2c 56 27 00       	jmp    7d24a10 <pthread_rwlock_destroy@plt>
 7aaf47f:	e9 8c 55 27 00       	jmp    7d24a10 <pthread_rwlock_destroy@plt>
 7aaf703:	e8 08 53 27 00       	call   7d24a10 <pthread_rwlock_destroy@plt>
 7aaf7b3:	e8 58 52 27 00       	call   7d24a10 <pthread_rwlock_destroy@plt>
 7aaf863:	e8 a8 51 27 00       	call   7d24a10 <pthread_rwlock_destroy@plt>
 7aaf913:	e8 f8 50 27 00       	call   7d24a10 <pthread_rwlock_destroy@plt>
 7ab0443:	e8 78 25 27 00       	call   7d229c0 <pthread_mutex_unlock@plt>
 7ab0673:	e8 48 23 27 00       	call   7d229c0 <pthread_mutex_unlock@plt>
 7ab0989:	e8 22 20 27 00       	call   7d229b0 <pthread_mutex_lock@plt>
 7ab09d3:	e8 e8 1f 27 00       	call   7d229c0 <pthread_mutex_unlock@plt>
 7ab0b3a:	e8 41 27 27 00       	call   7d23280 <pthread_rwlock_wrlock@plt>
 7ab0b95:	e9 d6 26 27 00       	jmp    7d23270 <pthread_rwlock_unlock@plt>
 7ab0ba3:	e8 c8 26 27 00       	call   7d23270 <pthread_rwlock_unlock@plt>
 7ab0bca:	e8 b1 26 27 00       	call   7d23280 <pthread_rwlock_wrlock@plt>
 7ab0c28:	e9 43 26 27 00       	jmp    7d23270 <pthread_rwlock_unlock@plt>
 7ab0c36:	e8 35 26 27 00       	call   7d23270 <pthread_rwlock_unlock@plt>
 7ab1c0d:	e9 fe 2d 27 00       	jmp    7d24a10 <pthread_rwlock_destroy@plt>
 7ab1c98:	e8 83 2d 27 00       	call   7d24a20 <pthread_rwlock_init@plt>
 7ab1dcb:	e8 40 2c 27 00       	call   7d24a10 <pthread_rwlock_destroy@plt>
 7ab1e68:	e8 b3 2b 27 00       	call   7d24a20 <pthread_rwlock_init@plt>
 7ab1f9b:	e8 70 2a 27 00       	call   7d24a10 <pthread_rwlock_destroy@plt>
 7ab2038:	e8 e3 29 27 00       	call   7d24a20 <pthread_rwlock_init@plt>
 7ab216b:	e8 a0 28 27 00       	call   7d24a10 <pthread_rwlock_destroy@plt>
 7ab2208:	e8 13 28 27 00       	call   7d24a20 <pthread_rwlock_init@plt>
 7ab233b:	e8 d0 26 27 00       	call   7d24a10 <pthread_rwlock_destroy@plt>
 7ab239b:	e8 70 26 27 00       	call   7d24a10 <pthread_rwlock_destroy@plt>
 7ab5812:	e8 49 da 26 00       	call   7d23260 <pthread_rwlock_rdlock@plt>
 7ab5842:	e8 29 da 26 00       	call   7d23270 <pthread_rwlock_unlock@plt>
 7ab58cb:	e8 e0 d0 26 00       	call   7d229b0 <pthread_mutex_lock@plt>
 7ab58ee:	e8 cd d0 26 00       	call   7d229c0 <pthread_mutex_unlock@plt>
 7ab5af7:	e8 74 d7 26 00       	call   7d23270 <pthread_rwlock_unlock@plt>
 7ab5b0b:	e8 b0 ce 26 00       	call   7d229c0 <pthread_mutex_unlock@plt>
 7ab5b35:	e8 26 d7 26 00       	call   7d23260 <pthread_rwlock_rdlock@plt>
 7ab5b4b:	e8 20 d7 26 00       	call   7d23270 <pthread_rwlock_unlock@plt>
 7ab5b8e:	e8 dd d6 26 00       	call   7d23270 <pthread_rwlock_unlock@plt>
 7ab5c32:	e8 29 d6 26 00       	call   7d23260 <pthread_rwlock_rdlock@plt>
 7ab5c62:	e8 09 d6 26 00       	call   7d23270 <pthread_rwlock_unlock@plt>
 7ab5ceb:	e8 c0 cc 26 00       	call   7d229b0 <pthread_mutex_lock@plt>
 7ab5d0e:	e8 ad cc 26 00       	call   7d229c0 <pthread_mutex_unlock@plt>
 7ab5f17:	e8 54 d3 26 00       	call   7d23270 <pthread_rwlock_unlock@plt>
 7ab5f2b:	e8 90 ca 26 00       	call   7d229c0 <pthread_mutex_unlock@plt>
 7ab5f55:	e8 06 d3 26 00       	call   7d23260 <pthread_rwlock_rdlock@plt>
 7ab5f6b:	e8 00 d3 26 00       	call   7d23270 <pthread_rwlock_unlock@plt>
 7ab5fae:	e8 bd d2 26 00       	call   7d23270 <pthread_rwlock_unlock@plt>
 7ab6052:	e8 09 d2 26 00       	call   7d23260 <pthread_rwlock_rdlock@plt>
 7ab6082:	e8 e9 d1 26 00       	call   7d23270 <pthread_rwlock_unlock@plt>
 7ab610b:	e8 a0 c8 26 00       	call   7d229b0 <pthread_mutex_lock@plt>
 7ab612e:	e8 8d c8 26 00       	call   7d229c0 <pthread_mutex_unlock@plt>
 7ab6337:	e8 34 cf 26 00       	call   7d23270 <pthread_rwlock_unlock@plt>
 7ab634b:	e8 70 c6 26 00       	call   7d229c0 <pthread_mutex_unlock@plt>
 7ab6375:	e8 e6 ce 26 00       	call   7d23260 <pthread_rwlock_rdlock@plt>
 7ab638b:	e8 e0 ce 26 00       	call   7d23270 <pthread_rwlock_unlock@plt>
 7ab63ce:	e8 9d ce 26 00       	call   7d23270 <pthread_rwlock_unlock@plt>
 7ab6471:	e8 ea cd 26 00       	call   7d23260 <pthread_rwlock_rdlock@plt>
 7ab64a0:	e8 cb cd 26 00       	call   7d23270 <pthread_rwlock_unlock@plt>
 7ab6515:	e8 96 c4 26 00       	call   7d229b0 <pthread_mutex_lock@plt>
 7ab6536:	e8 85 c4 26 00       	call   7d229c0 <pthread_mutex_unlock@plt>
 7ab6687:	e8 e4 cb 26 00       	call   7d23270 <pthread_rwlock_unlock@plt>
 7ab669a:	e8 21 c3 26 00       	call   7d229c0 <pthread_mutex_unlock@plt>
 7ab66c4:	e8 97 cb 26 00       	call   7d23260 <pthread_rwlock_rdlock@plt>
 7ab66da:	e8 91 cb 26 00       	call   7d23270 <pthread_rwlock_unlock@plt>
 7ab671d:	e8 4e cb 26 00       	call   7d23270 <pthread_rwlock_unlock@plt>
 7abe101:	e8 aa 48 26 00       	call   7d229b0 <pthread_mutex_lock@plt>
 7abe138:	e8 83 48 26 00       	call   7d229c0 <pthread_mutex_unlock@plt>
 7abe145:	e8 66 48 26 00       	call   7d229b0 <pthread_mutex_lock@plt>
 7abe182:	e8 39 48 26 00       	call   7d229c0 <pthread_mutex_unlock@plt>
 7abe1cb:	e8 e0 47 26 00       	call   7d229b0 <pthread_mutex_lock@plt>
 7abe1fe:	e8 bd 47 26 00       	call   7d229c0 <pthread_mutex_unlock@plt>
 7abe236:	e8 75 47 26 00       	call   7d229b0 <pthread_mutex_lock@plt>
 7abe276:	e8 35 47 26 00       	call   7d229b0 <pthread_mutex_lock@plt>
 7abe28c:	e8 2f 47 26 00       	call   7d229c0 <pthread_mutex_unlock@plt>
 7abe2e2:	e8 c9 46 26 00       	call   7d229b0 <pthread_mutex_lock@plt>
 7abe3d2:	e8 e9 45 26 00       	call   7d229c0 <pthread_mutex_unlock@plt>
 7abe3f8:	e8 c3 45 26 00       	call   7d229c0 <pthread_mutex_unlock@plt>
 7abe43f:	e8 6c 45 26 00       	call   7d229b0 <pthread_mutex_lock@plt>
 7abe474:	e8 47 45 26 00       	call   7d229c0 <pthread_mutex_unlock@plt>
 7abe4f1:	e8 ba 44 26 00       	call   7d229b0 <pthread_mutex_lock@plt>
 7abe522:	e8 99 44 26 00       	call   7d229c0 <pthread_mutex_unlock@plt>
 7abe567:	e8 44 44 26 00       	call   7d229b0 <pthread_mutex_lock@plt>
 7abe656:	e9 65 43 26 00       	jmp    7d229c0 <pthread_mutex_unlock@plt>
 7abe730:	e8 7b 42 26 00       	call   7d229b0 <pthread_mutex_lock@plt>
 7abe79c:	e9 1f 42 26 00       	jmp    7d229c0 <pthread_mutex_unlock@plt>
 7abe920:	e8 8b 40 26 00       	call   7d229b0 <pthread_mutex_lock@plt>
 7abe977:	e8 34 40 26 00       	call   7d229b0 <pthread_mutex_lock@plt>
 7abe9ac:	e8 0f 40 26 00       	call   7d229c0 <pthread_mutex_unlock@plt>
 7abea22:	e9 99 3f 26 00       	jmp    7d229c0 <pthread_mutex_unlock@plt>
 7abebbd:	e8 ee 3d 26 00       	call   7d229b0 <pthread_mutex_lock@plt>
 7abecd1:	e8 ea 3c 26 00       	call   7d229c0 <pthread_mutex_unlock@plt>
 7abf15c:	e8 5f 38 26 00       	call   7d229c0 <pthread_mutex_unlock@plt>
 7abf19d:	e8 1e 38 26 00       	call   7d229c0 <pthread_mutex_unlock@plt>
 7abf217:	e8 a4 37 26 00       	call   7d229c0 <pthread_mutex_unlock@plt>
 7ac4f81:	e8 aa de 25 00       	call   7d22e30 <pthread_mutex_trylock@plt>
 7ac5072:	e8 b9 dd 25 00       	call   7d22e30 <pthread_mutex_trylock@plt>
 7ac5086:	e8 25 d9 25 00       	call   7d229b0 <pthread_mutex_lock@plt>
 7ac519e:	e9 1d d8 25 00       	jmp    7d229c0 <pthread_mutex_unlock@plt>
 7ac6d32:	e8 b9 c3 25 00       	call   7d230f0 <pthread_self@plt>
 7ac6d3d:	e8 fe c7 25 00       	call   7d23540 <pthread_attr_init@plt>
 7ac6d50:	e8 3b c8 25 00       	call   7d23590 <pthread_getattr_np@plt>
 7ac6d78:	e8 23 c8 25 00       	call   7d235a0 <pthread_attr_getstack@plt>
 7ac6dac:	e8 ff c7 25 00       	call   7d235b0 <pthread_attr_destroy@plt>
 7acdb78:	e8 73 55 25 00       	call   7d230f0 <pthread_self@plt>
 7acdb83:	e8 e8 59 25 00       	call   7d23570 <pthread_setname_np@plt>
 7ad071e:	e8 8d 22 25 00       	call   7d229b0 <pthread_mutex_lock@plt>
 7ad0780:	e9 3b 22 25 00       	jmp    7d229c0 <pthread_mutex_unlock@plt>
 7ad09f7:	e8 b4 1f 25 00       	call   7d229b0 <pthread_mutex_lock@plt>
 7ad0a71:	e8 4a 1f 25 00       	call   7d229c0 <pthread_mutex_unlock@plt>
 7ad0b3f:	e8 6c 1e 25 00       	call   7d229b0 <pthread_mutex_lock@plt>
 7ad0b69:	e8 82 25 25 00       	call   7d230f0 <pthread_self@plt>
 7ad0c5b:	e8 60 1d 25 00       	call   7d229c0 <pthread_mutex_unlock@plt>
 7ad0d9c:	e8 0f 1c 25 00       	call   7d229b0 <pthread_mutex_lock@plt>
 7ad0dc4:	e8 f7 1b 25 00       	call   7d229c0 <pthread_mutex_unlock@plt>
 7ad0ddf:	e8 cc 1b 25 00       	call   7d229b0 <pthread_mutex_lock@plt>
 7ad0dfb:	e8 c0 1b 25 00       	call   7d229c0 <pthread_mutex_unlock@plt>
 7ad0e3a:	e8 71 1b 25 00       	call   7d229b0 <pthread_mutex_lock@plt>
 7ad0eae:	e8 0d 1b 25 00       	call   7d229c0 <pthread_mutex_unlock@plt>
 7ad0f26:	e8 95 1a 25 00       	call   7d229c0 <pthread_mutex_unlock@plt>
 7ad10be:	e8 ed 18 25 00       	call   7d229b0 <pthread_mutex_lock@plt>
 7ad1104:	e8 e7 1f 25 00       	call   7d230f0 <pthread_self@plt>
 7ad127c:	e8 6f 1e 25 00       	call   7d230f0 <pthread_self@plt>
 7ad1497:	e8 14 15 25 00       	call   7d229b0 <pthread_mutex_lock@plt>
 7ad14e5:	e8 d6 14 25 00       	call   7d229c0 <pthread_mutex_unlock@plt>
 7ad658b:	e8 20 c4 24 00       	call   7d229b0 <pthread_mutex_lock@plt>
 7ad65d2:	e9 e9 c3 24 00       	jmp    7d229c0 <pthread_mutex_unlock@plt>
 7ad6653:	e8 58 c3 24 00       	call   7d229b0 <pthread_mutex_lock@plt>
 7ad6709:	e9 b2 c2 24 00       	jmp    7d229c0 <pthread_mutex_unlock@plt>
 7ad6c0a:	e8 a1 bd 24 00       	call   7d229b0 <pthread_mutex_lock@plt>
 7ad6cc7:	e9 f4 bc 24 00       	jmp    7d229c0 <pthread_mutex_unlock@plt>
 7ad6e99:	e8 12 bb 24 00       	call   7d229b0 <pthread_mutex_lock@plt>
 7adeb7a:	e8 31 3e 24 00       	call   7d229b0 <pthread_mutex_lock@plt>
 7adec9a:	e8 21 3d 24 00       	call   7d229c0 <pthread_mutex_unlock@plt>
 7ae47d6:	e8 d5 e1 23 00       	call   7d229b0 <pthread_mutex_lock@plt>
 7ae47f6:	e8 c5 e1 23 00       	call   7d229c0 <pthread_mutex_unlock@plt>
 7ae5512:	e8 99 d4 23 00       	call   7d229b0 <pthread_mutex_lock@plt>
 7ae5547:	e8 74 d4 23 00       	call   7d229c0 <pthread_mutex_unlock@plt>
 7af3de7:	e8 c4 eb 22 00       	call   7d229b0 <pthread_mutex_lock@plt>
 7af3e63:	e8 58 eb 22 00       	call   7d229c0 <pthread_mutex_unlock@plt>
 7af4b99:	e8 22 de 22 00       	call   7d229c0 <pthread_mutex_unlock@plt>
 7af9132:	e8 89 99 22 00       	call   7d22ac0 <pthread_once@plt>
 7af91c9:	e8 e2 97 22 00       	call   7d229b0 <pthread_mutex_lock@plt>
 7bacc04:	e8 57 66 17 00       	call   7d23260 <pthread_rwlock_rdlock@plt>
 7bacc4c:	e8 1f 66 17 00       	call   7d23270 <pthread_rwlock_unlock@plt>
 7bad690:	e8 cb 5b 17 00       	call   7d23260 <pthread_rwlock_rdlock@plt>
 7bad6f7:	e8 74 5b 17 00       	call   7d23270 <pthread_rwlock_unlock@plt>
 7bad72e:	e8 3d 5b 17 00       	call   7d23270 <pthread_rwlock_unlock@plt>
 7bad736:	e8 45 5b 17 00       	call   7d23280 <pthread_rwlock_wrlock@plt>
 7bad7eb:	e8 80 5a 17 00       	call   7d23270 <pthread_rwlock_unlock@plt>
 7bade74:	e8 f7 53 17 00       	call   7d23270 <pthread_rwlock_unlock@plt>
 7bae029:	e9 e2 69 17 00       	jmp    7d24a10 <pthread_rwlock_destroy@plt>
 7bae23b:	e8 e0 67 17 00       	call   7d24a20 <pthread_rwlock_init@plt>
 7bae3f6:	e8 15 66 17 00       	call   7d24a10 <pthread_rwlock_destroy@plt>
 7bb2d6b:	e8 a0 1c 17 00       	call   7d24a10 <pthread_rwlock_destroy@plt>
 7bb2e2d:	e8 4e 04 17 00       	call   7d23280 <pthread_rwlock_wrlock@plt>
 7bb2f6f:	e9 fc 02 17 00       	jmp    7d23270 <pthread_rwlock_unlock@plt>
 7bb305a:	e8 21 02 17 00       	call   7d23280 <pthread_rwlock_wrlock@plt>
 7bb30ed:	e9 7e 01 17 00       	jmp    7d23270 <pthread_rwlock_unlock@plt>
 7bb312a:	e8 51 01 17 00       	call   7d23280 <pthread_rwlock_wrlock@plt>
 7bb314b:	e8 20 01 17 00       	call   7d23270 <pthread_rwlock_unlock@plt>
 7bb3189:	e8 f2 00 17 00       	call   7d23280 <pthread_rwlock_wrlock@plt>
 7bb31aa:	e9 c1 00 17 00       	jmp    7d23270 <pthread_rwlock_unlock@plt>
 7bb31c9:	e8 92 00 17 00       	call   7d23260 <pthread_rwlock_rdlock@plt>
 7bb31e0:	e8 8b 00 17 00       	call   7d23270 <pthread_rwlock_unlock@plt>
 7bb322e:	e8 4d 00 17 00       	call   7d23280 <pthread_rwlock_wrlock@plt>
 7bb3277:	e9 f4 ff 16 00       	jmp    7d23270 <pthread_rwlock_unlock@plt>
 7bb32a9:	e8 d2 ff 16 00       	call   7d23280 <pthread_rwlock_wrlock@plt>
 7bb32e0:	e9 8b ff 16 00       	jmp    7d23270 <pthread_rwlock_unlock@plt>
 7bb3306:	e8 75 ff 16 00       	call   7d23280 <pthread_rwlock_wrlock@plt>
 7bb3358:	e9 13 ff 16 00       	jmp    7d23270 <pthread_rwlock_unlock@plt>
 7bb3389:	e8 f2 fe 16 00       	call   7d23280 <pthread_rwlock_wrlock@plt>
 7bb33c6:	e9 a5 fe 16 00       	jmp    7d23270 <pthread_rwlock_unlock@plt>
 7bb33f4:	e8 87 fe 16 00       	call   7d23280 <pthread_rwlock_wrlock@plt>
 7bb342d:	e9 3e fe 16 00       	jmp    7d23270 <pthread_rwlock_unlock@plt>
 7bb344d:	e9 1e fe 16 00       	jmp    7d23270 <pthread_rwlock_unlock@plt>
 7bb34a1:	e8 7a 15 17 00       	call   7d24a20 <pthread_rwlock_init@plt>
 7bb3807:	e8 54 fa 16 00       	call   7d23260 <pthread_rwlock_rdlock@plt>
 7bb38d8:	e8 93 f9 16 00       	call   7d23270 <pthread_rwlock_unlock@plt>
 7bb3929:	e8 42 f9 16 00       	call   7d23270 <pthread_rwlock_unlock@plt>
 7bb39e7:	e8 74 f8 16 00       	call   7d23260 <pthread_rwlock_rdlock@plt>
 7bb3ab8:	e8 b3 f7 16 00       	call   7d23270 <pthread_rwlock_unlock@plt>
 7bb3b09:	e8 62 f7 16 00       	call   7d23270 <pthread_rwlock_unlock@plt>
 7bb3bc7:	e8 94 f6 16 00       	call   7d23260 <pthread_rwlock_rdlock@plt>
 7bb3c98:	e8 d3 f5 16 00       	call   7d23270 <pthread_rwlock_unlock@plt>
 7bb3ce9:	e8 82 f5 16 00       	call   7d23270 <pthread_rwlock_unlock@plt>
 7bb4489:	e8 f2 ed 16 00       	call   7d23280 <pthread_rwlock_wrlock@plt>
 7bb44fe:	e9 6d ed 16 00       	jmp    7d23270 <pthread_rwlock_unlock@plt>
 7bb46f2:	e8 79 eb 16 00       	call   7d23270 <pthread_rwlock_unlock@plt>
 7bb4706:	e8 65 eb 16 00       	call   7d23270 <pthread_rwlock_unlock@plt>
 7bb471a:	e8 51 eb 16 00       	call   7d23270 <pthread_rwlock_unlock@plt>
 7bb472e:	e8 3d eb 16 00       	call   7d23270 <pthread_rwlock_unlock@plt>
 7bb4742:	e8 29 eb 16 00       	call   7d23270 <pthread_rwlock_unlock@plt>
 7bb4756:	e8 15 eb 16 00       	call   7d23270 <pthread_rwlock_unlock@plt>
 7bb47f8:	e8 73 ea 16 00       	call   7d23270 <pthread_rwlock_unlock@plt>
 7bb4862:	e8 a9 01 17 00       	call   7d24a10 <pthread_rwlock_destroy@plt>
 7bb494c:	e8 0f e9 16 00       	call   7d23260 <pthread_rwlock_rdlock@plt>
 7bb4a32:	e8 29 e8 16 00       	call   7d23260 <pthread_rwlock_rdlock@plt>
 7bb4b18:	e8 43 e7 16 00       	call   7d23260 <pthread_rwlock_rdlock@plt>
 7bb4d8b:	e8 d0 e4 16 00       	call   7d23260 <pthread_rwlock_rdlock@plt>
 7bb4da7:	e8 c4 e4 16 00       	call   7d23270 <pthread_rwlock_unlock@plt>
 7bb4df4:	e8 77 e4 16 00       	call   7d23270 <pthread_rwlock_unlock@plt>
 7bb4e18:	e8 43 e4 16 00       	call   7d23260 <pthread_rwlock_rdlock@plt>
 7bb4e5a:	e8 11 e4 16 00       	call   7d23270 <pthread_rwlock_unlock@plt>
 7bb4e98:	e8 d3 e3 16 00       	call   7d23270 <pthread_rwlock_unlock@plt>
 7bb4eb0:	e8 bb e3 16 00       	call   7d23270 <pthread_rwlock_unlock@plt>
 7bb5473:	e9 f8 dd 16 00       	jmp    7d23270 <pthread_rwlock_unlock@plt>
 7bb57b3:	e8 c8 da 16 00       	call   7d23280 <pthread_rwlock_wrlock@plt>
 7bb57d0:	e9 9b da 16 00       	jmp    7d23270 <pthread_rwlock_unlock@plt>
 7bb5898:	e9 d3 d9 16 00       	jmp    7d23270 <pthread_rwlock_unlock@plt>
 7bb5924:	e8 47 d9 16 00       	call   7d23270 <pthread_rwlock_unlock@plt>
 7bbf9d3:	e8 38 34 16 00       	call   7d22e10 <pthread_mutex_destroy@plt>
 7bbfa13:	e8 f8 33 16 00       	call   7d22e10 <pthread_mutex_destroy@plt>
 7bbfc76:	e8 a5 2d 16 00       	call   7d22a20 <pthread_mutex_init@plt>
 7bbfcfb:	e8 b0 2c 16 00       	call   7d229b0 <pthread_mutex_lock@plt>
 7bbfd1b:	e8 a0 2c 16 00       	call   7d229c0 <pthread_mutex_unlock@plt>
 7bbfdbb:	e8 f0 2b 16 00       	call   7d229b0 <pthread_mutex_lock@plt>
 7bbfe9b:	e8 20 2b 16 00       	call   7d229c0 <pthread_mutex_unlock@plt>
 7bc0e03:	e8 b8 1b 16 00       	call   7d229c0 <pthread_mutex_unlock@plt>
 7bc10d0:	e8 3b 1d 16 00       	call   7d22e10 <pthread_mutex_destroy@plt>
 7bd461b:	e8 f0 e7 14 00       	call   7d22e10 <pthread_mutex_destroy@plt>
 7bd4693:	e8 18 e3 14 00       	call   7d229b0 <pthread_mutex_lock@plt>
 7bd4803:	e8 b8 e1 14 00       	call   7d229c0 <pthread_mutex_unlock@plt>
 7bd4879:	e8 42 e1 14 00       	call   7d229c0 <pthread_mutex_unlock@plt>
 7bd49a4:	e8 77 e0 14 00       	call   7d22a20 <pthread_mutex_init@plt>
 7bd4aac:	e8 6f df 14 00       	call   7d22a20 <pthread_mutex_init@plt>
 7bd543f:	e8 7c d5 14 00       	call   7d229c0 <pthread_mutex_unlock@plt>
 7bdc86a:	e8 41 61 14 00       	call   7d229b0 <pthread_mutex_lock@plt>
 7bdc896:	e8 b5 67 14 00       	call   7d23050 <pthread_cond_wait@plt>
 7bdc8ac:	e8 0f 61 14 00       	call   7d229c0 <pthread_mutex_unlock@plt>
 7bdc8c7:	e8 f4 60 14 00       	call   7d229c0 <pthread_mutex_unlock@plt>
 7bdc8f4:	e8 b7 60 14 00       	call   7d229b0 <pthread_mutex_lock@plt>
 7bdc902:	e8 b9 60 14 00       	call   7d229c0 <pthread_mutex_unlock@plt>
 7bdc912:	e9 49 67 14 00       	jmp    7d23060 <pthread_cond_broadcast@plt>
 7bdc934:	e8 77 60 14 00       	call   7d229b0 <pthread_mutex_lock@plt>
 7bdc942:	e8 79 60 14 00       	call   7d229c0 <pthread_mutex_unlock@plt>
 7bdc952:	e9 09 67 14 00       	jmp    7d23060 <pthread_cond_broadcast@plt>
 7be4517:	e8 94 e4 13 00       	call   7d229b0 <pthread_mutex_lock@plt>
 7be4537:	e8 84 e4 13 00       	call   7d229c0 <pthread_mutex_unlock@plt>
 7be4703:	e8 08 e7 13 00       	call   7d22e10 <pthread_mutex_destroy@plt>
 7be4783:	e8 88 e6 13 00       	call   7d22e10 <pthread_mutex_destroy@plt>
 7be4fdb:	e8 d0 d9 13 00       	call   7d229b0 <pthread_mutex_lock@plt>
 7be5063:	e8 58 d9 13 00       	call   7d229c0 <pthread_mutex_unlock@plt>
 7be5087:	e8 94 d9 13 00       	call   7d22a20 <pthread_mutex_init@plt>
 7be5134:	e8 e7 d8 13 00       	call   7d22a20 <pthread_mutex_init@plt>
 7be5e63:	e8 48 cb 13 00       	call   7d229b0 <pthread_mutex_lock@plt>
 7be5f23:	e8 98 ca 13 00       	call   7d229c0 <pthread_mutex_unlock@plt>
 7be60bb:	e8 f0 c8 13 00       	call   7d229b0 <pthread_mutex_lock@plt>
 7be6173:	e8 48 c8 13 00       	call   7d229c0 <pthread_mutex_unlock@plt>
 7be6c63:	e8 a8 c1 13 00       	call   7d22e10 <pthread_mutex_destroy@plt>
 7be7bce:	e8 ed ad 13 00       	call   7d229c0 <pthread_mutex_unlock@plt>
 7be7c05:	e8 b6 ad 13 00       	call   7d229c0 <pthread_mutex_unlock@plt>
 7be7c1b:	e8 90 ad 13 00       	call   7d229b0 <pthread_mutex_lock@plt>
 7be7c64:	e8 47 ad 13 00       	call   7d229b0 <pthread_mutex_lock@plt>
 7be7d0f:	e8 ac ac 13 00       	call   7d229c0 <pthread_mutex_unlock@plt>
 7be7e32:	e8 d9 af 13 00       	call   7d22e10 <pthread_mutex_destroy@plt>
 7be7eee:	e8 1d af 13 00       	call   7d22e10 <pthread_mutex_destroy@plt>
 7be7f14:	e8 f7 ae 13 00       	call   7d22e10 <pthread_mutex_destroy@plt>
 7be7f59:	e9 b2 ae 13 00       	jmp    7d22e10 <pthread_mutex_destroy@plt>
 7be806e:	e8 9d ad 13 00       	call   7d22e10 <pthread_mutex_destroy@plt>
 7be812e:	e8 dd ac 13 00       	call   7d22e10 <pthread_mutex_destroy@plt>
 7be8154:	e8 b7 ac 13 00       	call   7d22e10 <pthread_mutex_destroy@plt>
 7be817c:	e8 8f ac 13 00       	call   7d22e10 <pthread_mutex_destroy@plt>
 7be8836:	e8 a5 a8 13 00       	call   7d230e0 <pthread_join@plt>
 7be8861:	e8 fa ac 13 00       	call   7d23560 <pthread_detach@plt>
 7be887a:	e8 31 a1 13 00       	call   7d229b0 <pthread_mutex_lock@plt>
 7be88b1:	e8 aa a7 13 00       	call   7d23060 <pthread_cond_broadcast@plt>
 7be88cc:	e8 ef a0 13 00       	call   7d229c0 <pthread_mutex_unlock@plt>
 7be88ea:	e8 d1 a0 13 00       	call   7d229c0 <pthread_mutex_unlock@plt>
 7be9b5b:	e8 10 95 13 00       	call   7d23070 <pthread_cond_destroy@plt>
 7be9b82:	e9 89 92 13 00       	jmp    7d22e10 <pthread_mutex_destroy@plt>
 7be9b93:	e8 18 8e 13 00       	call   7d229b0 <pthread_mutex_lock@plt>
 7be9bb5:	e8 a6 94 13 00       	call   7d23060 <pthread_cond_broadcast@plt>
 7be9bd4:	e8 e7 8d 13 00       	call   7d229c0 <pthread_mutex_unlock@plt>
 7be9bf6:	e8 e5 94 13 00       	call   7d230e0 <pthread_join@plt>
 7be9c21:	e8 3a 99 13 00       	call   7d23560 <pthread_detach@plt>
 7be9dee:	e8 6d 92 13 00       	call   7d23060 <pthread_cond_broadcast@plt>
 7be9e05:	e8 a6 8b 13 00       	call   7d229b0 <pthread_mutex_lock@plt>
 7be9e16:	e8 c5 92 13 00       	call   7d230e0 <pthread_join@plt>
 7be9e3e:	e8 1d 97 13 00       	call   7d23560 <pthread_detach@plt>
 7be9e55:	e8 66 8b 13 00       	call   7d229c0 <pthread_mutex_unlock@plt>
 7be9e67:	e8 44 8b 13 00       	call   7d229b0 <pthread_mutex_lock@plt>
 7be9e7e:	e9 3d 8b 13 00       	jmp    7d229c0 <pthread_mutex_unlock@plt>
 7be9e93:	e8 28 8b 13 00       	call   7d229c0 <pthread_mutex_unlock@plt>
 7bea055:	e8 56 89 13 00       	call   7d229b0 <pthread_mutex_lock@plt>
 7bea0b0:	e8 0b 89 13 00       	call   7d229c0 <pthread_mutex_unlock@plt>
 7bea0dd:	e8 de 88 13 00       	call   7d229c0 <pthread_mutex_unlock@plt>
 7bea0fb:	e8 b0 88 13 00       	call   7d229b0 <pthread_mutex_lock@plt>
 7bea2f2:	e8 c9 86 13 00       	call   7d229c0 <pthread_mutex_unlock@plt>
 7bea2fb:	e8 30 91 13 00       	call   7d23430 <pthread_cond_signal@plt>
 7bea30f:	e8 9c 86 13 00       	call   7d229b0 <pthread_mutex_lock@plt>
 7bea32e:	e8 8d 86 13 00       	call   7d229c0 <pthread_mutex_unlock@plt>
 7bea379:	e8 42 86 13 00       	call   7d229c0 <pthread_mutex_unlock@plt>
 7bea3a4:	e8 87 90 13 00       	call   7d23430 <pthread_cond_signal@plt>
 7bea3c9:	e8 f2 85 13 00       	call   7d229c0 <pthread_mutex_unlock@plt>
 7bea4d5:	e8 36 89 13 00       	call   7d22e10 <pthread_mutex_destroy@plt>
 7bea5ec:	e8 bf 83 13 00       	call   7d229b0 <pthread_mutex_lock@plt>
 7bea667:	e8 44 83 13 00       	call   7d229b0 <pthread_mutex_lock@plt>
 7bea685:	e8 d6 89 13 00       	call   7d23060 <pthread_cond_broadcast@plt>
 7bea6a0:	e9 1b 83 13 00       	jmp    7d229c0 <pthread_mutex_unlock@plt>
 7bea6b4:	e8 07 83 13 00       	call   7d229c0 <pthread_mutex_unlock@plt>
 7bea76c:	e8 3f 82 13 00       	call   7d229b0 <pthread_mutex_lock@plt>
 7bea963:	e8 a8 84 13 00       	call   7d22e10 <pthread_mutex_destroy@plt>
 7bea984:	e8 d7 8b 13 00       	call   7d23560 <pthread_detach@plt>
 7bea9de:	e8 cd 7f 13 00       	call   7d229b0 <pthread_mutex_lock@plt>
 7bea9fe:	e8 5d 86 13 00       	call   7d23060 <pthread_cond_broadcast@plt>
 7beaa10:	e8 ab 7f 13 00       	call   7d229c0 <pthread_mutex_unlock@plt>
 7beaa36:	e8 a5 86 13 00       	call   7d230e0 <pthread_join@plt>
 7beaa5d:	e8 fe 8a 13 00       	call   7d23560 <pthread_detach@plt>
 7beaa82:	e8 39 7f 13 00       	call   7d229c0 <pthread_mutex_unlock@plt>
 7bead98:	e8 13 7c 13 00       	call   7d229b0 <pthread_mutex_lock@plt>
 7beadbc:	e8 9f 82 13 00       	call   7d23060 <pthread_cond_broadcast@plt>
 7beadd3:	e8 e8 7b 13 00       	call   7d229c0 <pthread_mutex_unlock@plt>
 7beade6:	e8 f5 82 13 00       	call   7d230e0 <pthread_join@plt>
 7beae0e:	e8 4d 87 13 00       	call   7d23560 <pthread_detach@plt>
 7beae37:	e8 84 7b 13 00       	call   7d229c0 <pthread_mutex_unlock@plt>
 7beaf7a:	e9 91 7e 13 00       	jmp    7d22e10 <pthread_mutex_destroy@plt>
 7beaf84:	e8 d7 85 13 00       	call   7d23560 <pthread_detach@plt>
 7beafe0:	e8 cb 79 13 00       	call   7d229b0 <pthread_mutex_lock@plt>
 7beb004:	e8 57 80 13 00       	call   7d23060 <pthread_cond_broadcast@plt>
 7beb01b:	e8 a0 79 13 00       	call   7d229c0 <pthread_mutex_unlock@plt>
 7beb036:	e8 a5 80 13 00       	call   7d230e0 <pthread_join@plt>
 7beb05e:	e8 fd 84 13 00       	call   7d23560 <pthread_detach@plt>
 7beb084:	e8 37 79 13 00       	call   7d229c0 <pthread_mutex_unlock@plt>
 7beb33c:	e8 7f 76 13 00       	call   7d229c0 <pthread_mutex_unlock@plt>
 7beb34e:	e9 dd 80 13 00       	jmp    7d23430 <pthread_cond_signal@plt>
 7beb39b:	e9 20 76 13 00       	jmp    7d229c0 <pthread_mutex_unlock@plt>
 7beb3a4:	e8 07 76 13 00       	call   7d229b0 <pthread_mutex_lock@plt>
 7beb3ea:	e8 d1 75 13 00       	call   7d229c0 <pthread_mutex_unlock@plt>
 7beb4f1:	e8 ca 74 13 00       	call   7d229c0 <pthread_mutex_unlock@plt>
 7beb503:	e9 28 7f 13 00       	jmp    7d23430 <pthread_cond_signal@plt>
 7beb553:	e9 68 74 13 00       	jmp    7d229c0 <pthread_mutex_unlock@plt>
 7beb56c:	e8 3f 74 13 00       	call   7d229b0 <pthread_mutex_lock@plt>
 7beb5b0:	e8 0b 74 13 00       	call   7d229c0 <pthread_mutex_unlock@plt>
 7beb912:	e8 a9 70 13 00       	call   7d229c0 <pthread_mutex_unlock@plt>
 7beb924:	e8 87 70 13 00       	call   7d229b0 <pthread_mutex_lock@plt>
 7beb984:	e8 37 70 13 00       	call   7d229c0 <pthread_mutex_unlock@plt>
 7beb992:	e8 29 70 13 00       	call   7d229c0 <pthread_mutex_unlock@plt>
 7beb9b8:	e8 03 70 13 00       	call   7d229c0 <pthread_mutex_unlock@plt>
 7bebc66:	e8 e5 73 13 00       	call   7d23050 <pthread_cond_wait@plt>
 7bebd2c:	e8 ff 76 13 00       	call   7d23430 <pthread_cond_signal@plt>
 7bebd68:	e8 43 6c 13 00       	call   7d229b0 <pthread_mutex_lock@plt>
 7bebd88:	e8 33 6c 13 00       	call   7d229c0 <pthread_mutex_unlock@plt>
 7bebe89:	e8 22 6b 13 00       	call   7d229b0 <pthread_mutex_lock@plt>
 7bebedb:	e8 e0 6a 13 00       	call   7d229c0 <pthread_mutex_unlock@plt>
 7bebef8:	e8 c3 6a 13 00       	call   7d229c0 <pthread_mutex_unlock@plt>
 7bebf32:	e8 89 6a 13 00       	call   7d229c0 <pthread_mutex_unlock@plt>
 7bebf82:	e8 a9 74 13 00       	call   7d23430 <pthread_cond_signal@plt>
 7bebfef:	e8 cc 69 13 00       	call   7d229c0 <pthread_mutex_unlock@plt>
 7bec6ee:	e8 1d 67 13 00       	call   7d22e10 <pthread_mutex_destroy@plt>
 7bec79e:	e8 6d 66 13 00       	call   7d22e10 <pthread_mutex_destroy@plt>
 7beca97:	e8 14 5f 13 00       	call   7d229b0 <pthread_mutex_lock@plt>
 7becab0:	e8 0b 5f 13 00       	call   7d229c0 <pthread_mutex_unlock@plt>
 7beccd5:	e8 d6 5c 13 00       	call   7d229b0 <pthread_mutex_lock@plt>
 7becd17:	e9 a4 5c 13 00       	jmp    7d229c0 <pthread_mutex_unlock@plt>
 7becd20:	e8 9b 5c 13 00       	call   7d229c0 <pthread_mutex_unlock@plt>
 7becff8:	e8 b3 59 13 00       	call   7d229b0 <pthread_mutex_lock@plt>
 7bed0f3:	e8 c8 58 13 00       	call   7d229c0 <pthread_mutex_unlock@plt>
 7bed105:	e8 a6 58 13 00       	call   7d229b0 <pthread_mutex_lock@plt>
 7bed139:	e8 82 58 13 00       	call   7d229c0 <pthread_mutex_unlock@plt>
 7bed97f:	e8 2c 50 13 00       	call   7d229b0 <pthread_mutex_lock@plt>
 7bed997:	e8 24 50 13 00       	call   7d229c0 <pthread_mutex_unlock@plt>
 7bedd1d:	e8 8e 4c 13 00       	call   7d229b0 <pthread_mutex_lock@plt>
 7bedd37:	e8 74 4c 13 00       	call   7d229b0 <pthread_mutex_lock@plt>
 7bedd7b:	e8 40 4c 13 00       	call   7d229c0 <pthread_mutex_unlock@plt>
 7bedd8f:	e8 2c 4c 13 00       	call   7d229c0 <pthread_mutex_unlock@plt>
 7beddd0:	e8 4b 4c 13 00       	call   7d22a20 <pthread_mutex_init@plt>
 7bedec9:	e8 f2 4a 13 00       	call   7d229c0 <pthread_mutex_unlock@plt>
 7bedf96:	e8 85 4a 13 00       	call   7d22a20 <pthread_mutex_init@plt>
 7bee081:	e8 9a 49 13 00       	call   7d22a20 <pthread_mutex_init@plt>
 7bee2d8:	e8 33 4b 13 00       	call   7d22e10 <pthread_mutex_destroy@plt>
 7bee30c:	e8 ff 4a 13 00       	call   7d22e10 <pthread_mutex_destroy@plt>
 7bee3eb:	e8 30 46 13 00       	call   7d22a20 <pthread_mutex_init@plt>
 7bee46b:	e8 90 4b 13 00       	call   7d23000 <pthread_condattr_init@plt>
 7bee4c0:	e8 4b 4b 13 00       	call   7d23010 <pthread_condattr_setclock@plt>
 7bee4d2:	e8 49 4b 13 00       	call   7d23020 <pthread_condattr_destroy@plt>
 7bee50a:	e8 21 4b 13 00       	call   7d23030 <pthread_cond_init@plt>
 7bee518:	e8 03 4b 13 00       	call   7d23020 <pthread_condattr_destroy@plt>
 7bee635:	e8 46 4b 13 00       	call   7d23180 <pthread_sigmask@plt>
 7bee685:	e8 46 4a 13 00       	call   7d230d0 <pthread_create@plt>
 7bee6f4:	e8 87 4a 13 00       	call   7d23180 <pthread_sigmask@plt>
 7bee76a:	e8 11 4a 13 00       	call   7d23180 <pthread_sigmask@plt>
 7bee782:	e8 e9 48 13 00       	call   7d23070 <pthread_cond_destroy@plt>
 7bee78d:	e8 7e 46 13 00       	call   7d22e10 <pthread_mutex_destroy@plt>
 7bee856:	e8 c5 41 13 00       	call   7d22a20 <pthread_mutex_init@plt>
 7bee8f6:	e8 b5 40 13 00       	call   7d229b0 <pthread_mutex_lock@plt>
 7beea13:	e8 a8 3f 13 00       	call   7d229c0 <pthread_mutex_unlock@plt>
 7beebb0:	e8 0b 3e 13 00       	call   7d229c0 <pthread_mutex_unlock@plt>
 7beec50:	e8 cb 3d 13 00       	call   7d22a20 <pthread_mutex_init@plt>
 7beed2d:	e8 de 40 13 00       	call   7d22e10 <pthread_mutex_destroy@plt>
 7beef5c:	e8 5f 3a 13 00       	call   7d229c0 <pthread_mutex_unlock@plt>
 7bef07e:	e8 2d 39 13 00       	call   7d229b0 <pthread_mutex_lock@plt>
 7bef21b:	e8 a0 37 13 00       	call   7d229c0 <pthread_mutex_unlock@plt>
 7bef3b5:	e8 66 36 13 00       	call   7d22a20 <pthread_mutex_init@plt>
 7bef79f:	e8 6c 36 13 00       	call   7d22e10 <pthread_mutex_destroy@plt>
 7bef830:	e8 db 35 13 00       	call   7d22e10 <pthread_mutex_destroy@plt>
 7bef91e:	e8 ed 34 13 00       	call   7d22e10 <pthread_mutex_destroy@plt>
 7bf115b:	e8 b0 1c 13 00       	call   7d22e10 <pthread_mutex_destroy@plt>
 7bf1168:	e8 a3 1c 13 00       	call   7d22e10 <pthread_mutex_destroy@plt>
 7bf1393:	e8 78 1a 13 00       	call   7d22e10 <pthread_mutex_destroy@plt>
 7bf140b:	e8 00 1a 13 00       	call   7d22e10 <pthread_mutex_destroy@plt>
 7bf3390:	e8 8b f6 12 00       	call   7d22a20 <pthread_mutex_init@plt>
 7bf3523:	e8 88 f4 12 00       	call   7d229b0 <pthread_mutex_lock@plt>
 7bf3563:	e8 58 f4 12 00       	call   7d229c0 <pthread_mutex_unlock@plt>
 7bf35d3:	e8 38 f8 12 00       	call   7d22e10 <pthread_mutex_destroy@plt>
 7bf37a3:	e8 08 f2 12 00       	call   7d229b0 <pthread_mutex_lock@plt>
 7bf3833:	e8 78 f1 12 00       	call   7d229b0 <pthread_mutex_lock@plt>
 7bf3893:	e8 28 f1 12 00       	call   7d229c0 <pthread_mutex_unlock@plt>
 7bf38b3:	e8 08 f1 12 00       	call   7d229c0 <pthread_mutex_unlock@plt>
 7bf39a3:	e8 78 f0 12 00       	call   7d22a20 <pthread_mutex_init@plt>
 7bf4133:	e8 78 e8 12 00       	call   7d229b0 <pthread_mutex_lock@plt>
 7bf454b:	e8 70 e4 12 00       	call   7d229c0 <pthread_mutex_unlock@plt>
 7bf6da3:	e8 08 bc 12 00       	call   7d229b0 <pthread_mutex_lock@plt>
 7bf6ff3:	e8 c8 b9 12 00       	call   7d229c0 <pthread_mutex_unlock@plt>
 7bf90b0:	e8 5b 9d 12 00       	call   7d22e10 <pthread_mutex_destroy@plt>
 7bfcc94:	e8 57 64 12 00       	call   7d230f0 <pthread_self@plt>
 7bfcf61:	e8 6a 77 12 00       	call   7d246d0 <pthread_key_create@plt>
 7bfcfb2:	e9 49 7c 12 00       	jmp    7d24c00 <pthread_key_delete@plt>
 7bfcfc2:	e9 49 7c 12 00       	jmp    7d24c10 <pthread_getspecific@plt>
 7bfcfd6:	e8 15 7c 12 00       	call   7d24bf0 <pthread_setspecific@plt>
 7bfd029:	e8 e2 5d 12 00       	call   7d22e10 <pthread_mutex_destroy@plt>
 7bfd033:	e8 d8 5d 12 00       	call   7d22e10 <pthread_mutex_destroy@plt>
 7bfd0d9:	e8 62 63 12 00       	call   7d23440 <pthread_mutexattr_init@plt>
 7bfd0e6:	e8 65 63 12 00       	call   7d23450 <pthread_mutexattr_settype@plt>
 7bfd0f1:	e8 2a 59 12 00       	call   7d22a20 <pthread_mutex_init@plt>
 7bfd0fc:	e8 5f 63 12 00       	call   7d23460 <pthread_mutexattr_destroy@plt>
 7bfd109:	e8 32 63 12 00       	call   7d23440 <pthread_mutexattr_init@plt>
 7bfd116:	e8 35 63 12 00       	call   7d23450 <pthread_mutexattr_settype@plt>
 7bfd125:	e8 f6 58 12 00       	call   7d22a20 <pthread_mutex_init@plt>
 7bfd130:	e8 2b 63 12 00       	call   7d23460 <pthread_mutexattr_destroy@plt>
 7bfd1a1:	e8 0a 58 12 00       	call   7d229b0 <pthread_mutex_lock@plt>
 7bfd1d0:	e8 eb 57 12 00       	call   7d229c0 <pthread_mutex_unlock@plt>
 7bfd214:	e8 97 57 12 00       	call   7d229b0 <pthread_mutex_lock@plt>
 7bfd23f:	e9 7c 57 12 00       	jmp    7d229c0 <pthread_mutex_unlock@plt>
 7bfd3d2:	e8 39 5a 12 00       	call   7d22e10 <pthread_mutex_destroy@plt>
 7bfdc32:	e8 e9 6d 12 00       	call   7d24a20 <pthread_rwlock_init@plt>
 7bfdf9f:	e9 6c 6a 12 00       	jmp    7d24a10 <pthread_rwlock_destroy@plt>
 7bfe0d7:	e9 34 69 12 00       	jmp    7d24a10 <pthread_rwlock_destroy@plt>
 7bfe131:	e8 da 68 12 00       	call   7d24a10 <pthread_rwlock_destroy@plt>
 7bfe263:	e8 a8 67 12 00       	call   7d24a10 <pthread_rwlock_destroy@plt>
 7bfe2bd:	e8 4e 67 12 00       	call   7d24a10 <pthread_rwlock_destroy@plt>
 7bfe421:	e8 ea 65 12 00       	call   7d24a10 <pthread_rwlock_destroy@plt>
 7bfe4b7:	e8 54 65 12 00       	call   7d24a10 <pthread_rwlock_destroy@plt>
 7bfe594:	e8 77 64 12 00       	call   7d24a10 <pthread_rwlock_destroy@plt>
 7bfe5f0:	e9 1b 64 12 00       	jmp    7d24a10 <pthread_rwlock_destroy@plt>
 7bfe685:	e8 86 63 12 00       	call   7d24a10 <pthread_rwlock_destroy@plt>
 7bfe71a:	e8 f1 62 12 00       	call   7d24a10 <pthread_rwlock_destroy@plt>
 7bfec5a:	e8 b1 5d 12 00       	call   7d24a10 <pthread_rwlock_destroy@plt>
 7bfeed5:	e8 36 5b 12 00       	call   7d24a10 <pthread_rwlock_destroy@plt>
 7bfef29:	e8 e2 5a 12 00       	call   7d24a10 <pthread_rwlock_destroy@plt>
 7bff025:	e8 e6 59 12 00       	call   7d24a10 <pthread_rwlock_destroy@plt>
 7bff071:	e8 9a 59 12 00       	call   7d24a10 <pthread_rwlock_destroy@plt>
 7bff229:	e8 f2 57 12 00       	call   7d24a20 <pthread_rwlock_init@plt>
 7bff34c:	e8 bf 56 12 00       	call   7d24a10 <pthread_rwlock_destroy@plt>
 7bff3e2:	e8 29 56 12 00       	call   7d24a10 <pthread_rwlock_destroy@plt>
 7bff4b2:	e8 69 55 12 00       	call   7d24a20 <pthread_rwlock_init@plt>
 7bff582:	e8 89 54 12 00       	call   7d24a10 <pthread_rwlock_destroy@plt>
 7bff663:	e8 a8 53 12 00       	call   7d24a10 <pthread_rwlock_destroy@plt>
 7bff709:	e8 02 53 12 00       	call   7d24a10 <pthread_rwlock_destroy@plt>
 7bff805:	e8 06 52 12 00       	call   7d24a10 <pthread_rwlock_destroy@plt>
 7bffadb:	e8 d0 2e 12 00       	call   7d229b0 <pthread_mutex_lock@plt>
 7bffb06:	e8 b5 2e 12 00       	call   7d229c0 <pthread_mutex_unlock@plt>
 7bffb23:	e8 98 2e 12 00       	call   7d229c0 <pthread_mutex_unlock@plt>
 7bffb50:	e8 fb 34 12 00       	call   7d23050 <pthread_cond_wait@plt>
 7bffb8b:	e8 20 2e 12 00       	call   7d229b0 <pthread_mutex_lock@plt>
 7bffba0:	e8 1b 2e 12 00       	call   7d229c0 <pthread_mutex_unlock@plt>
 7bffbb5:	e9 a6 34 12 00       	jmp    7d23060 <pthread_cond_broadcast@plt>
 7bffbdb:	e8 d0 2d 12 00       	call   7d229b0 <pthread_mutex_lock@plt>
 7bffbf0:	e8 cb 2d 12 00       	call   7d229c0 <pthread_mutex_unlock@plt>
 7bffc05:	e9 56 34 12 00       	jmp    7d23060 <pthread_cond_broadcast@plt>
 7bffc1e:	e9 ad 4a 12 00       	jmp    7d246d0 <pthread_key_create@plt>
 7c00925:	e9 e6 42 12 00       	jmp    7d24c10 <pthread_getspecific@plt>
 7c0095c:	e8 6f 3d 12 00       	call   7d246d0 <pthread_key_create@plt>
 7c00977:	e9 74 42 12 00       	jmp    7d24bf0 <pthread_setspecific@plt>
 7c009d3:	e8 f8 26 12 00       	call   7d230d0 <pthread_create@plt>
 7c00a76:	e8 55 26 12 00       	call   7d230d0 <pthread_create@plt>
 7c00a86:	e8 95 41 12 00       	call   7d24c20 <pthread_attr_getdetachstate@plt>
 7c010e3:	e8 d8 18 12 00       	call   7d229c0 <pthread_mutex_unlock@plt>
 7c0110d:	e8 4e 24 12 00       	call   7d23560 <pthread_detach@plt>
 7c01123:	e8 98 18 12 00       	call   7d229c0 <pthread_mutex_unlock@plt>
 7c01193:	e8 18 18 12 00       	call   7d229b0 <pthread_mutex_lock@plt>
 7c011a4:	e8 b7 1e 12 00       	call   7d23060 <pthread_cond_broadcast@plt>
 7c011b3:	e8 08 18 12 00       	call   7d229c0 <pthread_mutex_unlock@plt>
 7c011c3:	e8 f8 17 12 00       	call   7d229c0 <pthread_mutex_unlock@plt>
 7c01253:	e8 68 17 12 00       	call   7d229c0 <pthread_mutex_unlock@plt>
 7c012db:	e8 e0 16 12 00       	call   7d229c0 <pthread_mutex_unlock@plt>
 7c013a3:	e8 18 16 12 00       	call   7d229c0 <pthread_mutex_unlock@plt>
 7c013fb:	e8 c0 15 12 00       	call   7d229c0 <pthread_mutex_unlock@plt>
 7c014d3:	e8 d8 14 12 00       	call   7d229b0 <pthread_mutex_lock@plt>
 7c014e4:	e8 77 1b 12 00       	call   7d23060 <pthread_cond_broadcast@plt>
 7c014f3:	e8 c8 14 12 00       	call   7d229c0 <pthread_mutex_unlock@plt>
 7c01503:	e8 b8 14 12 00       	call   7d229c0 <pthread_mutex_unlock@plt>
 7c015bd:	e8 5e 14 12 00       	call   7d22a20 <pthread_mutex_init@plt>
 7c015d4:	e8 47 14 12 00       	call   7d22a20 <pthread_mutex_init@plt>
 7c015f0:	e8 0b 1a 12 00       	call   7d23000 <pthread_condattr_init@plt>
 7c01601:	e8 0a 18 12 00       	call   7d22e10 <pthread_mutex_destroy@plt>
 7c01630:	e8 db 19 12 00       	call   7d23010 <pthread_condattr_setclock@plt>
 7c0163b:	e8 f0 19 12 00       	call   7d23030 <pthread_cond_init@plt>
 7c01646:	e8 d5 19 12 00       	call   7d23020 <pthread_condattr_destroy@plt>
 7c01ab3:	e8 08 0f 12 00       	call   7d229c0 <pthread_mutex_unlock@plt>
 7c01acb:	e8 e0 0e 12 00       	call   7d229b0 <pthread_mutex_lock@plt>
 7c01ad9:	e8 82 15 12 00       	call   7d23060 <pthread_cond_broadcast@plt>
 7c01ae3:	e8 d8 0e 12 00       	call   7d229c0 <pthread_mutex_unlock@plt>
 7c01b43:	e8 68 0e 12 00       	call   7d229b0 <pthread_mutex_lock@plt>
 7c01b6b:	e8 40 0e 12 00       	call   7d229b0 <pthread_mutex_lock@plt>
 7c01b7c:	e8 df 14 12 00       	call   7d23060 <pthread_cond_broadcast@plt>
 7c01b8b:	e8 30 0e 12 00       	call   7d229c0 <pthread_mutex_unlock@plt>
 7c01bbb:	e8 f0 0d 12 00       	call   7d229b0 <pthread_mutex_lock@plt>
 7c01bc9:	e8 92 14 12 00       	call   7d23060 <pthread_cond_broadcast@plt>
 7c01bd3:	e8 e8 0d 12 00       	call   7d229c0 <pthread_mutex_unlock@plt>
 7c01c03:	e8 b8 0d 12 00       	call   7d229c0 <pthread_mutex_unlock@plt>
 7c01d33:	e8 d8 10 12 00       	call   7d22e10 <pthread_mutex_destroy@plt>
 7c01d53:	e8 18 13 12 00       	call   7d23070 <pthread_cond_destroy@plt>
 7c01d73:	e8 98 10 12 00       	call   7d22e10 <pthread_mutex_destroy@plt>
 7c01f26:	e8 b5 11 12 00       	call   7d230e0 <pthread_join@plt>
 7c01f43:	e8 68 0a 12 00       	call   7d229b0 <pthread_mutex_lock@plt>
 7c01f54:	e8 07 11 12 00       	call   7d23060 <pthread_cond_broadcast@plt>
 7c01f63:	e8 58 0a 12 00       	call   7d229c0 <pthread_mutex_unlock@plt>
 7c01f73:	e8 48 0a 12 00       	call   7d229c0 <pthread_mutex_unlock@plt>
 7c01fe3:	e8 d8 09 12 00       	call   7d229c0 <pthread_mutex_unlock@plt>
 7c021c3:	e8 e8 07 12 00       	call   7d229b0 <pthread_mutex_lock@plt>
 7c021d3:	e8 e8 07 12 00       	call   7d229c0 <pthread_mutex_unlock@plt>
 7c0220b:	e8 b0 07 12 00       	call   7d229c0 <pthread_mutex_unlock@plt>
 7c02229:	e8 a2 08 12 00       	call   7d22ad0 <pthread_cond_timedwait@plt>
 7c0224b:	e8 70 07 12 00       	call   7d229c0 <pthread_mutex_unlock@plt>
 7c0228b:	e8 30 07 12 00       	call   7d229c0 <pthread_mutex_unlock@plt>
 7c022fb:	e8 c0 06 12 00       	call   7d229c0 <pthread_mutex_unlock@plt>
 7c02308:	e8 b3 06 12 00       	call   7d229c0 <pthread_mutex_unlock@plt>
 7c0232b:	e8 80 06 12 00       	call   7d229b0 <pthread_mutex_lock@plt>
 7c023b1:	e8 2a 0d 12 00       	call   7d230e0 <pthread_join@plt>
 7c023d3:	e8 d8 05 12 00       	call   7d229b0 <pthread_mutex_lock@plt>
 7c023eb:	e8 70 0c 12 00       	call   7d23060 <pthread_cond_broadcast@plt>
 7c023f3:	e8 c8 05 12 00       	call   7d229c0 <pthread_mutex_unlock@plt>
 7c0240b:	e8 b0 05 12 00       	call   7d229c0 <pthread_mutex_unlock@plt>
 7c024bb:	e8 00 05 12 00       	call   7d229c0 <pthread_mutex_unlock@plt>
 7c02503:	e8 b8 04 12 00       	call   7d229c0 <pthread_mutex_unlock@plt>
 7c03bcc:	e8 3f f2 11 00       	call   7d22e10 <pthread_mutex_destroy@plt>
 7c0457b:	e8 40 e4 11 00       	call   7d229c0 <pthread_mutex_unlock@plt>
 7c06213:	e8 a8 c7 11 00       	call   7d229c0 <pthread_mutex_unlock@plt>
 7c062e3:	e8 c8 c6 11 00       	call   7d229b0 <pthread_mutex_lock@plt>
 7c06383:	e8 38 c6 11 00       	call   7d229c0 <pthread_mutex_unlock@plt>
 7c063c3:	e8 f8 c5 11 00       	call   7d229c0 <pthread_mutex_unlock@plt>
 7c063e3:	e8 d8 c5 11 00       	call   7d229c0 <pthread_mutex_unlock@plt>
 7c063f0:	e8 cb c5 11 00       	call   7d229c0 <pthread_mutex_unlock@plt>
 7c06763:	e8 48 c2 11 00       	call   7d229b0 <pthread_mutex_lock@plt>
 7c06773:	e8 48 c2 11 00       	call   7d229c0 <pthread_mutex_unlock@plt>
 7c06780:	e8 3b c2 11 00       	call   7d229c0 <pthread_mutex_unlock@plt>
 7c067a3:	e8 08 c2 11 00       	call   7d229b0 <pthread_mutex_lock@plt>
 7c067c6:	e8 85 c8 11 00       	call   7d23050 <pthread_cond_wait@plt>
 7c067e3:	e8 d8 c1 11 00       	call   7d229c0 <pthread_mutex_unlock@plt>
 7c06813:	e8 a8 c1 11 00       	call   7d229c0 <pthread_mutex_unlock@plt>
 7c0686b:	e8 50 c1 11 00       	call   7d229c0 <pthread_mutex_unlock@plt>
 7c06878:	e8 43 c1 11 00       	call   7d229c0 <pthread_mutex_unlock@plt>
 7c1f470:	e8 7b 3c 10 00       	call   7d230f0 <pthread_self@plt>
 7c1f480:	e8 cb 58 10 00       	call   7d24d50 <pthread_getschedparam@plt>
 7c2f08c:	e8 1f 39 0f 00       	call   7d229b0 <pthread_mutex_lock@plt>
 7c2f24d:	e9 6e 37 0f 00       	jmp    7d229c0 <pthread_mutex_unlock@plt>
 7c2f6ad:	e8 fe 32 0f 00       	call   7d229b0 <pthread_mutex_lock@plt>
 7c2f716:	e8 a5 32 0f 00       	call   7d229c0 <pthread_mutex_unlock@plt>
 7c2f753:	e8 68 32 0f 00       	call   7d229c0 <pthread_mutex_unlock@plt>
 7c2f79c:	e8 0f 32 0f 00       	call   7d229b0 <pthread_mutex_lock@plt>
 7c2f7da:	e8 e1 31 0f 00       	call   7d229c0 <pthread_mutex_unlock@plt>
 7c2f83b:	e8 80 31 0f 00       	call   7d229c0 <pthread_mutex_unlock@plt>
 7c2f92f:	e8 8c 30 0f 00       	call   7d229c0 <pthread_mutex_unlock@plt>
 7c2f9e8:	e8 d3 2f 0f 00       	call   7d229c0 <pthread_mutex_unlock@plt>
 7c3e342:	e8 39 4e 0e 00       	call   7d23180 <pthread_sigmask@plt>
 7c3e374:	e8 07 4e 0e 00       	call   7d23180 <pthread_sigmask@plt>
 7c3e9c3:	e8 b8 47 0e 00       	call   7d23180 <pthread_sigmask@plt>
 7c3ea26:	e8 55 47 0e 00       	call   7d23180 <pthread_sigmask@plt>
 7c3ea95:	e8 e6 46 0e 00       	call   7d23180 <pthread_sigmask@plt>
 7c577b4:	48 8d 3d b5 75 3a 00 	lea    0x3a75b5(%rip),%rdi        # 7ffed70 <absl::lts_20211102::base_internal::(anonymous namespace)::thread_identity_pthread_key>
 7c577be:	e8 0d cf 0c 00       	call   7d246d0 <pthread_key_create@plt>
 7c577c3:	c6 05 a2 75 3a 00 01 	movb   $0x1,0x3a75a2(%rip)        # 7ffed6c <absl::lts_20211102::base_internal::(anonymous namespace)::pthread_key_initialized>
 7c577e0:	0f b6 05 85 75 3a 00 	movzbl 0x3a7585(%rip),%eax        # 7ffed6c <absl::lts_20211102::base_internal::(anonymous namespace)::pthread_key_initialized>
 7c577eb:	8b 3d 7f 75 3a 00    	mov    0x3a757f(%rip),%edi        # 7ffed70 <absl::lts_20211102::base_internal::(anonymous namespace)::thread_identity_pthread_key>
 7c577f1:	e9 1a d4 0c 00       	jmp    7d24c10 <pthread_getspecific@plt>
 7c57866:	e8 15 b9 0c 00       	call   7d23180 <pthread_sigmask@plt>
 7c5786b:	8b 3d ff 74 3a 00    	mov    0x3a74ff(%rip),%edi        # 7ffed70 <absl::lts_20211102::base_internal::(anonymous namespace)::thread_identity_pthread_key>
 7c57874:	e8 77 d3 0c 00       	call   7d24bf0 <pthread_setspecific@plt>
 7c57883:	e8 f8 b8 0c 00       	call   7d23180 <pthread_sigmask@plt>
 7c5db62:	e8 59 89 00 00       	call   7c664c0 <perftools_pthread_once(int*, void (*)())>
 7c5ee32:	e8 89 76 00 00       	call   7c664c0 <perftools_pthread_once(int*, void (*)())>
 7c5f3cb:	e8 f0 70 00 00       	call   7c664c0 <perftools_pthread_once(int*, void (*)())>
 7c647c1:	e9 4a 1d 00 00       	jmp    7c66510 <perftools_pthread_atfork(void (*)(), void (*)(), void (*)())>
 7c65a62:	e8 b9 09 00 00       	call   7c66420 <perftools_pthread_key_create(unsigned int*, void (*)(void*))>
 7c65df9:	e8 92 06 00 00       	call   7c66490 <perftools_pthread_setspecific(unsigned int, void*)>
 7c661d0:	e8 1b cf 0b 00       	call   7d230f0 <pthread_self@plt>
 7c662c0:	e8 cb 01 00 00       	call   7c66490 <perftools_pthread_setspecific(unsigned int, void*)>
0000000007c66420 <perftools_pthread_key_create(unsigned int*, void (*)(void*))>:
 7c66420:	48 83 3d a0 9d 25 00 	cmpq   $0x0,0x259da0(%rip)        # 7ec01c8 <pthread_key_create@GLIBC_2.34>
 7c66428:	74 06                	je     7c66430 <perftools_pthread_key_create(unsigned int*, void (*)(void*))+0x10>
 7c6642a:	e9 a1 e2 0b 00       	jmp    7d246d0 <pthread_key_create@plt>
0000000007c66450 <perftools_pthread_key_delete(unsigned int)>:
 7c66450:	48 83 3d 78 9d 25 00 	cmpq   $0x0,0x259d78(%rip)        # 7ec01d0 <pthread_key_delete@GLIBC_2.34>
 7c66458:	74 06                	je     7c66460 <perftools_pthread_key_delete(unsigned int)+0x10>
 7c6645a:	e9 a1 e7 0b 00       	jmp    7d24c00 <pthread_key_delete@plt>
0000000007c66470 <perftools_pthread_getspecific(unsigned int)>:
 7c66470:	48 83 3d 60 9d 25 00 	cmpq   $0x0,0x259d60(%rip)        # 7ec01d8 <pthread_getspecific@GLIBC_2.34>
 7c66478:	74 06                	je     7c66480 <perftools_pthread_getspecific(unsigned int)+0x10>
 7c6647a:	e9 91 e7 0b 00       	jmp    7d24c10 <pthread_getspecific@plt>
 7c66483:	48 8d 05 d6 d8 64 00 	lea    0x64d8d6(%rip),%rax        # 82b3d60 <perftools_pthread_specific_vals>
0000000007c66490 <perftools_pthread_setspecific(unsigned int, void*)>:
 7c66490:	48 83 3d 48 9d 25 00 	cmpq   $0x0,0x259d48(%rip)        # 7ec01e0 <pthread_setspecific@GLIBC_2.34>
 7c66498:	74 06                	je     7c664a0 <perftools_pthread_setspecific(unsigned int, void*)+0x10>
 7c6649a:	e9 51 e7 0b 00       	jmp    7d24bf0 <pthread_setspecific@plt>
 7c664a3:	48 8d 05 b6 d8 64 00 	lea    0x64d8b6(%rip),%rax        # 82b3d60 <perftools_pthread_specific_vals>
0000000007c664c0 <perftools_pthread_once(int*, void (*)())>:
 7c664c1:	48 83 3d 1f 9d 25 00 	cmpq   $0x0,0x259d1f(%rip)        # 7ec01e8 <pthread_once@GLIBC_2.34>
 7c664d6:	74 10                	je     7c664e8 <perftools_pthread_once(int*, void (*)())+0x28>
 7c664dd:	e9 de c5 0b 00       	jmp    7d22ac0 <pthread_once@plt>
 7c664ed:	48 8d 35 4c d8 64 00 	lea    0x64d84c(%rip),%rsi        # 82b3d40 <pthread_once_init>
 7c664fb:	75 08                	jne    7c66505 <perftools_pthread_once(int*, void (*)())+0x45>
0000000007c66510 <perftools_pthread_atfork(void (*)(), void (*)(), void (*)())>:
 7c66510:	48 83 3d d8 9c 25 00 	cmpq   $0x0,0x259cd8(%rip)        # 7ec01f0 <pthread_atfork@Base>
 7c66518:	74 16                	je     7c66530 <perftools_pthread_atfork(void (*)(), void (*)(), void (*)())+0x20>
 7c6651e:	e8 2d e9 0b 00       	call   7d24e50 <pthread_atfork@plt>
 7c66525:	75 0a                	jne    7c66531 <perftools_pthread_atfork(void (*)(), void (*)(), void (*)())+0x21>
 7c6e437:	48 83 3d b9 1d 25 00 	cmpq   $0x0,0x251db9(%rip)        # 7ec01f8 <pthread_mutex_lock@GLIBC_2.2.5>
 7c6e444:	e8 67 45 0b 00       	call   7d229b0 <pthread_mutex_lock@plt>
 7c6e667:	48 83 3d 91 1b 25 00 	cmpq   $0x0,0x251b91(%rip)        # 7ec0200 <pthread_mutex_unlock@GLIBC_2.2.5>
 7c6e674:	e8 47 43 0b 00       	call   7d229c0 <pthread_mutex_unlock@plt>
 7c6f83c:	48 83 3d b4 09 25 00 	cmpq   $0x0,0x2509b4(%rip)        # 7ec01f8 <pthread_mutex_lock@GLIBC_2.2.5>
 7c6f84d:	e8 5e 31 0b 00       	call   7d229b0 <pthread_mutex_lock@plt>
 7c6f878:	48 83 3d 80 09 25 00 	cmpq   $0x0,0x250980(%rip)        # 7ec0200 <pthread_mutex_unlock@GLIBC_2.2.5>
 7c6f889:	e8 32 31 0b 00       	call   7d229c0 <pthread_mutex_unlock@plt>
 7c6f8dc:	48 83 3d 14 09 25 00 	cmpq   $0x0,0x250914(%rip)        # 7ec01f8 <pthread_mutex_lock@GLIBC_2.2.5>
 7c6f8ed:	e8 be 30 0b 00       	call   7d229b0 <pthread_mutex_lock@plt>
 7c6f914:	48 83 3d e4 08 25 00 	cmpq   $0x0,0x2508e4(%rip)        # 7ec0200 <pthread_mutex_unlock@GLIBC_2.2.5>
 7c6f931:	e9 8a 30 0b 00       	jmp    7d229c0 <pthread_mutex_unlock@plt>
 7c700f3:	48 83 3d 0d 01 25 00 	cmpq   $0x0,0x25010d(%rip)        # 7ec0208 <pthread_mutex_init@GLIBC_2.2.5>
 7c70126:	e8 f5 28 0b 00       	call   7d22a20 <pthread_mutex_init@plt>
 7c701ce:	48 83 3d 22 00 25 00 	cmpq   $0x0,0x250022(%rip)        # 7ec01f8 <pthread_mutex_lock@GLIBC_2.2.5>
 7c701db:	e8 d0 27 0b 00       	call   7d229b0 <pthread_mutex_lock@plt>
 7c701f4:	48 83 3d 04 00 25 00 	cmpq   $0x0,0x250004(%rip)        # 7ec0200 <pthread_mutex_unlock@GLIBC_2.2.5>
 7c7020e:	e8 ad 27 0b 00       	call   7d229c0 <pthread_mutex_unlock@plt>
 7c702a0:	48 83 3d 50 ff 24 00 	cmpq   $0x0,0x24ff50(%rip)        # 7ec01f8 <pthread_mutex_lock@GLIBC_2.2.5>
 7c702ad:	e8 fe 26 0b 00       	call   7d229b0 <pthread_mutex_lock@plt>
 7c702c0:	48 83 3d 38 ff 24 00 	cmpq   $0x0,0x24ff38(%rip)        # 7ec0200 <pthread_mutex_unlock@GLIBC_2.2.5>
 7c702d2:	e8 e9 26 0b 00       	call   7d229c0 <pthread_mutex_unlock@plt>
 7c71014:	48 83 3d dc f1 24 00 	cmpq   $0x0,0x24f1dc(%rip)        # 7ec01f8 <pthread_mutex_lock@GLIBC_2.2.5>
 7c71025:	e8 86 19 0b 00       	call   7d229b0 <pthread_mutex_lock@plt>
 7c71060:	48 83 3d 98 f1 24 00 	cmpq   $0x0,0x24f198(%rip)        # 7ec0200 <pthread_mutex_unlock@GLIBC_2.2.5>
 7c71071:	e8 4a 19 0b 00       	call   7d229c0 <pthread_mutex_unlock@plt>
 7c727f2:	e8 d9 1e 0b 00       	call   7d246d0 <pthread_key_create@plt>
 7c72896:	e9 55 23 0b 00       	jmp    7d24bf0 <pthread_setspecific@plt>
 7c729b9:	48 83 3d 37 d8 24 00 	cmpq   $0x0,0x24d837(%rip)        # 7ec01f8 <pthread_mutex_lock@GLIBC_2.2.5>
 7c729ca:	e8 e1 ff 0a 00       	call   7d229b0 <pthread_mutex_lock@plt>
 7c729db:	48 83 3d 1d d8 24 00 	cmpq   $0x0,0x24d81d(%rip)        # 7ec0200 <pthread_mutex_unlock@GLIBC_2.2.5>
 7c729ec:	e8 cf ff 0a 00       	call   7d229c0 <pthread_mutex_unlock@plt>
 7c72ab7:	48 83 3d 29 d7 24 00 	cmpq   $0x0,0x24d729(%rip)        # 7ec01e8 <pthread_once@GLIBC_2.34>
 7c72af1:	e8 ca ff 0a 00       	call   7d22ac0 <pthread_once@plt>
 7c731c2:	e8 29 1a 0b 00       	call   7d24bf0 <pthread_setspecific@plt>
 7c7cde3:	e8 c8 5b 0a 00       	call   7d229b0 <pthread_mutex_lock@plt>
 7c7ce86:	e8 35 5b 0a 00       	call   7d229c0 <pthread_mutex_unlock@plt>
 7c7cf04:	e8 a7 5a 0a 00       	call   7d229b0 <pthread_mutex_lock@plt>
 7c7cf76:	e8 45 5a 0a 00       	call   7d229c0 <pthread_mutex_unlock@plt>
0000000007c7fdf0 <std::__basic_file<char>::__basic_file(pthread_mutex_t*)>:
 7c8069b:	e8 20 23 0a 00       	call   7d229c0 <pthread_mutex_unlock@plt>
 7c80aa3:	e8 08 1f 0a 00       	call   7d229b0 <pthread_mutex_lock@plt>
 7c80b0c:	e8 af 1e 0a 00       	call   7d229c0 <pthread_mutex_unlock@plt>
 7c80b78:	e8 43 1e 0a 00       	call   7d229c0 <pthread_mutex_unlock@plt>
 7c80b98:	e8 23 1e 0a 00       	call   7d229c0 <pthread_mutex_unlock@plt>
 7c80c0d:	e8 9e 1d 0a 00       	call   7d229b0 <pthread_mutex_lock@plt>
 7c80c7e:	e8 3d 1d 0a 00       	call   7d229c0 <pthread_mutex_unlock@plt>
 7c80f6d:	e8 3e 1a 0a 00       	call   7d229b0 <pthread_mutex_lock@plt>
 7c80ffc:	e8 bf 19 0a 00       	call   7d229c0 <pthread_mutex_unlock@plt>
 7c83586:	e8 35 f5 09 00       	call   7d22ac0 <pthread_once@plt>
 7c842f4:	e8 b7 e6 09 00       	call   7d229b0 <pthread_mutex_lock@plt>
 7c84390:	e8 2b e6 09 00       	call   7d229c0 <pthread_mutex_unlock@plt>
 7c855e6:	e8 d5 d4 09 00       	call   7d22ac0 <pthread_once@plt>
 7c856c6:	e8 e5 d2 09 00       	call   7d229b0 <pthread_mutex_lock@plt>
 7c856ec:	e8 cf d2 09 00       	call   7d229c0 <pthread_mutex_unlock@plt>
 7c85825:	e8 86 d1 09 00       	call   7d229b0 <pthread_mutex_lock@plt>
 7c858a8:	e8 13 d1 09 00       	call   7d229c0 <pthread_mutex_unlock@plt>
 7c8fd5a:	e9 a1 4e 09 00       	jmp    7d24c00 <pthread_key_delete@plt>
 7c8fdb6:	e8 15 49 09 00       	call   7d246d0 <pthread_key_create@plt>
 7c8fdfb:	e8 10 4e 09 00       	call   7d24c10 <pthread_getspecific@plt>
 7c8fe0b:	e8 e0 4d 09 00       	call   7d24bf0 <pthread_setspecific@plt>
 7c8fe54:	e9 17 32 09 00       	jmp    7d23070 <pthread_cond_destroy@plt>
 7c8fe6b:	e8 e0 31 09 00       	call   7d23050 <pthread_cond_wait@plt>
 7c8fe84:	e9 a7 35 09 00       	jmp    7d23430 <pthread_cond_signal@plt>
 7c8fe94:	e9 c7 31 09 00       	jmp    7d23060 <pthread_cond_broadcast@plt>
 7c8feb1:	e8 0a 2b 09 00       	call   7d229c0 <pthread_mutex_unlock@plt>
 7c8fef6:	e8 c5 2b 09 00       	call   7d22ac0 <pthread_once@plt>
 7c8ff01:	e8 0a 4d 09 00       	call   7d24c10 <pthread_getspecific@plt>
 7c8ff14:	e9 d7 4c 09 00       	jmp    7d24bf0 <pthread_setspecific@plt>
 7cc66f8:	e8 f3 96 fb ff       	call   7c7fdf0 <std::__basic_file<char>::__basic_file(pthread_mutex_t*)>
 7cc83b8:	e8 33 7a fb ff       	call   7c7fdf0 <std::__basic_file<char>::__basic_file(pthread_mutex_t*)>
 7cf61f8:	e8 b3 c7 02 00       	call   7d229b0 <pthread_mutex_lock@plt>
 7cf6284:	e8 27 c7 02 00       	call   7d229b0 <pthread_mutex_lock@plt>
 7cf62b3:	e8 f8 c6 02 00       	call   7d229b0 <pthread_mutex_lock@plt>
 7cf62d0:	e8 db c6 02 00       	call   7d229b0 <pthread_mutex_lock@plt>
 7cf6310:	e8 ab c6 02 00       	call   7d229c0 <pthread_mutex_unlock@plt>
 7cf632e:	e8 8d c6 02 00       	call   7d229c0 <pthread_mutex_unlock@plt>
 7d045b2:	e8 29 eb 01 00       	call   7d230e0 <pthread_join@plt>
 7d045e0:	e8 7b ef 01 00       	call   7d23560 <pthread_detach@plt>
 7d04614:	e8 b7 ea 01 00       	call   7d230d0 <pthread_create@plt>
 7d047e3:	e8 e8 e8 01 00       	call   7d230d0 <pthread_create@plt>
 7d2021e:	e8 5d 2f 00 00       	call   7d23180 <pthread_sigmask@plt>
 7d2026b:	e8 10 2f 00 00       	call   7d23180 <pthread_sigmask@plt>
0000000007d229b0 <pthread_mutex_lock@plt>:
 7d229b0:	ff 25 72 de 19 00    	jmp    *0x19de72(%rip)        # 7ec0828 <pthread_mutex_lock@GLIBC_2.2.5>
0000000007d229c0 <pthread_mutex_unlock@plt>:
 7d229c0:	ff 25 6a de 19 00    	jmp    *0x19de6a(%rip)        # 7ec0830 <pthread_mutex_unlock@GLIBC_2.2.5>
0000000007d22a20 <pthread_mutex_init@plt>:
 7d22a20:	ff 25 3a de 19 00    	jmp    *0x19de3a(%rip)        # 7ec0860 <pthread_mutex_init@GLIBC_2.2.5>
0000000007d22ac0 <pthread_once@plt>:
 7d22ac0:	ff 25 ea dd 19 00    	jmp    *0x19ddea(%rip)        # 7ec08b0 <pthread_once@GLIBC_2.34>
0000000007d22ad0 <pthread_cond_timedwait@plt>:
 7d22ad0:	ff 25 e2 dd 19 00    	jmp    *0x19dde2(%rip)        # 7ec08b8 <pthread_cond_timedwait@GLIBC_2.3.2>
0000000007d22d50 <pthread_cond_clockwait@plt>:
 7d22d50:	ff 25 a2 dc 19 00    	jmp    *0x19dca2(%rip)        # 7ec09f8 <pthread_cond_clockwait@GLIBC_2.34>
0000000007d22e10 <pthread_mutex_destroy@plt>:
 7d22e10:	ff 25 42 dc 19 00    	jmp    *0x19dc42(%rip)        # 7ec0a58 <pthread_mutex_destroy@GLIBC_2.2.5>
0000000007d22e30 <pthread_mutex_trylock@plt>:
 7d22e30:	ff 25 32 dc 19 00    	jmp    *0x19dc32(%rip)        # 7ec0a68 <pthread_mutex_trylock@GLIBC_2.34>
0000000007d23000 <pthread_condattr_init@plt>:
 7d23000:	ff 25 4a db 19 00    	jmp    *0x19db4a(%rip)        # 7ec0b50 <pthread_condattr_init@GLIBC_2.2.5>
0000000007d23010 <pthread_condattr_setclock@plt>:
 7d23010:	ff 25 42 db 19 00    	jmp    *0x19db42(%rip)        # 7ec0b58 <pthread_condattr_setclock@GLIBC_2.34>
0000000007d23020 <pthread_condattr_destroy@plt>:
 7d23020:	ff 25 3a db 19 00    	jmp    *0x19db3a(%rip)        # 7ec0b60 <pthread_condattr_destroy@GLIBC_2.2.5>
0000000007d23030 <pthread_cond_init@plt>:
 7d23030:	ff 25 32 db 19 00    	jmp    *0x19db32(%rip)        # 7ec0b68 <pthread_cond_init@GLIBC_2.3.2>
0000000007d23050 <pthread_cond_wait@plt>:
 7d23050:	ff 25 22 db 19 00    	jmp    *0x19db22(%rip)        # 7ec0b78 <pthread_cond_wait@GLIBC_2.3.2>
0000000007d23060 <pthread_cond_broadcast@plt>:
 7d23060:	ff 25 1a db 19 00    	jmp    *0x19db1a(%rip)        # 7ec0b80 <pthread_cond_broadcast@GLIBC_2.3.2>
0000000007d23070 <pthread_cond_destroy@plt>:
 7d23070:	ff 25 12 db 19 00    	jmp    *0x19db12(%rip)        # 7ec0b88 <pthread_cond_destroy@GLIBC_2.3.2>
0000000007d230d0 <pthread_create@plt>:
 7d230d0:	ff 25 e2 da 19 00    	jmp    *0x19dae2(%rip)        # 7ec0bb8 <pthread_create@GLIBC_2.34>
0000000007d230e0 <pthread_join@plt>:
 7d230e0:	ff 25 da da 19 00    	jmp    *0x19dada(%rip)        # 7ec0bc0 <pthread_join@GLIBC_2.34>
0000000007d230f0 <pthread_self@plt>:
 7d230f0:	ff 25 d2 da 19 00    	jmp    *0x19dad2(%rip)        # 7ec0bc8 <pthread_self@GLIBC_2.2.5>
0000000007d23180 <pthread_sigmask@plt>:
 7d23180:	ff 25 8a da 19 00    	jmp    *0x19da8a(%rip)        # 7ec0c10 <pthread_sigmask@GLIBC_2.32>
0000000007d23260 <pthread_rwlock_rdlock@plt>:
 7d23260:	ff 25 1a da 19 00    	jmp    *0x19da1a(%rip)        # 7ec0c80 <pthread_rwlock_rdlock@GLIBC_2.34>
0000000007d23270 <pthread_rwlock_unlock@plt>:
 7d23270:	ff 25 12 da 19 00    	jmp    *0x19da12(%rip)        # 7ec0c88 <pthread_rwlock_unlock@GLIBC_2.34>
0000000007d23280 <pthread_rwlock_wrlock@plt>:
 7d23280:	ff 25 0a da 19 00    	jmp    *0x19da0a(%rip)        # 7ec0c90 <pthread_rwlock_wrlock@GLIBC_2.34>
0000000007d23430 <pthread_cond_signal@plt>:
 7d23430:	ff 25 32 d9 19 00    	jmp    *0x19d932(%rip)        # 7ec0d68 <pthread_cond_signal@GLIBC_2.3.2>
0000000007d23440 <pthread_mutexattr_init@plt>:
 7d23440:	ff 25 2a d9 19 00    	jmp    *0x19d92a(%rip)        # 7ec0d70 <pthread_mutexattr_init@GLIBC_2.34>
0000000007d23450 <pthread_mutexattr_settype@plt>:
 7d23450:	ff 25 22 d9 19 00    	jmp    *0x19d922(%rip)        # 7ec0d78 <pthread_mutexattr_settype@GLIBC_2.34>
0000000007d23460 <pthread_mutexattr_destroy@plt>:
 7d23460:	ff 25 1a d9 19 00    	jmp    *0x19d91a(%rip)        # 7ec0d80 <pthread_mutexattr_destroy@GLIBC_2.34>
0000000007d23540 <pthread_attr_init@plt>:
 7d23540:	ff 25 aa d8 19 00    	jmp    *0x19d8aa(%rip)        # 7ec0df0 <pthread_attr_init@GLIBC_2.2.5>
0000000007d23550 <pthread_attr_setstacksize@plt>:
 7d23550:	ff 25 a2 d8 19 00    	jmp    *0x19d8a2(%rip)        # 7ec0df8 <pthread_attr_setstacksize@GLIBC_2.34>
0000000007d23560 <pthread_detach@plt>:
 7d23560:	ff 25 9a d8 19 00    	jmp    *0x19d89a(%rip)        # 7ec0e00 <pthread_detach@GLIBC_2.34>
0000000007d23570 <pthread_setname_np@plt>:
 7d23570:	ff 25 92 d8 19 00    	jmp    *0x19d892(%rip)        # 7ec0e08 <pthread_setname_np@GLIBC_2.34>
0000000007d23580 <pthread_getname_np@plt>:
 7d23580:	ff 25 8a d8 19 00    	jmp    *0x19d88a(%rip)        # 7ec0e10 <pthread_getname_np@GLIBC_2.34>
0000000007d23590 <pthread_getattr_np@plt>:
 7d23590:	ff 25 82 d8 19 00    	jmp    *0x19d882(%rip)        # 7ec0e18 <pthread_getattr_np@GLIBC_2.32>
0000000007d235a0 <pthread_attr_getstack@plt>:
 7d235a0:	ff 25 7a d8 19 00    	jmp    *0x19d87a(%rip)        # 7ec0e20 <pthread_attr_getstack@GLIBC_2.34>
0000000007d235b0 <pthread_attr_destroy@plt>:
 7d235b0:	ff 25 72 d8 19 00    	jmp    *0x19d872(%rip)        # 7ec0e28 <pthread_attr_destroy@GLIBC_2.2.5>
0000000007d23880 <pthread_attr_setdetachstate@plt>:
 7d23880:	ff 25 0a d7 19 00    	jmp    *0x19d70a(%rip)        # 7ec0f90 <pthread_attr_setdetachstate@GLIBC_2.2.5>
0000000007d246d0 <pthread_key_create@plt>:
 7d246d0:	ff 25 e2 cf 19 00    	jmp    *0x19cfe2(%rip)        # 7ec16b8 <pthread_key_create@GLIBC_2.34>
0000000007d24a10 <pthread_rwlock_destroy@plt>:
 7d24a10:	ff 25 42 ce 19 00    	jmp    *0x19ce42(%rip)        # 7ec1858 <pthread_rwlock_destroy@GLIBC_2.34>
0000000007d24a20 <pthread_rwlock_init@plt>:
 7d24a20:	ff 25 3a ce 19 00    	jmp    *0x19ce3a(%rip)        # 7ec1860 <pthread_rwlock_init@GLIBC_2.34>
0000000007d24bf0 <pthread_setspecific@plt>:
 7d24bf0:	ff 25 52 cd 19 00    	jmp    *0x19cd52(%rip)        # 7ec1948 <pthread_setspecific@GLIBC_2.34>
0000000007d24c00 <pthread_key_delete@plt>:
 7d24c00:	ff 25 4a cd 19 00    	jmp    *0x19cd4a(%rip)        # 7ec1950 <pthread_key_delete@GLIBC_2.34>
0000000007d24c10 <pthread_getspecific@plt>:
 7d24c10:	ff 25 42 cd 19 00    	jmp    *0x19cd42(%rip)        # 7ec1958 <pthread_getspecific@GLIBC_2.34>
0000000007d24c20 <pthread_attr_getdetachstate@plt>:
 7d24c20:	ff 25 3a cd 19 00    	jmp    *0x19cd3a(%rip)        # 7ec1960 <pthread_attr_getdetachstate@GLIBC_2.2.5>
0000000007d24d50 <pthread_getschedparam@plt>:
 7d24d50:	ff 25 a2 cc 19 00    	jmp    *0x19cca2(%rip)        # 7ec19f8 <pthread_getschedparam@GLIBC_2.2.5>
0000000007d24e50 <pthread_atfork@plt>:
 7d24e50:	ff 25 22 cc 19 00    	jmp    *0x19cc22(%rip)        # 7ec1a78 <pthread_atfork@Base>
