000000000de405b0 <pthread_mutex_lock@plt>:
 de405b0:	ff 25 c2 0b 25 0f    	jmp    *0xf250bc2(%rip)        # 1d091178 <pthread_mutex_lock@GLIBC_2.2.5>
000000000de405c0 <pthread_mutex_unlock@plt>:
 de405c0:	ff 25 ba 0b 25 0f    	jmp    *0xf250bba(%rip)        # 1d091180 <pthread_mutex_unlock@GLIBC_2.2.5>
000000000de405d0 <pthread_cond_timedwait@plt>:
 de405d0:	ff 25 b2 0b 25 0f    	jmp    *0xf250bb2(%rip)        # 1d091188 <pthread_cond_timedwait@GLIBC_2.3.2>
000000000de40770 <pthread_mutex_init@plt>:
 de40770:	ff 25 e2 0a 25 0f    	jmp    *0xf250ae2(%rip)        # 1d091258 <pthread_mutex_init@GLIBC_2.2.5>
000000000de40780 <pthread_mutex_destroy@plt>:
 de40780:	ff 25 da 0a 25 0f    	jmp    *0xf250ada(%rip)        # 1d091260 <pthread_mutex_destroy@GLIBC_2.2.5>
000000000de40930 <pthread_once@plt>:
 de40930:	ff 25 02 0a 25 0f    	jmp    *0xf250a02(%rip)        # 1d091338 <pthread_once@GLIBC_2.34>
000000000de40a90 <pthread_self@plt>:
 de40a90:	ff 25 52 09 25 0f    	jmp    *0xf250952(%rip)        # 1d0913e8 <pthread_self@GLIBC_2.2.5>
000000000de40c30 <pthread_cond_clockwait@plt>:
 de40c30:	ff 25 82 08 25 0f    	jmp    *0xf250882(%rip)        # 1d0914b8 <pthread_cond_clockwait@GLIBC_2.34>
000000000de410b0 <pthread_mutex_trylock@plt>:
 de410b0:	ff 25 42 06 25 0f    	jmp    *0xf250642(%rip)        # 1d0916f8 <pthread_mutex_trylock@GLIBC_2.34>
000000000de41240 <pthread_condattr_init@plt>:
 de41240:	ff 25 7a 05 25 0f    	jmp    *0xf25057a(%rip)        # 1d0917c0 <pthread_condattr_init@GLIBC_2.2.5>
000000000de41250 <pthread_condattr_setclock@plt>:
 de41250:	ff 25 72 05 25 0f    	jmp    *0xf250572(%rip)        # 1d0917c8 <pthread_condattr_setclock@GLIBC_2.34>
000000000de41260 <pthread_cond_init@plt>:
 de41260:	ff 25 6a 05 25 0f    	jmp    *0xf25056a(%rip)        # 1d0917d0 <pthread_cond_init@GLIBC_2.3.2>
000000000de41270 <pthread_condattr_destroy@plt>:
 de41270:	ff 25 62 05 25 0f    	jmp    *0xf250562(%rip)        # 1d0917d8 <pthread_condattr_destroy@GLIBC_2.2.5>
000000000de41290 <pthread_cond_wait@plt>:
 de41290:	ff 25 52 05 25 0f    	jmp    *0xf250552(%rip)        # 1d0917e8 <pthread_cond_wait@GLIBC_2.3.2>
000000000de412a0 <pthread_cond_broadcast@plt>:
 de412a0:	ff 25 4a 05 25 0f    	jmp    *0xf25054a(%rip)        # 1d0917f0 <pthread_cond_broadcast@GLIBC_2.3.2>
000000000de412b0 <pthread_cond_destroy@plt>:
 de412b0:	ff 25 42 05 25 0f    	jmp    *0xf250542(%rip)        # 1d0917f8 <pthread_cond_destroy@GLIBC_2.3.2>
000000000de41310 <pthread_setname_np@plt>:
 de41310:	ff 25 12 05 25 0f    	jmp    *0xf250512(%rip)        # 1d091828 <pthread_setname_np@GLIBC_2.34>
000000000de41320 <pthread_create@plt>:
 de41320:	ff 25 0a 05 25 0f    	jmp    *0xf25050a(%rip)        # 1d091830 <pthread_create@GLIBC_2.34>
000000000de41330 <pthread_join@plt>:
 de41330:	ff 25 02 05 25 0f    	jmp    *0xf250502(%rip)        # 1d091838 <pthread_join@GLIBC_2.34>
000000000de414b0 <pthread_sigmask@plt>:
 de414b0:	ff 25 42 04 25 0f    	jmp    *0xf250442(%rip)        # 1d0918f8 <pthread_sigmask@GLIBC_2.32>
000000000de416a0 <pthread_rwlock_rdlock@plt>:
 de416a0:	ff 25 4a 03 25 0f    	jmp    *0xf25034a(%rip)        # 1d0919f0 <pthread_rwlock_rdlock@GLIBC_2.34>
000000000de416b0 <pthread_rwlock_wrlock@plt>:
 de416b0:	ff 25 42 03 25 0f    	jmp    *0xf250342(%rip)        # 1d0919f8 <pthread_rwlock_wrlock@GLIBC_2.34>
000000000de416c0 <pthread_rwlock_unlock@plt>:
 de416c0:	ff 25 3a 03 25 0f    	jmp    *0xf25033a(%rip)        # 1d091a00 <pthread_rwlock_unlock@GLIBC_2.34>
000000000de41ce0 <pthread_cond_signal@plt>:
 de41ce0:	ff 25 2a 00 25 0f    	jmp    *0xf25002a(%rip)        # 1d091d10 <pthread_cond_signal@GLIBC_2.3.2>
000000000de41cf0 <pthread_mutexattr_init@plt>:
 de41cf0:	ff 25 22 00 25 0f    	jmp    *0xf250022(%rip)        # 1d091d18 <pthread_mutexattr_init@GLIBC_2.34>
000000000de41d10 <pthread_mutexattr_settype@plt>:
 de41d10:	ff 25 12 00 25 0f    	jmp    *0xf250012(%rip)        # 1d091d28 <pthread_mutexattr_settype@GLIBC_2.34>
000000000de41d20 <pthread_mutexattr_destroy@plt>:
 de41d20:	ff 25 0a 00 25 0f    	jmp    *0xf25000a(%rip)        # 1d091d30 <pthread_mutexattr_destroy@GLIBC_2.34>
000000000de41ed0 <pthread_equal@plt>:
 de41ed0:	ff 25 32 ff 24 0f    	jmp    *0xf24ff32(%rip)        # 1d091e08 <pthread_equal@GLIBC_2.2.5>
000000000de41ee0 <pthread_attr_init@plt>:
 de41ee0:	ff 25 2a ff 24 0f    	jmp    *0xf24ff2a(%rip)        # 1d091e10 <pthread_attr_init@GLIBC_2.2.5>
000000000de41ef0 <pthread_attr_setstacksize@plt>:
 de41ef0:	ff 25 22 ff 24 0f    	jmp    *0xf24ff22(%rip)        # 1d091e18 <pthread_attr_setstacksize@GLIBC_2.34>
000000000de41f00 <pthread_detach@plt>:
 de41f00:	ff 25 1a ff 24 0f    	jmp    *0xf24ff1a(%rip)        # 1d091e20 <pthread_detach@GLIBC_2.34>
000000000de41f10 <pthread_getname_np@plt>:
 de41f10:	ff 25 12 ff 24 0f    	jmp    *0xf24ff12(%rip)        # 1d091e28 <pthread_getname_np@GLIBC_2.34>
000000000de41fa0 <pthread_getattr_np@plt>:
 de41fa0:	ff 25 ca fe 24 0f    	jmp    *0xf24feca(%rip)        # 1d091e70 <pthread_getattr_np@GLIBC_2.32>
000000000de41fb0 <pthread_attr_getstack@plt>:
 de41fb0:	ff 25 c2 fe 24 0f    	jmp    *0xf24fec2(%rip)        # 1d091e78 <pthread_attr_getstack@GLIBC_2.34>
000000000de41fc0 <pthread_attr_destroy@plt>:
 de41fc0:	ff 25 ba fe 24 0f    	jmp    *0xf24feba(%rip)        # 1d091e80 <pthread_attr_destroy@GLIBC_2.2.5>
000000000de42170 <pthread_attr_setdetachstate@plt>:
 de42170:	ff 25 e2 fd 24 0f    	jmp    *0xf24fde2(%rip)        # 1d091f58 <pthread_attr_setdetachstate@GLIBC_2.2.5>
000000000de433d0 <pthread_rwlock_init@plt>:
 de433d0:	ff 25 b2 f4 24 0f    	jmp    *0xf24f4b2(%rip)        # 1d092888 <pthread_rwlock_init@GLIBC_2.34>
000000000de433e0 <pthread_rwlock_destroy@plt>:
 de433e0:	ff 25 aa f4 24 0f    	jmp    *0xf24f4aa(%rip)        # 1d092890 <pthread_rwlock_destroy@GLIBC_2.34>
000000000de43590 <pthread_setspecific@plt>:
 de43590:	ff 25 d2 f3 24 0f    	jmp    *0xf24f3d2(%rip)        # 1d092968 <pthread_setspecific@GLIBC_2.34>
000000000de435a0 <pthread_key_create@plt>:
 de435a0:	ff 25 ca f3 24 0f    	jmp    *0xf24f3ca(%rip)        # 1d092970 <pthread_key_create@GLIBC_2.34>
000000000de43650 <pthread_getspecific@plt>:
 de43650:	ff 25 72 f3 24 0f    	jmp    *0xf24f372(%rip)        # 1d0929c8 <pthread_getspecific@GLIBC_2.34>
000000000de43790 <pthread_getschedparam@plt>:
 de43790:	ff 25 d2 f2 24 0f    	jmp    *0xf24f2d2(%rip)        # 1d092a68 <pthread_getschedparam@GLIBC_2.2.5>
000000000de44060 <pthread_key_delete@plt>:
 de44060:	ff 25 6a ee 24 0f    	jmp    *0xf24ee6a(%rip)        # 1d092ed0 <pthread_key_delete@GLIBC_2.34>
000000000de440d0 <pthread_attr_getdetachstate@plt>:
 de440d0:	ff 25 32 ee 24 0f    	jmp    *0xf24ee32(%rip)        # 1d092f08 <pthread_attr_getdetachstate@GLIBC_2.2.5>
000000000de57681 <__gthread_mutex_lock(pthread_mutex_t*)>:
     de57699:	74 0e                	je     de576a9 <__gthread_mutex_lock(pthread_mutex_t*)+0x28>
     de576a2:	e8 09 8f fe ff       	call   de405b0 <pthread_mutex_lock@plt>
     de576a7:	eb 05                	jmp    de576ae <__gthread_mutex_lock(pthread_mutex_t*)+0x2d>
000000000de576b0 <__gthread_mutex_unlock(pthread_mutex_t*)>:
     de576c8:	74 0e                	je     de576d8 <__gthread_mutex_unlock(pthread_mutex_t*)+0x28>
     de576d1:	e8 ea 8e fe ff       	call   de405c0 <pthread_mutex_unlock@plt>
     de576d6:	eb 05                	jmp    de576dd <__gthread_mutex_unlock(pthread_mutex_t*)+0x2d>
000000000de576df <__gthread_cond_timedwait(pthread_cond_t*, pthread_mutex_t*, timespec const*)>:
     de57705:	e8 c6 8e fe ff       	call   de405d0 <pthread_cond_timedwait@plt>
     de57ca7:	e8 d5 f9 ff ff       	call   de57681 <__gthread_mutex_lock(pthread_mutex_t*)>
     de57cd9:	e8 d2 f9 ff ff       	call   de576b0 <__gthread_mutex_unlock(pthread_mutex_t*)>
     de57d29:	e8 b1 f9 ff ff       	call   de576df <__gthread_cond_timedwait(pthread_cond_t*, pthread_mutex_t*, timespec const*)>
     de6232c:	e8 3f e4 fd ff       	call   de40770 <pthread_mutex_init@plt>
     de6237b:	e8 00 e4 fd ff       	call   de40780 <pthread_mutex_destroy@plt>
     dee8427:	e8 04 85 f5 ff       	call   de40930 <pthread_once@plt>
     df2ff9d:	e8 ee 0a f1 ff       	call   de40a90 <pthread_self@plt>
     e32eccd:	e8 5e 1c b1 ff       	call   de40930 <pthread_once@plt>
000000000e353c69 <__gthread_mutex_lock(pthread_mutex_t*)>:
     e353c81:	74 0e                	je     e353c91 <__gthread_mutex_lock(pthread_mutex_t*)+0x28>
     e353c8a:	e8 21 c9 ae ff       	call   de405b0 <pthread_mutex_lock@plt>
     e353c8f:	eb 05                	jmp    e353c96 <__gthread_mutex_lock(pthread_mutex_t*)+0x2d>
000000000e353c98 <__gthread_mutex_unlock(pthread_mutex_t*)>:
     e353cb0:	74 0e                	je     e353cc0 <__gthread_mutex_unlock(pthread_mutex_t*)+0x28>
     e353cb9:	e8 02 c9 ae ff       	call   de405c0 <pthread_mutex_unlock@plt>
     e353cbe:	eb 05                	jmp    e353cc5 <__gthread_mutex_unlock(pthread_mutex_t*)+0x2d>
000000000e353cc7 <__gthread_recursive_mutex_lock(pthread_mutex_t*)>:
     e353cda:	e8 8a ff ff ff       	call   e353c69 <__gthread_mutex_lock(pthread_mutex_t*)>
000000000e353ce1 <__gthread_recursive_mutex_unlock(pthread_mutex_t*)>:
     e353cf4:	e8 9f ff ff ff       	call   e353c98 <__gthread_mutex_unlock(pthread_mutex_t*)>
     e354123:	e8 9f fb ff ff       	call   e353cc7 <__gthread_recursive_mutex_lock(pthread_mutex_t*)>
     e354155:	e8 87 fb ff ff       	call   e353ce1 <__gthread_recursive_mutex_unlock(pthread_mutex_t*)>
     e406f26:	e8 05 9d a3 ff       	call   de40c30 <pthread_cond_clockwait@plt>
     e40b299:	e8 92 56 a3 ff       	call   de40930 <pthread_once@plt>
     e50deed:	e8 3e 2a 93 ff       	call   de40930 <pthread_once@plt>
     e6521fa:	e8 31 e7 7e ff       	call   de40930 <pthread_once@plt>
     e66c905:	e8 26 40 7d ff       	call   de40930 <pthread_once@plt>
     e670e17:	e8 14 fb 7c ff       	call   de40930 <pthread_once@plt>
     f62f0ff:	e8 2c 18 81 fe       	call   de40930 <pthread_once@plt>
     fbb3c35:	e8 76 c9 28 fe       	call   de405b0 <pthread_mutex_lock@plt>
     fbb3c85:	e8 36 c9 28 fe       	call   de405c0 <pthread_mutex_unlock@plt>
     fe24065:	e8 46 c5 01 fe       	call   de405b0 <pthread_mutex_lock@plt>
     fe24117:	e8 a4 c4 01 fe       	call   de405c0 <pthread_mutex_unlock@plt>
     fe278e8:	e8 c3 97 01 fe       	call   de410b0 <pthread_mutex_trylock@plt>
     fe27943:	e8 68 8c 01 fe       	call   de405b0 <pthread_mutex_lock@plt>
     fe279f5:	e8 c6 8b 01 fe       	call   de405c0 <pthread_mutex_unlock@plt>
     fe3de1c:	e8 8f 27 00 fe       	call   de405b0 <pthread_mutex_lock@plt>
     fe3dece:	e8 ed 26 00 fe       	call   de405c0 <pthread_mutex_unlock@plt>
     fe4041f:	e8 8c 01 00 fe       	call   de405b0 <pthread_mutex_lock@plt>
     fe404d1:	e8 ea 00 00 fe       	call   de405c0 <pthread_mutex_unlock@plt>
     fe43881:	e8 ea ce ff fd       	call   de40770 <pthread_mutex_init@plt>
     fe438d1:	e8 aa ce ff fd       	call   de40780 <pthread_mutex_destroy@plt>
     fe438ff:	e8 ac cc ff fd       	call   de405b0 <pthread_mutex_lock@plt>
     fe439b1:	e8 0a cc ff fd       	call   de405c0 <pthread_mutex_unlock@plt>
     fe4a02b:	e8 40 67 ff fd       	call   de40770 <pthread_mutex_init@plt>
     fe4a07b:	e8 00 67 ff fd       	call   de40780 <pthread_mutex_destroy@plt>
     fe4a0a9:	e8 02 65 ff fd       	call   de405b0 <pthread_mutex_lock@plt>
     fe4a15b:	e8 60 64 ff fd       	call   de405c0 <pthread_mutex_unlock@plt>
     fe4b5c2:	e8 a9 51 ff fd       	call   de40770 <pthread_mutex_init@plt>
     fe4b612:	e8 69 51 ff fd       	call   de40780 <pthread_mutex_destroy@plt>
     fe4b640:	e8 6b 4f ff fd       	call   de405b0 <pthread_mutex_lock@plt>
     fe4b6f2:	e8 c9 4e ff fd       	call   de405c0 <pthread_mutex_unlock@plt>
     fe52d6c:	e8 3f d8 fe fd       	call   de405b0 <pthread_mutex_lock@plt>
     fe52e1e:	e8 9d d7 fe fd       	call   de405c0 <pthread_mutex_unlock@plt>
     fe542cd:	e8 9e c4 fe fd       	call   de40770 <pthread_mutex_init@plt>
     fe5431d:	e8 5e c4 fe fd       	call   de40780 <pthread_mutex_destroy@plt>
     fe5434b:	e8 60 c2 fe fd       	call   de405b0 <pthread_mutex_lock@plt>
     fe543fd:	e8 be c1 fe fd       	call   de405c0 <pthread_mutex_unlock@plt>
     fe56799:	e8 12 9e fe fd       	call   de405b0 <pthread_mutex_lock@plt>
     fe5684b:	e8 70 9d fe fd       	call   de405c0 <pthread_mutex_unlock@plt>
     fe5b495:	e8 16 51 fe fd       	call   de405b0 <pthread_mutex_lock@plt>
     fe5b547:	e8 74 50 fe fd       	call   de405c0 <pthread_mutex_unlock@plt>
     fe5ea67:	e8 44 26 fe fd       	call   de410b0 <pthread_mutex_trylock@plt>
     fe5eac2:	e8 e9 1a fe fd       	call   de405b0 <pthread_mutex_lock@plt>
     fe5eb74:	e8 47 1a fe fd       	call   de405c0 <pthread_mutex_unlock@plt>
     fe66efb:	e8 b0 a1 fd fd       	call   de410b0 <pthread_mutex_trylock@plt>
     fe66f6b:	e8 50 96 fd fd       	call   de405c0 <pthread_mutex_unlock@plt>
     fe6a32e:	e8 7d 6d fd fd       	call   de410b0 <pthread_mutex_trylock@plt>
     fe6a389:	e8 22 62 fd fd       	call   de405b0 <pthread_mutex_lock@plt>
     fe6a43b:	e8 80 61 fd fd       	call   de405c0 <pthread_mutex_unlock@plt>
     fe7dd8e:	e8 1d 33 fc fd       	call   de410b0 <pthread_mutex_trylock@plt>
     fe7ddfe:	e8 bd 27 fc fd       	call   de405c0 <pthread_mutex_unlock@plt>
     fe8687a:	e8 31 a8 fb fd       	call   de410b0 <pthread_mutex_trylock@plt>
     fe868ea:	e8 d1 9c fb fd       	call   de405c0 <pthread_mutex_unlock@plt>
     fe9aca0:	e8 0b 64 fa fd       	call   de410b0 <pthread_mutex_trylock@plt>
     fe9acfb:	e8 b0 58 fa fd       	call   de405b0 <pthread_mutex_lock@plt>
     fe9adad:	e8 0e 58 fa fd       	call   de405c0 <pthread_mutex_unlock@plt>
     feaf8b7:	e8 f4 0c f9 fd       	call   de405b0 <pthread_mutex_lock@plt>
     feaf969:	e8 52 0c f9 fd       	call   de405c0 <pthread_mutex_unlock@plt>
     feb499e:	e8 0d c7 f8 fd       	call   de410b0 <pthread_mutex_trylock@plt>
     feb49f9:	e8 b2 bb f8 fd       	call   de405b0 <pthread_mutex_lock@plt>
     feb4aab:	e8 10 bb f8 fd       	call   de405c0 <pthread_mutex_unlock@plt>
     fec9413:	e8 98 71 f7 fd       	call   de405b0 <pthread_mutex_lock@plt>
     fec94c5:	e8 f6 70 f7 fd       	call   de405c0 <pthread_mutex_unlock@plt>
     fece584:	e8 27 20 f7 fd       	call   de405b0 <pthread_mutex_lock@plt>
     fece636:	e8 85 1f f7 fd       	call   de405c0 <pthread_mutex_unlock@plt>
     fed15b9:	e8 f2 ef f6 fd       	call   de405b0 <pthread_mutex_lock@plt>
     fed166b:	e8 50 ef f6 fd       	call   de405c0 <pthread_mutex_unlock@plt>
     fed2e84:	e8 e7 d8 f6 fd       	call   de40770 <pthread_mutex_init@plt>
     fed2ed4:	e8 a7 d8 f6 fd       	call   de40780 <pthread_mutex_destroy@plt>
     fed2f02:	e8 a9 d6 f6 fd       	call   de405b0 <pthread_mutex_lock@plt>
     fed2fb4:	e8 07 d6 f6 fd       	call   de405c0 <pthread_mutex_unlock@plt>
     fee4335:	e8 76 c2 f5 fd       	call   de405b0 <pthread_mutex_lock@plt>
     fee43e7:	e8 d4 c1 f5 fd       	call   de405c0 <pthread_mutex_unlock@plt>
     fee673a:	e8 71 9e f5 fd       	call   de405b0 <pthread_mutex_lock@plt>
     fee67ec:	e8 cf 9d f5 fd       	call   de405c0 <pthread_mutex_unlock@plt>
     fee982d:	e8 7e 6d f5 fd       	call   de405b0 <pthread_mutex_lock@plt>
     fee98df:	e8 dc 6c f5 fd       	call   de405c0 <pthread_mutex_unlock@plt>
     feee73b:	e8 70 1e f5 fd       	call   de405b0 <pthread_mutex_lock@plt>
     feee7ed:	e8 ce 1d f5 fd       	call   de405c0 <pthread_mutex_unlock@plt>
     fef4018:	e8 93 c5 f4 fd       	call   de405b0 <pthread_mutex_lock@plt>
     fef40ca:	e8 f1 c4 f4 fd       	call   de405c0 <pthread_mutex_unlock@plt>
     fef73a9:	e8 c2 93 f4 fd       	call   de40770 <pthread_mutex_init@plt>
     fef73f9:	e8 82 93 f4 fd       	call   de40780 <pthread_mutex_destroy@plt>
     fef7427:	e8 84 91 f4 fd       	call   de405b0 <pthread_mutex_lock@plt>
     fef74d9:	e8 e2 90 f4 fd       	call   de405c0 <pthread_mutex_unlock@plt>
     feffb69:	e8 02 0c f4 fd       	call   de40770 <pthread_mutex_init@plt>
     feffb82:	e8 b9 16 f4 fd       	call   de41240 <pthread_condattr_init@plt>
     feffba0:	e8 ab 16 f4 fd       	call   de41250 <pthread_condattr_setclock@plt>
     feffbc0:	e8 9b 16 f4 fd       	call   de41260 <pthread_cond_init@plt>
     feffbcf:	e8 9c 16 f4 fd       	call   de41270 <pthread_condattr_destroy@plt>
     fefffd2:	e8 d9 05 f4 fd       	call   de405b0 <pthread_mutex_lock@plt>
     ff002bc:	e8 0f 03 f4 fd       	call   de405d0 <pthread_cond_timedwait@plt>
     ff002e5:	e8 a6 0f f4 fd       	call   de41290 <pthread_cond_wait@plt>
     ff00357:	e8 64 02 f4 fd       	call   de405c0 <pthread_mutex_unlock@plt>
     ff005be:	e8 ed ff f3 fd       	call   de405b0 <pthread_mutex_lock@plt>
     ff005d7:	e8 c4 0c f4 fd       	call   de412a0 <pthread_cond_broadcast@plt>
     ff005ea:	e8 d1 ff f3 fd       	call   de405c0 <pthread_mutex_unlock@plt>
     ff006b6:	e8 f5 0b f4 fd       	call   de412b0 <pthread_cond_destroy@plt>
     ff00712:	e8 69 00 f4 fd       	call   de40780 <pthread_mutex_destroy@plt>
     ff00b8b:	e8 80 07 f4 fd       	call   de41310 <pthread_setname_np@plt>
     ff00c03:	e8 18 07 f4 fd       	call   de41320 <pthread_create@plt>
     ff00d20:	e8 0b 06 f4 fd       	call   de41330 <pthread_join@plt>
     ff00d91:	e8 fa fc f3 fd       	call   de40a90 <pthread_self@plt>
     ff00dbd:	e8 ce fc f3 fd       	call   de40a90 <pthread_self@plt>
     ff10889:	e8 22 fd f2 fd       	call   de405b0 <pthread_mutex_lock@plt>
     ff1093b:	e8 80 fc f2 fd       	call   de405c0 <pthread_mutex_unlock@plt>
     ff28b6c:	e8 3f 7a f1 fd       	call   de405b0 <pthread_mutex_lock@plt>
     ff28c1e:	e8 9d 79 f1 fd       	call   de405c0 <pthread_mutex_unlock@plt>
     ff387e5:	e8 86 7f f0 fd       	call   de40770 <pthread_mutex_init@plt>
     ff38835:	e8 46 7f f0 fd       	call   de40780 <pthread_mutex_destroy@plt>
     ff38863:	e8 48 88 f0 fd       	call   de410b0 <pthread_mutex_trylock@plt>
     ff388be:	e8 ed 7c f0 fd       	call   de405b0 <pthread_mutex_lock@plt>
     ff38970:	e8 4b 7c f0 fd       	call   de405c0 <pthread_mutex_unlock@plt>
     ff61c58:	e8 53 f4 ed fd       	call   de410b0 <pthread_mutex_trylock@plt>
     ff61cb3:	e8 f8 e8 ed fd       	call   de405b0 <pthread_mutex_lock@plt>
     ff61d65:	e8 56 e8 ed fd       	call   de405c0 <pthread_mutex_unlock@plt>
     ff660d8:	e8 d3 a4 ed fd       	call   de405b0 <pthread_mutex_lock@plt>
     ff6618a:	e8 31 a4 ed fd       	call   de405c0 <pthread_mutex_unlock@plt>
     ff6b99b:	e8 10 4c ed fd       	call   de405b0 <pthread_mutex_lock@plt>
     ff6ba4d:	e8 6e 4b ed fd       	call   de405c0 <pthread_mutex_unlock@plt>
     ff6eacb:	e8 e0 1a ed fd       	call   de405b0 <pthread_mutex_lock@plt>
     ff6eb7d:	e8 3e 1a ed fd       	call   de405c0 <pthread_mutex_unlock@plt>
     ff720a0:	e8 cb e6 ec fd       	call   de40770 <pthread_mutex_init@plt>
     ff720f0:	e8 8b e6 ec fd       	call   de40780 <pthread_mutex_destroy@plt>
     ff7f0cf:	e8 9c 16 ec fd       	call   de40770 <pthread_mutex_init@plt>
     ff7f509:	89 05 f1 b6 32 0d    	mov    %eax,0xd32b6f1(%rip)        # 1d2aac00 <__wt_pthread_once_failed>
     ff7f595:	89 05 65 b6 32 0d    	mov    %eax,0xd32b665(%rip)        # 1d2aac00 <__wt_pthread_once_failed>
     ff7f5a2:	8b 05 58 b6 32 0d    	mov    0xd32b658(%rip),%eax        # 1d2aac00 <__wt_pthread_once_failed>
     ff82029:	e8 42 e7 eb fd       	call   de40770 <pthread_mutex_init@plt>
     ff82079:	e8 02 e7 eb fd       	call   de40780 <pthread_mutex_destroy@plt>
     ff820a7:	e8 04 e5 eb fd       	call   de405b0 <pthread_mutex_lock@plt>
     ff82159:	e8 62 e4 eb fd       	call   de405c0 <pthread_mutex_unlock@plt>
     ffa0657:	e8 54 ff e9 fd       	call   de405b0 <pthread_mutex_lock@plt>
     ffa0709:	e8 b2 fe e9 fd       	call   de405c0 <pthread_mutex_unlock@plt>
     ffa7377:	e8 34 92 e9 fd       	call   de405b0 <pthread_mutex_lock@plt>
     ffa7429:	e8 92 91 e9 fd       	call   de405c0 <pthread_mutex_unlock@plt>
     ffb8585:	e8 26 8b e8 fd       	call   de410b0 <pthread_mutex_trylock@plt>
     ffb85e0:	e8 cb 7f e8 fd       	call   de405b0 <pthread_mutex_lock@plt>
     ffb8692:	e8 29 7f e8 fd       	call   de405c0 <pthread_mutex_unlock@plt>
     ffd60c8:	e8 a3 a6 e6 fd       	call   de40770 <pthread_mutex_init@plt>
     ffd6118:	e8 63 a6 e6 fd       	call   de40780 <pthread_mutex_destroy@plt>
     ffd6146:	e8 65 a4 e6 fd       	call   de405b0 <pthread_mutex_lock@plt>
     ffd61f8:	e8 c3 a3 e6 fd       	call   de405c0 <pthread_mutex_unlock@plt>
     ffd993e:	e8 2d 6e e6 fd       	call   de40770 <pthread_mutex_init@plt>
     ffd9989:	e8 22 6c e6 fd       	call   de405b0 <pthread_mutex_lock@plt>
     ffd9a3b:	e8 80 6b e6 fd       	call   de405c0 <pthread_mutex_unlock@plt>
     ffdd1cd:	e8 9e 35 e6 fd       	call   de40770 <pthread_mutex_init@plt>
     ffdd218:	e8 93 33 e6 fd       	call   de405b0 <pthread_mutex_lock@plt>
     ffdd2ca:	e8 f1 32 e6 fd       	call   de405c0 <pthread_mutex_unlock@plt>
     ffea93a:	e8 71 67 e5 fd       	call   de410b0 <pthread_mutex_trylock@plt>
     ffea9aa:	e8 11 5c e5 fd       	call   de405c0 <pthread_mutex_unlock@plt>
    10030bb2:	e8 c9 fb e0 fd       	call   de40780 <pthread_mutex_destroy@plt>
    1003615a:	e8 11 a6 e0 fd       	call   de40770 <pthread_mutex_init@plt>
    100361aa:	e8 d1 a5 e0 fd       	call   de40780 <pthread_mutex_destroy@plt>
    1003c17d:	e8 2e 44 e0 fd       	call   de405b0 <pthread_mutex_lock@plt>
    1003c22f:	e8 8c 43 e0 fd       	call   de405c0 <pthread_mutex_unlock@plt>
    1007269e:	e8 0d ea dc fd       	call   de410b0 <pthread_mutex_trylock@plt>
    100726f9:	e8 b2 de dc fd       	call   de405b0 <pthread_mutex_lock@plt>
    100727ab:	e8 10 de dc fd       	call   de405c0 <pthread_mutex_unlock@plt>
    1008639a:	e8 11 a2 db fd       	call   de405b0 <pthread_mutex_lock@plt>
    1008644c:	e8 6f a1 db fd       	call   de405c0 <pthread_mutex_unlock@plt>
    100a9278:	e8 33 73 d9 fd       	call   de405b0 <pthread_mutex_lock@plt>
    100a932a:	e8 91 72 d9 fd       	call   de405c0 <pthread_mutex_unlock@plt>
    100ba4c6:	e8 a5 62 d8 fd       	call   de40770 <pthread_mutex_init@plt>
    100ba511:	e8 9a 6b d8 fd       	call   de410b0 <pthread_mutex_trylock@plt>
    100ba56c:	e8 3f 60 d8 fd       	call   de405b0 <pthread_mutex_lock@plt>
    100ba61e:	e8 9d 5f d8 fd       	call   de405c0 <pthread_mutex_unlock@plt>
    100cff2a:	e8 41 08 d7 fd       	call   de40770 <pthread_mutex_init@plt>
    100cff7a:	e8 01 08 d7 fd       	call   de40780 <pthread_mutex_destroy@plt>
    100d3045:	e8 26 d7 d6 fd       	call   de40770 <pthread_mutex_init@plt>
    100d3095:	e8 e6 d6 d6 fd       	call   de40780 <pthread_mutex_destroy@plt>
    100d30c3:	e8 e8 d4 d6 fd       	call   de405b0 <pthread_mutex_lock@plt>
    100d3175:	e8 46 d4 d6 fd       	call   de405c0 <pthread_mutex_unlock@plt>
    100d874b:	e8 60 89 d6 fd       	call   de410b0 <pthread_mutex_trylock@plt>
    100d87bb:	e8 00 7e d6 fd       	call   de405c0 <pthread_mutex_unlock@plt>
    100dd0ed:	e8 be 3f d6 fd       	call   de410b0 <pthread_mutex_trylock@plt>
    100dd15d:	e8 5e 34 d6 fd       	call   de405c0 <pthread_mutex_unlock@plt>
    100de293:	e8 18 2e d6 fd       	call   de410b0 <pthread_mutex_trylock@plt>
    100de303:	e8 b8 22 d6 fd       	call   de405c0 <pthread_mutex_unlock@plt>
    100e8ef3:	e8 b8 81 d5 fd       	call   de410b0 <pthread_mutex_trylock@plt>
    100e8f63:	e8 58 76 d5 fd       	call   de405c0 <pthread_mutex_unlock@plt>
    100eec90:	e8 1b 24 d5 fd       	call   de410b0 <pthread_mutex_trylock@plt>
    100eed00:	e8 bb 18 d5 fd       	call   de405c0 <pthread_mutex_unlock@plt>
    100fdfca:	e8 e1 30 d4 fd       	call   de410b0 <pthread_mutex_trylock@plt>
    100fe03a:	e8 81 25 d4 fd       	call   de405c0 <pthread_mutex_unlock@plt>
    10106cda:	e8 d1 a3 d3 fd       	call   de410b0 <pthread_mutex_trylock@plt>
    10106d4a:	e8 71 98 d3 fd       	call   de405c0 <pthread_mutex_unlock@plt>
    10117424:	e8 87 9c d2 fd       	call   de410b0 <pthread_mutex_trylock@plt>
    10117494:	e8 27 91 d2 fd       	call   de405c0 <pthread_mutex_unlock@plt>
    1011c1ba:	e8 f1 4e d2 fd       	call   de410b0 <pthread_mutex_trylock@plt>
    1011c22a:	e8 91 43 d2 fd       	call   de405c0 <pthread_mutex_unlock@plt>
    1012704e:	e8 5d a0 d1 fd       	call   de410b0 <pthread_mutex_trylock@plt>
    101270be:	e8 fd 94 d1 fd       	call   de405c0 <pthread_mutex_unlock@plt>
    10138a3b:	e8 70 86 d0 fd       	call   de410b0 <pthread_mutex_trylock@plt>
    10138aab:	e8 10 7b d0 fd       	call   de405c0 <pthread_mutex_unlock@plt>
    1014cbe4:	e8 c7 44 cf fd       	call   de410b0 <pthread_mutex_trylock@plt>
    1014cc3f:	e8 6c 39 cf fd       	call   de405b0 <pthread_mutex_lock@plt>
    1014ccf1:	e8 ca 38 cf fd       	call   de405c0 <pthread_mutex_unlock@plt>
    1015ddb6:	e8 f5 27 ce fd       	call   de405b0 <pthread_mutex_lock@plt>
    1015de68:	e8 53 27 ce fd       	call   de405c0 <pthread_mutex_unlock@plt>
    1015ef7e:	e8 2d 16 ce fd       	call   de405b0 <pthread_mutex_lock@plt>
    1015f030:	e8 8b 15 ce fd       	call   de405c0 <pthread_mutex_unlock@plt>
    1016624c:	e8 5f a3 cd fd       	call   de405b0 <pthread_mutex_lock@plt>
    101662fe:	e8 bd a2 cd fd       	call   de405c0 <pthread_mutex_unlock@plt>
    1016b425:	e8 06 55 cd fd       	call   de40930 <pthread_once@plt>
    101b0fd7:	e8 d4 f5 c8 fd       	call   de405b0 <pthread_mutex_lock@plt>
    101b1089:	e8 32 f5 c8 fd       	call   de405c0 <pthread_mutex_unlock@plt>
    101b4d32:	e8 79 b8 c8 fd       	call   de405b0 <pthread_mutex_lock@plt>
    101b4de4:	e8 d7 b7 c8 fd       	call   de405c0 <pthread_mutex_unlock@plt>
    101b9937:	e8 74 6c c8 fd       	call   de405b0 <pthread_mutex_lock@plt>
    101b99e9:	e8 d2 6b c8 fd       	call   de405c0 <pthread_mutex_unlock@plt>
    101c3363:	e8 48 d2 c7 fd       	call   de405b0 <pthread_mutex_lock@plt>
    101c3415:	e8 a6 d1 c7 fd       	call   de405c0 <pthread_mutex_unlock@plt>
    101c61eb:	e8 c0 a3 c7 fd       	call   de405b0 <pthread_mutex_lock@plt>
    101c629d:	e8 1e a3 c7 fd       	call   de405c0 <pthread_mutex_unlock@plt>
00000000107b90ed <__gthread_mutex_unlock(pthread_mutex_t*)>:
    107b9105:	74 0e                	je     107b9115 <__gthread_mutex_unlock(pthread_mutex_t*)+0x28>
    107b910e:	e8 ad 74 68 fd       	call   de405c0 <pthread_mutex_unlock@plt>
    107b9113:	eb 05                	jmp    107b911a <__gthread_mutex_unlock(pthread_mutex_t*)+0x2d>
    10970123:	e8 88 13 4d fd       	call   de414b0 <pthread_sigmask@plt>
    10970450:	e8 5b 10 4d fd       	call   de414b0 <pthread_sigmask@plt>
0000000011a16cef <std::__glibcxx_rwlock_rdlock(pthread_rwlock_t*)>:
    11a16d07:	74 0e                	je     11a16d17 <std::__glibcxx_rwlock_rdlock(pthread_rwlock_t*)+0x28>
    11a16d10:	e8 8b a9 42 fc       	call   de416a0 <pthread_rwlock_rdlock@plt>
    11a16d15:	eb 05                	jmp    11a16d1c <std::__glibcxx_rwlock_rdlock(pthread_rwlock_t*)+0x2d>
0000000011a16d1e <std::__glibcxx_rwlock_wrlock(pthread_rwlock_t*)>:
    11a16d36:	74 0e                	je     11a16d46 <std::__glibcxx_rwlock_wrlock(pthread_rwlock_t*)+0x28>
    11a16d3f:	e8 6c a9 42 fc       	call   de416b0 <pthread_rwlock_wrlock@plt>
    11a16d44:	eb 05                	jmp    11a16d4b <std::__glibcxx_rwlock_wrlock(pthread_rwlock_t*)+0x2d>
0000000011a16d4d <std::__glibcxx_rwlock_unlock(pthread_rwlock_t*)>:
    11a16d65:	74 0e                	je     11a16d75 <std::__glibcxx_rwlock_unlock(pthread_rwlock_t*)+0x28>
    11a16d6e:	e8 4d a9 42 fc       	call   de416c0 <pthread_rwlock_unlock@plt>
    11a16d73:	eb 05                	jmp    11a16d7a <std::__glibcxx_rwlock_unlock(pthread_rwlock_t*)+0x2d>
0000000011a16d7c <std::__shared_mutex_pthread::lock()>:
    11a16d93:	e8 86 ff ff ff       	call   11a16d1e <std::__glibcxx_rwlock_wrlock(pthread_rwlock_t*)>
    11a16d9f:	75 0a                	jne    11a16dab <std::__shared_mutex_pthread::lock()+0x2f>
0000000011a16dae <std::__shared_mutex_pthread::unlock()>:
    11a16dc5:	e8 83 ff ff ff       	call   11a16d4d <std::__glibcxx_rwlock_unlock(pthread_rwlock_t*)>
0000000011a16dd0 <std::__shared_mutex_pthread::lock_shared()>:
    11a16de7:	e8 03 ff ff ff       	call   11a16cef <std::__glibcxx_rwlock_rdlock(pthread_rwlock_t*)>
    11a16df3:	74 eb                	je     11a16de0 <std::__shared_mutex_pthread::lock_shared()+0x10>
    11a16df9:	75 0a                	jne    11a16e05 <std::__shared_mutex_pthread::lock_shared()+0x35>
0000000011a16e08 <std::__shared_mutex_pthread::unlock_shared()>:
    11a16e1f:	e8 8a ff ff ff       	call   11a16dae <std::__shared_mutex_pthread::unlock()>
    11a16e3f:	e8 38 ff ff ff       	call   11a16d7c <std::__shared_mutex_pthread::lock()>
    11a16e5f:	e8 4a ff ff ff       	call   11a16dae <std::__shared_mutex_pthread::unlock()>
    11a16e7f:	e8 4c ff ff ff       	call   11a16dd0 <std::__shared_mutex_pthread::lock_shared()>
    11a16e9f:	e8 64 ff ff ff       	call   11a16e08 <std::__shared_mutex_pthread::unlock_shared()>
0000000011a178d0 <std::__shared_mutex_pthread::__shared_mutex_pthread()>:
    11a17931:	e8 9a ff ff ff       	call   11a178d0 <std::__shared_mutex_pthread::__shared_mutex_pthread()>
    11c6e905:	e8 26 20 1d fc       	call   de40930 <pthread_once@plt>
    125f72bd:	e8 6e 96 84 fb       	call   de40930 <pthread_once@plt>
    125f9685:	e8 a6 72 84 fb       	call   de40930 <pthread_once@plt>
    12ff2bbe:	e8 6d dd e4 fa       	call   de40930 <pthread_once@plt>
00000000131e44ed <__gthread_mutex_trylock(pthread_mutex_t*)>:
    131e4505:	74 0e                	je     131e4515 <__gthread_mutex_trylock(pthread_mutex_t*)+0x28>
    131e450e:	e8 9d cb c5 fa       	call   de410b0 <pthread_mutex_trylock@plt>
    131e4513:	eb 05                	jmp    131e451a <__gthread_mutex_trylock(pthread_mutex_t*)+0x2d>
    131e4533:	e8 b5 ff ff ff       	call   131e44ed <__gthread_mutex_trylock(pthread_mutex_t*)>
    13a79f5c:	e8 df 72 3c fa       	call   de41240 <pthread_condattr_init@plt>
    13a79f8f:	e8 bc 72 3c fa       	call   de41250 <pthread_condattr_setclock@plt>
    13a79fc4:	e8 97 72 3c fa       	call   de41260 <pthread_cond_init@plt>
    13a79ff2:	e8 79 72 3c fa       	call   de41270 <pthread_condattr_destroy@plt>
    13a7a04f:	e8 5c 72 3c fa       	call   de412b0 <pthread_cond_destroy@plt>
    13a7a099:	e8 42 7c 3c fa       	call   de41ce0 <pthread_cond_signal@plt>
    13a7a0e3:	e8 b8 71 3c fa       	call   de412a0 <pthread_cond_broadcast@plt>
    13a7a150:	e8 3b 71 3c fa       	call   de41290 <pthread_cond_wait@plt>
    13a7a330:	e8 9b 62 3c fa       	call   de405d0 <pthread_cond_timedwait@plt>
    13a7a900:	e8 eb 73 3c fa       	call   de41cf0 <pthread_mutexattr_init@plt>
    13a7a943:	e8 c8 73 3c fa       	call   de41d10 <pthread_mutexattr_settype@plt>
    13a7a99b:	e8 d0 5d 3c fa       	call   de40770 <pthread_mutex_init@plt>
    13a7a9d9:	e8 42 73 3c fa       	call   de41d20 <pthread_mutexattr_destroy@plt>
    13a7aa47:	e8 34 5d 3c fa       	call   de40780 <pthread_mutex_destroy@plt>
    13a7aabf:	e8 ec 65 3c fa       	call   de410b0 <pthread_mutex_trylock@plt>
    13a7ab4b:	e8 70 5a 3c fa       	call   de405c0 <pthread_mutex_unlock@plt>
    13a7abb7:	e8 f4 59 3c fa       	call   de405b0 <pthread_mutex_lock@plt>
    13a7b497:	e8 84 5e 3c fa       	call   de41320 <pthread_create@plt>
    13a7b4c1:	e8 6a 5e 3c fa       	call   de41330 <pthread_join@plt>
    13fb09ec:	e8 df 14 e9 f9       	call   de41ed0 <pthread_equal@plt>
    13fb0a6e:	e8 6d 14 e9 f9       	call   de41ee0 <pthread_attr_init@plt>
    13fb0acc:	e8 1f 14 e9 f9       	call   de41ef0 <pthread_attr_setstacksize@plt>
    13fb0b11:	e8 0a 08 e9 f9       	call   de41320 <pthread_create@plt>
    13fb0bd2:	e8 59 07 e9 f9       	call   de41330 <pthread_join@plt>
    13fb0c8d:	e8 6e 12 e9 f9       	call   de41f00 <pthread_detach@plt>
    13fb0d12:	e8 79 fd e8 f9       	call   de40a90 <pthread_self@plt>
    13fb0dfd:	e8 8e fc e8 f9       	call   de40a90 <pthread_self@plt>
    13fb0e0f:	e8 fc 04 e9 f9       	call   de41310 <pthread_setname_np@plt>
    13fb0e88:	e8 03 fc e8 f9       	call   de40a90 <pthread_self@plt>
    13fb0e9e:	e8 6d 10 e9 f9       	call   de41f10 <pthread_getname_np@plt>
    14510ea1:	e8 ea fb 92 f9       	call   de40a90 <pthread_self@plt>
    14510eb1:	e8 2a 10 93 f9       	call   de41ee0 <pthread_attr_init@plt>
    14510ec4:	e8 d7 10 93 f9       	call   de41fa0 <pthread_getattr_np@plt>
    14510eeb:	e8 c0 10 93 f9       	call   de41fb0 <pthread_attr_getstack@plt>
    14510f32:	e8 89 10 93 f9       	call   de41fc0 <pthread_attr_destroy@plt>
0000000014a61d87 <__gthread_mutex_lock(pthread_mutex_t*)>:
    14a61d9f:	74 0e                	je     14a61daf <__gthread_mutex_lock(pthread_mutex_t*)+0x28>
    14a61da8:	e8 03 e8 3d f9       	call   de405b0 <pthread_mutex_lock@plt>
    14a61dad:	eb 05                	jmp    14a61db4 <__gthread_mutex_lock(pthread_mutex_t*)+0x2d>
0000000014a61db6 <__gthread_mutex_unlock(pthread_mutex_t*)>:
    14a61dce:	74 0e                	je     14a61dde <__gthread_mutex_unlock(pthread_mutex_t*)+0x28>
    14a61dd7:	e8 e4 e7 3d f9       	call   de405c0 <pthread_mutex_unlock@plt>
    14a61ddc:	eb 05                	jmp    14a61de3 <__gthread_mutex_unlock(pthread_mutex_t*)+0x2d>
    14a79c51:	e8 5a 69 3c f9       	call   de405b0 <pthread_mutex_lock@plt>
    14a79c71:	e8 4a 69 3c f9       	call   de405c0 <pthread_mutex_unlock@plt>
    14ba946c:	e8 bf 74 29 f9       	call   de40930 <pthread_once@plt>
    14d757bf:	e8 6c b1 0c f9       	call   de40930 <pthread_once@plt>
    14dc4e4d:	e8 de ba 07 f9       	call   de40930 <pthread_once@plt>
    14f4d540:	e8 7b 4a ef f8       	call   de41fc0 <pthread_attr_destroy@plt>
    14f4d664:	e8 77 48 ef f8       	call   de41ee0 <pthread_attr_init@plt>
    14f4d699:	e8 d2 4a ef f8       	call   de42170 <pthread_attr_setdetachstate@plt>
    14f4d70e:	e8 dd 47 ef f8       	call   de41ef0 <pthread_attr_setstacksize@plt>
    14f4d9aa:	e8 71 39 ef f8       	call   de41320 <pthread_create@plt>
    157e5a01:	e8 2a af 65 f8       	call   de40930 <pthread_once@plt>
0000000015876db9 <__gthread_mutex_lock(pthread_mutex_t*)>:
    15876dd1:	74 0e                	je     15876de1 <__gthread_mutex_lock(pthread_mutex_t*)+0x28>
    15876dda:	e8 d1 97 5c f8       	call   de405b0 <pthread_mutex_lock@plt>
    15876ddf:	eb 05                	jmp    15876de6 <__gthread_mutex_lock(pthread_mutex_t*)+0x2d>
0000000015876de8 <__gthread_mutex_unlock(pthread_mutex_t*)>:
    15876e00:	74 0e                	je     15876e10 <__gthread_mutex_unlock(pthread_mutex_t*)+0x28>
    15876e09:	e8 b2 97 5c f8       	call   de405c0 <pthread_mutex_unlock@plt>
    15876e0e:	eb 05                	jmp    15876e15 <__gthread_mutex_unlock(pthread_mutex_t*)+0x2d>
    15876f74:	e8 37 a5 5c f8       	call   de414b0 <pthread_sigmask@plt>
    15876fad:	e8 fe a4 5c f8       	call   de414b0 <pthread_sigmask@plt>
    1591501f:	e8 0c b9 52 f8       	call   de40930 <pthread_once@plt>
    15a7c850:	e8 db 40 3c f8       	call   de40930 <pthread_once@plt>
    15a82aff:	e8 6c dc 3b f8       	call   de40770 <pthread_mutex_init@plt>
    15a82b2c:	e8 4f dc 3b f8       	call   de40780 <pthread_mutex_destroy@plt>
    15a82b59:	e8 52 da 3b f8       	call   de405b0 <pthread_mutex_lock@plt>
    15a82b86:	e8 35 da 3b f8       	call   de405c0 <pthread_mutex_unlock@plt>
    15cd43b9:	e8 72 c5 16 f8       	call   de40930 <pthread_once@plt>
    15df0546:	e8 85 2e 05 f8       	call   de433d0 <pthread_rwlock_init@plt>
    15df0565:	e8 76 2e 05 f8       	call   de433e0 <pthread_rwlock_destroy@plt>
    15df0585:	e8 16 11 05 f8       	call   de416a0 <pthread_rwlock_rdlock@plt>
    15df05a5:	e8 16 11 05 f8       	call   de416c0 <pthread_rwlock_unlock@plt>
    15df05c5:	e8 e6 10 05 f8       	call   de416b0 <pthread_rwlock_wrlock@plt>
    15df05e5:	e8 d6 10 05 f8       	call   de416c0 <pthread_rwlock_unlock@plt>
0000000015e17887 <__gthread_mutex_lock(pthread_mutex_t*)>:
    15e1789f:	74 0e                	je     15e178af <__gthread_mutex_lock(pthread_mutex_t*)+0x28>
    15e178a8:	e8 03 8d 02 f8       	call   de405b0 <pthread_mutex_lock@plt>
    15e178ad:	eb 05                	jmp    15e178b4 <__gthread_mutex_lock(pthread_mutex_t*)+0x2d>
0000000015e178b6 <__gthread_mutex_unlock(pthread_mutex_t*)>:
    15e178ce:	74 0e                	je     15e178de <__gthread_mutex_unlock(pthread_mutex_t*)+0x28>
    15e178d7:	e8 e4 8c 02 f8       	call   de405c0 <pthread_mutex_unlock@plt>
    15e178dc:	eb 05                	jmp    15e178e3 <__gthread_mutex_unlock(pthread_mutex_t*)+0x2d>
    15e27bf0:	e8 cb a3 01 f8       	call   de41fc0 <pthread_attr_destroy@plt>
    15e27c2e:	e8 5d 8e 01 f8       	call   de40a90 <pthread_self@plt>
    15e27c3e:	e8 9d a2 01 f8       	call   de41ee0 <pthread_attr_init@plt>
    15e27c78:	e8 23 a3 01 f8       	call   de41fa0 <pthread_getattr_np@plt>
    15e27ce1:	e8 ca a2 01 f8       	call   de41fb0 <pthread_attr_getstack@plt>
    15e3986c:	e8 1f 72 00 f8       	call   de40a90 <pthread_self@plt>
    15e39881:	e8 8a 7a 00 f8       	call   de41310 <pthread_setname_np@plt>
    15e8c0a7:	e8 84 48 fb f7       	call   de40930 <pthread_once@plt>
    15ee30e0:	48 8b 05 f1 de 1a 07 	mov    0x71adef1(%rip),%rax        # 1d090fd8 <pthread_mutex_lock@GLIBC_2.2.5>
    15ee30f3:	e8 b8 d4 f5 f7       	call   de405b0 <pthread_mutex_lock@plt>
    15ee3209:	48 8b 05 d0 dd 1a 07 	mov    0x71addd0(%rip),%rax        # 1d090fe0 <pthread_mutex_unlock@GLIBC_2.2.5>
    15ee321c:	e8 9f d3 f5 f7       	call   de405c0 <pthread_mutex_unlock@plt>
    15ee607e:	48 8b 05 53 af 1a 07 	mov    0x71aaf53(%rip),%rax        # 1d090fd8 <pthread_mutex_lock@GLIBC_2.2.5>
    15ee6094:	e8 17 a5 f5 f7       	call   de405b0 <pthread_mutex_lock@plt>
    15ee60f6:	48 8b 05 e3 ae 1a 07 	mov    0x71aaee3(%rip),%rax        # 1d090fe0 <pthread_mutex_unlock@GLIBC_2.2.5>
    15ee610c:	e8 af a4 f5 f7       	call   de405c0 <pthread_mutex_unlock@plt>
    15ee6148:	48 8b 05 89 ae 1a 07 	mov    0x71aae89(%rip),%rax        # 1d090fd8 <pthread_mutex_lock@GLIBC_2.2.5>
    15ee615e:	e8 4d a4 f5 f7       	call   de405b0 <pthread_mutex_lock@plt>
    15ee61b2:	48 8b 05 27 ae 1a 07 	mov    0x71aae27(%rip),%rax        # 1d090fe0 <pthread_mutex_unlock@GLIBC_2.2.5>
    15ee61c8:	e8 f3 a3 f5 f7       	call   de405c0 <pthread_mutex_unlock@plt>
    15ee6f08:	48 8b 05 d9 a0 1a 07 	mov    0x71aa0d9(%rip),%rax        # 1d090fe8 <pthread_mutex_init@GLIBC_2.2.5>
    15ee6f20:	e8 4b 98 f5 f7       	call   de40770 <pthread_mutex_init@plt>
    15ee6ffa:	48 8b 05 d7 9f 1a 07 	mov    0x71a9fd7(%rip),%rax        # 1d090fd8 <pthread_mutex_lock@GLIBC_2.2.5>
    15ee7010:	e8 9b 95 f5 f7       	call   de405b0 <pthread_mutex_lock@plt>
    15ee70b0:	48 8b 05 29 9f 1a 07 	mov    0x71a9f29(%rip),%rax        # 1d090fe0 <pthread_mutex_unlock@GLIBC_2.2.5>
    15ee70c6:	e8 f5 94 f5 f7       	call   de405c0 <pthread_mutex_unlock@plt>
    15ee7147:	48 8b 05 8a 9e 1a 07 	mov    0x71a9e8a(%rip),%rax        # 1d090fd8 <pthread_mutex_lock@GLIBC_2.2.5>
    15ee715d:	e8 4e 94 f5 f7       	call   de405b0 <pthread_mutex_lock@plt>
    15ee717b:	48 8b 05 5e 9e 1a 07 	mov    0x71a9e5e(%rip),%rax        # 1d090fe0 <pthread_mutex_unlock@GLIBC_2.2.5>
    15ee7191:	e8 2a 94 f5 f7       	call   de405c0 <pthread_mutex_unlock@plt>
    15ee84c9:	48 8b 05 08 8b 1a 07 	mov    0x71a8b08(%rip),%rax        # 1d090fd8 <pthread_mutex_lock@GLIBC_2.2.5>
    15ee84df:	e8 cc 80 f5 f7       	call   de405b0 <pthread_mutex_lock@plt>
    15ee855b:	48 8b 05 7e 8a 1a 07 	mov    0x71a8a7e(%rip),%rax        # 1d090fe0 <pthread_mutex_unlock@GLIBC_2.2.5>
    15ee8571:	e8 4a 80 f5 f7       	call   de405c0 <pthread_mutex_unlock@plt>
    15eeb3ab:	e8 e0 81 f5 f7       	call   de43590 <pthread_setspecific@plt>
    15eeb429:	e8 72 81 f5 f7       	call   de435a0 <pthread_key_create@plt>
    15eeb6c7:	48 8b 05 0a 59 1a 07 	mov    0x71a590a(%rip),%rax        # 1d090fd8 <pthread_mutex_lock@GLIBC_2.2.5>
    15eeb6dd:	e8 ce 4e f5 f7       	call   de405b0 <pthread_mutex_lock@plt>
    15eeb721:	48 8b 05 b8 58 1a 07 	mov    0x71a58b8(%rip),%rax        # 1d090fe0 <pthread_mutex_unlock@GLIBC_2.2.5>
    15eeb737:	e8 84 4e f5 f7       	call   de405c0 <pthread_mutex_unlock@plt>
    15eeb77a:	48 8b 05 6f 58 1a 07 	mov    0x71a586f(%rip),%rax        # 1d090ff0 <pthread_once@GLIBC_2.34>
    15eeb79a:	e8 91 51 f5 f7       	call   de40930 <pthread_once@plt>
    15eeb7dc:	e8 af 7d f5 f7       	call   de43590 <pthread_setspecific@plt>
    1600751d:	e8 7e c0 e3 f7       	call   de435a0 <pthread_key_create@plt>
    160075a9:	e8 e2 94 e3 f7       	call   de40a90 <pthread_self@plt>
    1600765f:	e8 2c bf e3 f7       	call   de43590 <pthread_setspecific@plt>
    1600789a:	e8 f1 bc e3 f7       	call   de43590 <pthread_setspecific@plt>
    1600b803:	e8 a8 5c e3 f7       	call   de414b0 <pthread_sigmask@plt>
    1601183f:	48 8d 05 ca d2 e6 07 	lea    0x7e6d2ca(%rip),%rax        # 1de7eb10 <absl::lts_20230802::base_internal::(anonymous namespace)::thread_identity_pthread_key>
    16011849:	e8 52 1d e3 f7       	call   de435a0 <pthread_key_create@plt>
    16011858:	48 8d 05 b5 d2 e6 07 	lea    0x7e6d2b5(%rip),%rax        # 1de7eb14 <absl::lts_20230802::base_internal::(anonymous namespace)::pthread_key_initialized>
    1601190c:	e8 9f fb e2 f7       	call   de414b0 <pthread_sigmask@plt>
    16011911:	8b 05 f9 d1 e6 07    	mov    0x7e6d1f9(%rip),%eax        # 1de7eb10 <absl::lts_20230802::base_internal::(anonymous namespace)::thread_identity_pthread_key>
    16011923:	e8 68 1c e3 f7       	call   de43590 <pthread_setspecific@plt>
    1601193c:	e8 6f fb e2 f7       	call   de414b0 <pthread_sigmask@plt>
    1601199e:	48 8d 05 6f d1 e6 07 	lea    0x7e6d16f(%rip),%rax        # 1de7eb14 <absl::lts_20230802::base_internal::(anonymous namespace)::pthread_key_initialized>
    160119c2:	8b 05 48 d1 e6 07    	mov    0x7e6d148(%rip),%eax        # 1de7eb10 <absl::lts_20230802::base_internal::(anonymous namespace)::thread_identity_pthread_key>
    160119ca:	e8 81 1c e3 f7       	call   de43650 <pthread_getspecific@plt>
    160428eb:	e8 c0 eb df f7       	call   de414b0 <pthread_sigmask@plt>
    160429fa:	e8 b1 ea df f7       	call   de414b0 <pthread_sigmask@plt>
00000000160787b2 <absl::lts_20230802::synchronization_internal::(anonymous namespace)::PthreadMutexHolder::PthreadMutexHolder(pthread_mutex_t*)>:
    160787d7:	e8 d4 7d dc f7       	call   de405b0 <pthread_mutex_lock@plt>
    160787e3:	74 61                	je     16078846 <absl::lts_20230802::synchronization_internal::(anonymous namespace)::PthreadMutexHolder::PthreadMutexHolder(pthread_mutex_t*)+0x94>
    16078860:	e8 5b 7d dc f7       	call   de405c0 <pthread_mutex_unlock@plt>
    16078900:	e8 6b 7e dc f7       	call   de40770 <pthread_mutex_init@plt>
    1607897f:	e8 dc 88 dc f7       	call   de41260 <pthread_cond_init@plt>
    16078aa6:	e8 85 81 dc f7       	call   de40c30 <pthread_cond_clockwait@plt>
    16078ad7:	e8 f4 7a dc f7       	call   de405d0 <pthread_cond_timedwait@plt>
    16078b22:	e8 8b fc ff ff       	call   160787b2 <absl::lts_20230802::synchronization_internal::(anonymous namespace)::PthreadMutexHolder::PthreadMutexHolder(pthread_mutex_t*)>
    16078b7a:	e8 11 87 dc f7       	call   de41290 <pthread_cond_wait@plt>
    16078d34:	e8 79 fa ff ff       	call   160787b2 <absl::lts_20230802::synchronization_internal::(anonymous namespace)::PthreadMutexHolder::PthreadMutexHolder(pthread_mutex_t*)>
    16078dc2:	e8 eb f9 ff ff       	call   160787b2 <absl::lts_20230802::synchronization_internal::(anonymous namespace)::PthreadMutexHolder::PthreadMutexHolder(pthread_mutex_t*)>
    16078e3c:	e8 9f 8e dc f7       	call   de41ce0 <pthread_cond_signal@plt>
    1607ab4b:	e8 40 5f dc f7       	call   de40a90 <pthread_self@plt>
    1607ab61:	e8 2a 8c dc f7       	call   de43790 <pthread_getschedparam@plt>
    162f4e25:	e8 16 c4 b4 f7       	call   de41240 <pthread_condattr_init@plt>
    162f4e36:	e8 15 c4 b4 f7       	call   de41250 <pthread_condattr_setclock@plt>
    162f4e52:	e8 09 c4 b4 f7       	call   de41260 <pthread_cond_init@plt>
    162f4ef4:	e8 77 b8 b4 f7       	call   de40770 <pthread_mutex_init@plt>
    162f4f87:	e8 74 cf b4 f7       	call   de41f00 <pthread_detach@plt>
    162f4fc6:	e8 65 c3 b4 f7       	call   de41330 <pthread_join@plt>
    162f5039:	e8 e2 c2 b4 f7       	call   de41320 <pthread_create@plt>
    162f5151:	e8 4a e4 b4 f7       	call   de435a0 <pthread_key_create@plt>
    16304701:	e8 7a c0 b3 f7       	call   de40780 <pthread_mutex_destroy@plt>
    163049b3:	e8 f8 c8 b3 f7       	call   de412b0 <pthread_cond_destroy@plt>
    16305517:	e8 94 bf b3 f7       	call   de414b0 <pthread_sigmask@plt>
    1630556e:	e8 3d bf b3 f7       	call   de414b0 <pthread_sigmask@plt>
    163055f3:	e8 b8 af b3 f7       	call   de405b0 <pthread_mutex_lock@plt>
    1630560f:	e8 ac af b3 f7       	call   de405c0 <pthread_mutex_unlock@plt>
    16306284:	e8 17 b0 b3 f7       	call   de412a0 <pthread_cond_broadcast@plt>
    16306316:	e8 c5 b9 b3 f7       	call   de41ce0 <pthread_cond_signal@plt>
    1630639e:	e8 3d b9 b3 f7       	call   de41ce0 <pthread_cond_signal@plt>
    16306489:	e8 02 ae b3 f7       	call   de41290 <pthread_cond_wait@plt>
    1630665f:	e8 6c 9f b3 f7       	call   de405d0 <pthread_cond_timedwait@plt>
    163fd949:	e8 62 2c a4 f7       	call   de405b0 <pthread_mutex_lock@plt>
    163fd979:	e8 42 2c a4 f7       	call   de405c0 <pthread_mutex_unlock@plt>
    163fd9b4:	e8 d7 38 a4 f7       	call   de41290 <pthread_cond_wait@plt>
    163fd9d2:	e8 c9 38 a4 f7       	call   de412a0 <pthread_cond_broadcast@plt>
    163fd9f0:	e8 eb 42 a4 f7       	call   de41ce0 <pthread_cond_signal@plt>
    163fda11:	e8 9a 2b a4 f7       	call   de405b0 <pthread_mutex_lock@plt>
    163fda40:	e8 7b 2b a4 f7       	call   de405c0 <pthread_mutex_unlock@plt>
    163fda60:	e8 2b 38 a4 f7       	call   de41290 <pthread_cond_wait@plt>
    163fda7a:	e8 41 2b a4 f7       	call   de405c0 <pthread_mutex_unlock@plt>
    163fda9c:	e8 0f 2b a4 f7       	call   de405b0 <pthread_mutex_lock@plt>
    163fdabc:	e8 df 37 a4 f7       	call   de412a0 <pthread_cond_broadcast@plt>
    163fdacb:	e8 f0 2a a4 f7       	call   de405c0 <pthread_mutex_unlock@plt>
    1644c9d7:	e8 54 3f 9f f7       	call   de40930 <pthread_once@plt>
    1644dcaa:	e8 71 36 9f f7       	call   de41320 <pthread_create@plt>
    1644dcc9:	e8 62 36 9f f7       	call   de41330 <pthread_join@plt>
    1645d76c:	e8 bf 31 9e f7       	call   de40930 <pthread_once@plt>
    1673734c:	e8 1f 94 70 f7       	call   de40770 <pthread_mutex_init@plt>
    167373cf:	e8 ac 93 70 f7       	call   de40780 <pthread_mutex_destroy@plt>
    16737443:	e8 68 91 70 f7       	call   de405b0 <pthread_mutex_lock@plt>
    167374d1:	e8 ea 90 70 f7       	call   de405c0 <pthread_mutex_unlock@plt>
    167598d2:	e8 d9 6c 6e f7       	call   de405b0 <pthread_mutex_lock@plt>
    16759941:	e8 7a 6c 6e f7       	call   de405c0 <pthread_mutex_unlock@plt>
    16759999:	e8 f2 78 6e f7       	call   de41290 <pthread_cond_wait@plt>
    16759a01:	e8 ba 6b 6e f7       	call   de405c0 <pthread_mutex_unlock@plt>
    16759a58:	e8 53 6b 6e f7       	call   de405b0 <pthread_mutex_lock@plt>
    16759aa6:	e8 15 6b 6e f7       	call   de405c0 <pthread_mutex_unlock@plt>
    16759aea:	e8 b1 77 6e f7       	call   de412a0 <pthread_cond_broadcast@plt>
    16759b3e:	e8 6d 6a 6e f7       	call   de405b0 <pthread_mutex_lock@plt>
    16759b8c:	e8 2f 6a 6e f7       	call   de405c0 <pthread_mutex_unlock@plt>
    16759bd0:	e8 cb 76 6e f7       	call   de412a0 <pthread_cond_broadcast@plt>
    1677271e:	e8 6d e3 6c f7       	call   de40a90 <pthread_self@plt>
    16772c25:	e8 69 00 00 00       	call   16772c93 <boost::log::v2s_mt_posix::aux::(anonymous namespace)::pthread_key_traits<unsigned int, true, true>::allocate(void*&)>
    16772c44:	e8 d1 00 00 00       	call   16772d1a <boost::log::v2s_mt_posix::aux::(anonymous namespace)::pthread_key_traits<unsigned int, true, true>::deallocate(void*)>
    16772c62:	e8 cd 00 00 00       	call   16772d34 <boost::log::v2s_mt_posix::aux::(anonymous namespace)::pthread_key_traits<unsigned int, true, true>::get_value(void*)>
    16772c8b:	e8 bd 00 00 00       	call   16772d4d <boost::log::v2s_mt_posix::aux::(anonymous namespace)::pthread_key_traits<unsigned int, true, true>::set_value(void*, void*)>
0000000016772c93 <boost::log::v2s_mt_posix::aux::(anonymous namespace)::pthread_key_traits<unsigned int, true, true>::allocate(void*&)>:
    16772cba:	e8 e1 08 6d f7       	call   de435a0 <pthread_key_create@plt>
    16772ccf:	74 23                	je     16772cf4 <boost::log::v2s_mt_posix::aux::(anonymous namespace)::pthread_key_traits<unsigned int, true, true>::allocate(void*&)+0x61>
    16772d11:	74 05                	je     16772d18 <boost::log::v2s_mt_posix::aux::(anonymous namespace)::pthread_key_traits<unsigned int, true, true>::allocate(void*&)+0x85>
0000000016772d1a <boost::log::v2s_mt_posix::aux::(anonymous namespace)::pthread_key_traits<unsigned int, true, true>::deallocate(void*)>:
    16772d2c:	e8 2f 13 6d f7       	call   de44060 <pthread_key_delete@plt>
0000000016772d34 <boost::log::v2s_mt_posix::aux::(anonymous namespace)::pthread_key_traits<unsigned int, true, true>::get_value(void*)>:
    16772d46:	e8 05 09 6d f7       	call   de43650 <pthread_getspecific@plt>
0000000016772d4d <boost::log::v2s_mt_posix::aux::(anonymous namespace)::pthread_key_traits<unsigned int, true, true>::set_value(void*, void*)>:
    16772d6c:	e8 1f 08 6d f7       	call   de43590 <pthread_setspecific@plt>
    16772d81:	74 23                	je     16772da6 <boost::log::v2s_mt_posix::aux::(anonymous namespace)::pthread_key_traits<unsigned int, true, true>::set_value(void*, void*)+0x59>
    16772f20:	e8 cb ed 6c f7       	call   de41cf0 <pthread_mutexattr_init@plt>
    16772f31:	e8 da ed 6c f7       	call   de41d10 <pthread_mutexattr_settype@plt>
    16772f44:	e8 27 d8 6c f7       	call   de40770 <pthread_mutex_init@plt>
    16772f53:	e8 c8 ed 6c f7       	call   de41d20 <pthread_mutexattr_destroy@plt>
    16772fb9:	e8 c2 d7 6c f7       	call   de40780 <pthread_mutex_destroy@plt>
    16773009:	e8 a2 d5 6c f7       	call   de405b0 <pthread_mutex_lock@plt>
    1677305f:	e8 5c d5 6c f7       	call   de405c0 <pthread_mutex_unlock@plt>
    16778c45:	e8 66 86 6c f7       	call   de412b0 <pthread_cond_destroy@plt>
    16779499:	e8 a2 7d 6c f7       	call   de41240 <pthread_condattr_init@plt>
    167794b3:	e8 98 7d 6c f7       	call   de41250 <pthread_condattr_setclock@plt>
    167794cf:	e8 8c 7d 6c f7       	call   de41260 <pthread_cond_init@plt>
    167794de:	e8 8d 7d 6c f7       	call   de41270 <pthread_condattr_destroy@plt>
    1677955b:	e8 20 72 6c f7       	call   de40780 <pthread_mutex_destroy@plt>
    16779583:	e8 28 70 6c f7       	call   de405b0 <pthread_mutex_lock@plt>
    1677959f:	e8 1c 70 6c f7       	call   de405c0 <pthread_mutex_unlock@plt>
    167795dc:	e8 8f 71 6c f7       	call   de40770 <pthread_mutex_init@plt>
    1677a3ef:	e8 0c 7b 6c f7       	call   de41f00 <pthread_detach@plt>
    1677a42e:	e8 fd 6e 6c f7       	call   de41330 <pthread_join@plt>
    1677a477:	e8 a4 6e 6c f7       	call   de41320 <pthread_create@plt>
    1677a659:	e8 52 6e 6c f7       	call   de414b0 <pthread_sigmask@plt>
    1677a6b0:	e8 fb 6d 6c f7       	call   de414b0 <pthread_sigmask@plt>
    167808e4:	e8 b7 09 6c f7       	call   de412a0 <pthread_cond_broadcast@plt>
    1678097a:	e8 61 13 6c f7       	call   de41ce0 <pthread_cond_signal@plt>
    16780a06:	e8 d5 12 6c f7       	call   de41ce0 <pthread_cond_signal@plt>
    16780afb:	e8 90 07 6c f7       	call   de41290 <pthread_cond_wait@plt>
    1678dfa5:	e8 0c 08 00 00       	call   1678e7b6 <boost::pthread::pthread_mutex_scoped_lock::pthread_mutex_scoped_lock(pthread_mutex_t*)>
    1678e391:	e8 fa 2e 6b f7       	call   de41290 <pthread_cond_wait@plt>
    1678e3fc:	e8 a3 04 00 00       	call   1678e8a4 <boost::pthread::pthread_mutex_scoped_lock::~pthread_mutex_scoped_lock()>
    1678e471:	e8 40 03 00 00       	call   1678e7b6 <boost::pthread::pthread_mutex_scoped_lock::pthread_mutex_scoped_lock(pthread_mutex_t*)>
    1678e585:	e8 1a 03 00 00       	call   1678e8a4 <boost::pthread::pthread_mutex_scoped_lock::~pthread_mutex_scoped_lock()>
    1678e59c:	e8 ff 2c 6b f7       	call   de412a0 <pthread_cond_broadcast@plt>
    1678e62a:	e8 87 01 00 00       	call   1678e7b6 <boost::pthread::pthread_mutex_scoped_lock::pthread_mutex_scoped_lock(pthread_mutex_t*)>
    1678e73e:	e8 61 01 00 00       	call   1678e8a4 <boost::pthread::pthread_mutex_scoped_lock::~pthread_mutex_scoped_lock()>
    1678e755:	e8 46 2b 6b f7       	call   de412a0 <pthread_cond_broadcast@plt>
000000001678e7b6 <boost::pthread::pthread_mutex_scoped_lock::pthread_mutex_scoped_lock(pthread_mutex_t*)>:
    1678e7eb:	e8 c0 1d 6b f7       	call   de405b0 <pthread_mutex_lock@plt>
    1678e7f7:	74 eb                	je     1678e7e4 <boost::pthread::pthread_mutex_scoped_lock::pthread_mutex_scoped_lock(pthread_mutex_t*)+0x2e>
    1678e807:	75 28                	jne    1678e831 <boost::pthread::pthread_mutex_scoped_lock::pthread_mutex_scoped_lock(pthread_mutex_t*)+0x7b>
000000001678e834 <boost::pthread::pthread_mutex_scoped_lock::unlock()>:
    1678e852:	e8 69 1d 6b f7       	call   de405c0 <pthread_mutex_unlock@plt>
    1678e85e:	74 eb                	je     1678e84b <boost::pthread::pthread_mutex_scoped_lock::unlock()+0x17>
    1678e86e:	75 28                	jne    1678e898 <boost::pthread::pthread_mutex_scoped_lock::unlock()+0x64>
000000001678e8a4 <boost::pthread::pthread_mutex_scoped_lock::~pthread_mutex_scoped_lock()>:
    1678e8ba:	74 0c                	je     1678e8c8 <boost::pthread::pthread_mutex_scoped_lock::~pthread_mutex_scoped_lock()+0x24>
    1678e8c3:	e8 6c ff ff ff       	call   1678e834 <boost::pthread::pthread_mutex_scoped_lock::unlock()>
    1678ed3d:	e8 5e 48 6b f7       	call   de435a0 <pthread_key_create@plt>
    1678edba:	e8 91 48 6b f7       	call   de43650 <pthread_getspecific@plt>
    1678ee09:	e8 82 47 6b f7       	call   de43590 <pthread_setspecific@plt>
    1678f08b:	e8 90 22 6b f7       	call   de41320 <pthread_create@plt>
    1678f143:	e8 d8 21 6b f7       	call   de41320 <pthread_create@plt>
    1678f181:	e8 4a 4f 6b f7       	call   de440d0 <pthread_attr_getdetachstate@plt>
    1678f3e4:	e8 47 1f 6b f7       	call   de41330 <pthread_join@plt>
    1678f6a5:	e8 86 1c 6b f7       	call   de41330 <pthread_join@plt>
    1678f8dd:	e8 1e 26 6b f7       	call   de41f00 <pthread_detach@plt>
    16790087:	e8 2a e7 ff ff       	call   1678e7b6 <boost::pthread::pthread_mutex_scoped_lock::pthread_mutex_scoped_lock(pthread_mutex_t*)>
    167900aa:	e8 f1 11 6b f7       	call   de412a0 <pthread_cond_broadcast@plt>
    167900ec:	e8 b3 e7 ff ff       	call   1678e8a4 <boost::pthread::pthread_mutex_scoped_lock::~pthread_mutex_scoped_lock()>
    16790124:	e8 7b e7 ff ff       	call   1678e8a4 <boost::pthread::pthread_mutex_scoped_lock::~pthread_mutex_scoped_lock()>
    16790ca2:	e8 c9 fa 6a f7       	call   de40770 <pthread_mutex_init@plt>
    16790ce8:	e8 53 05 6b f7       	call   de41240 <pthread_condattr_init@plt>
    16790d0a:	e8 41 05 6b f7       	call   de41250 <pthread_condattr_setclock@plt>
    16790d52:	e8 09 05 6b f7       	call   de41260 <pthread_cond_init@plt>
    16790d61:	e8 0a 05 6b f7       	call   de41270 <pthread_condattr_destroy@plt>
    16790dba:	e8 c1 f9 6a f7       	call   de40780 <pthread_mutex_destroy@plt>
    16790e8f:	e8 ec f8 6a f7       	call   de40780 <pthread_mutex_destroy@plt>
    16790ee8:	e8 c3 03 6b f7       	call   de412b0 <pthread_cond_destroy@plt>
000000001679133a <boost::detail::interruption_checker::interruption_checker(pthread_mutex_t*, pthread_cond_t*)>:
    16791380:	74 19                	je     1679139b <boost::detail::interruption_checker::interruption_checker(pthread_mutex_t*, pthread_cond_t*)+0x61>
    16791392:	74 07                	je     1679139b <boost::detail::interruption_checker::interruption_checker(pthread_mutex_t*, pthread_cond_t*)+0x61>
    16791399:	eb 05                	jmp    167913a0 <boost::detail::interruption_checker::interruption_checker(pthread_mutex_t*, pthread_cond_t*)+0x66>
    167913b9:	0f 84 b1 00 00 00    	je     16791470 <boost::detail::interruption_checker::interruption_checker(pthread_mutex_t*, pthread_cond_t*)+0x136>
    1679141c:	e8 8f f1 6a f7       	call   de405b0 <pthread_mutex_lock@plt>
    16791428:	74 eb                	je     16791415 <boost::detail::interruption_checker::interruption_checker(pthread_mutex_t*, pthread_cond_t*)+0xdb>
    16791438:	75 28                	jne    16791462 <boost::detail::interruption_checker::interruption_checker(pthread_mutex_t*, pthread_cond_t*)+0x128>
    1679146e:	eb 75                	jmp    167914e5 <boost::detail::interruption_checker::interruption_checker(pthread_mutex_t*, pthread_cond_t*)+0x1ab>
    16791483:	e8 28 f1 6a f7       	call   de405b0 <pthread_mutex_lock@plt>
    1679148f:	74 eb                	je     1679147c <boost::detail::interruption_checker::interruption_checker(pthread_mutex_t*, pthread_cond_t*)+0x142>
    1679149f:	75 44                	jne    167914e5 <boost::detail::interruption_checker::interruption_checker(pthread_mutex_t*, pthread_cond_t*)+0x1ab>
    167914c9:	eb 1a                	jmp    167914e5 <boost::detail::interruption_checker::interruption_checker(pthread_mutex_t*, pthread_cond_t*)+0x1ab>
    167914f3:	74 05                	je     167914fa <boost::detail::interruption_checker::interruption_checker(pthread_mutex_t*, pthread_cond_t*)+0x1c0>
    16791551:	e8 6a f0 6a f7       	call   de405c0 <pthread_mutex_unlock@plt>
    167915f6:	e8 c5 ef 6a f7       	call   de405c0 <pthread_mutex_unlock@plt>
    167916d3:	e8 62 fc ff ff       	call   1679133a <boost::detail::interruption_checker::interruption_checker(pthread_mutex_t*, pthread_cond_t*)>
    1679171e:	e8 6d fb 6a f7       	call   de41290 <pthread_cond_wait@plt>
    1679185f:	e8 d6 fa ff ff       	call   1679133a <boost::detail::interruption_checker::interruption_checker(pthread_mutex_t*, pthread_cond_t*)>
    167918c4:	e8 07 ed 6a f7       	call   de405d0 <pthread_cond_timedwait@plt>
    167919f1:	e8 c0 cd ff ff       	call   1678e7b6 <boost::pthread::pthread_mutex_scoped_lock::pthread_mutex_scoped_lock(pthread_mutex_t*)>
    16791a09:	e8 92 f8 6a f7       	call   de412a0 <pthread_cond_broadcast@plt>
    16791a4b:	e8 54 ce ff ff       	call   1678e8a4 <boost::pthread::pthread_mutex_scoped_lock::~pthread_mutex_scoped_lock()>
    16791a8f:	e8 22 cd ff ff       	call   1678e7b6 <boost::pthread::pthread_mutex_scoped_lock::pthread_mutex_scoped_lock(pthread_mutex_t*)>
    16791aa7:	e8 f4 f7 6a f7       	call   de412a0 <pthread_cond_broadcast@plt>
    16791ae9:	e8 b6 cd ff ff       	call   1678e8a4 <boost::pthread::pthread_mutex_scoped_lock::~pthread_mutex_scoped_lock()>
